ARM GAS  /tmp/ccATJ6mi.s 			page 1


   1              		.cpu cortex-m4
   2              		.eabi_attribute 27, 1
   3              		.eabi_attribute 28, 1
   4              		.eabi_attribute 20, 1
   5              		.eabi_attribute 21, 1
   6              		.eabi_attribute 23, 3
   7              		.eabi_attribute 24, 1
   8              		.eabi_attribute 25, 1
   9              		.eabi_attribute 26, 1
  10              		.eabi_attribute 30, 2
  11              		.eabi_attribute 34, 1
  12              		.eabi_attribute 18, 4
  13              		.file	"adc.c"
  14              		.text
  15              	.Ltext0:
  16              		.cfi_sections	.debug_frame
  17              		.section	.text.adcInit,"ax",%progbits
  18              		.align	1
  19              		.p2align 4,,15
  20              		.global	adcInit
  21              		.syntax unified
  22              		.thumb
  23              		.thumb_func
  24              		.fpu fpv4-sp-d16
  25              		.type	adcInit, %function
  26              	adcInit:
  27              	.LFB256:
  28              		.file 1 "../e-puck2_main-processor/ChibiOS//os/hal/src/adc.c"
  29              		.loc 1 56 0
  30              		.cfi_startproc
  31              		@ args = 0, pretend = 0, frame = 8
  32              		@ frame_needed = 0, uses_anonymous_args = 0
  33 0000 00B5     		push	{lr}
  34              		.cfi_def_cfa_offset 4
  35              		.cfi_offset 14, -4
  36 0002 074B     		ldr	r3, .L7
  37 0004 83B0     		sub	sp, sp, #12
  38              		.cfi_def_cfa_offset 16
  39              		.loc 1 56 0
  40 0006 1A68     		ldr	r2, [r3]
  41 0008 0192     		str	r2, [sp, #4]
  42              		.loc 1 58 0
  43 000a 019A     		ldr	r2, [sp, #4]
  44 000c 1B68     		ldr	r3, [r3]
  45 000e 9A42     		cmp	r2, r3
  46 0010 04D1     		bne	.L6
  47              		.loc 1 59 0
  48 0012 03B0     		add	sp, sp, #12
  49              		.cfi_remember_state
  50              		.cfi_def_cfa_offset 4
  51              		@ sp needed
  52 0014 5DF804EB 		ldr	lr, [sp], #4
  53              		.cfi_restore 14
  54              		.cfi_def_cfa_offset 0
  55              		.loc 1 58 0
  56 0018 FFF7FEBF 		b	adc_lld_init
  57              	.LVL0:
ARM GAS  /tmp/ccATJ6mi.s 			page 2


  58              	.L6:
  59              		.cfi_restore_state
  60 001c FFF7FEFF 		bl	__stack_chk_fail
  61              	.LVL1:
  62              	.L8:
  63              		.align	2
  64              	.L7:
  65 0020 00000000 		.word	__stack_chk_guard
  66              		.cfi_endproc
  67              	.LFE256:
  68              		.size	adcInit, .-adcInit
  69              		.section	.text.adcObjectInit,"ax",%progbits
  70              		.align	1
  71              		.p2align 4,,15
  72              		.global	adcObjectInit
  73              		.syntax unified
  74              		.thumb
  75              		.thumb_func
  76              		.fpu fpv4-sp-d16
  77              		.type	adcObjectInit, %function
  78              	adcObjectInit:
  79              	.LFB257:
  80              		.loc 1 68 0
  81              		.cfi_startproc
  82              		@ args = 0, pretend = 0, frame = 8
  83              		@ frame_needed = 0, uses_anonymous_args = 0
  84              	.LVL2:
  85 0000 00B5     		push	{lr}
  86              		.cfi_def_cfa_offset 4
  87              		.cfi_offset 14, -4
  88 0002 0C4B     		ldr	r3, .L14
  89 0004 83B0     		sub	sp, sp, #12
  90              		.cfi_def_cfa_offset 16
  91              		.loc 1 68 0
  92 0006 1A68     		ldr	r2, [r3]
  93 0008 0192     		str	r2, [sp, #4]
  94              		.loc 1 70 0
  95 000a 0122     		movs	r2, #1
  96 000c 0270     		strb	r2, [r0]
  97              	.LBB76:
  98              	.LBB77:
  99              		.file 2 "../e-puck2_main-processor/ChibiOS//os/hal/osal/rt/osal.h"
 100              		.loc 2 841 0
 101 000e 0199     		ldr	r1, [sp, #4]
 102 0010 1A68     		ldr	r2, [r3]
 103              	.LBE77:
 104              	.LBE76:
 105              		.loc 1 71 0
 106 0012 0023     		movs	r3, #0
 107              	.LBB81:
 108              	.LBB78:
 109              		.loc 2 841 0
 110 0014 9142     		cmp	r1, r2
 111              	.LBE78:
 112              	.LBE81:
 113              		.loc 1 72 0
 114 0016 C0E90133 		strd	r3, r3, [r0, #4]
ARM GAS  /tmp/ccATJ6mi.s 			page 3


 115              		.loc 1 74 0
 116 001a C0E90333 		strd	r3, r3, [r0, #12]
 117              		.loc 1 76 0
 118 001e 4361     		str	r3, [r0, #20]
 119              	.LVL3:
 120              	.LBB82:
 121              	.LBB79:
 122              		.loc 2 841 0
 123 0020 05D1     		bne	.L13
 124 0022 1830     		adds	r0, r0, #24
 125              	.LVL4:
 126              	.LBE79:
 127              	.LBE82:
 128              		.loc 1 84 0
 129 0024 03B0     		add	sp, sp, #12
 130              		.cfi_remember_state
 131              		.cfi_def_cfa_offset 4
 132              		@ sp needed
 133 0026 5DF804EB 		ldr	lr, [sp], #4
 134              		.cfi_restore 14
 135              		.cfi_def_cfa_offset 0
 136              	.LBB83:
 137              	.LBB80:
 138              		.loc 2 841 0
 139 002a FFF7FEBF 		b	chMtxObjectInit
 140              	.LVL5:
 141              	.L13:
 142              		.cfi_restore_state
 143 002e FFF7FEFF 		bl	__stack_chk_fail
 144              	.LVL6:
 145              	.L15:
 146 0032 00BF     		.align	2
 147              	.L14:
 148 0034 00000000 		.word	__stack_chk_guard
 149              	.LBE80:
 150              	.LBE83:
 151              		.cfi_endproc
 152              	.LFE257:
 153              		.size	adcObjectInit, .-adcObjectInit
 154              		.section	.text.adcStart,"ax",%progbits
 155              		.align	1
 156              		.p2align 4,,15
 157              		.global	adcStart
 158              		.syntax unified
 159              		.thumb
 160              		.thumb_func
 161              		.fpu fpv4-sp-d16
 162              		.type	adcStart, %function
 163              	adcStart:
 164              	.LFB258:
 165              		.loc 1 95 0
 166              		.cfi_startproc
 167              		@ args = 0, pretend = 0, frame = 8
 168              		@ frame_needed = 0, uses_anonymous_args = 0
 169              	.LVL7:
 170 0000 70B5     		push	{r4, r5, r6, lr}
 171              		.cfi_def_cfa_offset 16
ARM GAS  /tmp/ccATJ6mi.s 			page 4


 172              		.cfi_offset 4, -16
 173              		.cfi_offset 5, -12
 174              		.cfi_offset 6, -8
 175              		.cfi_offset 14, -4
 176 0002 1D4D     		ldr	r5, .L25
 177 0004 82B0     		sub	sp, sp, #8
 178              		.cfi_def_cfa_offset 24
 179              		.loc 1 95 0
 180 0006 2B68     		ldr	r3, [r5]
 181 0008 0193     		str	r3, [sp, #4]
 182 000a 0E46     		mov	r6, r1
 183              		.loc 1 97 0
 184 000c 0446     		mov	r4, r0
 185 000e 68B3     		cbz	r0, .L22
 186              	.LVL8:
 187              	.L17:
 188              	.LBB97:
 189              	.LBB98:
 190              	.LBB99:
 191              	.LBB100:
 192              	.LBB101:
 193              	.LBB102:
 194              		.file 3 "../e-puck2_main-processor/ChibiOS//os/ext/CMSIS/include/core_cmFunc.h"
 195              		.loc 3 546 0
 196 0010 2023     		movs	r3, #32
 197              		.syntax unified
 198              	@ 546 "../e-puck2_main-processor/ChibiOS//os/ext/CMSIS/include/core_cmFunc.h" 1
 199 0012 83F31188 		MSR basepri, r3
 200              	@ 0 "" 2
 201              	.LVL9:
 202              		.thumb
 203              		.syntax unified
 204              	.LBE102:
 205              	.LBE101:
 206              	.LBE100:
 207              		.file 4 "../e-puck2_main-processor/ChibiOS//os/rt/include/chsys.h"
 208              		.loc 4 349 0
 209 0016 FFF7FEFF 		bl	_stats_start_measure_crit_thd
 210              	.LVL10:
 211              		.loc 4 350 0
 212 001a FFF7FEFF 		bl	_dbg_check_lock
 213              	.LVL11:
 214              	.LBE99:
 215              	.LBE98:
 216              	.LBE97:
 217              		.loc 1 100 0
 218 001e 2378     		ldrb	r3, [r4]	@ zero_extendqisi2
 219 0020 013B     		subs	r3, r3, #1
 220 0022 012B     		cmp	r3, #1
 221 0024 02D9     		bls	.L18
 222              		.loc 1 100 0 is_stmt 0 discriminator 2
 223 0026 1548     		ldr	r0, .L25+4
 224 0028 FFF7FEFF 		bl	chSysHalt
 225              	.LVL12:
 226              	.L18:
 227              		.loc 1 103 0 is_stmt 1
 228 002c 2046     		mov	r0, r4
ARM GAS  /tmp/ccATJ6mi.s 			page 5


 229              		.loc 1 102 0
 230 002e 6660     		str	r6, [r4, #4]
 231              		.loc 1 103 0
 232 0030 FFF7FEFF 		bl	adc_lld_start
 233              	.LVL13:
 234              		.loc 1 104 0
 235 0034 0223     		movs	r3, #2
 236 0036 2370     		strb	r3, [r4]
 237              	.LBB103:
 238              	.LBB104:
 239              	.LBB105:
 240              		.loc 4 360 0
 241 0038 FFF7FEFF 		bl	_dbg_check_unlock
 242              	.LVL14:
 243              		.loc 4 361 0
 244 003c FFF7FEFF 		bl	_stats_stop_measure_crit_thd
 245              	.LVL15:
 246              		.loc 4 367 0
 247 0040 0F4B     		ldr	r3, .L25+8
 248 0042 1A68     		ldr	r2, [r3]
 249 0044 9A42     		cmp	r2, r3
 250 0046 04D0     		beq	.L19
 251 0048 9969     		ldr	r1, [r3, #24]
 252 004a 9368     		ldr	r3, [r2, #8]
 253 004c 8A68     		ldr	r2, [r1, #8]
 254 004e 9A42     		cmp	r2, r3
 255 0050 08D3     		bcc	.L23
 256              	.L19:
 257              	.LVL16:
 258              	.LBB106:
 259              	.LBB107:
 260              	.LBB108:
 261              		.loc 3 546 0
 262 0052 0023     		movs	r3, #0
 263              		.syntax unified
 264              	@ 546 "../e-puck2_main-processor/ChibiOS//os/ext/CMSIS/include/core_cmFunc.h" 1
 265 0054 83F31188 		MSR basepri, r3
 266              	@ 0 "" 2
 267              	.LVL17:
 268              		.thumb
 269              		.syntax unified
 270              	.LBE108:
 271              	.LBE107:
 272              	.LBE106:
 273              	.LBE105:
 274              	.LBE104:
 275              	.LBE103:
 276              		.loc 1 106 0
 277 0058 019A     		ldr	r2, [sp, #4]
 278 005a 2B68     		ldr	r3, [r5]
 279 005c 9A42     		cmp	r2, r3
 280 005e 09D1     		bne	.L24
 281 0060 02B0     		add	sp, sp, #8
 282              		.cfi_remember_state
 283              		.cfi_def_cfa_offset 16
 284              		@ sp needed
 285 0062 70BD     		pop	{r4, r5, r6, pc}
ARM GAS  /tmp/ccATJ6mi.s 			page 6


 286              	.LVL18:
 287              	.L23:
 288              		.cfi_restore_state
 289              	.LBB111:
 290              	.LBB110:
 291              	.LBB109:
 292              		.loc 4 367 0
 293 0064 0748     		ldr	r0, .L25+12
 294 0066 FFF7FEFF 		bl	chSysHalt
 295              	.LVL19:
 296 006a F2E7     		b	.L19
 297              	.LVL20:
 298              	.L22:
 299              	.LBE109:
 300              	.LBE110:
 301              	.LBE111:
 302              		.loc 1 97 0 discriminator 2
 303 006c 0348     		ldr	r0, .L25+4
 304              	.LVL21:
 305 006e FFF7FEFF 		bl	chSysHalt
 306              	.LVL22:
 307 0072 CDE7     		b	.L17
 308              	.L24:
 309              		.loc 1 106 0
 310 0074 FFF7FEFF 		bl	__stack_chk_fail
 311              	.LVL23:
 312              	.L26:
 313              		.align	2
 314              	.L25:
 315 0078 00000000 		.word	__stack_chk_guard
 316 007c 00000000 		.word	.LANCHOR0
 317 0080 00000000 		.word	ch
 318 0084 00000000 		.word	.LANCHOR1
 319              		.cfi_endproc
 320              	.LFE258:
 321              		.size	adcStart, .-adcStart
 322              		.section	.text.adcStop,"ax",%progbits
 323              		.align	1
 324              		.p2align 4,,15
 325              		.global	adcStop
 326              		.syntax unified
 327              		.thumb
 328              		.thumb_func
 329              		.fpu fpv4-sp-d16
 330              		.type	adcStop, %function
 331              	adcStop:
 332              	.LFB259:
 333              		.loc 1 115 0
 334              		.cfi_startproc
 335              		@ args = 0, pretend = 0, frame = 8
 336              		@ frame_needed = 0, uses_anonymous_args = 0
 337              	.LVL24:
 338 0000 30B5     		push	{r4, r5, lr}
 339              		.cfi_def_cfa_offset 12
 340              		.cfi_offset 4, -12
 341              		.cfi_offset 5, -8
 342              		.cfi_offset 14, -4
ARM GAS  /tmp/ccATJ6mi.s 			page 7


 343 0002 1C4D     		ldr	r5, .L36
 344 0004 83B0     		sub	sp, sp, #12
 345              		.cfi_def_cfa_offset 24
 346              		.loc 1 115 0
 347 0006 2B68     		ldr	r3, [r5]
 348 0008 0193     		str	r3, [sp, #4]
 349              		.loc 1 117 0
 350 000a 0446     		mov	r4, r0
 351 000c 60B3     		cbz	r0, .L33
 352              	.LVL25:
 353              	.L28:
 354              	.LBB125:
 355              	.LBB126:
 356              	.LBB127:
 357              	.LBB128:
 358              	.LBB129:
 359              	.LBB130:
 360              		.loc 3 546 0
 361 000e 2023     		movs	r3, #32
 362              		.syntax unified
 363              	@ 546 "../e-puck2_main-processor/ChibiOS//os/ext/CMSIS/include/core_cmFunc.h" 1
 364 0010 83F31188 		MSR basepri, r3
 365              	@ 0 "" 2
 366              	.LVL26:
 367              		.thumb
 368              		.syntax unified
 369              	.LBE130:
 370              	.LBE129:
 371              	.LBE128:
 372              		.loc 4 349 0
 373 0014 FFF7FEFF 		bl	_stats_start_measure_crit_thd
 374              	.LVL27:
 375              		.loc 4 350 0
 376 0018 FFF7FEFF 		bl	_dbg_check_lock
 377              	.LVL28:
 378              	.LBE127:
 379              	.LBE126:
 380              	.LBE125:
 381              		.loc 1 120 0
 382 001c 2378     		ldrb	r3, [r4]	@ zero_extendqisi2
 383 001e 013B     		subs	r3, r3, #1
 384 0020 012B     		cmp	r3, #1
 385 0022 02D9     		bls	.L29
 386              		.loc 1 120 0 is_stmt 0 discriminator 2
 387 0024 1448     		ldr	r0, .L36+4
 388 0026 FFF7FEFF 		bl	chSysHalt
 389              	.LVL29:
 390              	.L29:
 391              		.loc 1 122 0 is_stmt 1
 392 002a 2046     		mov	r0, r4
 393 002c FFF7FEFF 		bl	adc_lld_stop
 394              	.LVL30:
 395              		.loc 1 123 0
 396 0030 0123     		movs	r3, #1
 397 0032 2370     		strb	r3, [r4]
 398              	.LBB131:
 399              	.LBB132:
ARM GAS  /tmp/ccATJ6mi.s 			page 8


 400              	.LBB133:
 401              		.loc 4 360 0
 402 0034 FFF7FEFF 		bl	_dbg_check_unlock
 403              	.LVL31:
 404              		.loc 4 361 0
 405 0038 FFF7FEFF 		bl	_stats_stop_measure_crit_thd
 406              	.LVL32:
 407              		.loc 4 367 0
 408 003c 0F4B     		ldr	r3, .L36+8
 409 003e 1A68     		ldr	r2, [r3]
 410 0040 9A42     		cmp	r2, r3
 411 0042 04D0     		beq	.L30
 412 0044 9969     		ldr	r1, [r3, #24]
 413 0046 9368     		ldr	r3, [r2, #8]
 414 0048 8A68     		ldr	r2, [r1, #8]
 415 004a 9A42     		cmp	r2, r3
 416 004c 08D3     		bcc	.L34
 417              	.L30:
 418              	.LVL33:
 419              	.LBB134:
 420              	.LBB135:
 421              	.LBB136:
 422              		.loc 3 546 0
 423 004e 0023     		movs	r3, #0
 424              		.syntax unified
 425              	@ 546 "../e-puck2_main-processor/ChibiOS//os/ext/CMSIS/include/core_cmFunc.h" 1
 426 0050 83F31188 		MSR basepri, r3
 427              	@ 0 "" 2
 428              	.LVL34:
 429              		.thumb
 430              		.syntax unified
 431              	.LBE136:
 432              	.LBE135:
 433              	.LBE134:
 434              	.LBE133:
 435              	.LBE132:
 436              	.LBE131:
 437              		.loc 1 125 0
 438 0054 019A     		ldr	r2, [sp, #4]
 439 0056 2B68     		ldr	r3, [r5]
 440 0058 9A42     		cmp	r2, r3
 441 005a 09D1     		bne	.L35
 442 005c 03B0     		add	sp, sp, #12
 443              		.cfi_remember_state
 444              		.cfi_def_cfa_offset 12
 445              		@ sp needed
 446 005e 30BD     		pop	{r4, r5, pc}
 447              	.LVL35:
 448              	.L34:
 449              		.cfi_restore_state
 450              	.LBB139:
 451              	.LBB138:
 452              	.LBB137:
 453              		.loc 4 367 0
 454 0060 0748     		ldr	r0, .L36+12
 455 0062 FFF7FEFF 		bl	chSysHalt
 456              	.LVL36:
ARM GAS  /tmp/ccATJ6mi.s 			page 9


 457 0066 F2E7     		b	.L30
 458              	.LVL37:
 459              	.L33:
 460              	.LBE137:
 461              	.LBE138:
 462              	.LBE139:
 463              		.loc 1 117 0 discriminator 2
 464 0068 0348     		ldr	r0, .L36+4
 465              	.LVL38:
 466 006a FFF7FEFF 		bl	chSysHalt
 467              	.LVL39:
 468 006e CEE7     		b	.L28
 469              	.L35:
 470              		.loc 1 125 0
 471 0070 FFF7FEFF 		bl	__stack_chk_fail
 472              	.LVL40:
 473              	.L37:
 474              		.align	2
 475              	.L36:
 476 0074 00000000 		.word	__stack_chk_guard
 477 0078 00000000 		.word	.LANCHOR2
 478 007c 00000000 		.word	ch
 479 0080 00000000 		.word	.LANCHOR1
 480              		.cfi_endproc
 481              	.LFE259:
 482              		.size	adcStop, .-adcStop
 483              		.section	.text.adcStartConversionI,"ax",%progbits
 484              		.align	1
 485              		.p2align 4,,15
 486              		.global	adcStartConversionI
 487              		.syntax unified
 488              		.thumb
 489              		.thumb_func
 490              		.fpu fpv4-sp-d16
 491              		.type	adcStartConversionI, %function
 492              	adcStartConversionI:
 493              	.LFB261:
 494              		.loc 1 174 0
 495              		.cfi_startproc
 496              		@ args = 0, pretend = 0, frame = 8
 497              		@ frame_needed = 0, uses_anonymous_args = 0
 498              	.LVL41:
 499 0000 2DE9F041 		push	{r4, r5, r6, r7, r8, lr}
 500              		.cfi_def_cfa_offset 24
 501              		.cfi_offset 4, -24
 502              		.cfi_offset 5, -20
 503              		.cfi_offset 6, -16
 504              		.cfi_offset 7, -12
 505              		.cfi_offset 8, -8
 506              		.cfi_offset 14, -4
 507 0004 174D     		ldr	r5, .L64
 508 0006 82B0     		sub	sp, sp, #8
 509              		.cfi_def_cfa_offset 32
 510              		.loc 1 174 0
 511 0008 0446     		mov	r4, r0
 512 000a 2868     		ldr	r0, [r5]
 513              	.LVL42:
ARM GAS  /tmp/ccATJ6mi.s 			page 10


 514 000c 0190     		str	r0, [sp, #4]
 515 000e 0E46     		mov	r6, r1
 516 0010 9046     		mov	r8, r2
 517 0012 1F46     		mov	r7, r3
 518              		.loc 1 176 0
 519 0014 FFF7FEFF 		bl	chDbgCheckClassI
 520              	.LVL43:
 521              		.loc 1 177 0
 522 0018 3CB1     		cbz	r4, .L39
 523              		.loc 1 177 0 is_stmt 0 discriminator 3
 524 001a 36B1     		cbz	r6, .L39
 525              		.loc 1 177 0 discriminator 5
 526 001c B8F1000F 		cmp	r8, #0
 527 0020 03D0     		beq	.L39
 528              		.loc 1 177 0 discriminator 7
 529 0022 012F     		cmp	r7, #1
 530 0024 04D0     		beq	.L40
 531              		.loc 1 177 0 discriminator 8
 532 0026 FB07     		lsls	r3, r7, #31
 533 0028 02D5     		bpl	.L40
 534              	.L39:
 535              		.loc 1 177 0 discriminator 9
 536 002a 0F48     		ldr	r0, .L64+4
 537 002c FFF7FEFF 		bl	chSysHalt
 538              	.LVL44:
 539              	.L40:
 540              		.loc 1 179 0 is_stmt 1 discriminator 1
 541 0030 2378     		ldrb	r3, [r4]	@ zero_extendqisi2
 542 0032 022B     		cmp	r3, #2
 543 0034 05D0     		beq	.L41
 544              		.loc 1 179 0 is_stmt 0 discriminator 2
 545 0036 043B     		subs	r3, r3, #4
 546 0038 012B     		cmp	r3, #1
 547 003a 02D9     		bls	.L41
 548              		.loc 1 179 0 discriminator 4
 549 003c 0A48     		ldr	r0, .L64+4
 550 003e FFF7FEFF 		bl	chSysHalt
 551              	.LVL45:
 552              	.L41:
 553              		.loc 1 187 0 is_stmt 1
 554 0042 0323     		movs	r3, #3
 555 0044 2370     		strb	r3, [r4]
 556              		.loc 1 188 0
 557 0046 019A     		ldr	r2, [sp, #4]
 558 0048 2B68     		ldr	r3, [r5]
 559              		.loc 1 186 0
 560 004a 2661     		str	r6, [r4, #16]
 561              		.loc 1 188 0
 562 004c 9A42     		cmp	r2, r3
 563              		.loc 1 185 0
 564 004e C4E90287 		strd	r8, r7, [r4, #8]
 565              		.loc 1 188 0
 566 0052 05D1     		bne	.L63
 567 0054 2046     		mov	r0, r4
 568              		.loc 1 189 0
 569 0056 02B0     		add	sp, sp, #8
 570              		.cfi_remember_state
ARM GAS  /tmp/ccATJ6mi.s 			page 11


 571              		.cfi_def_cfa_offset 24
 572              		@ sp needed
 573 0058 BDE8F041 		pop	{r4, r5, r6, r7, r8, lr}
 574              		.cfi_restore 14
 575              		.cfi_restore 8
 576              		.cfi_restore 7
 577              		.cfi_restore 6
 578              		.cfi_restore 5
 579              		.cfi_restore 4
 580              		.cfi_def_cfa_offset 0
 581              	.LVL46:
 582              		.loc 1 188 0
 583 005c FFF7FEBF 		b	adc_lld_start_conversion
 584              	.LVL47:
 585              	.L63:
 586              		.cfi_restore_state
 587 0060 FFF7FEFF 		bl	__stack_chk_fail
 588              	.LVL48:
 589              	.L65:
 590              		.align	2
 591              	.L64:
 592 0064 00000000 		.word	__stack_chk_guard
 593 0068 00000000 		.word	.LANCHOR3
 594              		.cfi_endproc
 595              	.LFE261:
 596              		.size	adcStartConversionI, .-adcStartConversionI
 597              		.section	.text.adcStartConversion,"ax",%progbits
 598              		.align	1
 599              		.p2align 4,,15
 600              		.global	adcStartConversion
 601              		.syntax unified
 602              		.thumb
 603              		.thumb_func
 604              		.fpu fpv4-sp-d16
 605              		.type	adcStartConversion, %function
 606              	adcStartConversion:
 607              	.LFB260:
 608              		.loc 1 146 0
 609              		.cfi_startproc
 610              		@ args = 0, pretend = 0, frame = 8
 611              		@ frame_needed = 0, uses_anonymous_args = 0
 612              	.LVL49:
 613 0000 2DE9F041 		push	{r4, r5, r6, r7, r8, lr}
 614              		.cfi_def_cfa_offset 24
 615              		.cfi_offset 4, -24
 616              		.cfi_offset 5, -20
 617              		.cfi_offset 6, -16
 618              		.cfi_offset 7, -12
 619              		.cfi_offset 8, -8
 620              		.cfi_offset 14, -4
 621 0004 184C     		ldr	r4, .L72
 622 0006 82B0     		sub	sp, sp, #8
 623              		.cfi_def_cfa_offset 32
 624              		.loc 1 146 0
 625 0008 2568     		ldr	r5, [r4]
 626 000a 0195     		str	r5, [sp, #4]
 627              	.LVL50:
ARM GAS  /tmp/ccATJ6mi.s 			page 12


 628 000c 9846     		mov	r8, r3
 629 000e 0546     		mov	r5, r0
 630 0010 0E46     		mov	r6, r1
 631 0012 1746     		mov	r7, r2
 632              	.LBB153:
 633              	.LBB154:
 634              	.LBB155:
 635              	.LBB156:
 636              	.LBB157:
 637              	.LBB158:
 638              		.loc 3 546 0
 639 0014 2023     		movs	r3, #32
 640              	.LVL51:
 641              		.syntax unified
 642              	@ 546 "../e-puck2_main-processor/ChibiOS//os/ext/CMSIS/include/core_cmFunc.h" 1
 643 0016 83F31188 		MSR basepri, r3
 644              	@ 0 "" 2
 645              	.LVL52:
 646              		.thumb
 647              		.syntax unified
 648              	.LBE158:
 649              	.LBE157:
 650              	.LBE156:
 651              		.loc 4 349 0
 652 001a FFF7FEFF 		bl	_stats_start_measure_crit_thd
 653              	.LVL53:
 654              		.loc 4 350 0
 655 001e FFF7FEFF 		bl	_dbg_check_lock
 656              	.LVL54:
 657              	.LBE155:
 658              	.LBE154:
 659              	.LBE153:
 660              		.loc 1 149 0
 661 0022 4346     		mov	r3, r8
 662 0024 3A46     		mov	r2, r7
 663 0026 3146     		mov	r1, r6
 664 0028 2846     		mov	r0, r5
 665 002a FFF7FEFF 		bl	adcStartConversionI
 666              	.LVL55:
 667              	.LBB159:
 668              	.LBB160:
 669              	.LBB161:
 670              		.loc 4 360 0
 671 002e FFF7FEFF 		bl	_dbg_check_unlock
 672              	.LVL56:
 673              		.loc 4 361 0
 674 0032 FFF7FEFF 		bl	_stats_stop_measure_crit_thd
 675              	.LVL57:
 676              		.loc 4 367 0
 677 0036 0D4B     		ldr	r3, .L72+4
 678 0038 1A68     		ldr	r2, [r3]
 679 003a 9A42     		cmp	r2, r3
 680 003c 04D0     		beq	.L67
 681 003e 9969     		ldr	r1, [r3, #24]
 682 0040 9368     		ldr	r3, [r2, #8]
 683 0042 8A68     		ldr	r2, [r1, #8]
 684 0044 9A42     		cmp	r2, r3
ARM GAS  /tmp/ccATJ6mi.s 			page 13


 685 0046 09D3     		bcc	.L70
 686              	.L67:
 687              	.LVL58:
 688              	.LBB162:
 689              	.LBB163:
 690              	.LBB164:
 691              		.loc 3 546 0
 692 0048 0023     		movs	r3, #0
 693              		.syntax unified
 694              	@ 546 "../e-puck2_main-processor/ChibiOS//os/ext/CMSIS/include/core_cmFunc.h" 1
 695 004a 83F31188 		MSR basepri, r3
 696              	@ 0 "" 2
 697              	.LVL59:
 698              		.thumb
 699              		.syntax unified
 700              	.LBE164:
 701              	.LBE163:
 702              	.LBE162:
 703              	.LBE161:
 704              	.LBE160:
 705              	.LBE159:
 706              		.loc 1 151 0
 707 004e 019A     		ldr	r2, [sp, #4]
 708 0050 2368     		ldr	r3, [r4]
 709 0052 9A42     		cmp	r2, r3
 710 0054 06D1     		bne	.L71
 711 0056 02B0     		add	sp, sp, #8
 712              		.cfi_remember_state
 713              		.cfi_def_cfa_offset 24
 714              		@ sp needed
 715 0058 BDE8F081 		pop	{r4, r5, r6, r7, r8, pc}
 716              	.LVL60:
 717              	.L70:
 718              		.cfi_restore_state
 719              	.LBB167:
 720              	.LBB166:
 721              	.LBB165:
 722              		.loc 4 367 0
 723 005c 0448     		ldr	r0, .L72+8
 724 005e FFF7FEFF 		bl	chSysHalt
 725              	.LVL61:
 726 0062 F1E7     		b	.L67
 727              	.L71:
 728              	.LBE165:
 729              	.LBE166:
 730              	.LBE167:
 731              		.loc 1 151 0
 732 0064 FFF7FEFF 		bl	__stack_chk_fail
 733              	.LVL62:
 734              	.L73:
 735              		.align	2
 736              	.L72:
 737 0068 00000000 		.word	__stack_chk_guard
 738 006c 00000000 		.word	ch
 739 0070 00000000 		.word	.LANCHOR1
 740              		.cfi_endproc
 741              	.LFE260:
ARM GAS  /tmp/ccATJ6mi.s 			page 14


 742              		.size	adcStartConversion, .-adcStartConversion
 743              		.section	.text.adcStopConversion,"ax",%progbits
 744              		.align	1
 745              		.p2align 4,,15
 746              		.global	adcStopConversion
 747              		.syntax unified
 748              		.thumb
 749              		.thumb_func
 750              		.fpu fpv4-sp-d16
 751              		.type	adcStopConversion, %function
 752              	adcStopConversion:
 753              	.LFB262:
 754              		.loc 1 201 0
 755              		.cfi_startproc
 756              		@ args = 0, pretend = 0, frame = 8
 757              		@ frame_needed = 0, uses_anonymous_args = 0
 758              	.LVL63:
 759 0000 30B5     		push	{r4, r5, lr}
 760              		.cfi_def_cfa_offset 12
 761              		.cfi_offset 4, -12
 762              		.cfi_offset 5, -8
 763              		.cfi_offset 14, -4
 764 0002 224D     		ldr	r5, .L87
 765 0004 83B0     		sub	sp, sp, #12
 766              		.cfi_def_cfa_offset 24
 767              		.loc 1 201 0
 768 0006 2B68     		ldr	r3, [r5]
 769 0008 0193     		str	r3, [sp, #4]
 770              		.loc 1 203 0
 771 000a 0446     		mov	r4, r0
 772 000c 0028     		cmp	r0, #0
 773 000e 37D0     		beq	.L84
 774              	.LVL64:
 775              	.L75:
 776              	.LBB183:
 777              	.LBB184:
 778              	.LBB185:
 779              	.LBB186:
 780              	.LBB187:
 781              	.LBB188:
 782              		.loc 3 546 0
 783 0010 2023     		movs	r3, #32
 784              		.syntax unified
 785              	@ 546 "../e-puck2_main-processor/ChibiOS//os/ext/CMSIS/include/core_cmFunc.h" 1
 786 0012 83F31188 		MSR basepri, r3
 787              	@ 0 "" 2
 788              	.LVL65:
 789              		.thumb
 790              		.syntax unified
 791              	.LBE188:
 792              	.LBE187:
 793              	.LBE186:
 794              		.loc 4 349 0
 795 0016 FFF7FEFF 		bl	_stats_start_measure_crit_thd
 796              	.LVL66:
 797              		.loc 4 350 0
 798 001a FFF7FEFF 		bl	_dbg_check_lock
ARM GAS  /tmp/ccATJ6mi.s 			page 15


 799              	.LVL67:
 800              	.LBE185:
 801              	.LBE184:
 802              	.LBE183:
 803              		.loc 1 206 0
 804 001e 2378     		ldrb	r3, [r4]	@ zero_extendqisi2
 805 0020 9A1E     		subs	r2, r3, #2
 806 0022 012A     		cmp	r2, #1
 807 0024 03D9     		bls	.L76
 808              		.loc 1 206 0 is_stmt 0 discriminator 2
 809 0026 1A48     		ldr	r0, .L87+4
 810 0028 FFF7FEFF 		bl	chSysHalt
 811              	.LVL68:
 812 002c 2378     		ldrb	r3, [r4]	@ zero_extendqisi2
 813              	.L76:
 814              		.loc 1 208 0 is_stmt 1
 815 002e 022B     		cmp	r3, #2
 816 0030 0CD0     		beq	.L77
 817              		.loc 1 209 0
 818 0032 2046     		mov	r0, r4
 819 0034 FFF7FEFF 		bl	adc_lld_stop_conversion
 820              	.LVL69:
 821              		.loc 1 211 0
 822 0038 2046     		mov	r0, r4
 823              		.loc 1 210 0
 824 003a 0022     		movs	r2, #0
 825              		.loc 1 211 0
 826 003c 0223     		movs	r3, #2
 827              		.loc 1 210 0
 828 003e 2261     		str	r2, [r4, #16]
 829              	.LBB189:
 830              	.LBB190:
 831              		.loc 2 697 0
 832 0040 6FF00101 		mvn	r1, #1
 833              	.LBE190:
 834              	.LBE189:
 835              		.loc 1 211 0
 836 0044 00F8143B 		strb	r3, [r0], #20
 837              	.LVL70:
 838              	.LBB192:
 839              	.LBB191:
 840              		.loc 2 697 0
 841 0048 FFF7FEFF 		bl	chThdResumeS
 842              	.LVL71:
 843              	.L77:
 844              	.LBE191:
 845              	.LBE192:
 846              	.LBB193:
 847              	.LBB194:
 848              	.LBB195:
 849              		.loc 4 360 0
 850 004c FFF7FEFF 		bl	_dbg_check_unlock
 851              	.LVL72:
 852              		.loc 4 361 0
 853 0050 FFF7FEFF 		bl	_stats_stop_measure_crit_thd
 854              	.LVL73:
 855              		.loc 4 367 0
ARM GAS  /tmp/ccATJ6mi.s 			page 16


 856 0054 0F4B     		ldr	r3, .L87+8
 857 0056 1A68     		ldr	r2, [r3]
 858 0058 9A42     		cmp	r2, r3
 859 005a 04D0     		beq	.L78
 860 005c 9969     		ldr	r1, [r3, #24]
 861 005e 9368     		ldr	r3, [r2, #8]
 862 0060 8A68     		ldr	r2, [r1, #8]
 863 0062 9A42     		cmp	r2, r3
 864 0064 08D3     		bcc	.L85
 865              	.L78:
 866              	.LVL74:
 867              	.LBB196:
 868              	.LBB197:
 869              	.LBB198:
 870              		.loc 3 546 0
 871 0066 0023     		movs	r3, #0
 872              		.syntax unified
 873              	@ 546 "../e-puck2_main-processor/ChibiOS//os/ext/CMSIS/include/core_cmFunc.h" 1
 874 0068 83F31188 		MSR basepri, r3
 875              	@ 0 "" 2
 876              	.LVL75:
 877              		.thumb
 878              		.syntax unified
 879              	.LBE198:
 880              	.LBE197:
 881              	.LBE196:
 882              	.LBE195:
 883              	.LBE194:
 884              	.LBE193:
 885              		.loc 1 215 0
 886 006c 019A     		ldr	r2, [sp, #4]
 887 006e 2B68     		ldr	r3, [r5]
 888 0070 9A42     		cmp	r2, r3
 889 0072 09D1     		bne	.L86
 890 0074 03B0     		add	sp, sp, #12
 891              		.cfi_remember_state
 892              		.cfi_def_cfa_offset 12
 893              		@ sp needed
 894 0076 30BD     		pop	{r4, r5, pc}
 895              	.LVL76:
 896              	.L85:
 897              		.cfi_restore_state
 898              	.LBB201:
 899              	.LBB200:
 900              	.LBB199:
 901              		.loc 4 367 0
 902 0078 0748     		ldr	r0, .L87+12
 903 007a FFF7FEFF 		bl	chSysHalt
 904              	.LVL77:
 905 007e F2E7     		b	.L78
 906              	.LVL78:
 907              	.L84:
 908              	.LBE199:
 909              	.LBE200:
 910              	.LBE201:
 911              		.loc 1 203 0 discriminator 2
 912 0080 0348     		ldr	r0, .L87+4
ARM GAS  /tmp/ccATJ6mi.s 			page 17


 913              	.LVL79:
 914 0082 FFF7FEFF 		bl	chSysHalt
 915              	.LVL80:
 916 0086 C3E7     		b	.L75
 917              	.L86:
 918              		.loc 1 215 0
 919 0088 FFF7FEFF 		bl	__stack_chk_fail
 920              	.LVL81:
 921              	.L88:
 922              		.align	2
 923              	.L87:
 924 008c 00000000 		.word	__stack_chk_guard
 925 0090 00000000 		.word	.LANCHOR4
 926 0094 00000000 		.word	ch
 927 0098 00000000 		.word	.LANCHOR1
 928              		.cfi_endproc
 929              	.LFE262:
 930              		.size	adcStopConversion, .-adcStopConversion
 931              		.section	.text.adcStopConversionI,"ax",%progbits
 932              		.align	1
 933              		.p2align 4,,15
 934              		.global	adcStopConversionI
 935              		.syntax unified
 936              		.thumb
 937              		.thumb_func
 938              		.fpu fpv4-sp-d16
 939              		.type	adcStopConversionI, %function
 940              	adcStopConversionI:
 941              	.LFB263:
 942              		.loc 1 227 0
 943              		.cfi_startproc
 944              		@ args = 0, pretend = 0, frame = 8
 945              		@ frame_needed = 0, uses_anonymous_args = 0
 946              	.LVL82:
 947 0000 30B5     		push	{r4, r5, lr}
 948              		.cfi_def_cfa_offset 12
 949              		.cfi_offset 4, -12
 950              		.cfi_offset 5, -8
 951              		.cfi_offset 14, -4
 952 0002 194D     		ldr	r5, .L99
 953 0004 83B0     		sub	sp, sp, #12
 954              		.cfi_def_cfa_offset 24
 955              		.loc 1 227 0
 956 0006 0446     		mov	r4, r0
 957 0008 2B68     		ldr	r3, [r5]
 958 000a 0193     		str	r3, [sp, #4]
 959              		.loc 1 229 0
 960 000c FFF7FEFF 		bl	chDbgCheckClassI
 961              	.LVL83:
 962              		.loc 1 230 0
 963 0010 24B3     		cbz	r4, .L97
 964              	.L90:
 965              		.loc 1 231 0 discriminator 1
 966 0012 2378     		ldrb	r3, [r4]	@ zero_extendqisi2
 967 0014 9A1E     		subs	r2, r3, #2
 968 0016 022A     		cmp	r2, #2
 969 0018 1BD8     		bhi	.L98
ARM GAS  /tmp/ccATJ6mi.s 			page 18


 970              	.L91:
 971              		.loc 1 236 0
 972 001a 022B     		cmp	r3, #2
 973 001c 13D0     		beq	.L89
 974              		.loc 1 237 0
 975 001e 2046     		mov	r0, r4
 976 0020 FFF7FEFF 		bl	adc_lld_stop_conversion
 977              	.LVL84:
 978              		.loc 1 239 0
 979 0024 0223     		movs	r3, #2
 980 0026 2370     		strb	r3, [r4]
 981              	.LVL85:
 982              	.LBB202:
 983              	.LBB203:
 984              		.loc 2 682 0
 985 0028 019A     		ldr	r2, [sp, #4]
 986 002a 2B68     		ldr	r3, [r5]
 987              	.LBE203:
 988              	.LBE202:
 989              		.loc 1 238 0
 990 002c 0021     		movs	r1, #0
 991              	.LBB207:
 992              	.LBB204:
 993              		.loc 2 682 0
 994 002e 9A42     		cmp	r2, r3
 995              	.LBE204:
 996              	.LBE207:
 997              		.loc 1 238 0
 998 0030 2161     		str	r1, [r4, #16]
 999              	.LBB208:
 1000              	.LBB205:
 1001              		.loc 2 682 0
 1002 0032 17D1     		bne	.L96
 1003 0034 04F11400 		add	r0, r4, #20
 1004              	.LVL86:
 1005 0038 6FF00101 		mvn	r1, #1
 1006              	.LBE205:
 1007              	.LBE208:
 1008              		.loc 1 242 0
 1009 003c 03B0     		add	sp, sp, #12
 1010              		.cfi_remember_state
 1011              		.cfi_def_cfa_offset 12
 1012              		@ sp needed
 1013 003e BDE83040 		pop	{r4, r5, lr}
 1014              		.cfi_restore 14
 1015              		.cfi_restore 5
 1016              		.cfi_restore 4
 1017              		.cfi_def_cfa_offset 0
 1018              	.LVL87:
 1019              	.LBB209:
 1020              	.LBB206:
 1021              		.loc 2 682 0
 1022 0042 FFF7FEBF 		b	chThdResumeI
 1023              	.LVL88:
 1024              	.L89:
 1025              		.cfi_restore_state
 1026              	.LBE206:
ARM GAS  /tmp/ccATJ6mi.s 			page 19


 1027              	.LBE209:
 1028              		.loc 1 242 0
 1029 0046 019A     		ldr	r2, [sp, #4]
 1030 0048 2B68     		ldr	r3, [r5]
 1031 004a 9A42     		cmp	r2, r3
 1032 004c 0AD1     		bne	.L96
 1033 004e 03B0     		add	sp, sp, #12
 1034              		.cfi_remember_state
 1035              		.cfi_def_cfa_offset 12
 1036              		@ sp needed
 1037 0050 30BD     		pop	{r4, r5, pc}
 1038              	.LVL89:
 1039              	.L98:
 1040              		.cfi_restore_state
 1041              		.loc 1 231 0 discriminator 2
 1042 0052 0648     		ldr	r0, .L99+4
 1043 0054 FFF7FEFF 		bl	chSysHalt
 1044              	.LVL90:
 1045 0058 2378     		ldrb	r3, [r4]	@ zero_extendqisi2
 1046 005a DEE7     		b	.L91
 1047              	.L97:
 1048              		.loc 1 230 0 discriminator 2
 1049 005c 0348     		ldr	r0, .L99+4
 1050 005e FFF7FEFF 		bl	chSysHalt
 1051              	.LVL91:
 1052 0062 D6E7     		b	.L90
 1053              	.L96:
 1054              		.loc 1 242 0
 1055 0064 FFF7FEFF 		bl	__stack_chk_fail
 1056              	.LVL92:
 1057              	.L100:
 1058              		.align	2
 1059              	.L99:
 1060 0068 00000000 		.word	__stack_chk_guard
 1061 006c 00000000 		.word	.LANCHOR5
 1062              		.cfi_endproc
 1063              	.LFE263:
 1064              		.size	adcStopConversionI, .-adcStopConversionI
 1065              		.section	.text.adcConvert,"ax",%progbits
 1066              		.align	1
 1067              		.p2align 4,,15
 1068              		.global	adcConvert
 1069              		.syntax unified
 1070              		.thumb
 1071              		.thumb_func
 1072              		.fpu fpv4-sp-d16
 1073              		.type	adcConvert, %function
 1074              	adcConvert:
 1075              	.LFB264:
 1076              		.loc 1 271 0
 1077              		.cfi_startproc
 1078              		@ args = 0, pretend = 0, frame = 8
 1079              		@ frame_needed = 0, uses_anonymous_args = 0
 1080              	.LVL93:
 1081 0000 2DE9F041 		push	{r4, r5, r6, r7, r8, lr}
 1082              		.cfi_def_cfa_offset 24
 1083              		.cfi_offset 4, -24
ARM GAS  /tmp/ccATJ6mi.s 			page 20


 1084              		.cfi_offset 5, -20
 1085              		.cfi_offset 6, -16
 1086              		.cfi_offset 7, -12
 1087              		.cfi_offset 8, -8
 1088              		.cfi_offset 14, -4
 1089 0004 1E4D     		ldr	r5, .L111
 1090 0006 82B0     		sub	sp, sp, #8
 1091              		.cfi_def_cfa_offset 32
 1092              		.loc 1 271 0
 1093 0008 2C68     		ldr	r4, [r5]
 1094 000a 0194     		str	r4, [sp, #4]
 1095              	.LVL94:
 1096 000c 9846     		mov	r8, r3
 1097 000e 0446     		mov	r4, r0
 1098 0010 0E46     		mov	r6, r1
 1099 0012 1746     		mov	r7, r2
 1100              	.LBB225:
 1101              	.LBB226:
 1102              	.LBB227:
 1103              	.LBB228:
 1104              	.LBB229:
 1105              	.LBB230:
 1106              		.loc 3 546 0
 1107 0014 2023     		movs	r3, #32
 1108              	.LVL95:
 1109              		.syntax unified
 1110              	@ 546 "../e-puck2_main-processor/ChibiOS//os/ext/CMSIS/include/core_cmFunc.h" 1
 1111 0016 83F31188 		MSR basepri, r3
 1112              	@ 0 "" 2
 1113              	.LVL96:
 1114              		.thumb
 1115              		.syntax unified
 1116              	.LBE230:
 1117              	.LBE229:
 1118              	.LBE228:
 1119              		.loc 4 349 0
 1120 001a FFF7FEFF 		bl	_stats_start_measure_crit_thd
 1121              	.LVL97:
 1122              		.loc 4 350 0
 1123 001e FFF7FEFF 		bl	_dbg_check_lock
 1124              	.LVL98:
 1125              	.LBE227:
 1126              	.LBE226:
 1127              	.LBE225:
 1128              		.loc 1 275 0
 1129 0022 6369     		ldr	r3, [r4, #20]
 1130 0024 13B1     		cbz	r3, .L102
 1131              		.loc 1 275 0 is_stmt 0 discriminator 2
 1132 0026 1748     		ldr	r0, .L111+4
 1133 0028 FFF7FEFF 		bl	chSysHalt
 1134              	.LVL99:
 1135              	.L102:
 1136              		.loc 1 276 0 is_stmt 1
 1137 002c 4346     		mov	r3, r8
 1138 002e 3A46     		mov	r2, r7
 1139 0030 3146     		mov	r1, r6
 1140 0032 2046     		mov	r0, r4
ARM GAS  /tmp/ccATJ6mi.s 			page 21


 1141 0034 FFF7FEFF 		bl	adcStartConversionI
 1142              	.LVL100:
 1143              	.LBB231:
 1144              	.LBB232:
 1145              		.loc 2 642 0
 1146 0038 04F11400 		add	r0, r4, #20
 1147              	.LVL101:
 1148 003c FFF7FEFF 		bl	chThdSuspendS
 1149              	.LVL102:
 1150 0040 0446     		mov	r4, r0
 1151              	.LVL103:
 1152              	.LBE232:
 1153              	.LBE231:
 1154              	.LBB233:
 1155              	.LBB234:
 1156              	.LBB235:
 1157              		.loc 4 360 0
 1158 0042 FFF7FEFF 		bl	_dbg_check_unlock
 1159              	.LVL104:
 1160              		.loc 4 361 0
 1161 0046 FFF7FEFF 		bl	_stats_stop_measure_crit_thd
 1162              	.LVL105:
 1163              		.loc 4 367 0
 1164 004a 0F4B     		ldr	r3, .L111+8
 1165 004c 1A68     		ldr	r2, [r3]
 1166 004e 9A42     		cmp	r2, r3
 1167 0050 04D0     		beq	.L103
 1168 0052 9969     		ldr	r1, [r3, #24]
 1169 0054 9368     		ldr	r3, [r2, #8]
 1170 0056 8A68     		ldr	r2, [r1, #8]
 1171 0058 9A42     		cmp	r2, r3
 1172 005a 0AD3     		bcc	.L109
 1173              	.L103:
 1174              	.LVL106:
 1175              	.LBB236:
 1176              	.LBB237:
 1177              	.LBB238:
 1178              		.loc 3 546 0
 1179 005c 0023     		movs	r3, #0
 1180              		.syntax unified
 1181              	@ 546 "../e-puck2_main-processor/ChibiOS//os/ext/CMSIS/include/core_cmFunc.h" 1
 1182 005e 83F31188 		MSR basepri, r3
 1183              	@ 0 "" 2
 1184              	.LVL107:
 1185              		.thumb
 1186              		.syntax unified
 1187              	.LBE238:
 1188              	.LBE237:
 1189              	.LBE236:
 1190              	.LBE235:
 1191              	.LBE234:
 1192              	.LBE233:
 1193              		.loc 1 280 0
 1194 0062 019A     		ldr	r2, [sp, #4]
 1195 0064 2B68     		ldr	r3, [r5]
 1196 0066 9A42     		cmp	r2, r3
 1197 0068 2046     		mov	r0, r4
ARM GAS  /tmp/ccATJ6mi.s 			page 22


 1198 006a 06D1     		bne	.L110
 1199 006c 02B0     		add	sp, sp, #8
 1200              		.cfi_remember_state
 1201              		.cfi_def_cfa_offset 24
 1202              		@ sp needed
 1203 006e BDE8F081 		pop	{r4, r5, r6, r7, r8, pc}
 1204              	.LVL108:
 1205              	.L109:
 1206              		.cfi_restore_state
 1207              	.LBB241:
 1208              	.LBB240:
 1209              	.LBB239:
 1210              		.loc 4 367 0
 1211 0072 0648     		ldr	r0, .L111+12
 1212 0074 FFF7FEFF 		bl	chSysHalt
 1213              	.LVL109:
 1214 0078 F0E7     		b	.L103
 1215              	.L110:
 1216              	.LBE239:
 1217              	.LBE240:
 1218              	.LBE241:
 1219              		.loc 1 280 0
 1220 007a FFF7FEFF 		bl	__stack_chk_fail
 1221              	.LVL110:
 1222              	.L112:
 1223 007e 00BF     		.align	2
 1224              	.L111:
 1225 0080 00000000 		.word	__stack_chk_guard
 1226 0084 00000000 		.word	.LANCHOR6
 1227 0088 00000000 		.word	ch
 1228 008c 00000000 		.word	.LANCHOR1
 1229              		.cfi_endproc
 1230              	.LFE264:
 1231              		.size	adcConvert, .-adcConvert
 1232              		.section	.text.adcAcquireBus,"ax",%progbits
 1233              		.align	1
 1234              		.p2align 4,,15
 1235              		.global	adcAcquireBus
 1236              		.syntax unified
 1237              		.thumb
 1238              		.thumb_func
 1239              		.fpu fpv4-sp-d16
 1240              		.type	adcAcquireBus, %function
 1241              	adcAcquireBus:
 1242              	.LFB265:
 1243              		.loc 1 295 0
 1244              		.cfi_startproc
 1245              		@ args = 0, pretend = 0, frame = 8
 1246              		@ frame_needed = 0, uses_anonymous_args = 0
 1247              	.LVL111:
 1248 0000 30B5     		push	{r4, r5, lr}
 1249              		.cfi_def_cfa_offset 12
 1250              		.cfi_offset 4, -12
 1251              		.cfi_offset 5, -8
 1252              		.cfi_offset 14, -4
 1253 0002 0B4C     		ldr	r4, .L120
 1254 0004 83B0     		sub	sp, sp, #12
ARM GAS  /tmp/ccATJ6mi.s 			page 23


 1255              		.cfi_def_cfa_offset 24
 1256              		.loc 1 295 0
 1257 0006 2368     		ldr	r3, [r4]
 1258 0008 0193     		str	r3, [sp, #4]
 1259              		.loc 1 297 0
 1260 000a 0546     		mov	r5, r0
 1261 000c 50B1     		cbz	r0, .L118
 1262              	.LVL112:
 1263              	.L114:
 1264              	.LBB242:
 1265              	.LBB243:
 1266              		.loc 2 861 0
 1267 000e 019A     		ldr	r2, [sp, #4]
 1268 0010 2368     		ldr	r3, [r4]
 1269 0012 9A42     		cmp	r2, r3
 1270 0014 0AD1     		bne	.L119
 1271 0016 05F11800 		add	r0, r5, #24
 1272              	.LVL113:
 1273              	.LBE243:
 1274              	.LBE242:
 1275              		.loc 1 300 0
 1276 001a 03B0     		add	sp, sp, #12
 1277              		.cfi_remember_state
 1278              		.cfi_def_cfa_offset 12
 1279              		@ sp needed
 1280 001c BDE83040 		pop	{r4, r5, lr}
 1281              		.cfi_restore 14
 1282              		.cfi_restore 5
 1283              		.cfi_restore 4
 1284              		.cfi_def_cfa_offset 0
 1285              	.LVL114:
 1286              	.LBB246:
 1287              	.LBB244:
 1288              		.loc 2 861 0
 1289 0020 FFF7FEBF 		b	chMtxLock
 1290              	.LVL115:
 1291              	.L118:
 1292              		.cfi_restore_state
 1293              	.LBE244:
 1294              	.LBE246:
 1295              		.loc 1 297 0 discriminator 2
 1296 0024 0348     		ldr	r0, .L120+4
 1297              	.LVL116:
 1298 0026 FFF7FEFF 		bl	chSysHalt
 1299              	.LVL117:
 1300 002a F0E7     		b	.L114
 1301              	.LVL118:
 1302              	.L119:
 1303              	.LBB247:
 1304              	.LBB245:
 1305              		.loc 2 861 0
 1306 002c FFF7FEFF 		bl	__stack_chk_fail
 1307              	.LVL119:
 1308              	.L121:
 1309              		.align	2
 1310              	.L120:
 1311 0030 00000000 		.word	__stack_chk_guard
ARM GAS  /tmp/ccATJ6mi.s 			page 24


 1312 0034 00000000 		.word	.LANCHOR7
 1313              	.LBE245:
 1314              	.LBE247:
 1315              		.cfi_endproc
 1316              	.LFE265:
 1317              		.size	adcAcquireBus, .-adcAcquireBus
 1318              		.section	.text.adcReleaseBus,"ax",%progbits
 1319              		.align	1
 1320              		.p2align 4,,15
 1321              		.global	adcReleaseBus
 1322              		.syntax unified
 1323              		.thumb
 1324              		.thumb_func
 1325              		.fpu fpv4-sp-d16
 1326              		.type	adcReleaseBus, %function
 1327              	adcReleaseBus:
 1328              	.LFB266:
 1329              		.loc 1 311 0
 1330              		.cfi_startproc
 1331              		@ args = 0, pretend = 0, frame = 8
 1332              		@ frame_needed = 0, uses_anonymous_args = 0
 1333              	.LVL120:
 1334 0000 30B5     		push	{r4, r5, lr}
 1335              		.cfi_def_cfa_offset 12
 1336              		.cfi_offset 4, -12
 1337              		.cfi_offset 5, -8
 1338              		.cfi_offset 14, -4
 1339 0002 0B4C     		ldr	r4, .L129
 1340 0004 83B0     		sub	sp, sp, #12
 1341              		.cfi_def_cfa_offset 24
 1342              		.loc 1 311 0
 1343 0006 2368     		ldr	r3, [r4]
 1344 0008 0193     		str	r3, [sp, #4]
 1345              		.loc 1 313 0
 1346 000a 0546     		mov	r5, r0
 1347 000c 50B1     		cbz	r0, .L127
 1348              	.LVL121:
 1349              	.L123:
 1350              	.LBB248:
 1351              	.LBB249:
 1352              		.loc 2 885 0
 1353 000e 019A     		ldr	r2, [sp, #4]
 1354 0010 2368     		ldr	r3, [r4]
 1355 0012 9A42     		cmp	r2, r3
 1356 0014 0AD1     		bne	.L128
 1357 0016 05F11800 		add	r0, r5, #24
 1358              	.LVL122:
 1359              	.LBE249:
 1360              	.LBE248:
 1361              		.loc 1 316 0
 1362 001a 03B0     		add	sp, sp, #12
 1363              		.cfi_remember_state
 1364              		.cfi_def_cfa_offset 12
 1365              		@ sp needed
 1366 001c BDE83040 		pop	{r4, r5, lr}
 1367              		.cfi_restore 14
 1368              		.cfi_restore 5
ARM GAS  /tmp/ccATJ6mi.s 			page 25


 1369              		.cfi_restore 4
 1370              		.cfi_def_cfa_offset 0
 1371              	.LVL123:
 1372              	.LBB252:
 1373              	.LBB250:
 1374              		.loc 2 885 0
 1375 0020 FFF7FEBF 		b	chMtxUnlock
 1376              	.LVL124:
 1377              	.L127:
 1378              		.cfi_restore_state
 1379              	.LBE250:
 1380              	.LBE252:
 1381              		.loc 1 313 0 discriminator 2
 1382 0024 0348     		ldr	r0, .L129+4
 1383              	.LVL125:
 1384 0026 FFF7FEFF 		bl	chSysHalt
 1385              	.LVL126:
 1386 002a F0E7     		b	.L123
 1387              	.LVL127:
 1388              	.L128:
 1389              	.LBB253:
 1390              	.LBB251:
 1391              		.loc 2 885 0
 1392 002c FFF7FEFF 		bl	__stack_chk_fail
 1393              	.LVL128:
 1394              	.L130:
 1395              		.align	2
 1396              	.L129:
 1397 0030 00000000 		.word	__stack_chk_guard
 1398 0034 00000000 		.word	.LANCHOR8
 1399              	.LBE251:
 1400              	.LBE253:
 1401              		.cfi_endproc
 1402              	.LFE266:
 1403              		.size	adcReleaseBus, .-adcReleaseBus
 1404              		.section	.rodata.__func__.7153,"a",%progbits
 1405              		.align	2
 1406              		.set	.LANCHOR1,. + 0
 1407              		.type	__func__.7153, %object
 1408              		.size	__func__.7153, 12
 1409              	__func__.7153:
 1410 0000 63685379 		.ascii	"chSysUnlock\000"
 1410      73556E6C 
 1410      6F636B00 
 1411              		.section	.rodata.__func__.9849,"a",%progbits
 1412              		.align	2
 1413              		.set	.LANCHOR0,. + 0
 1414              		.type	__func__.9849, %object
 1415              		.size	__func__.9849, 9
 1416              	__func__.9849:
 1417 0000 61646353 		.ascii	"adcStart\000"
 1417      74617274 
 1417      00
 1418              		.section	.rodata.__func__.9853,"a",%progbits
 1419              		.align	2
 1420              		.set	.LANCHOR2,. + 0
 1421              		.type	__func__.9853, %object
ARM GAS  /tmp/ccATJ6mi.s 			page 26


 1422              		.size	__func__.9853, 8
 1423              	__func__.9853:
 1424 0000 61646353 		.ascii	"adcStop\000"
 1424      746F7000 
 1425              		.section	.rodata.__func__.9866,"a",%progbits
 1426              		.align	2
 1427              		.set	.LANCHOR3,. + 0
 1428              		.type	__func__.9866, %object
 1429              		.size	__func__.9866, 20
 1430              	__func__.9866:
 1431 0000 61646353 		.ascii	"adcStartConversionI\000"
 1431      74617274 
 1431      436F6E76 
 1431      65727369 
 1431      6F6E4900 
 1432              		.section	.rodata.__func__.9870,"a",%progbits
 1433              		.align	2
 1434              		.set	.LANCHOR4,. + 0
 1435              		.type	__func__.9870, %object
 1436              		.size	__func__.9870, 18
 1437              	__func__.9870:
 1438 0000 61646353 		.ascii	"adcStopConversion\000"
 1438      746F7043 
 1438      6F6E7665 
 1438      7273696F 
 1438      6E00
 1439              		.section	.rodata.__func__.9874,"a",%progbits
 1440              		.align	2
 1441              		.set	.LANCHOR5,. + 0
 1442              		.type	__func__.9874, %object
 1443              		.size	__func__.9874, 19
 1444              	__func__.9874:
 1445 0000 61646353 		.ascii	"adcStopConversionI\000"
 1445      746F7043 
 1445      6F6E7665 
 1445      7273696F 
 1445      6E4900
 1446              		.section	.rodata.__func__.9882,"a",%progbits
 1447              		.align	2
 1448              		.set	.LANCHOR6,. + 0
 1449              		.type	__func__.9882, %object
 1450              		.size	__func__.9882, 11
 1451              	__func__.9882:
 1452 0000 61646343 		.ascii	"adcConvert\000"
 1452      6F6E7665 
 1452      727400
 1453              		.section	.rodata.__func__.9886,"a",%progbits
 1454              		.align	2
 1455              		.set	.LANCHOR7,. + 0
 1456              		.type	__func__.9886, %object
 1457              		.size	__func__.9886, 14
 1458              	__func__.9886:
 1459 0000 61646341 		.ascii	"adcAcquireBus\000"
 1459      63717569 
 1459      72654275 
 1459      7300
 1460              		.section	.rodata.__func__.9890,"a",%progbits
ARM GAS  /tmp/ccATJ6mi.s 			page 27


 1461              		.align	2
 1462              		.set	.LANCHOR8,. + 0
 1463              		.type	__func__.9890, %object
 1464              		.size	__func__.9890, 14
 1465              	__func__.9890:
 1466 0000 61646352 		.ascii	"adcReleaseBus\000"
 1466      656C6561 
 1466      73654275 
 1466      7300
 1467              		.text
 1468              	.Letext0:
 1469              		.file 5 "/home/leander/uos_codes/epuck2_lab/Eclipse_e-puck2/Tools/gcc-arm-none-eabi-7-2017-q4-majo
 1470              		.file 6 "/home/leander/uos_codes/epuck2_lab/Eclipse_e-puck2/Tools/gcc-arm-none-eabi-7-2017-q4-majo
 1471              		.file 7 "/home/leander/uos_codes/epuck2_lab/Eclipse_e-puck2/Tools/gcc-arm-none-eabi-7-2017-q4-majo
 1472              		.file 8 "../e-puck2_main-processor/ChibiOS//os/rt/ports/ARMCMx/compilers/GCC/chtypes.h"
 1473              		.file 9 "../e-puck2_main-processor/ChibiOS//os/rt/include/chsystypes.h"
 1474              		.file 10 "../e-puck2_main-processor/ChibiOS//os/rt/include/chschd.h"
 1475              		.file 11 "../e-puck2_main-processor/ChibiOS//os/ext/CMSIS/include/core_cm4.h"
 1476              		.file 12 "../e-puck2_main-processor/ChibiOS//os/ext/CMSIS/ST/system_stm32f4xx.h"
 1477              		.file 13 "../e-puck2_main-processor/ChibiOS//os/ext/CMSIS/ST/stm32f407xx.h"
 1478              		.file 14 "../e-puck2_main-processor/ChibiOS//os/rt/ports/ARMCMx/chcore.h"
 1479              		.file 15 "../e-puck2_main-processor/ChibiOS//os/rt/ports/ARMCMx/chcore_v7m.h"
 1480              		.file 16 "../e-puck2_main-processor/ChibiOS//os/rt/include/chdebug.h"
 1481              		.file 17 "../e-puck2_main-processor/ChibiOS//os/rt/include/chtm.h"
 1482              		.file 18 "../e-puck2_main-processor/ChibiOS//os/rt/include/chstats.h"
 1483              		.file 19 "../e-puck2_main-processor/ChibiOS//os/rt/include/chsem.h"
 1484              		.file 20 "../e-puck2_main-processor/ChibiOS//os/rt/include/chmtx.h"
 1485              		.file 21 "../e-puck2_main-processor/ChibiOS//os/rt/include/chregistry.h"
 1486              		.file 22 "../e-puck2_main-processor/ChibiOS//os/rt/include/chevents.h"
 1487              		.file 23 "../e-puck2_main-processor/ChibiOS//os/rt/include/chqueues.h"
 1488              		.file 24 "../e-puck2_main-processor/ChibiOS//os/hal/ports/STM32/STM32F4xx/stm32_dma.h"
 1489              		.file 25 "../e-puck2_main-processor/ChibiOS//os/hal/include/hal_ioblock.h"
 1490              		.file 26 "../e-puck2_main-processor/ChibiOS//os/hal/ports/STM32/LLD/GPIOv2/pal_lld.h"
 1491              		.file 27 "../e-puck2_main-processor/ChibiOS//os/hal/include/adc.h"
 1492              		.file 28 "../e-puck2_main-processor/ChibiOS//os/hal/ports/STM32/STM32F4xx/adc_lld.h"
 1493              		.file 29 "../e-puck2_main-processor/ChibiOS//os/hal/include/can.h"
 1494              		.file 30 "../e-puck2_main-processor/ChibiOS//os/hal/ports/STM32/LLD/can_lld.h"
 1495              		.file 31 "../e-puck2_main-processor/ChibiOS//os/hal/include/dac.h"
 1496              		.file 32 "../e-puck2_main-processor/ChibiOS//os/hal/ports/STM32/LLD/DACv1/dac_lld.h"
 1497              		.file 33 "../e-puck2_main-processor/ChibiOS//os/hal/include/ext.h"
 1498              		.file 34 "../e-puck2_main-processor/ChibiOS//os/hal/ports/STM32/LLD/ext_lld.h"
 1499              		.file 35 "../e-puck2_main-processor/ChibiOS//os/hal/include/gpt.h"
 1500              		.file 36 "../e-puck2_main-processor/ChibiOS//os/hal/ports/STM32/LLD/TIMv1/gpt_lld.h"
 1501              		.file 37 "../e-puck2_main-processor/ChibiOS//os/hal/ports/STM32/LLD/TIMv1/stm32_tim.h"
 1502              		.file 38 "../e-puck2_main-processor/ChibiOS//os/hal/include/i2c.h"
 1503              		.file 39 "../e-puck2_main-processor/ChibiOS//os/hal/ports/STM32/LLD/I2Cv1/i2c_lld.h"
 1504              		.file 40 "../e-puck2_main-processor/ChibiOS//os/hal/include/i2s.h"
 1505              		.file 41 "../e-puck2_main-processor/ChibiOS//os/hal/ports/STM32/LLD/SPIv1/i2s_lld.h"
 1506              		.file 42 "../e-puck2_main-processor/ChibiOS//os/hal/include/pwm.h"
 1507              		.file 43 "../e-puck2_main-processor/ChibiOS//os/hal/ports/STM32/LLD/TIMv1/pwm_lld.h"
 1508              		.file 44 "../e-puck2_main-processor/ChibiOS//os/hal/include/serial.h"
 1509              		.file 45 "../e-puck2_main-processor/ChibiOS//os/hal/ports/STM32/LLD/USARTv1/serial_lld.h"
 1510              		.file 46 "../e-puck2_main-processor/ChibiOS//os/hal/include/sdc.h"
 1511              		.file 47 "../e-puck2_main-processor/ChibiOS//os/hal/ports/STM32/LLD/sdc_lld.h"
 1512              		.file 48 "../e-puck2_main-processor/ChibiOS//os/hal/include/spi.h"
 1513              		.file 49 "../e-puck2_main-processor/ChibiOS//os/hal/ports/STM32/LLD/SPIv1/spi_lld.h"
 1514              		.file 50 "../e-puck2_main-processor/ChibiOS//os/hal/include/usb.h"
ARM GAS  /tmp/ccATJ6mi.s 			page 28


 1515              		.file 51 "../e-puck2_main-processor/ChibiOS//os/hal/ports/STM32/LLD/OTGv1/usb_lld.h"
 1516              		.file 52 "../e-puck2_main-processor/ChibiOS//os/hal/ports/STM32/LLD/OTGv1/stm32_otg.h"
 1517              		.file 53 "../e-puck2_main-processor/ChibiOS//os/rt/include/chthreads.h"