ARM GAS  /tmp/ccZueut9.s 			page 1


   1              		.cpu cortex-m4
   2              		.eabi_attribute 27, 1
   3              		.eabi_attribute 28, 1
   4              		.eabi_attribute 20, 1
   5              		.eabi_attribute 21, 1
   6              		.eabi_attribute 23, 3
   7              		.eabi_attribute 24, 1
   8              		.eabi_attribute 25, 1
   9              		.eabi_attribute 26, 1
  10              		.eabi_attribute 30, 2
  11              		.eabi_attribute 34, 1
  12              		.eabi_attribute 18, 4
  13              		.file	"Asercom2.c"
  14              		.text
  15              	.Ltext0:
  16              		.cfi_sections	.debug_frame
  17              		.section	.text.run_asercom2,"ax",%progbits
  18              		.align	1
  19              		.p2align 4,,15
  20              		.global	run_asercom2
  21              		.syntax unified
  22              		.thumb
  23              		.thumb_func
  24              		.fpu fpv4-sp-d16
  25              		.type	run_asercom2, %function
  26              	run_asercom2:
  27              	.LFB259:
  28              		.file 1 "../e-puck2_main-processor/src/epuck1x/Asercom2.c"
  29              		.loc 1 76 0
  30              		.cfi_startproc
  31              		@ args = 0, pretend = 0, frame = 80
  32              		@ frame_needed = 0, uses_anonymous_args = 0
  33 0000 2DE9F04F 		push	{r4, r5, r6, r7, r8, r9, r10, fp, lr}
  34              		.cfi_def_cfa_offset 36
  35              		.cfi_offset 4, -36
  36              		.cfi_offset 5, -32
  37              		.cfi_offset 6, -28
  38              		.cfi_offset 7, -24
  39              		.cfi_offset 8, -20
  40              		.cfi_offset 9, -16
  41              		.cfi_offset 10, -12
  42              		.cfi_offset 11, -8
  43              		.cfi_offset 14, -4
  44 0004 2DED028B 		vpush.64	{d8}
  45              		.cfi_def_cfa_offset 44
  46              		.cfi_offset 80, -44
  47              		.cfi_offset 81, -40
  48 0008 A94B     		ldr	r3, .L812
  49 000a 9BB0     		sub	sp, sp, #108
  50              		.cfi_def_cfa_offset 152
  51              		.loc 1 76 0
  52 000c 1B68     		ldr	r3, [r3]
  53 000e 1993     		str	r3, [sp, #100]
  54              	.LVL0:
  55              		.loc 1 95 0
  56 0010 0023     		movs	r3, #0
  57 0012 1793     		str	r3, [sp, #92]
ARM GAS  /tmp/ccZueut9.s 			page 2


  58 0014 CDE91433 		strd	r3, r3, [sp, #80]
  59 0018 1693     		str	r3, [sp, #88]
  60 001a CDF85F30 		str	r3, [sp, #95]	@ unaligned
  61              		.loc 1 99 0
  62 001e FFF7FEFF 		bl	e_init_motors
  63              	.LVL1:
  64              		.loc 1 103 0
  65 0022 FFF7FEFF 		bl	getselector
  66              	.LVL2:
  67 0026 A34B     		ldr	r3, .L812+4
  68              		.loc 1 104 0
  69 0028 0328     		cmp	r0, #3
  70              		.loc 1 103 0
  71 002a 1860     		str	r0, [r3]
  72              		.loc 1 104 0
  73 002c 02F0C284 		beq	.L461
  74              		.loc 1 104 0 is_stmt 0 discriminator 1
  75 0030 A0F10F03 		sub	r3, r0, #15
  76 0034 B3FA83F3 		clz	r3, r3
  77 0038 5B09     		lsrs	r3, r3, #5
  78              		.loc 1 109 0 is_stmt 1 discriminator 1
  79 003a 0A28     		cmp	r0, #10
  80              		.loc 1 104 0 discriminator 1
  81 003c 0793     		str	r3, [sp, #28]
  82              	.LVL3:
  83              		.loc 1 109 0 discriminator 1
  84 003e 42F0BB84 		bne	.L2
  85              		.loc 1 122 0
  86 0042 FFF7FEFF 		bl	e_init_remote_control
  87              	.LVL4:
  88              		.loc 1 138 0
  89 0046 9C4B     		ldr	r3, .L812+8
  90              		.loc 1 133 0
  91 0048 9C4C     		ldr	r4, .L812+12
  92              		.loc 1 130 0
  93 004a 9D4A     		ldr	r2, .L812+16
  94              		.loc 1 135 0
  95 004c 9D4D     		ldr	r5, .L812+20
  96              		.loc 1 136 0
  97 004e 9E4E     		ldr	r6, .L812+24
  98              		.loc 1 137 0
  99 0050 9E4F     		ldr	r7, .L812+28
 100              		.loc 1 138 0
 101 0052 0E93     		str	r3, [sp, #56]
 102              		.loc 1 130 0
 103 0054 4FF6FE71 		movw	r1, #65534
 104 0058 0123     		movs	r3, #1
 105 005a 7F20     		movs	r0, #127
 106              		.loc 1 133 0
 107 005c 1294     		str	r4, [sp, #72]
 108              		.loc 1 135 0
 109 005e 1095     		str	r5, [sp, #64]
 110              		.loc 1 136 0
 111 0060 1196     		str	r6, [sp, #68]
 112              		.loc 1 137 0
 113 0062 1397     		str	r7, [sp, #76]
 114              		.loc 1 130 0
ARM GAS  /tmp/ccZueut9.s 			page 3


 115 0064 FFF7FEFF 		bl	ReadEE
 116              	.LVL5:
 117              		.loc 1 133 0
 118 0068 0122     		movs	r2, #1
 119              		.loc 1 135 0
 120 006a 2823     		movs	r3, #40
 121              		.loc 1 133 0
 122 006c 2260     		str	r2, [r4]
 123              		.loc 1 110 0
 124 006e 9346     		mov	fp, r2
 125              		.loc 1 138 0
 126 0070 0E9A     		ldr	r2, [sp, #56]
 127              		.loc 1 135 0
 128 0072 2B60     		str	r3, [r5]
 129              		.loc 1 137 0
 130 0074 0821     		movs	r1, #8
 131              		.loc 1 136 0
 132 0076 3360     		str	r3, [r6]
 133              		.loc 1 138 0
 134 0078 4FF44863 		mov	r3, #3200
 135              		.loc 1 137 0
 136 007c 3960     		str	r1, [r7]
 137              		.loc 1 138 0
 138 007e 1360     		str	r3, [r2]
 139              	.LVL6:
 140              	.L7:
 141              		.loc 1 112 0
 142 0080 0023     		movs	r3, #0
 143 0082 934F     		ldr	r7, .L812+32
 144 0084 DFF86492 		ldr	r9, .L812+60
 145 0088 DFF84C82 		ldr	r8, .L812+40
 146 008c DFF860A2 		ldr	r10, .L812+64
 147 0090 0F93     		str	r3, [sp, #60]
 148 0092 0693     		str	r3, [sp, #24]
 149              	.LVL7:
 150              	.L5:
 151              		.loc 1 164 0
 152 0094 BBF1000F 		cmp	fp, #0
 153 0098 23D1     		bne	.L10
 154              	.LVL8:
 155              	.L741:
 156              		.loc 1 166 0
 157 009a 079B     		ldr	r3, [sp, #28]
 158 009c 002B     		cmp	r3, #0
 159 009e 00F08980 		beq	.L732
 160              	.L777:
 161              		.loc 1 167 0
 162 00a2 8B4D     		ldr	r5, .L812+32
 163              	.LVL9:
 164              	.L11:
 165 00a4 2846     		mov	r0, r5
 166 00a6 FFF7FEFF 		bl	e_getchar_uart1
 167              	.LVL10:
 168 00aa 0446     		mov	r4, r0
 169 00ac C8B9     		cbnz	r0, .L10
 170              		.loc 1 170 0
 171 00ae FFF7FEFF 		bl	e_get_data
ARM GAS  /tmp/ccZueut9.s 			page 4


 172              	.LVL11:
 173 00b2 0646     		mov	r6, r0
 174              	.LVL12:
 175              		.loc 1 171 0
 176 00b4 FFF7FEFF 		bl	e_get_address
 177              	.LVL13:
 178              		.loc 1 172 0
 179 00b8 10F0F70F 		tst	r0, #247
 180 00bc F2D1     		bne	.L11
 181              		.loc 1 172 0 is_stmt 0 discriminator 3
 182 00be 069B     		ldr	r3, [sp, #24]
 183 00c0 B342     		cmp	r3, r6
 184 00c2 EFD0     		beq	.L11
 185              		.loc 1 173 0 is_stmt 1
 186 00c4 092E     		cmp	r6, #9
 187 00c6 01F20187 		bhi	.L14
 188 00ca DFE816F0 		tbh	[pc, r6, lsl #1]
 189              	.L16:
 190 00ce 1C01     		.2byte	(.L15-.L16)/2
 191 00d0 1301     		.2byte	(.L17-.L16)/2
 192 00d2 E900     		.2byte	(.L18-.L16)/2
 193 00d4 E000     		.2byte	(.L19-.L16)/2
 194 00d6 DD00     		.2byte	(.L20-.L16)/2
 195 00d8 D700     		.2byte	(.L21-.L16)/2
 196 00da D400     		.2byte	(.L22-.L16)/2
 197 00dc CD00     		.2byte	(.L23-.L16)/2
 198 00de C600     		.2byte	(.L24-.L16)/2
 199 00e0 B600     		.2byte	(.L25-.L16)/2
 200              	.LVL14:
 201              		.p2align 1
 202              	.L10:
 203              		.loc 1 292 0
 204 00e2 3B78     		ldrb	r3, [r7]	@ zero_extendqisi2
 205 00e4 1D06     		lsls	r5, r3, #24
 206 00e6 00F16D81 		bmi	.L772
 207              		.loc 1 1063 0
 208 00ea 002B     		cmp	r3, #0
 209 00ec D2D0     		beq	.L5
 210              		.loc 1 1064 0
 211 00ee BBF1000F 		cmp	fp, #0
 212 00f2 41F0CD86 		bne	.L222
 213              		.loc 1 1066 0
 214 00f6 079A     		ldr	r2, [sp, #28]
 215              		.loc 1 1067 0
 216 00f8 754C     		ldr	r4, .L812+32
 217              		.loc 1 1066 0
 218 00fa 002A     		cmp	r2, #0
 219 00fc 7FD0     		beq	.L224
 220 00fe 03E0     		b	.L223
 221              	.L225:
 222              		.loc 1 1067 0 discriminator 4
 223 0100 2046     		mov	r0, r4
 224 0102 FFF7FEFF 		bl	e_getchar_uart1
 225              	.LVL15:
 226 0106 3B78     		ldrb	r3, [r7]	@ zero_extendqisi2
 227              	.L223:
 228              		.loc 1 1067 0 is_stmt 0 discriminator 1
ARM GAS  /tmp/ccZueut9.s 			page 5


 229 0108 0A2B     		cmp	r3, #10
 230 010a F9D0     		beq	.L225
 231              		.loc 1 1067 0 discriminator 3
 232 010c 0D2B     		cmp	r3, #13
 233 010e F7D0     		beq	.L225
 234              		.loc 1 1072 0 is_stmt 1
 235 0110 0122     		movs	r2, #1
 236              		.loc 1 1071 0
 237 0112 88F80030 		strb	r3, [r8]
 238              		.loc 1 1072 0
 239 0116 C9F80020 		str	r2, [r9]
 240              		.loc 1 1076 0
 241 011a 6D4C     		ldr	r4, .L812+32
 242 011c 04E0     		b	.L233
 243              	.L773:
 244 011e 3B78     		ldrb	r3, [r7]	@ zero_extendqisi2
 245              		.loc 1 1077 0
 246 0120 0A2B     		cmp	r3, #10
 247 0122 11D0     		beq	.L239
 248              	.L231:
 249              		.loc 1 1077 0 is_stmt 0 discriminator 1
 250 0124 0D2B     		cmp	r3, #13
 251 0126 0FD0     		beq	.L239
 252              	.L233:
 253              		.loc 1 1076 0 is_stmt 1
 254 0128 2046     		mov	r0, r4
 255 012a FFF7FEFF 		bl	e_getchar_uart1
 256              	.LVL16:
 257 012e 0028     		cmp	r0, #0
 258 0130 F5D0     		beq	.L773
 259              		.loc 1 1076 0 is_stmt 0 discriminator 1
 260 0132 D9F80020 		ldr	r2, [r9]
 261 0136 3B78     		ldrb	r3, [r7]	@ zero_extendqisi2
 262 0138 08F80230 		strb	r3, [r8, r2]
 263              		.loc 1 1077 0 is_stmt 1 discriminator 1
 264 013c 0A2B     		cmp	r3, #10
 265              		.loc 1 1076 0 discriminator 1
 266 013e 02F10102 		add	r2, r2, #1
 267 0142 C9F80020 		str	r2, [r9]
 268              		.loc 1 1077 0 discriminator 1
 269 0146 EDD1     		bne	.L231
 270              	.L239:
 271 0148 D9F80030 		ldr	r3, [r9]
 272              		.loc 1 1082 0
 273 014c 0022     		movs	r2, #0
 274 014e 08F80320 		strb	r2, [r8, r3]
 275              		.loc 1 1084 0
 276 0152 98F80040 		ldrb	r4, [r8]	@ zero_extendqisi2
 277 0156 591C     		adds	r1, r3, #1
 278 0158 622C     		cmp	r4, #98
 279              		.loc 1 1082 0
 280 015a C9F80010 		str	r1, [r9]
 281              		.loc 1 1084 0
 282 015e 02F0E480 		beq	.L774
 283              	.L456:
 284              		.loc 1 1084 0 is_stmt 0 discriminator 1
 285 0162 672C     		cmp	r4, #103
ARM GAS  /tmp/ccZueut9.s 			page 6


 286 0164 41F07D80 		bne	.L775
 287              	.L240:
 288              	.LBB2:
 289              		.loc 1 1180 0 is_stmt 1
 290 0168 BBF1000F 		cmp	fp, #0
 291 016c 42F0F980 		bne	.L296
 292              		.loc 1 1181 0
 293 0170 FFF7FEFF 		bl	getXAxisGyro
 294              	.LVL17:
 295 0174 0446     		mov	r4, r0
 296 0176 FFF7FEFF 		bl	getYAxisGyro
 297              	.LVL18:
 298 017a 0546     		mov	r5, r0
 299 017c FFF7FEFF 		bl	getZAxisGyro
 300              	.LVL19:
 301 0180 2B46     		mov	r3, r5
 302 0182 0090     		str	r0, [sp]
 303 0184 2246     		mov	r2, r4
 304 0186 5349     		ldr	r1, .L812+36
 305 0188 5348     		ldr	r0, .L812+40
 306 018a FFF7FEFF 		bl	sprintf
 307              	.LVL20:
 308              		.loc 1 1187 0
 309 018e 079B     		ldr	r3, [sp, #28]
 310 0190 002B     		cmp	r3, #0
 311 0192 02F0CF81 		beq	.L776
 312              		.loc 1 1188 0
 313 0196 5048     		ldr	r0, .L812+40
 314 0198 FFF7FEFF 		bl	strlen
 315              	.LVL21:
 316 019c 0146     		mov	r1, r0
 317 019e 4E48     		ldr	r0, .L812+40
 318 01a0 FFF7FEFF 		bl	e_send_uart1_char
 319              	.LVL22:
 320              	.L299:
 321              		.loc 1 1188 0 is_stmt 0 discriminator 2
 322 01a4 FFF7FEFF 		bl	e_uart1_sending
 323              	.LVL23:
 324 01a8 0028     		cmp	r0, #0
 325 01aa FBD1     		bne	.L299
 326              	.LVL24:
 327              	.LBE2:
 328              		.loc 1 166 0 is_stmt 1
 329 01ac 079B     		ldr	r3, [sp, #28]
 330 01ae 002B     		cmp	r3, #0
 331 01b0 7FF477AF 		bne	.L777
 332              	.LVL25:
 333              	.L732:
 334              		.loc 1 229 0
 335 01b4 464D     		ldr	r5, .L812+32
 336              	.LVL26:
 337              	.L12:
 338 01b6 2846     		mov	r0, r5
 339 01b8 FFF7FEFF 		bl	e_getchar_uart2
 340              	.LVL27:
 341 01bc 0446     		mov	r4, r0
 342 01be 0028     		cmp	r0, #0
ARM GAS  /tmp/ccZueut9.s 			page 7


 343 01c0 8FD1     		bne	.L10
 344              		.loc 1 232 0
 345 01c2 FFF7FEFF 		bl	e_get_data
 346              	.LVL28:
 347 01c6 0646     		mov	r6, r0
 348              	.LVL29:
 349              		.loc 1 233 0
 350 01c8 FFF7FEFF 		bl	e_get_address
 351              	.LVL30:
 352              		.loc 1 234 0
 353 01cc 10F0F70F 		tst	r0, #247
 354 01d0 F1D1     		bne	.L12
 355              		.loc 1 234 0 is_stmt 0 discriminator 3
 356 01d2 069B     		ldr	r3, [sp, #24]
 357 01d4 B342     		cmp	r3, r6
 358 01d6 EED0     		beq	.L12
 359              		.loc 1 235 0 is_stmt 1
 360 01d8 092E     		cmp	r6, #9
 361 01da 01F27E86 		bhi	.L30
 362 01de DFE816F0 		tbh	[pc, r6, lsl #1]
 363              	.L32:
 364 01e2 E300     		.2byte	(.L31-.L32)/2
 365 01e4 DA00     		.2byte	(.L33-.L32)/2
 366 01e6 D300     		.2byte	(.L34-.L32)/2
 367 01e8 CA00     		.2byte	(.L35-.L32)/2
 368 01ea C700     		.2byte	(.L36-.L32)/2
 369 01ec C100     		.2byte	(.L37-.L32)/2
 370 01ee BE00     		.2byte	(.L38-.L32)/2
 371 01f0 B700     		.2byte	(.L39-.L32)/2
 372 01f2 B000     		.2byte	(.L40-.L32)/2
 373 01f4 A000     		.2byte	(.L41-.L32)/2
 374              	.LVL31:
 375              		.p2align 1
 376              	.L227:
 377              		.loc 1 1069 0 discriminator 4
 378 01f6 2046     		mov	r0, r4
 379 01f8 FFF7FEFF 		bl	e_getchar_uart2
 380              	.LVL32:
 381 01fc 3B78     		ldrb	r3, [r7]	@ zero_extendqisi2
 382              	.L224:
 383              		.loc 1 1069 0 is_stmt 0 discriminator 1
 384 01fe 0A2B     		cmp	r3, #10
 385 0200 F9D0     		beq	.L227
 386              		.loc 1 1069 0 discriminator 3
 387 0202 0D2B     		cmp	r3, #13
 388 0204 F7D0     		beq	.L227
 389              		.loc 1 1072 0 is_stmt 1
 390 0206 0122     		movs	r2, #1
 391              		.loc 1 1071 0
 392 0208 88F80030 		strb	r3, [r8]
 393              		.loc 1 1072 0
 394 020c C9F80020 		str	r2, [r9]
 395              		.loc 1 1079 0
 396 0210 2F4C     		ldr	r4, .L812+32
 397 0212 04E0     		b	.L238
 398              	.L778:
 399 0214 3B78     		ldrb	r3, [r7]	@ zero_extendqisi2
ARM GAS  /tmp/ccZueut9.s 			page 8


 400              	.L236:
 401              		.loc 1 1080 0
 402 0216 0A2B     		cmp	r3, #10
 403 0218 96D0     		beq	.L239
 404              		.loc 1 1080 0 is_stmt 0 discriminator 1
 405 021a 0D2B     		cmp	r3, #13
 406 021c 94D0     		beq	.L239
 407              	.L238:
 408              		.loc 1 1079 0 is_stmt 1
 409 021e 2046     		mov	r0, r4
 410 0220 FFF7FEFF 		bl	e_getchar_uart2
 411              	.LVL33:
 412 0224 0028     		cmp	r0, #0
 413 0226 F5D0     		beq	.L778
 414              		.loc 1 1079 0 is_stmt 0 discriminator 1
 415 0228 D9F80020 		ldr	r2, [r9]
 416 022c 3B78     		ldrb	r3, [r7]	@ zero_extendqisi2
 417 022e 08F80230 		strb	r3, [r8, r2]
 418 0232 0132     		adds	r2, r2, #1
 419 0234 C9F80020 		str	r2, [r9]
 420 0238 EDE7     		b	.L236
 421              	.LVL34:
 422              	.L25:
 423              		.loc 1 207 0 is_stmt 1
 424 023a 284B     		ldr	r3, .L812+44
 425              	.L762:
 426              		.loc 1 208 0
 427 023c 284A     		ldr	r2, .L812+48
 428 023e 2949     		ldr	r1, .L812+52
 429 0240 1160     		str	r1, [r2]
 430              		.loc 1 207 0
 431 0242 294A     		ldr	r2, .L812+56
 432              		.loc 1 209 0
 433 0244 0C46     		mov	r4, r1
 434              		.loc 1 207 0
 435 0246 1360     		str	r3, [r2]
 436              	.LVL35:
 437              	.L26:
 438              		.loc 1 221 0
 439 0248 2046     		mov	r0, r4
 440 024a FFF7FEFF 		bl	e_set_speed_left
 441              	.LVL36:
 442              		.loc 1 222 0
 443 024e 264B     		ldr	r3, .L812+56
 444 0250 1868     		ldr	r0, [r3]
 445 0252 FFF7FEFF 		bl	e_set_speed_right
 446              	.LVL37:
 447 0256 0696     		str	r6, [sp, #24]
 448 0258 24E7     		b	.L11
 449              	.LVL38:
 450              	.L24:
 451              		.loc 1 203 0
 452 025a 234A     		ldr	r2, .L812+56
 453 025c 214B     		ldr	r3, .L812+52
 454 025e 1360     		str	r3, [r2]
 455              		.loc 1 204 0
 456 0260 1F4A     		ldr	r2, .L812+48
ARM GAS  /tmp/ccZueut9.s 			page 9


 457              		.loc 1 205 0
 458 0262 1C46     		mov	r4, r3
 459              		.loc 1 204 0
 460 0264 1360     		str	r3, [r2]
 461              		.loc 1 205 0
 462 0266 EFE7     		b	.L26
 463              	.L23:
 464              		.loc 1 200 0
 465 0268 1C4C     		ldr	r4, .L812+44
 466              	.L763:
 467              		.loc 1 199 0
 468 026a 1F4B     		ldr	r3, .L812+56
 469 026c 1D4A     		ldr	r2, .L812+52
 470 026e 1A60     		str	r2, [r3]
 471              		.loc 1 200 0
 472 0270 1B4B     		ldr	r3, .L812+48
 473 0272 1C60     		str	r4, [r3]
 474              		.loc 1 201 0
 475 0274 E8E7     		b	.L26
 476              	.L22:
 477              		.loc 1 196 0
 478 0276 4FF41674 		mov	r4, #600
 479 027a F6E7     		b	.L763
 480              	.L21:
 481              		.loc 1 191 0
 482 027c 1A4A     		ldr	r2, .L812+56
 483 027e 0023     		movs	r3, #0
 484 0280 1360     		str	r3, [r2]
 485              		.loc 1 192 0
 486 0282 174A     		ldr	r2, .L812+48
 487 0284 1360     		str	r3, [r2]
 488              		.loc 1 193 0
 489 0286 DFE7     		b	.L26
 490              	.L20:
 491              		.loc 1 187 0
 492 0288 4FF41673 		mov	r3, #600
 493 028c D6E7     		b	.L762
 494              	.L19:
 495              		.loc 1 183 0
 496 028e 164A     		ldr	r2, .L812+56
 497 0290 4FF49673 		mov	r3, #300
 498 0294 1360     		str	r3, [r2]
 499              		.loc 1 184 0
 500 0296 124B     		ldr	r3, .L812+48
 501 0298 4FF41674 		mov	r4, #600
 502 029c 1C60     		str	r4, [r3]
 503              		.loc 1 185 0
 504 029e D3E7     		b	.L26
 505              	.L18:
 506              		.loc 1 179 0
 507 02a0 114B     		ldr	r3, .L812+56
 508 02a2 4FF41674 		mov	r4, #600
 509 02a6 1C60     		str	r4, [r3]
 510              		.loc 1 180 0
 511 02a8 0D4B     		ldr	r3, .L812+48
 512 02aa 1C60     		str	r4, [r3]
 513              		.loc 1 181 0
ARM GAS  /tmp/ccZueut9.s 			page 10


 514 02ac CCE7     		b	.L26
 515              	.L813:
 516 02ae 00BF     		.align	2
 517              	.L812:
 518 02b0 00000000 		.word	__stack_chk_guard
 519 02b4 00000000 		.word	selector
 520 02b8 00000000 		.word	.LANCHOR5
 521 02bc 00000000 		.word	.LANCHOR1
 522 02c0 00000000 		.word	.LANCHOR0
 523 02c4 00000000 		.word	.LANCHOR2
 524 02c8 00000000 		.word	.LANCHOR3
 525 02cc 00000000 		.word	.LANCHOR4
 526 02d0 00000000 		.word	c
 527 02d4 F8000000 		.word	.LC13
 528 02d8 00000000 		.word	buffer
 529 02dc D4FEFFFF 		.word	-300
 530 02e0 00000000 		.word	.LANCHOR7
 531 02e4 A8FDFFFF 		.word	-600
 532 02e8 00000000 		.word	.LANCHOR6
 533 02ec 00000000 		.word	.LANCHOR9
 534 02f0 00000000 		.word	.LANCHOR17
 535              	.L17:
 536              		.loc 1 175 0
 537 02f4 8E4A     		ldr	r2, .L814
 538 02f6 4FF41673 		mov	r3, #600
 539 02fa 1360     		str	r3, [r2]
 540              		.loc 1 176 0
 541 02fc 8D4B     		ldr	r3, .L814+4
 542 02fe 4FF49674 		mov	r4, #300
 543 0302 1C60     		str	r4, [r3]
 544              		.loc 1 177 0
 545 0304 A0E7     		b	.L26
 546              	.L15:
 547              		.loc 1 211 0
 548 0306 8C4B     		ldr	r3, .L814+8
 549 0308 1B78     		ldrb	r3, [r3]	@ zero_extendqisi2
 550 030a 002B     		cmp	r3, #0
 551 030c 01F05086 		beq	.L779
 552              	.LVL39:
 553              	.L27:
 554              		.loc 1 215 0
 555 0310 41F65071 		movw	r1, #8016
 556 0314 42F61430 		movw	r0, #11028
 557 0318 FFF7FEFF 		bl	e_play_sound
 558              	.LVL40:
 559 031c 854B     		ldr	r3, .L814+4
 560 031e 1C68     		ldr	r4, [r3]
 561              		.loc 1 216 0
 562 0320 92E7     		b	.L26
 563              	.LVL41:
 564              	.L41:
 565              		.loc 1 269 0
 566 0322 864B     		ldr	r3, .L814+12
 567              	.L764:
 568              		.loc 1 270 0
 569 0324 834A     		ldr	r2, .L814+4
 570 0326 8649     		ldr	r1, .L814+16
ARM GAS  /tmp/ccZueut9.s 			page 11


 571 0328 1160     		str	r1, [r2]
 572              		.loc 1 269 0
 573 032a 814A     		ldr	r2, .L814
 574              		.loc 1 271 0
 575 032c 0C46     		mov	r4, r1
 576              		.loc 1 269 0
 577 032e 1360     		str	r3, [r2]
 578              	.LVL42:
 579              	.L42:
 580              		.loc 1 283 0
 581 0330 2046     		mov	r0, r4
 582 0332 FFF7FEFF 		bl	e_set_speed_left
 583              	.LVL43:
 584              		.loc 1 284 0
 585 0336 7E4B     		ldr	r3, .L814
 586 0338 1868     		ldr	r0, [r3]
 587 033a FFF7FEFF 		bl	e_set_speed_right
 588              	.LVL44:
 589 033e 0696     		str	r6, [sp, #24]
 590 0340 39E7     		b	.L12
 591              	.LVL45:
 592              	.L40:
 593              		.loc 1 265 0
 594 0342 7B4A     		ldr	r2, .L814
 595 0344 7E4B     		ldr	r3, .L814+16
 596 0346 1360     		str	r3, [r2]
 597              		.loc 1 266 0
 598 0348 7A4A     		ldr	r2, .L814+4
 599              		.loc 1 267 0
 600 034a 1C46     		mov	r4, r3
 601              		.loc 1 266 0
 602 034c 1360     		str	r3, [r2]
 603              		.loc 1 267 0
 604 034e EFE7     		b	.L42
 605              	.L39:
 606              		.loc 1 262 0
 607 0350 7A4C     		ldr	r4, .L814+12
 608              	.L765:
 609              		.loc 1 261 0
 610 0352 774B     		ldr	r3, .L814
 611 0354 7A4A     		ldr	r2, .L814+16
 612 0356 1A60     		str	r2, [r3]
 613              		.loc 1 262 0
 614 0358 764B     		ldr	r3, .L814+4
 615 035a 1C60     		str	r4, [r3]
 616              		.loc 1 263 0
 617 035c E8E7     		b	.L42
 618              	.L38:
 619              		.loc 1 258 0
 620 035e 4FF41674 		mov	r4, #600
 621 0362 F6E7     		b	.L765
 622              	.L37:
 623              		.loc 1 253 0
 624 0364 724A     		ldr	r2, .L814
 625 0366 0023     		movs	r3, #0
 626 0368 1360     		str	r3, [r2]
 627              		.loc 1 254 0
ARM GAS  /tmp/ccZueut9.s 			page 12


 628 036a 724A     		ldr	r2, .L814+4
 629 036c 1360     		str	r3, [r2]
 630              		.loc 1 255 0
 631 036e DFE7     		b	.L42
 632              	.L36:
 633              		.loc 1 249 0
 634 0370 4FF41673 		mov	r3, #600
 635 0374 D6E7     		b	.L764
 636              	.L35:
 637              		.loc 1 245 0
 638 0376 6E4A     		ldr	r2, .L814
 639 0378 4FF49673 		mov	r3, #300
 640 037c 1360     		str	r3, [r2]
 641              		.loc 1 246 0
 642 037e 6D4B     		ldr	r3, .L814+4
 643 0380 4FF41674 		mov	r4, #600
 644 0384 1C60     		str	r4, [r3]
 645              		.loc 1 247 0
 646 0386 D3E7     		b	.L42
 647              	.L34:
 648              		.loc 1 241 0
 649 0388 694B     		ldr	r3, .L814
 650 038a 4FF41674 		mov	r4, #600
 651 038e 1C60     		str	r4, [r3]
 652              		.loc 1 242 0
 653 0390 684B     		ldr	r3, .L814+4
 654 0392 1C60     		str	r4, [r3]
 655              		.loc 1 243 0
 656 0394 CCE7     		b	.L42
 657              	.L33:
 658              		.loc 1 237 0
 659 0396 664A     		ldr	r2, .L814
 660 0398 4FF41673 		mov	r3, #600
 661 039c 1360     		str	r3, [r2]
 662              		.loc 1 238 0
 663 039e 654B     		ldr	r3, .L814+4
 664 03a0 4FF49674 		mov	r4, #300
 665 03a4 1C60     		str	r4, [r3]
 666              		.loc 1 239 0
 667 03a6 C3E7     		b	.L42
 668              	.L31:
 669              		.loc 1 273 0
 670 03a8 634B     		ldr	r3, .L814+8
 671 03aa 1B78     		ldrb	r3, [r3]	@ zero_extendqisi2
 672 03ac 002B     		cmp	r3, #0
 673 03ae 01F00686 		beq	.L780
 674              	.LVL46:
 675              	.L43:
 676              		.loc 1 277 0
 677 03b2 41F65071 		movw	r1, #8016
 678 03b6 42F61430 		movw	r0, #11028
 679 03ba FFF7FEFF 		bl	e_play_sound
 680              	.LVL47:
 681 03be 5D4B     		ldr	r3, .L814+4
 682 03c0 1C68     		ldr	r4, [r3]
 683              		.loc 1 278 0
 684 03c2 B5E7     		b	.L42
ARM GAS  /tmp/ccZueut9.s 			page 13


 685              	.LVL48:
 686              	.L772:
 687              		.loc 1 293 0
 688 03c4 0022     		movs	r2, #0
 689              		.loc 1 1038 0
 690 03c6 5F4E     		ldr	r6, .L814+20
 691              		.loc 1 752 0
 692 03c8 9FED5F8A 		vldr.32	s16, .L814+24
 693              		.loc 1 293 0
 694 03cc C9F80020 		str	r2, [r9]
 695 03d0 5B42     		negs	r3, r3
 696 03d2 5D46     		mov	r5, fp
 697              	.L46:
 698              		.loc 1 295 0
 699 03d4 DAB2     		uxtb	r2, r3
 700 03d6 083A     		subs	r2, r2, #8
 701 03d8 6F2A     		cmp	r2, #111
 702 03da 00F29080 		bhi	.L47
 703 03de DFE812F0 		tbh	[pc, r2, lsl #1]
 704              	.L49:
 705 03e2 ED04     		.2byte	(.L48-.L49)/2
 706 03e4 D703     		.2byte	(.L50-.L49)/2
 707 03e6 A804     		.2byte	(.L51-.L49)/2
 708 03e8 7E03     		.2byte	(.L52-.L49)/2
 709 03ea 7F04     		.2byte	(.L53-.L49)/2
 710 03ec B003     		.2byte	(.L54-.L49)/2
 711 03ee AB01     		.2byte	(.L55-.L49)/2
 712 03f0 7000     		.2byte	(.L56-.L49)/2
 713 03f2 8102     		.2byte	(.L57-.L49)/2
 714 03f4 1D02     		.2byte	(.L58-.L49)/2
 715 03f6 8E00     		.2byte	(.L47-.L49)/2
 716 03f8 8E00     		.2byte	(.L47-.L49)/2
 717 03fa 8E00     		.2byte	(.L47-.L49)/2
 718 03fc 8E00     		.2byte	(.L47-.L49)/2
 719 03fe 8E00     		.2byte	(.L47-.L49)/2
 720 0400 8E00     		.2byte	(.L47-.L49)/2
 721 0402 8E00     		.2byte	(.L47-.L49)/2
 722 0404 8E00     		.2byte	(.L47-.L49)/2
 723 0406 8E00     		.2byte	(.L47-.L49)/2
 724 0408 8E00     		.2byte	(.L47-.L49)/2
 725 040a 8E00     		.2byte	(.L47-.L49)/2
 726 040c 8E00     		.2byte	(.L47-.L49)/2
 727 040e 8E00     		.2byte	(.L47-.L49)/2
 728 0410 8E00     		.2byte	(.L47-.L49)/2
 729 0412 8E00     		.2byte	(.L47-.L49)/2
 730 0414 8E00     		.2byte	(.L47-.L49)/2
 731 0416 8E00     		.2byte	(.L47-.L49)/2
 732 0418 8E00     		.2byte	(.L47-.L49)/2
 733 041a 8E00     		.2byte	(.L47-.L49)/2
 734 041c 8E00     		.2byte	(.L47-.L49)/2
 735 041e 8E00     		.2byte	(.L47-.L49)/2
 736 0420 8E00     		.2byte	(.L47-.L49)/2
 737 0422 8E00     		.2byte	(.L47-.L49)/2
 738 0424 8E00     		.2byte	(.L47-.L49)/2
 739 0426 8E00     		.2byte	(.L47-.L49)/2
 740 0428 8E00     		.2byte	(.L47-.L49)/2
 741 042a 8E00     		.2byte	(.L47-.L49)/2
ARM GAS  /tmp/ccZueut9.s 			page 14


 742 042c 8E00     		.2byte	(.L47-.L49)/2
 743 042e 8E00     		.2byte	(.L47-.L49)/2
 744 0430 8E00     		.2byte	(.L47-.L49)/2
 745 0432 8E00     		.2byte	(.L47-.L49)/2
 746 0434 8E00     		.2byte	(.L47-.L49)/2
 747 0436 8E00     		.2byte	(.L47-.L49)/2
 748 0438 8E00     		.2byte	(.L47-.L49)/2
 749 043a 8E00     		.2byte	(.L47-.L49)/2
 750 043c 8E00     		.2byte	(.L47-.L49)/2
 751 043e 8E00     		.2byte	(.L47-.L49)/2
 752 0440 8E00     		.2byte	(.L47-.L49)/2
 753 0442 8E00     		.2byte	(.L47-.L49)/2
 754 0444 8E00     		.2byte	(.L47-.L49)/2
 755 0446 8E00     		.2byte	(.L47-.L49)/2
 756 0448 8E00     		.2byte	(.L47-.L49)/2
 757 044a 8E00     		.2byte	(.L47-.L49)/2
 758 044c 8E00     		.2byte	(.L47-.L49)/2
 759 044e 8E00     		.2byte	(.L47-.L49)/2
 760 0450 8E00     		.2byte	(.L47-.L49)/2
 761 0452 8E00     		.2byte	(.L47-.L49)/2
 762 0454 3602     		.2byte	(.L59-.L49)/2
 763 0456 8E00     		.2byte	(.L47-.L49)/2
 764 0458 8E00     		.2byte	(.L47-.L49)/2
 765 045a C601     		.2byte	(.L60-.L49)/2
 766 045c C402     		.2byte	(.L61-.L49)/2
 767 045e 8E00     		.2byte	(.L47-.L49)/2
 768 0460 8E00     		.2byte	(.L47-.L49)/2
 769 0462 8E00     		.2byte	(.L47-.L49)/2
 770 0464 A102     		.2byte	(.L62-.L49)/2
 771 0466 8E00     		.2byte	(.L47-.L49)/2
 772 0468 8E00     		.2byte	(.L47-.L49)/2
 773 046a 8803     		.2byte	(.L63-.L49)/2
 774 046c 5901     		.2byte	(.L64-.L49)/2
 775 046e EA00     		.2byte	(.L65-.L49)/2
 776 0470 D200     		.2byte	(.L66-.L49)/2
 777 0472 0201     		.2byte	(.L67-.L49)/2
 778 0474 B700     		.2byte	(.L68-.L49)/2
 779 0476 8E00     		.2byte	(.L47-.L49)/2
 780 0478 8E00     		.2byte	(.L47-.L49)/2
 781 047a 8E00     		.2byte	(.L47-.L49)/2
 782 047c 8E00     		.2byte	(.L47-.L49)/2
 783 047e 8E00     		.2byte	(.L47-.L49)/2
 784 0480 4803     		.2byte	(.L69-.L49)/2
 785 0482 8E00     		.2byte	(.L47-.L49)/2
 786 0484 F502     		.2byte	(.L70-.L49)/2
 787 0486 8E00     		.2byte	(.L47-.L49)/2
 788 0488 8E00     		.2byte	(.L47-.L49)/2
 789 048a 8E00     		.2byte	(.L47-.L49)/2
 790 048c 8E00     		.2byte	(.L47-.L49)/2
 791 048e 8E00     		.2byte	(.L47-.L49)/2
 792 0490 8E00     		.2byte	(.L47-.L49)/2
 793 0492 8E00     		.2byte	(.L47-.L49)/2
 794 0494 2703     		.2byte	(.L71-.L49)/2
 795 0496 B801     		.2byte	(.L72-.L49)/2
 796 0498 8E00     		.2byte	(.L47-.L49)/2
 797 049a 8E00     		.2byte	(.L47-.L49)/2
 798 049c 8E00     		.2byte	(.L47-.L49)/2
ARM GAS  /tmp/ccZueut9.s 			page 15


 799 049e 8E00     		.2byte	(.L47-.L49)/2
 800 04a0 E202     		.2byte	(.L73-.L49)/2
 801 04a2 8E00     		.2byte	(.L47-.L49)/2
 802 04a4 8E00     		.2byte	(.L47-.L49)/2
 803 04a6 8E00     		.2byte	(.L47-.L49)/2
 804 04a8 8E00     		.2byte	(.L47-.L49)/2
 805 04aa 8E00     		.2byte	(.L47-.L49)/2
 806 04ac 8E00     		.2byte	(.L47-.L49)/2
 807 04ae 8E00     		.2byte	(.L47-.L49)/2
 808 04b0 8E00     		.2byte	(.L47-.L49)/2
 809 04b2 8E00     		.2byte	(.L47-.L49)/2
 810 04b4 8E00     		.2byte	(.L47-.L49)/2
 811 04b6 8E00     		.2byte	(.L47-.L49)/2
 812 04b8 8E00     		.2byte	(.L47-.L49)/2
 813 04ba D702     		.2byte	(.L74-.L49)/2
 814 04bc 8B01     		.2byte	(.L75-.L49)/2
 815 04be 8E00     		.2byte	(.L47-.L49)/2
 816 04c0 8A06     		.2byte	(.L76-.L49)/2
 817              		.p2align 1
 818              	.L56:
 819              		.loc 1 634 0
 820 04c2 55B9     		cbnz	r5, .L131
 821              		.loc 1 636 0
 822 04c4 079B     		ldr	r3, [sp, #28]
 823 04c6 002B     		cmp	r3, #0
 824 04c8 01F09E87 		beq	.L132
 825              		.loc 1 637 0
 826 04cc 1F4B     		ldr	r3, .L814+28
 827 04ce 1F48     		ldr	r0, .L814+28
 828 04d0 1B68     		ldr	r3, [r3]
 829 04d2 0122     		movs	r2, #1
 830 04d4 5B68     		ldr	r3, [r3, #4]
 831 04d6 14A9     		add	r1, sp, #80
 832 04d8 9847     		blx	r3
 833              	.LVL49:
 834              	.L131:
 835              		.loc 1 647 0
 836 04da FFF7FEFF 		bl	serial_get_last_errors
 837              	.LVL50:
 838 04de 0028     		cmp	r0, #0
 839 04e0 41F0F084 		bne	.L134
 840              		.loc 1 654 0
 841 04e4 9DF85030 		ldrb	r3, [sp, #80]	@ zero_extendqisi2
 842 04e8 012B     		cmp	r3, #1
 843 04ea 01F00987 		beq	.L781
 844              	.L145:
 845              		.loc 1 723 0
 846 04ee D9F80030 		ldr	r3, [r9]
 847 04f2 0021     		movs	r1, #0
 848 04f4 5A1C     		adds	r2, r3, #1
 849 04f6 08F80310 		strb	r1, [r8, r3]
 850 04fa C9F80020 		str	r2, [r9]
 851              	.L47:
 852              		.loc 1 1035 0
 853 04fe 35B9     		cbnz	r5, .L769
 854              	.L128:
 855              		.loc 1 1037 0
ARM GAS  /tmp/ccZueut9.s 			page 16


 856 0500 079B     		ldr	r3, [sp, #28]
 857 0502 53B1     		cbz	r3, .L216
 858              	.L217:
 859              		.loc 1 1038 0 discriminator 1
 860 0504 3046     		mov	r0, r6
 861 0506 FFF7FEFF 		bl	e_getchar_uart1
 862              	.LVL51:
 863 050a 0028     		cmp	r0, #0
 864 050c FAD0     		beq	.L217
 865              	.L769:
 866 050e 3B78     		ldrb	r3, [r7]	@ zero_extendqisi2
 867              	.L191:
 868              		.loc 1 1042 0
 869 0510 002B     		cmp	r3, #0
 870 0512 00F08B86 		beq	.L740
 871 0516 5B42     		negs	r3, r3
 872 0518 5CE7     		b	.L46
 873              	.L216:
 874              		.loc 1 1040 0 discriminator 1
 875 051a 3046     		mov	r0, r6
 876 051c FFF7FEFF 		bl	e_getchar_uart2
 877              	.LVL52:
 878 0520 0028     		cmp	r0, #0
 879 0522 F4D1     		bne	.L769
 880              		.loc 1 1040 0 is_stmt 0
 881 0524 3046     		mov	r0, r6
 882 0526 FFF7FEFF 		bl	e_getchar_uart2
 883              	.LVL53:
 884 052a 0028     		cmp	r0, #0
 885 052c F5D0     		beq	.L216
 886 052e EEE7     		b	.L769
 887              	.L815:
 888              		.align	2
 889              	.L814:
 890 0530 00000000 		.word	.LANCHOR6
 891 0534 00000000 		.word	.LANCHOR7
 892 0538 00000000 		.word	.LANCHOR8
 893 053c D4FEFFFF 		.word	-300
 894 0540 A8FDFFFF 		.word	-600
 895 0544 00000000 		.word	c
 896 0548 00000000 		.word	0
 897 054c 00000000 		.word	SD3
 898              	.L68:
 899              		.loc 1 935 0 is_stmt 1
 900 0550 FFF7FEFF 		bl	e_get_steps_left
 901              	.LVL54:
 902              		.loc 1 936 0
 903 0554 D9F80030 		ldr	r3, [r9]
 904              		.loc 1 937 0
 905 0558 08EB0302 		add	r2, r8, r3
 906              		.loc 1 936 0
 907 055c 08F80300 		strb	r0, [r8, r3]
 908              		.loc 1 937 0
 909 0560 0112     		asrs	r1, r0, #8
 910 0562 0233     		adds	r3, r3, #2
 911 0564 5170     		strb	r1, [r2, #1]
 912 0566 C9F80030 		str	r3, [r9]
ARM GAS  /tmp/ccZueut9.s 			page 17


 913              		.loc 1 938 0
 914 056a FFF7FEFF 		bl	e_get_steps_right
 915              	.LVL55:
 916              	.L768:
 917              		.loc 1 961 0
 918 056e D9F80030 		ldr	r3, [r9]
 919              		.loc 1 962 0
 920 0572 08EB0302 		add	r2, r8, r3
 921              		.loc 1 961 0
 922 0576 08F80300 		strb	r0, [r8, r3]
 923              		.loc 1 962 0
 924 057a 0112     		asrs	r1, r0, #8
 925 057c 0233     		adds	r3, r3, #2
 926 057e 5170     		strb	r1, [r2, #1]
 927 0580 C9F80030 		str	r3, [r9]
 928              		.loc 1 963 0
 929 0584 BBE7     		b	.L47
 930              	.L66:
 931              		.loc 1 903 0
 932 0586 0020     		movs	r0, #0
 933 0588 CAF80000 		str	r0, [r10]
 934              	.L176:
 935              		.loc 1 904 0 discriminator 3
 936 058c FFF7FEFF 		bl	e_get_ambient_light
 937              	.LVL56:
 938              		.loc 1 905 0 discriminator 3
 939 0590 D9F80020 		ldr	r2, [r9]
 940              		.loc 1 903 0 discriminator 3
 941 0594 DAF80030 		ldr	r3, [r10]
 942              		.loc 1 905 0 discriminator 3
 943 0598 08F80200 		strb	r0, [r8, r2]
 944              		.loc 1 906 0 discriminator 3
 945 059c 08EB0204 		add	r4, r8, r2
 946 05a0 0112     		asrs	r1, r0, #8
 947              		.loc 1 903 0 discriminator 3
 948 05a2 581C     		adds	r0, r3, #1
 949              		.loc 1 906 0 discriminator 3
 950 05a4 0232     		adds	r2, r2, #2
 951              		.loc 1 903 0 discriminator 3
 952 05a6 0728     		cmp	r0, #7
 953              		.loc 1 906 0 discriminator 3
 954 05a8 6170     		strb	r1, [r4, #1]
 955 05aa C9F80020 		str	r2, [r9]
 956              		.loc 1 903 0 discriminator 3
 957 05ae CAF80000 		str	r0, [r10]
 958 05b2 EBDD     		ble	.L176
 959 05b4 A3E7     		b	.L47
 960              	.L65:
 961              		.loc 1 896 0
 962 05b6 0020     		movs	r0, #0
 963 05b8 CAF80000 		str	r0, [r10]
 964              	.L174:
 965              		.loc 1 897 0 discriminator 3
 966 05bc FFF7FEFF 		bl	e_get_calibrated_prox
 967              	.LVL57:
 968              		.loc 1 898 0 discriminator 3
 969 05c0 D9F80020 		ldr	r2, [r9]
ARM GAS  /tmp/ccZueut9.s 			page 18


 970              		.loc 1 896 0 discriminator 3
 971 05c4 DAF80030 		ldr	r3, [r10]
 972              		.loc 1 898 0 discriminator 3
 973 05c8 08F80200 		strb	r0, [r8, r2]
 974              		.loc 1 899 0 discriminator 3
 975 05cc 08EB0204 		add	r4, r8, r2
 976 05d0 0112     		asrs	r1, r0, #8
 977              		.loc 1 896 0 discriminator 3
 978 05d2 581C     		adds	r0, r3, #1
 979              		.loc 1 899 0 discriminator 3
 980 05d4 0232     		adds	r2, r2, #2
 981              		.loc 1 896 0 discriminator 3
 982 05d6 0728     		cmp	r0, #7
 983              		.loc 1 899 0 discriminator 3
 984 05d8 6170     		strb	r1, [r4, #1]
 985 05da C9F80020 		str	r2, [r9]
 986              		.loc 1 896 0 discriminator 3
 987 05de CAF80000 		str	r0, [r10]
 988 05e2 EBDD     		ble	.L174
 989 05e4 8BE7     		b	.L47
 990              	.L67:
 991              		.loc 1 911 0
 992 05e6 002D     		cmp	r5, #0
 993 05e8 41F0CC84 		bne	.L177
 994              		.loc 1 913 0
 995 05ec 079B     		ldr	r3, [sp, #28]
 996              		.loc 1 914 0
 997 05ee B54C     		ldr	r4, .L816
 998              		.loc 1 913 0
 999 05f0 002B     		cmp	r3, #0
 1000 05f2 2FD0     		beq	.L178
 1001              	.L179:
 1002              		.loc 1 914 0 discriminator 1
 1003 05f4 2046     		mov	r0, r4
 1004 05f6 FFF7FEFF 		bl	e_getchar_uart1
 1005              	.LVL58:
 1006 05fa 0028     		cmp	r0, #0
 1007 05fc FAD0     		beq	.L179
 1008              		.loc 1 915 0
 1009 05fe B24C     		ldr	r4, .L816+4
 1010              	.L180:
 1011              		.loc 1 915 0 is_stmt 0 discriminator 1
 1012 0600 2046     		mov	r0, r4
 1013 0602 FFF7FEFF 		bl	e_getchar_uart1
 1014              	.LVL59:
 1015 0606 0028     		cmp	r0, #0
 1016 0608 FAD0     		beq	.L180
 1017              		.loc 1 920 0 is_stmt 1
 1018 060a AF4B     		ldr	r3, .L816+4
 1019              		.loc 1 924 0
 1020 060c AD4C     		ldr	r4, .L816
 1021              		.loc 1 920 0
 1022 060e 1A78     		ldrb	r2, [r3]	@ zero_extendqisi2
 1023 0610 AC4B     		ldr	r3, .L816
 1024 0612 1B78     		ldrb	r3, [r3]	@ zero_extendqisi2
 1025 0614 03EB0223 		add	r3, r3, r2, lsl #8
 1026 0618 AC4A     		ldr	r2, .L816+8
ARM GAS  /tmp/ccZueut9.s 			page 19


 1027 061a 1360     		str	r3, [r2]
 1028              	.L184:
 1029              		.loc 1 924 0 discriminator 1
 1030 061c 2046     		mov	r0, r4
 1031 061e FFF7FEFF 		bl	e_getchar_uart1
 1032              	.LVL60:
 1033 0622 0028     		cmp	r0, #0
 1034 0624 FAD0     		beq	.L184
 1035              		.loc 1 925 0
 1036 0626 A84C     		ldr	r4, .L816+4
 1037              	.L185:
 1038              		.loc 1 925 0 is_stmt 0 discriminator 1
 1039 0628 2046     		mov	r0, r4
 1040 062a FFF7FEFF 		bl	e_getchar_uart1
 1041              	.LVL61:
 1042 062e 0028     		cmp	r0, #0
 1043 0630 FAD0     		beq	.L185
 1044              	.L739:
 1045 0632 A54B     		ldr	r3, .L816+4
 1046 0634 A549     		ldr	r1, .L816+8
 1047 0636 1A78     		ldrb	r2, [r3]	@ zero_extendqisi2
 1048 0638 A24B     		ldr	r3, .L816
 1049 063a 0868     		ldr	r0, [r1]
 1050 063c 1B78     		ldrb	r3, [r3]	@ zero_extendqisi2
 1051 063e 03EB0223 		add	r3, r3, r2, lsl #8
 1052              	.L189:
 1053              		.loc 1 930 0 is_stmt 1
 1054 0642 A34A     		ldr	r2, .L816+12
 1055 0644 1446     		mov	r4, r2
 1056 0646 1360     		str	r3, [r2]
 1057              		.loc 1 931 0
 1058 0648 FFF7FEFF 		bl	e_set_steps_left
 1059              	.LVL62:
 1060              		.loc 1 932 0
 1061 064c 2068     		ldr	r0, [r4]
 1062 064e FFF7FEFF 		bl	e_set_steps_right
 1063              	.LVL63:
 1064              		.loc 1 933 0
 1065 0652 54E7     		b	.L47
 1066              	.L178:
 1067              		.loc 1 917 0 discriminator 1
 1068 0654 2046     		mov	r0, r4
 1069 0656 FFF7FEFF 		bl	e_getchar_uart2
 1070              	.LVL64:
 1071 065a 0028     		cmp	r0, #0
 1072 065c FAD0     		beq	.L178
 1073              		.loc 1 918 0
 1074 065e 9A4C     		ldr	r4, .L816+4
 1075              	.L182:
 1076              		.loc 1 918 0 is_stmt 0 discriminator 1
 1077 0660 2046     		mov	r0, r4
 1078 0662 FFF7FEFF 		bl	e_getchar_uart2
 1079              	.LVL65:
 1080 0666 0028     		cmp	r0, #0
 1081 0668 FAD0     		beq	.L182
 1082              		.loc 1 920 0 is_stmt 1
 1083 066a 974B     		ldr	r3, .L816+4
ARM GAS  /tmp/ccZueut9.s 			page 20


 1084              		.loc 1 927 0
 1085 066c 954C     		ldr	r4, .L816
 1086              		.loc 1 920 0
 1087 066e 1A78     		ldrb	r2, [r3]	@ zero_extendqisi2
 1088 0670 944B     		ldr	r3, .L816
 1089 0672 1B78     		ldrb	r3, [r3]	@ zero_extendqisi2
 1090 0674 03EB0223 		add	r3, r3, r2, lsl #8
 1091 0678 944A     		ldr	r2, .L816+8
 1092 067a 1360     		str	r3, [r2]
 1093              	.L187:
 1094              		.loc 1 927 0 discriminator 1
 1095 067c 2046     		mov	r0, r4
 1096 067e FFF7FEFF 		bl	e_getchar_uart2
 1097              	.LVL66:
 1098 0682 0028     		cmp	r0, #0
 1099 0684 FAD0     		beq	.L187
 1100              		.loc 1 928 0
 1101 0686 904C     		ldr	r4, .L816+4
 1102              	.L188:
 1103              		.loc 1 928 0 is_stmt 0 discriminator 1
 1104 0688 2046     		mov	r0, r4
 1105 068a FFF7FEFF 		bl	e_getchar_uart2
 1106              	.LVL67:
 1107 068e 0028     		cmp	r0, #0
 1108 0690 FAD0     		beq	.L188
 1109 0692 CEE7     		b	.L739
 1110              	.L64:
 1111              		.loc 1 876 0 is_stmt 1
 1112 0694 002D     		cmp	r5, #0
 1113 0696 7FF49DAE 		bne	.L46
 1114              		.loc 1 877 0
 1115 069a CAF80050 		str	r5, [r10]
 1116 069e 2846     		mov	r0, r5
 1117              	.L172:
 1118              		.loc 1 878 0 discriminator 3
 1119 06a0 FFF7FEFF 		bl	get_ground_prox
 1120              	.LVL68:
 1121              		.loc 1 879 0 discriminator 3
 1122 06a4 D9F80020 		ldr	r2, [r9]
 1123              		.loc 1 877 0 discriminator 3
 1124 06a8 DAF80030 		ldr	r3, [r10]
 1125              		.loc 1 879 0 discriminator 3
 1126 06ac 08F80200 		strb	r0, [r8, r2]
 1127              		.loc 1 880 0 discriminator 3
 1128 06b0 08EB0204 		add	r4, r8, r2
 1129 06b4 0112     		asrs	r1, r0, #8
 1130              		.loc 1 877 0 discriminator 3
 1131 06b6 581C     		adds	r0, r3, #1
 1132              		.loc 1 880 0 discriminator 3
 1133 06b8 0232     		adds	r2, r2, #2
 1134              		.loc 1 877 0 discriminator 3
 1135 06ba 0228     		cmp	r0, #2
 1136              		.loc 1 880 0 discriminator 3
 1137 06bc 6170     		strb	r1, [r4, #1]
 1138 06be C9F80020 		str	r2, [r9]
 1139              		.loc 1 877 0 discriminator 3
 1140 06c2 CAF80000 		str	r0, [r10]
ARM GAS  /tmp/ccZueut9.s 			page 21


 1141 06c6 EBDD     		ble	.L172
 1142              		.loc 1 883 0
 1143 06c8 0320     		movs	r0, #3
 1144 06ca CAF80000 		str	r0, [r10]
 1145              	.L173:
 1146              		.loc 1 884 0 discriminator 3
 1147 06ce FFF7FEFF 		bl	get_ground_prox
 1148              	.LVL69:
 1149              		.loc 1 885 0 discriminator 3
 1150 06d2 D9F80020 		ldr	r2, [r9]
 1151              		.loc 1 883 0 discriminator 3
 1152 06d6 DAF80030 		ldr	r3, [r10]
 1153              		.loc 1 885 0 discriminator 3
 1154 06da 08F80200 		strb	r0, [r8, r2]
 1155              		.loc 1 886 0 discriminator 3
 1156 06de 08EB0204 		add	r4, r8, r2
 1157 06e2 0112     		asrs	r1, r0, #8
 1158              		.loc 1 883 0 discriminator 3
 1159 06e4 581C     		adds	r0, r3, #1
 1160              		.loc 1 886 0 discriminator 3
 1161 06e6 0232     		adds	r2, r2, #2
 1162              		.loc 1 883 0 discriminator 3
 1163 06e8 0328     		cmp	r0, #3
 1164              		.loc 1 886 0 discriminator 3
 1165 06ea 6170     		strb	r1, [r4, #1]
 1166 06ec C9F80020 		str	r2, [r9]
 1167              		.loc 1 883 0 discriminator 3
 1168 06f0 CAF80000 		str	r0, [r10]
 1169 06f4 EBDD     		ble	.L173
 1170 06f6 03E7     		b	.L128
 1171              	.L75:
 1172              		.loc 1 952 0
 1173 06f8 0020     		movs	r0, #0
 1174 06fa FFF7FEFF 		bl	e_get_micro_volume
 1175              	.LVL70:
 1176              		.loc 1 953 0
 1177 06fe D9F80030 		ldr	r3, [r9]
 1178              		.loc 1 954 0
 1179 0702 08EB0302 		add	r2, r8, r3
 1180 0706 0112     		asrs	r1, r0, #8
 1181              		.loc 1 953 0
 1182 0708 08F80300 		strb	r0, [r8, r3]
 1183              		.loc 1 954 0
 1184 070c 0233     		adds	r3, r3, #2
 1185              		.loc 1 956 0
 1186 070e 0120     		movs	r0, #1
 1187              		.loc 1 954 0
 1188 0710 5170     		strb	r1, [r2, #1]
 1189 0712 C9F80030 		str	r3, [r9]
 1190              		.loc 1 956 0
 1191 0716 FFF7FEFF 		bl	e_get_micro_volume
 1192              	.LVL71:
 1193              		.loc 1 957 0
 1194 071a D9F80030 		ldr	r3, [r9]
 1195              		.loc 1 958 0
 1196 071e 0112     		asrs	r1, r0, #8
 1197              		.loc 1 957 0
ARM GAS  /tmp/ccZueut9.s 			page 22


 1198 0720 08F80300 		strb	r0, [r8, r3]
 1199              		.loc 1 958 0
 1200 0724 08EB0302 		add	r2, r8, r3
 1201              		.loc 1 960 0
 1202 0728 0220     		movs	r0, #2
 1203              		.loc 1 958 0
 1204 072a 0233     		adds	r3, r3, #2
 1205              	.L767:
 1206 072c 5170     		strb	r1, [r2, #1]
 1207 072e C9F80030 		str	r3, [r9]
 1208              		.loc 1 960 0
 1209 0732 FFF7FEFF 		bl	e_get_micro_volume
 1210              	.LVL72:
 1211 0736 1AE7     		b	.L768
 1212              	.L55:
 1213              		.loc 1 624 0
 1214 0738 FFF7FEFF 		bl	sdio_is_present
 1215              	.LVL73:
 1216 073c 0028     		cmp	r0, #0
 1217 073e 41F06E85 		bne	.L782
 1218              		.loc 1 629 0
 1219 0742 D9F80030 		ldr	r3, [r9]
 1220 0746 5A1C     		adds	r2, r3, #1
 1221 0748 08F80300 		strb	r0, [r8, r3]
 1222 074c C9F80020 		str	r2, [r9]
 1223 0750 D5E6     		b	.L47
 1224              	.L72:
 1225              		.loc 1 786 0
 1226 0752 FFF7FEFF 		bl	getBatteryValueRaw
 1227              	.LVL74:
 1228              		.loc 1 787 0
 1229 0756 D9F80030 		ldr	r3, [r9]
 1230              		.loc 1 788 0
 1231 075a 08EB0302 		add	r2, r8, r3
 1232              		.loc 1 787 0
 1233 075e 08F80300 		strb	r0, [r8, r3]
 1234              		.loc 1 788 0
 1235 0762 010A     		lsrs	r1, r0, #8
 1236 0764 0233     		adds	r3, r3, #2
 1237 0766 5170     		strb	r1, [r2, #1]
 1238 0768 C9F80030 		str	r3, [r9]
 1239              		.loc 1 789 0
 1240 076c C7E6     		b	.L47
 1241              	.LVL75:
 1242              	.L60:
 1243              		.loc 1 792 0
 1244 076e 002D     		cmp	r5, #0
 1245 0770 41F01384 		bne	.L150
 1246              		.loc 1 794 0
 1247 0774 079B     		ldr	r3, [sp, #28]
 1248              		.loc 1 795 0
 1249 0776 534C     		ldr	r4, .L816
 1250              		.loc 1 794 0
 1251 0778 002B     		cmp	r3, #0
 1252 077a 2FD0     		beq	.L151
 1253              	.L152:
 1254              		.loc 1 795 0 discriminator 1
ARM GAS  /tmp/ccZueut9.s 			page 23


 1255 077c 2046     		mov	r0, r4
 1256 077e FFF7FEFF 		bl	e_getchar_uart1
 1257              	.LVL76:
 1258 0782 0028     		cmp	r0, #0
 1259 0784 FAD0     		beq	.L152
 1260              		.loc 1 796 0
 1261 0786 504C     		ldr	r4, .L816+4
 1262              	.L153:
 1263              		.loc 1 796 0 is_stmt 0 discriminator 1
 1264 0788 2046     		mov	r0, r4
 1265 078a FFF7FEFF 		bl	e_getchar_uart1
 1266              	.LVL77:
 1267 078e 0028     		cmp	r0, #0
 1268 0790 FAD0     		beq	.L153
 1269              		.loc 1 801 0 is_stmt 1
 1270 0792 4D4B     		ldr	r3, .L816+4
 1271              		.loc 1 805 0
 1272 0794 4B4C     		ldr	r4, .L816
 1273              		.loc 1 801 0
 1274 0796 1A78     		ldrb	r2, [r3]	@ zero_extendqisi2
 1275 0798 4A4B     		ldr	r3, .L816
 1276 079a 1B78     		ldrb	r3, [r3]	@ zero_extendqisi2
 1277 079c 03EB0223 		add	r3, r3, r2, lsl #8
 1278 07a0 4C4A     		ldr	r2, .L816+16
 1279 07a2 1360     		str	r3, [r2]
 1280              	.L157:
 1281              		.loc 1 805 0 discriminator 1
 1282 07a4 2046     		mov	r0, r4
 1283 07a6 FFF7FEFF 		bl	e_getchar_uart1
 1284              	.LVL78:
 1285 07aa 0028     		cmp	r0, #0
 1286 07ac FAD0     		beq	.L157
 1287              		.loc 1 806 0
 1288 07ae 464C     		ldr	r4, .L816+4
 1289              	.L158:
 1290              		.loc 1 806 0 is_stmt 0 discriminator 1
 1291 07b0 2046     		mov	r0, r4
 1292 07b2 FFF7FEFF 		bl	e_getchar_uart1
 1293              	.LVL79:
 1294 07b6 0028     		cmp	r0, #0
 1295 07b8 FAD0     		beq	.L158
 1296              	.L735:
 1297 07ba 434B     		ldr	r3, .L816+4
 1298 07bc 4549     		ldr	r1, .L816+16
 1299 07be 1A78     		ldrb	r2, [r3]	@ zero_extendqisi2
 1300 07c0 404B     		ldr	r3, .L816
 1301 07c2 0868     		ldr	r0, [r1]
 1302 07c4 1B78     		ldrb	r3, [r3]	@ zero_extendqisi2
 1303 07c6 03EB0223 		add	r3, r3, r2, lsl #8
 1304              	.L162:
 1305              		.loc 1 811 0 is_stmt 1
 1306 07ca 434A     		ldr	r2, .L816+20
 1307 07cc 1446     		mov	r4, r2
 1308 07ce 1360     		str	r3, [r2]
 1309              		.loc 1 812 0
 1310 07d0 FFF7FEFF 		bl	e_set_speed_left
 1311              	.LVL80:
ARM GAS  /tmp/ccZueut9.s 			page 24


 1312              		.loc 1 813 0
 1313 07d4 2068     		ldr	r0, [r4]
 1314 07d6 FFF7FEFF 		bl	e_set_speed_right
 1315              	.LVL81:
 1316              		.loc 1 814 0
 1317 07da 90E6     		b	.L47
 1318              	.L151:
 1319              		.loc 1 798 0 discriminator 1
 1320 07dc 2046     		mov	r0, r4
 1321 07de FFF7FEFF 		bl	e_getchar_uart2
 1322              	.LVL82:
 1323 07e2 0028     		cmp	r0, #0
 1324 07e4 FAD0     		beq	.L151
 1325              		.loc 1 799 0
 1326 07e6 384C     		ldr	r4, .L816+4
 1327              	.L155:
 1328              		.loc 1 799 0 is_stmt 0 discriminator 1
 1329 07e8 2046     		mov	r0, r4
 1330 07ea FFF7FEFF 		bl	e_getchar_uart2
 1331              	.LVL83:
 1332 07ee 0028     		cmp	r0, #0
 1333 07f0 FAD0     		beq	.L155
 1334              		.loc 1 801 0 is_stmt 1
 1335 07f2 354B     		ldr	r3, .L816+4
 1336              		.loc 1 808 0
 1337 07f4 334C     		ldr	r4, .L816
 1338              		.loc 1 801 0
 1339 07f6 1A78     		ldrb	r2, [r3]	@ zero_extendqisi2
 1340 07f8 324B     		ldr	r3, .L816
 1341 07fa 1B78     		ldrb	r3, [r3]	@ zero_extendqisi2
 1342 07fc 03EB0223 		add	r3, r3, r2, lsl #8
 1343 0800 344A     		ldr	r2, .L816+16
 1344 0802 1360     		str	r3, [r2]
 1345              	.L160:
 1346              		.loc 1 808 0 discriminator 1
 1347 0804 2046     		mov	r0, r4
 1348 0806 FFF7FEFF 		bl	e_getchar_uart2
 1349              	.LVL84:
 1350 080a 0028     		cmp	r0, #0
 1351 080c FAD0     		beq	.L160
 1352              		.loc 1 809 0
 1353 080e 2E4C     		ldr	r4, .L816+4
 1354              	.L161:
 1355              		.loc 1 809 0 is_stmt 0 discriminator 1
 1356 0810 2046     		mov	r0, r4
 1357 0812 FFF7FEFF 		bl	e_getchar_uart2
 1358              	.LVL85:
 1359 0816 0028     		cmp	r0, #0
 1360 0818 FAD0     		beq	.L161
 1361 081a CEE7     		b	.L735
 1362              	.L58:
 1363              		.loc 1 697 0 is_stmt 1
 1364 081c 55B9     		cbnz	r5, .L141
 1365              		.loc 1 699 0
 1366 081e 079B     		ldr	r3, [sp, #28]
 1367 0820 002B     		cmp	r3, #0
 1368 0822 01F0DF85 		beq	.L142
ARM GAS  /tmp/ccZueut9.s 			page 25


 1369              		.loc 1 700 0
 1370 0826 2D4B     		ldr	r3, .L816+24
 1371 0828 2C48     		ldr	r0, .L816+24
 1372 082a 1B68     		ldr	r3, [r3]
 1373 082c 0122     		movs	r2, #1
 1374 082e 5B68     		ldr	r3, [r3, #4]
 1375 0830 14A9     		add	r1, sp, #80
 1376 0832 9847     		blx	r3
 1377              	.LVL86:
 1378              	.L141:
 1379              		.loc 1 710 0
 1380 0834 FFF7FEFF 		bl	serial_get_last_errors
 1381              	.LVL87:
 1382 0838 0028     		cmp	r0, #0
 1383 083a 41F04383 		bne	.L134
 1384              		.loc 1 717 0
 1385 083e 9DF85030 		ldrb	r3, [sp, #80]	@ zero_extendqisi2
 1386 0842 002B     		cmp	r3, #0
 1387 0844 41F0EA83 		bne	.L144
 1388              		.loc 1 718 0
 1389 0848 FFF7FEFF 		bl	VL53L0X_stop
 1390              	.LVL88:
 1391 084c 4FE6     		b	.L145
 1392              	.L59:
 1393              		.loc 1 749 0
 1394 084e 002D     		cmp	r5, #0
 1395 0850 01F0E883 		beq	.L783
 1396              		.loc 1 754 0
 1397 0854 0022     		movs	r2, #0
 1398              		.loc 1 752 0
 1399 0856 224B     		ldr	r3, .L816+28
 1400              		.loc 1 754 0
 1401 0858 0992     		str	r2, [sp, #36]
 1402 085a CDE90C22 		strd	r2, r2, [sp, #48]
 1403 085e CDE90A22 		strd	r2, r2, [sp, #40]
 1404              		.loc 1 752 0
 1405 0862 83ED008A 		vstr.32	s16, [r3]
 1406              		.loc 1 753 0
 1407 0866 83ED028A 		vstr.32	s16, [r3, #8]
 1408              		.loc 1 754 0
 1409 086a 83ED018A 		vstr.32	s16, [r3, #4]
 1410 086e 1046     		mov	r0, r2
 1411 0870 1446     		mov	r4, r2
 1412 0872 0892     		str	r2, [sp, #32]
 1413 0874 9446     		mov	ip, r2
 1414 0876 9646     		mov	lr, r2
 1415 0878 9346     		mov	fp, r2
 1416              	.L149:
 1417              	.LVL89:
 1418              		.loc 1 757 0
 1419 087a D9F80010 		ldr	r1, [r9]
 1420              		.loc 1 759 0
 1421 087e 08EB0103 		add	r3, r8, r1
 1422              		.loc 1 757 0
 1423 0882 08F801B0 		strb	fp, [r8, r1]
 1424              	.LVL90:
 1425              		.loc 1 781 0
ARM GAS  /tmp/ccZueut9.s 			page 26


 1426 0886 01F10C0B 		add	fp, r1, #12
 1427              		.loc 1 763 0
 1428 088a 9DF82010 		ldrb	r1, [sp, #32]	@ zero_extendqisi2
 1429 088e D970     		strb	r1, [r3, #3]
 1430              		.loc 1 770 0
 1431 0890 9DF82410 		ldrb	r1, [sp, #36]	@ zero_extendqisi2
 1432 0894 9971     		strb	r1, [r3, #6]
 1433              		.loc 1 772 0
 1434 0896 9DF82810 		ldrb	r1, [sp, #40]	@ zero_extendqisi2
 1435 089a D971     		strb	r1, [r3, #7]
 1436              		.loc 1 775 0
 1437 089c 9DF82C10 		ldrb	r1, [sp, #44]	@ zero_extendqisi2
 1438 08a0 1972     		strb	r1, [r3, #8]
 1439              		.loc 1 777 0
 1440 08a2 9DF83010 		ldrb	r1, [sp, #48]	@ zero_extendqisi2
 1441 08a6 5972     		strb	r1, [r3, #9]
 1442              		.loc 1 779 0
 1443 08a8 9DF83410 		ldrb	r1, [sp, #52]	@ zero_extendqisi2
 1444              		.loc 1 759 0
 1445 08ac 83F801E0 		strb	lr, [r3, #1]
 1446              	.LVL91:
 1447              		.loc 1 761 0
 1448 08b0 83F802C0 		strb	ip, [r3, #2]
 1449              	.LVL92:
 1450              		.loc 1 766 0
 1451 08b4 1C71     		strb	r4, [r3, #4]
 1452              	.LVL93:
 1453              		.loc 1 768 0
 1454 08b6 5871     		strb	r0, [r3, #5]
 1455              	.LVL94:
 1456              		.loc 1 779 0
 1457 08b8 9972     		strb	r1, [r3, #10]
 1458              	.LVL95:
 1459              		.loc 1 781 0
 1460 08ba DA72     		strb	r2, [r3, #11]
 1461 08bc C9F800B0 		str	fp, [r9]
 1462              		.loc 1 782 0
 1463 08c0 1DE6     		b	.L47
 1464              	.L817:
 1465 08c2 00BF     		.align	2
 1466              	.L816:
 1467 08c4 00000000 		.word	.LANCHOR19
 1468 08c8 00000000 		.word	.LANCHOR20
 1469 08cc 00000000 		.word	.LANCHOR22
 1470 08d0 00000000 		.word	.LANCHOR23
 1471 08d4 00000000 		.word	.LANCHOR7
 1472 08d8 00000000 		.word	.LANCHOR6
 1473 08dc 00000000 		.word	SD3
 1474 08e0 00000000 		.word	.LANCHOR13
 1475              	.LVL96:
 1476              	.L57:
 1477              		.loc 1 665 0
 1478 08e4 55B9     		cbnz	r5, .L136
 1479              		.loc 1 667 0
 1480 08e6 079B     		ldr	r3, [sp, #28]
 1481 08e8 002B     		cmp	r3, #0
 1482 08ea 01F09F85 		beq	.L137
ARM GAS  /tmp/ccZueut9.s 			page 27


 1483              		.loc 1 668 0
 1484 08ee 9C4B     		ldr	r3, .L818
 1485 08f0 9B48     		ldr	r0, .L818
 1486 08f2 1B68     		ldr	r3, [r3]
 1487 08f4 0122     		movs	r2, #1
 1488 08f6 5B68     		ldr	r3, [r3, #4]
 1489 08f8 14A9     		add	r1, sp, #80
 1490 08fa 9847     		blx	r3
 1491              	.LVL97:
 1492              	.L136:
 1493              		.loc 1 678 0
 1494 08fc FFF7FEFF 		bl	serial_get_last_errors
 1495              	.LVL98:
 1496 0900 0446     		mov	r4, r0
 1497 0902 0028     		cmp	r0, #0
 1498 0904 41F0DE82 		bne	.L134
 1499              		.loc 1 685 0
 1500 0908 FFF7FEFF 		bl	proximity_stop
 1501              	.LVL99:
 1502              		.loc 1 686 0
 1503 090c 9DF85030 		ldrb	r3, [sp, #80]	@ zero_extendqisi2
 1504 0910 012B     		cmp	r3, #1
 1505 0912 01F05085 		beq	.L784
 1506              		.loc 1 688 0
 1507 0916 022B     		cmp	r3, #2
 1508 0918 7FF4E9AD 		bne	.L145
 1509              		.loc 1 689 0
 1510 091c 0120     		movs	r0, #1
 1511 091e FFF7FEFF 		bl	proximity_start
 1512              	.LVL100:
 1513 0922 E4E5     		b	.L145
 1514              	.L62:
 1515              		.loc 1 842 0
 1516 0924 002D     		cmp	r5, #0
 1517 0926 7FF455AD 		bne	.L46
 1518              		.loc 1 843 0
 1519 092a D9F80030 		ldr	r3, [r9]
 1520 092e 0333     		adds	r3, r3, #3
 1521 0930 08EB0300 		add	r0, r8, r3
 1522 0934 FFF7FEFF 		bl	e_poxxxx_launch_capture
 1523              	.LVL101:
 1524              		.loc 1 845 0
 1525 0938 1299     		ldr	r1, [sp, #72]
 1526 093a D9F80030 		ldr	r3, [r9]
 1527              		.loc 1 849 0
 1528 093e 0E9A     		ldr	r2, [sp, #56]
 1529              		.loc 1 845 0
 1530 0940 0868     		ldr	r0, [r1]
 1531              		.loc 1 846 0
 1532 0942 1099     		ldr	r1, [sp, #64]
 1533              		.loc 1 845 0
 1534 0944 08F80300 		strb	r0, [r8, r3]
 1535              		.loc 1 849 0
 1536 0948 1268     		ldr	r2, [r2]
 1537              		.loc 1 846 0
 1538 094a 0968     		ldr	r1, [r1]
 1539              		.loc 1 847 0
ARM GAS  /tmp/ccZueut9.s 			page 28


 1540 094c D81C     		adds	r0, r3, #3
 1541              		.loc 1 846 0
 1542 094e 4344     		add	r3, r3, r8
 1543              		.loc 1 849 0
 1544 0950 0244     		add	r2, r2, r0
 1545              		.loc 1 846 0
 1546 0952 5970     		strb	r1, [r3, #1]
 1547              		.loc 1 847 0
 1548 0954 1199     		ldr	r1, [sp, #68]
 1549              		.loc 1 849 0
 1550 0956 C9F80020 		str	r2, [r9]
 1551              		.loc 1 848 0
 1552 095a 82B2     		uxth	r2, r0
 1553              		.loc 1 847 0
 1554 095c 0968     		ldr	r1, [r1]
 1555              		.loc 1 848 0
 1556 095e 0F92     		str	r2, [sp, #60]
 1557              	.LVL102:
 1558              		.loc 1 844 0
 1559 0960 804A     		ldr	r2, .L818+4
 1560              	.LVL103:
 1561              		.loc 1 847 0
 1562 0962 9970     		strb	r1, [r3, #2]
 1563              		.loc 1 844 0
 1564 0964 0123     		movs	r3, #1
 1565 0966 1370     		strb	r3, [r2]
 1566 0968 CAE5     		b	.L128
 1567              	.LVL104:
 1568              	.L61:
 1569              		.loc 1 816 0
 1570 096a 7F4A     		ldr	r2, .L818+8
 1571 096c D9F80030 		ldr	r3, [r9]
 1572              		.loc 1 818 0
 1573 0970 7E49     		ldr	r1, .L818+12
 1574              		.loc 1 816 0
 1575 0972 1268     		ldr	r2, [r2]
 1576              		.loc 1 818 0
 1577 0974 0868     		ldr	r0, [r1]
 1578              		.loc 1 816 0
 1579 0976 08F80320 		strb	r2, [r8, r3]
 1580              		.loc 1 817 0
 1581 097a 08EB0301 		add	r1, r8, r3
 1582 097e 1212     		asrs	r2, r2, #8
 1583              		.loc 1 819 0
 1584 0980 0433     		adds	r3, r3, #4
 1585              		.loc 1 817 0
 1586 0982 4A70     		strb	r2, [r1, #1]
 1587              		.loc 1 819 0
 1588 0984 0212     		asrs	r2, r0, #8
 1589 0986 C9F80030 		str	r3, [r9]
 1590              		.loc 1 818 0
 1591 098a 8870     		strb	r0, [r1, #2]
 1592              		.loc 1 819 0
 1593 098c CA70     		strb	r2, [r1, #3]
 1594              		.loc 1 820 0
 1595 098e B6E5     		b	.L47
 1596              	.L74:
ARM GAS  /tmp/ccZueut9.s 			page 29


 1597              		.loc 1 944 0
 1598 0990 002D     		cmp	r5, #0
 1599 0992 41F05484 		bne	.L190
 1600              		.loc 1 945 0
 1601 0996 D9F80030 		ldr	r3, [r9]
 1602 099a 5A1C     		adds	r2, r3, #1
 1603 099c 08F80350 		strb	r5, [r8, r3]
 1604 09a0 C9F80020 		str	r2, [r9]
 1605 09a4 ACE5     		b	.L128
 1606              	.L73:
 1607              		.loc 1 823 0
 1608 09a6 002D     		cmp	r5, #0
 1609 09a8 01F0E983 		beq	.L785
 1610              		.loc 1 832 0
 1611 09ac D9F80000 		ldr	r0, [r9]
 1612              		.loc 1 833 0
 1613 09b0 08EB0001 		add	r1, r8, r0
 1614              		.loc 1 832 0
 1615 09b4 0022     		movs	r2, #0
 1616              		.loc 1 837 0
 1617 09b6 841D     		adds	r4, r0, #6
 1618              		.loc 1 832 0
 1619 09b8 08F80020 		strb	r2, [r8, r0]
 1620              		.loc 1 837 0
 1621 09bc C9F80040 		str	r4, [r9]
 1622              		.loc 1 833 0
 1623 09c0 4A70     		strb	r2, [r1, #1]
 1624              		.loc 1 834 0
 1625 09c2 8A70     		strb	r2, [r1, #2]
 1626              		.loc 1 835 0
 1627 09c4 CA70     		strb	r2, [r1, #3]
 1628              		.loc 1 836 0
 1629 09c6 0A71     		strb	r2, [r1, #4]
 1630              		.loc 1 837 0
 1631 09c8 4A71     		strb	r2, [r1, #5]
 1632 09ca 03E5     		b	.L46
 1633              	.L70:
 1634              		.loc 1 1018 0
 1635 09cc 002D     		cmp	r5, #0
 1636 09ce 7FF401AD 		bne	.L46
 1637              		.loc 1 1019 0
 1638 09d2 079B     		ldr	r3, [sp, #28]
 1639              		.loc 1 1020 0
 1640 09d4 664C     		ldr	r4, .L818+16
 1641              		.loc 1 1019 0
 1642 09d6 FBB1     		cbz	r3, .L211
 1643              	.L212:
 1644              		.loc 1 1020 0 discriminator 1
 1645 09d8 2046     		mov	r0, r4
 1646 09da FFF7FEFF 		bl	e_getchar_uart1
 1647              	.LVL105:
 1648 09de 0028     		cmp	r0, #0
 1649 09e0 FAD0     		beq	.L212
 1650              		.loc 1 1021 0
 1651 09e2 644C     		ldr	r4, .L818+20
 1652              	.L213:
 1653              		.loc 1 1021 0 is_stmt 0 discriminator 1
ARM GAS  /tmp/ccZueut9.s 			page 30


 1654 09e4 2046     		mov	r0, r4
 1655 09e6 FFF7FEFF 		bl	e_getchar_uart1
 1656              	.LVL106:
 1657 09ea 0028     		cmp	r0, #0
 1658 09ec FAD0     		beq	.L213
 1659              	.L214:
 1660              		.loc 1 1026 0 is_stmt 1
 1661 09ee FFF7FEFF 		bl	e_i2cp_enable
 1662              	.LVL107:
 1663              		.loc 1 1027 0
 1664 09f2 604B     		ldr	r3, .L818+20
 1665 09f4 604C     		ldr	r4, .L818+24
 1666 09f6 1978     		ldrb	r1, [r3]	@ zero_extendqisi2
 1667 09f8 5D4B     		ldr	r3, .L818+16
 1668 09fa 1878     		ldrb	r0, [r3]	@ zero_extendqisi2
 1669 09fc FFF7FEFF 		bl	e_i2cp_read
 1670              	.LVL108:
 1671 0a00 2060     		str	r0, [r4]
 1672              		.loc 1 1028 0
 1673 0a02 FFF7FEFF 		bl	e_i2cp_disable
 1674              	.LVL109:
 1675              		.loc 1 1029 0
 1676 0a06 D9F80030 		ldr	r3, [r9]
 1677 0a0a 2268     		ldr	r2, [r4]
 1678 0a0c 08F80320 		strb	r2, [r8, r3]
 1679 0a10 0133     		adds	r3, r3, #1
 1680 0a12 C9F80030 		str	r3, [r9]
 1681 0a16 73E5     		b	.L128
 1682              	.L211:
 1683              		.loc 1 1023 0 discriminator 1
 1684 0a18 2046     		mov	r0, r4
 1685 0a1a FFF7FEFF 		bl	e_getchar_uart2
 1686              	.LVL110:
 1687 0a1e 0028     		cmp	r0, #0
 1688 0a20 FAD0     		beq	.L211
 1689              		.loc 1 1024 0
 1690 0a22 544C     		ldr	r4, .L818+20
 1691              	.L215:
 1692              		.loc 1 1024 0 is_stmt 0 discriminator 1
 1693 0a24 2046     		mov	r0, r4
 1694 0a26 FFF7FEFF 		bl	e_getchar_uart2
 1695              	.LVL111:
 1696 0a2a 0028     		cmp	r0, #0
 1697 0a2c FAD0     		beq	.L215
 1698 0a2e DEE7     		b	.L214
 1699              	.L71:
 1700              		.loc 1 728 0 is_stmt 1
 1701 0a30 002D     		cmp	r5, #0
 1702 0a32 01F0C283 		beq	.L786
 1703              		.loc 1 736 0
 1704 0a36 5149     		ldr	r1, .L818+28
 1705 0a38 0022     		movs	r2, #0
 1706 0a3a 0A60     		str	r2, [r1]
 1707              		.loc 1 737 0
 1708 0a3c 5049     		ldr	r1, .L818+32
 1709 0a3e 0A60     		str	r2, [r1]
 1710              		.loc 1 738 0
ARM GAS  /tmp/ccZueut9.s 			page 31


 1711 0a40 5049     		ldr	r1, .L818+36
 1712 0a42 1346     		mov	r3, r2
 1713 0a44 0A60     		str	r2, [r1]
 1714 0a46 9346     		mov	fp, r2
 1715 0a48 1046     		mov	r0, r2
 1716 0a4a 9446     		mov	ip, r2
 1717 0a4c 1446     		mov	r4, r2
 1718 0a4e 9646     		mov	lr, r2
 1719              	.L147:
 1720              		.loc 1 740 0
 1721 0a50 D9F80020 		ldr	r2, [r9]
 1722              		.loc 1 741 0
 1723 0a54 08EB0201 		add	r1, r8, r2
 1724              		.loc 1 740 0
 1725 0a58 08F802E0 		strb	lr, [r8, r2]
 1726              		.loc 1 745 0
 1727 0a5c 0632     		adds	r2, r2, #6
 1728              		.loc 1 741 0
 1729 0a5e 4C70     		strb	r4, [r1, #1]
 1730              		.loc 1 742 0
 1731 0a60 81F802C0 		strb	ip, [r1, #2]
 1732              		.loc 1 743 0
 1733 0a64 C870     		strb	r0, [r1, #3]
 1734              		.loc 1 744 0
 1735 0a66 81F804B0 		strb	fp, [r1, #4]
 1736              		.loc 1 745 0
 1737 0a6a 4B71     		strb	r3, [r1, #5]
 1738 0a6c C9F80020 		str	r2, [r9]
 1739              		.loc 1 746 0
 1740 0a70 45E5     		b	.L47
 1741              	.L69:
 1742              		.loc 1 977 0
 1743 0a72 002D     		cmp	r5, #0
 1744 0a74 7FF4AEAC 		bne	.L46
 1745              		.loc 1 978 0
 1746 0a78 079B     		ldr	r3, [sp, #28]
 1747              		.loc 1 979 0
 1748 0a7a 3D4C     		ldr	r4, .L818+16
 1749              		.loc 1 978 0
 1750 0a7c EBB1     		cbz	r3, .L192
 1751              	.L193:
 1752              		.loc 1 979 0 discriminator 1
 1753 0a7e 2046     		mov	r0, r4
 1754 0a80 FFF7FEFF 		bl	e_getchar_uart1
 1755              	.LVL112:
 1756 0a84 0028     		cmp	r0, #0
 1757 0a86 FAD0     		beq	.L193
 1758              		.loc 1 980 0
 1759 0a88 3A4C     		ldr	r4, .L818+20
 1760              	.L194:
 1761              		.loc 1 980 0 is_stmt 0 discriminator 1
 1762 0a8a 2046     		mov	r0, r4
 1763 0a8c FFF7FEFF 		bl	e_getchar_uart1
 1764              	.LVL113:
 1765 0a90 0028     		cmp	r0, #0
 1766 0a92 FAD0     		beq	.L194
 1767              		.loc 1 981 0 is_stmt 1
ARM GAS  /tmp/ccZueut9.s 			page 32


 1768 0a94 384C     		ldr	r4, .L818+24
 1769              	.L195:
 1770              		.loc 1 981 0 is_stmt 0 discriminator 1
 1771 0a96 2046     		mov	r0, r4
 1772 0a98 FFF7FEFF 		bl	e_getchar_uart1
 1773              	.LVL114:
 1774 0a9c 0028     		cmp	r0, #0
 1775 0a9e FAD0     		beq	.L195
 1776              	.L196:
 1777              		.loc 1 987 0 is_stmt 1
 1778 0aa0 FFF7FEFF 		bl	e_i2cp_enable
 1779              	.LVL115:
 1780              		.loc 1 988 0
 1781 0aa4 344B     		ldr	r3, .L818+24
 1782 0aa6 1A78     		ldrb	r2, [r3]	@ zero_extendqisi2
 1783 0aa8 324B     		ldr	r3, .L818+20
 1784 0aaa 1978     		ldrb	r1, [r3]	@ zero_extendqisi2
 1785 0aac 304B     		ldr	r3, .L818+16
 1786 0aae 1878     		ldrb	r0, [r3]	@ zero_extendqisi2
 1787 0ab0 FFF7FEFF 		bl	e_i2cp_write
 1788              	.LVL116:
 1789              		.loc 1 989 0
 1790 0ab4 FFF7FEFF 		bl	e_i2cp_disable
 1791              	.LVL117:
 1792 0ab8 22E5     		b	.L128
 1793              	.L192:
 1794              		.loc 1 983 0 discriminator 1
 1795 0aba 2046     		mov	r0, r4
 1796 0abc FFF7FEFF 		bl	e_getchar_uart2
 1797              	.LVL118:
 1798 0ac0 0028     		cmp	r0, #0
 1799 0ac2 FAD0     		beq	.L192
 1800              		.loc 1 984 0
 1801 0ac4 2B4C     		ldr	r4, .L818+20
 1802              	.L197:
 1803              		.loc 1 984 0 is_stmt 0 discriminator 1
 1804 0ac6 2046     		mov	r0, r4
 1805 0ac8 FFF7FEFF 		bl	e_getchar_uart2
 1806              	.LVL119:
 1807 0acc 0028     		cmp	r0, #0
 1808 0ace FAD0     		beq	.L197
 1809              		.loc 1 985 0 is_stmt 1
 1810 0ad0 294C     		ldr	r4, .L818+24
 1811              	.L198:
 1812              		.loc 1 985 0 is_stmt 0 discriminator 1
 1813 0ad2 2046     		mov	r0, r4
 1814 0ad4 FFF7FEFF 		bl	e_getchar_uart2
 1815              	.LVL120:
 1816 0ad8 0028     		cmp	r0, #0
 1817 0ada FAD0     		beq	.L198
 1818 0adc E0E7     		b	.L196
 1819              	.L52:
 1820              		.loc 1 591 0 is_stmt 1
 1821 0ade D9F80040 		ldr	r4, [r9]
 1822 0ae2 631C     		adds	r3, r4, #1
 1823 0ae4 C9F80030 		str	r3, [r9]
 1824 0ae8 FFF7FEFF 		bl	button_get_state
ARM GAS  /tmp/ccZueut9.s 			page 33


 1825              	.LVL121:
 1826 0aec 08F80400 		strb	r0, [r8, r4]
 1827              		.loc 1 592 0
 1828 0af0 05E5     		b	.L47
 1829              	.L63:
 1830              		.loc 1 853 0
 1831 0af2 6DB9     		cbnz	r5, .L164
 1832              		.loc 1 855 0
 1833 0af4 079B     		ldr	r3, [sp, #28]
 1834              		.loc 1 856 0
 1835 0af6 244C     		ldr	r4, .L818+40
 1836              		.loc 1 855 0
 1837 0af8 BBB1     		cbz	r3, .L165
 1838              	.L166:
 1839              		.loc 1 856 0 discriminator 1
 1840 0afa 2046     		mov	r0, r4
 1841 0afc FFF7FEFF 		bl	e_getchar_uart1
 1842              	.LVL122:
 1843 0b00 0028     		cmp	r0, #0
 1844 0b02 FAD0     		beq	.L166
 1845              		.loc 1 857 0
 1846 0b04 214C     		ldr	r4, .L818+44
 1847              	.L167:
 1848              		.loc 1 857 0 is_stmt 0 discriminator 1
 1849 0b06 2046     		mov	r0, r4
 1850 0b08 FFF7FEFF 		bl	e_getchar_uart1
 1851              	.LVL123:
 1852 0b0c 0028     		cmp	r0, #0
 1853 0b0e FAD0     		beq	.L167
 1854              	.L164:
 1855              		.loc 1 862 0 is_stmt 1
 1856 0b10 1D4B     		ldr	r3, .L818+40
 1857 0b12 1E4A     		ldr	r2, .L818+44
 1858 0b14 1B78     		ldrb	r3, [r3]	@ zero_extendqisi2
 1859 0b16 1078     		ldrb	r0, [r2]	@ zero_extendqisi2
 1860 0b18 082B     		cmp	r3, #8
 1861 0b1a 01F06F82 		beq	.L170
 1862 0b1e 092B     		cmp	r3, #9
 1863 0b20 41F06682 		bne	.L787
 1864              		.loc 1 867 0
 1865 0b24 FFF7FEFF 		bl	e_set_front_led
 1866              	.LVL124:
 1867              		.loc 1 868 0
 1868 0b28 E9E4     		b	.L47
 1869              	.L165:
 1870              		.loc 1 859 0 discriminator 1
 1871 0b2a 2046     		mov	r0, r4
 1872 0b2c FFF7FEFF 		bl	e_getchar_uart2
 1873              	.LVL125:
 1874 0b30 0028     		cmp	r0, #0
 1875 0b32 FAD0     		beq	.L165
 1876              		.loc 1 860 0
 1877 0b34 154C     		ldr	r4, .L818+44
 1878              	.L168:
 1879              		.loc 1 860 0 is_stmt 0 discriminator 1
 1880 0b36 2046     		mov	r0, r4
 1881 0b38 FFF7FEFF 		bl	e_getchar_uart2
ARM GAS  /tmp/ccZueut9.s 			page 34


 1882              	.LVL126:
 1883 0b3c 0028     		cmp	r0, #0
 1884 0b3e FAD0     		beq	.L168
 1885 0b40 E6E7     		b	.L164
 1886              	.L54:
 1887              		.loc 1 613 0 is_stmt 1
 1888 0b42 002D     		cmp	r5, #0
 1889 0b44 01F05C83 		beq	.L788
 1890              		.loc 1 618 0
 1891 0b48 D9F80020 		ldr	r2, [r9]
 1892              		.loc 1 619 0
 1893 0b4c 08EB0200 		add	r0, r8, r2
 1894              		.loc 1 618 0
 1895 0b50 0021     		movs	r1, #0
 1896              		.loc 1 619 0
 1897 0b52 941C     		adds	r4, r2, #2
 1898              		.loc 1 618 0
 1899 0b54 08F80210 		strb	r1, [r8, r2]
 1900              		.loc 1 619 0
 1901 0b58 C9F80040 		str	r4, [r9]
 1902 0b5c 4170     		strb	r1, [r0, #1]
 1903 0b5e 39E4     		b	.L46
 1904              	.L819:
 1905              		.align	2
 1906              	.L818:
 1907 0b60 00000000 		.word	SD3
 1908 0b64 00000000 		.word	.LANCHOR21
 1909 0b68 00000000 		.word	.LANCHOR7
 1910 0b6c 00000000 		.word	.LANCHOR6
 1911 0b70 00000000 		.word	.LANCHOR24
 1912 0b74 00000000 		.word	.LANCHOR25
 1913 0b78 00000000 		.word	.LANCHOR26
 1914 0b7c 00000000 		.word	.LANCHOR10
 1915 0b80 00000000 		.word	.LANCHOR11
 1916 0b84 00000000 		.word	.LANCHOR12
 1917 0b88 00000000 		.word	.LANCHOR19
 1918 0b8c 00000000 		.word	.LANCHOR20
 1919              	.L50:
 1920              		.loc 1 472 0
 1921 0b90 55B9     		cbnz	r5, .L94
 1922              		.loc 1 474 0
 1923 0b92 079B     		ldr	r3, [sp, #28]
 1924 0b94 002B     		cmp	r3, #0
 1925 0b96 01F01384 		beq	.L95
 1926              		.loc 1 475 0
 1927 0b9a 844B     		ldr	r3, .L820
 1928 0b9c 8348     		ldr	r0, .L820
 1929 0b9e 1B68     		ldr	r3, [r3]
 1930 0ba0 1322     		movs	r2, #19
 1931 0ba2 5B68     		ldr	r3, [r3, #4]
 1932 0ba4 14A9     		add	r1, sp, #80
 1933 0ba6 9847     		blx	r3
 1934              	.LVL127:
 1935              	.L94:
 1936              		.loc 1 485 0
 1937 0ba8 FFF7FEFF 		bl	serial_get_last_errors
 1938              	.LVL128:
ARM GAS  /tmp/ccZueut9.s 			page 35


 1939 0bac 0028     		cmp	r0, #0
 1940 0bae 41F08981 		bne	.L134
 1941              		.loc 1 493 0
 1942 0bb2 9DF85030 		ldrb	r3, [sp, #80]	@ zero_extendqisi2
 1943 0bb6 DC07     		lsls	r4, r3, #31
 1944 0bb8 01F19C83 		bmi	.L789
 1945              	.L98:
 1946              		.loc 1 496 0
 1947 0bbc 9807     		lsls	r0, r3, #30
 1948 0bbe 41F12982 		bpl	.L99
 1949              		.loc 1 497 0
 1950 0bc2 FFF7FEFF 		bl	enable_obstacle_avoidance
 1951              	.LVL129:
 1952              	.L100:
 1953              		.loc 1 504 0
 1954 0bc6 9DF85410 		ldrb	r1, [sp, #84]	@ zero_extendqisi2
 1955 0bca 9DF85330 		ldrb	r3, [sp, #83]	@ zero_extendqisi2
 1956              		.loc 1 503 0
 1957 0bce 9DF85240 		ldrb	r4, [sp, #82]	@ zero_extendqisi2
 1958 0bd2 9DF85100 		ldrb	r0, [sp, #81]	@ zero_extendqisi2
 1959              		.loc 1 506 0
 1960 0bd6 9DF85020 		ldrb	r2, [sp, #80]	@ zero_extendqisi2
 1961              		.loc 1 504 0
 1962 0bda 03EB0123 		add	r3, r3, r1, lsl #8
 1963              		.loc 1 503 0
 1964 0bde 7449     		ldr	r1, .L820+4
 1965 0be0 00EB0420 		add	r0, r0, r4, lsl #8
 1966              		.loc 1 504 0
 1967 0be4 734C     		ldr	r4, .L820+8
 1968              		.loc 1 503 0
 1969 0be6 0860     		str	r0, [r1]
 1970              		.loc 1 506 0
 1971 0be8 5107     		lsls	r1, r2, #29
 1972              		.loc 1 504 0
 1973 0bea 2360     		str	r3, [r4]
 1974              		.loc 1 506 0
 1975 0bec 41F10A82 		bpl	.L101
 1976              		.loc 1 507 0
 1977 0bf0 FFF7FEFF 		bl	e_set_steps_left
 1978              	.LVL130:
 1979              		.loc 1 508 0
 1980 0bf4 2068     		ldr	r0, [r4]
 1981 0bf6 FFF7FEFF 		bl	e_set_steps_right
 1982              	.LVL131:
 1983              	.L102:
 1984              		.loc 1 515 0
 1985 0bfa 9DF85530 		ldrb	r3, [sp, #85]	@ zero_extendqisi2
 1986 0bfe 13F00101 		ands	r1, r3, #1
 1987              		.loc 1 516 0
 1988 0c02 16BF     		itet	ne
 1989 0c04 0020     		movne	r0, #0
 1990              		.loc 1 518 0
 1991 0c06 0846     		moveq	r0, r1
 1992              		.loc 1 516 0
 1993 0c08 0121     		movne	r1, #1
 1994              		.loc 1 518 0
 1995 0c0a FFF7FEFF 		bl	set_led
ARM GAS  /tmp/ccZueut9.s 			page 36


 1996              	.LVL132:
 1997              		.loc 1 520 0
 1998 0c0e 9DF85530 		ldrb	r3, [sp, #85]	@ zero_extendqisi2
 1999 0c12 13F00201 		ands	r1, r3, #2
 2000              		.loc 1 521 0
 2001 0c16 1ABF     		itte	ne
 2002 0c18 0121     		movne	r1, #1
 2003 0c1a 0846     		movne	r0, r1
 2004              		.loc 1 523 0
 2005 0c1c 0120     		moveq	r0, #1
 2006 0c1e FFF7FEFF 		bl	set_led
 2007              	.LVL133:
 2008              		.loc 1 525 0
 2009 0c22 9DF85530 		ldrb	r3, [sp, #85]	@ zero_extendqisi2
 2010 0c26 13F00401 		ands	r1, r3, #4
 2011              		.loc 1 526 0
 2012 0c2a 18BF     		it	ne
 2013 0c2c 0121     		movne	r1, #1
 2014              		.loc 1 528 0
 2015 0c2e 0220     		movs	r0, #2
 2016 0c30 FFF7FEFF 		bl	set_led
 2017              	.LVL134:
 2018              		.loc 1 530 0
 2019 0c34 9DF85530 		ldrb	r3, [sp, #85]	@ zero_extendqisi2
 2020 0c38 13F00801 		ands	r1, r3, #8
 2021              		.loc 1 531 0
 2022 0c3c 18BF     		it	ne
 2023 0c3e 0121     		movne	r1, #1
 2024              		.loc 1 533 0
 2025 0c40 0320     		movs	r0, #3
 2026 0c42 FFF7FEFF 		bl	set_led
 2027              	.LVL135:
 2028              		.loc 1 535 0
 2029 0c46 9DF85530 		ldrb	r3, [sp, #85]	@ zero_extendqisi2
 2030 0c4a 13F01000 		ands	r0, r3, #16
 2031              		.loc 1 536 0
 2032 0c4e 18BF     		it	ne
 2033 0c50 0120     		movne	r0, #1
 2034              		.loc 1 538 0
 2035 0c52 FFF7FEFF 		bl	set_body_led
 2036              	.LVL136:
 2037              		.loc 1 540 0
 2038 0c56 9DF85530 		ldrb	r3, [sp, #85]	@ zero_extendqisi2
 2039 0c5a 13F02000 		ands	r0, r3, #32
 2040              		.loc 1 541 0
 2041 0c5e 18BF     		it	ne
 2042 0c60 0120     		movne	r0, #1
 2043              		.loc 1 543 0
 2044 0c62 FFF7FEFF 		bl	set_front_led
 2045              	.LVL137:
 2046              		.loc 1 547 0
 2047 0c66 9DF85830 		ldrb	r3, [sp, #88]	@ zero_extendqisi2
 2048 0c6a 9DF85720 		ldrb	r2, [sp, #87]	@ zero_extendqisi2
 2049 0c6e 9DF85610 		ldrb	r1, [sp, #86]	@ zero_extendqisi2
 2050 0c72 0020     		movs	r0, #0
 2051 0c74 FFF7FEFF 		bl	set_rgb_led
 2052              	.LVL138:
ARM GAS  /tmp/ccZueut9.s 			page 37


 2053              		.loc 1 548 0
 2054 0c78 9DF85B30 		ldrb	r3, [sp, #91]	@ zero_extendqisi2
 2055 0c7c 9DF85A20 		ldrb	r2, [sp, #90]	@ zero_extendqisi2
 2056 0c80 9DF85910 		ldrb	r1, [sp, #89]	@ zero_extendqisi2
 2057 0c84 0120     		movs	r0, #1
 2058 0c86 FFF7FEFF 		bl	set_rgb_led
 2059              	.LVL139:
 2060              		.loc 1 549 0
 2061 0c8a 9DF85E30 		ldrb	r3, [sp, #94]	@ zero_extendqisi2
 2062 0c8e 9DF85D20 		ldrb	r2, [sp, #93]	@ zero_extendqisi2
 2063 0c92 9DF85C10 		ldrb	r1, [sp, #92]	@ zero_extendqisi2
 2064 0c96 0220     		movs	r0, #2
 2065 0c98 FFF7FEFF 		bl	set_rgb_led
 2066              	.LVL140:
 2067              		.loc 1 550 0
 2068 0c9c 9DF86130 		ldrb	r3, [sp, #97]	@ zero_extendqisi2
 2069 0ca0 9DF86020 		ldrb	r2, [sp, #96]	@ zero_extendqisi2
 2070 0ca4 9DF85F10 		ldrb	r1, [sp, #95]	@ zero_extendqisi2
 2071 0ca8 0320     		movs	r0, #3
 2072 0caa FFF7FEFF 		bl	set_rgb_led
 2073              	.LVL141:
 2074              		.loc 1 553 0
 2075 0cae 9DF86230 		ldrb	r3, [sp, #98]	@ zero_extendqisi2
 2076 0cb2 DA07     		lsls	r2, r3, #31
 2077 0cb4 01F1CF82 		bmi	.L790
 2078              		.loc 1 556 0
 2079 0cb8 9C07     		lsls	r4, r3, #30
 2080 0cba 01F1D682 		bmi	.L791
 2081              	.L116:
 2082              		.loc 1 559 0
 2083 0cbe 5807     		lsls	r0, r3, #29
 2084 0cc0 01F1DD82 		bmi	.L792
 2085              	.L117:
 2086              		.loc 1 562 0
 2087 0cc4 1907     		lsls	r1, r3, #28
 2088 0cc6 01F1E482 		bmi	.L793
 2089              	.L118:
 2090              		.loc 1 565 0
 2091 0cca DA06     		lsls	r2, r3, #27
 2092 0ccc 01F1EC82 		bmi	.L794
 2093              	.L119:
 2094              		.loc 1 568 0
 2095 0cd0 9B06     		lsls	r3, r3, #26
 2096 0cd2 7FF514AC 		bpl	.L47
 2097              		.loc 1 569 0
 2098 0cd6 FFF7FEFF 		bl	e_close_sound
 2099              	.LVL142:
 2100              		.loc 1 570 0
 2101 0cda FFF7FEFF 		bl	stopCurrentMelody
 2102              	.LVL143:
 2103 0cde 0EE4     		b	.L47
 2104              	.L53:
 2105              		.loc 1 595 0
 2106 0ce0 0020     		movs	r0, #0
 2107 0ce2 FFF7FEFF 		bl	e_get_micro_volume
 2108              	.LVL144:
 2109              		.loc 1 596 0
ARM GAS  /tmp/ccZueut9.s 			page 38


 2110 0ce6 D9F80030 		ldr	r3, [r9]
 2111              		.loc 1 597 0
 2112 0cea 08EB0302 		add	r2, r8, r3
 2113 0cee 0112     		asrs	r1, r0, #8
 2114              		.loc 1 596 0
 2115 0cf0 08F80300 		strb	r0, [r8, r3]
 2116              		.loc 1 597 0
 2117 0cf4 0233     		adds	r3, r3, #2
 2118              		.loc 1 599 0
 2119 0cf6 0120     		movs	r0, #1
 2120              		.loc 1 597 0
 2121 0cf8 5170     		strb	r1, [r2, #1]
 2122 0cfa C9F80030 		str	r3, [r9]
 2123              		.loc 1 599 0
 2124 0cfe FFF7FEFF 		bl	e_get_micro_volume
 2125              	.LVL145:
 2126              		.loc 1 600 0
 2127 0d02 D9F80030 		ldr	r3, [r9]
 2128              		.loc 1 601 0
 2129 0d06 08EB0302 		add	r2, r8, r3
 2130 0d0a 0112     		asrs	r1, r0, #8
 2131              		.loc 1 600 0
 2132 0d0c 08F80300 		strb	r0, [r8, r3]
 2133              		.loc 1 601 0
 2134 0d10 0233     		adds	r3, r3, #2
 2135              		.loc 1 603 0
 2136 0d12 0220     		movs	r0, #2
 2137              		.loc 1 601 0
 2138 0d14 5170     		strb	r1, [r2, #1]
 2139 0d16 C9F80030 		str	r3, [r9]
 2140              		.loc 1 603 0
 2141 0d1a FFF7FEFF 		bl	e_get_micro_volume
 2142              	.LVL146:
 2143              		.loc 1 604 0
 2144 0d1e D9F80030 		ldr	r3, [r9]
 2145              		.loc 1 605 0
 2146 0d22 0112     		asrs	r1, r0, #8
 2147              		.loc 1 604 0
 2148 0d24 08F80300 		strb	r0, [r8, r3]
 2149              		.loc 1 605 0
 2150 0d28 08EB0302 		add	r2, r8, r3
 2151              		.loc 1 607 0
 2152 0d2c 0320     		movs	r0, #3
 2153              		.loc 1 605 0
 2154 0d2e 0233     		adds	r3, r3, #2
 2155 0d30 FCE4     		b	.L767
 2156              	.L51:
 2157              		.loc 1 575 0
 2158 0d32 0020     		movs	r0, #0
 2159 0d34 079C     		ldr	r4, [sp, #28]
 2160 0d36 CAF80000 		str	r0, [r10]
 2161              	.L126:
 2162              		.loc 1 576 0
 2163 0d3a 5DB9     		cbnz	r5, .L121
 2164              		.loc 1 578 0
 2165 0d3c 7CB3     		cbz	r4, .L122
 2166 0d3e 01E0     		b	.L124
ARM GAS  /tmp/ccZueut9.s 			page 39


 2167              	.L123:
 2168 0d40 DAF80000 		ldr	r0, [r10]
 2169              	.L124:
 2170              		.loc 1 579 0 discriminator 1
 2171 0d44 1C4B     		ldr	r3, .L820+12
 2172 0d46 1844     		add	r0, r0, r3
 2173 0d48 FFF7FEFF 		bl	e_getchar_uart1
 2174              	.LVL147:
 2175 0d4c 0028     		cmp	r0, #0
 2176 0d4e F7D0     		beq	.L123
 2177              	.L766:
 2178 0d50 DAF80000 		ldr	r0, [r10]
 2179              	.L121:
 2180              		.loc 1 575 0 discriminator 2
 2181 0d54 0130     		adds	r0, r0, #1
 2182 0d56 0B28     		cmp	r0, #11
 2183 0d58 CAF80000 		str	r0, [r10]
 2184 0d5c EDDD     		ble	.L126
 2185              		.loc 1 584 0
 2186 0d5e 164B     		ldr	r3, .L820+12
 2187 0d60 1A46     		mov	r2, r3
 2188 0d62 1146     		mov	r1, r2
 2189 0d64 0C46     		mov	r4, r1
 2190 0d66 9B78     		ldrb	r3, [r3, #2]	@ zero_extendqisi2
 2191 0d68 5278     		ldrb	r2, [r2, #1]	@ zero_extendqisi2
 2192 0d6a 0978     		ldrb	r1, [r1]	@ zero_extendqisi2
 2193 0d6c 0020     		movs	r0, #0
 2194 0d6e FFF7FEFF 		bl	set_rgb_led
 2195              	.LVL148:
 2196              		.loc 1 585 0
 2197 0d72 6379     		ldrb	r3, [r4, #5]	@ zero_extendqisi2
 2198 0d74 2279     		ldrb	r2, [r4, #4]	@ zero_extendqisi2
 2199 0d76 E178     		ldrb	r1, [r4, #3]	@ zero_extendqisi2
 2200 0d78 0120     		movs	r0, #1
 2201 0d7a FFF7FEFF 		bl	set_rgb_led
 2202              	.LVL149:
 2203              		.loc 1 586 0
 2204 0d7e 237A     		ldrb	r3, [r4, #8]	@ zero_extendqisi2
 2205 0d80 E279     		ldrb	r2, [r4, #7]	@ zero_extendqisi2
 2206 0d82 A179     		ldrb	r1, [r4, #6]	@ zero_extendqisi2
 2207 0d84 0220     		movs	r0, #2
 2208 0d86 FFF7FEFF 		bl	set_rgb_led
 2209              	.LVL150:
 2210              		.loc 1 587 0
 2211 0d8a E37A     		ldrb	r3, [r4, #11]	@ zero_extendqisi2
 2212 0d8c A27A     		ldrb	r2, [r4, #10]	@ zero_extendqisi2
 2213 0d8e 617A     		ldrb	r1, [r4, #9]	@ zero_extendqisi2
 2214 0d90 0320     		movs	r0, #3
 2215 0d92 FFF7FEFF 		bl	set_rgb_led
 2216              	.LVL151:
 2217              		.loc 1 588 0
 2218 0d96 FFF7B2BB 		b	.L47
 2219              	.L125:
 2220 0d9a DAF80000 		ldr	r0, [r10]
 2221              	.L122:
 2222              		.loc 1 581 0 discriminator 1
 2223 0d9e 064B     		ldr	r3, .L820+12
ARM GAS  /tmp/ccZueut9.s 			page 40


 2224 0da0 1844     		add	r0, r0, r3
 2225 0da2 FFF7FEFF 		bl	e_getchar_uart2
 2226              	.LVL152:
 2227 0da6 0028     		cmp	r0, #0
 2228 0da8 F7D0     		beq	.L125
 2229 0daa D1E7     		b	.L766
 2230              	.L821:
 2231              		.align	2
 2232              	.L820:
 2233 0dac 00000000 		.word	SD3
 2234 0db0 00000000 		.word	.LANCHOR7
 2235 0db4 00000000 		.word	.LANCHOR6
 2236 0db8 00000000 		.word	.LANCHOR18
 2237              	.L48:
 2238              		.loc 1 298 0
 2239 0dbc 002D     		cmp	r5, #0
 2240 0dbe 01F07481 		beq	.L795
 2241              		.loc 1 303 0
 2242 0dc2 E749     		ldr	r1, .L822
 2243 0dc4 0022     		movs	r2, #0
 2244 0dc6 0A60     		str	r2, [r1]
 2245              		.loc 1 304 0
 2246 0dc8 E649     		ldr	r1, .L822+4
 2247 0dca 0A60     		str	r2, [r1]
 2248              		.loc 1 305 0
 2249 0dcc E649     		ldr	r1, .L822+8
 2250 0dce 1346     		mov	r3, r2
 2251 0dd0 0A60     		str	r2, [r1]
 2252 0dd2 9346     		mov	fp, r2
 2253 0dd4 1046     		mov	r0, r2
 2254 0dd6 9446     		mov	ip, r2
 2255 0dd8 1446     		mov	r4, r2
 2256 0dda 9646     		mov	lr, r2
 2257              	.L78:
 2258              		.loc 1 307 0
 2259 0ddc D9F80020 		ldr	r2, [r9]
 2260              		.loc 1 308 0
 2261 0de0 08EB0201 		add	r1, r8, r2
 2262              		.loc 1 307 0
 2263 0de4 08F802E0 		strb	lr, [r8, r2]
 2264              		.loc 1 312 0
 2265 0de8 0632     		adds	r2, r2, #6
 2266              		.loc 1 308 0
 2267 0dea 4C70     		strb	r4, [r1, #1]
 2268              		.loc 1 309 0
 2269 0dec 81F802C0 		strb	ip, [r1, #2]
 2270              		.loc 1 310 0
 2271 0df0 C870     		strb	r0, [r1, #3]
 2272              		.loc 1 311 0
 2273 0df2 81F804B0 		strb	fp, [r1, #4]
 2274              		.loc 1 312 0
 2275 0df6 4B71     		strb	r3, [r1, #5]
 2276 0df8 C9F80020 		str	r2, [r9]
 2277              		.loc 1 314 0
 2278 0dfc 002D     		cmp	r5, #0
 2279 0dfe 01F03181 		beq	.L796
 2280              		.loc 1 319 0
ARM GAS  /tmp/ccZueut9.s 			page 41


 2281 0e02 0021     		movs	r1, #0
 2282              		.loc 1 317 0
 2283 0e04 D94B     		ldr	r3, .L822+12
 2284              		.loc 1 319 0
 2285 0e06 CDE90C11 		strd	r1, r1, [sp, #48]
 2286 0e0a CDE90A11 		strd	r1, r1, [sp, #40]
 2287 0e0e CDE90811 		strd	r1, r1, [sp, #32]
 2288              		.loc 1 317 0
 2289 0e12 83ED008A 		vstr.32	s16, [r3]
 2290              		.loc 1 318 0
 2291 0e16 83ED028A 		vstr.32	s16, [r3, #8]
 2292              		.loc 1 319 0
 2293 0e1a 83ED018A 		vstr.32	s16, [r3, #4]
 2294 0e1e 0C46     		mov	r4, r1
 2295 0e20 8C46     		mov	ip, r1
 2296 0e22 8E46     		mov	lr, r1
 2297 0e24 8B46     		mov	fp, r1
 2298 0e26 0846     		mov	r0, r1
 2299              	.L80:
 2300              	.LVL153:
 2301              		.loc 1 324 0
 2302 0e28 08EB0203 		add	r3, r8, r2
 2303              		.loc 1 322 0
 2304 0e2c 08F80200 		strb	r0, [r8, r2]
 2305              	.LVL154:
 2306              		.loc 1 331 0
 2307 0e30 1C71     		strb	r4, [r3, #4]
 2308              		.loc 1 333 0
 2309 0e32 9DF82040 		ldrb	r4, [sp, #32]	@ zero_extendqisi2
 2310 0e36 5C71     		strb	r4, [r3, #5]
 2311              		.loc 1 335 0
 2312 0e38 9DF82440 		ldrb	r4, [sp, #36]	@ zero_extendqisi2
 2313 0e3c 9C71     		strb	r4, [r3, #6]
 2314              		.loc 1 337 0
 2315 0e3e 9DF82840 		ldrb	r4, [sp, #40]	@ zero_extendqisi2
 2316 0e42 DC71     		strb	r4, [r3, #7]
 2317              		.loc 1 340 0
 2318 0e44 9DF82C40 		ldrb	r4, [sp, #44]	@ zero_extendqisi2
 2319 0e48 1C72     		strb	r4, [r3, #8]
 2320              		.loc 1 342 0
 2321 0e4a 9DF83040 		ldrb	r4, [sp, #48]	@ zero_extendqisi2
 2322 0e4e 5C72     		strb	r4, [r3, #9]
 2323              		.loc 1 346 0
 2324 0e50 02F10C00 		add	r0, r2, #12
 2325              		.loc 1 344 0
 2326 0e54 9DF83440 		ldrb	r4, [sp, #52]	@ zero_extendqisi2
 2327              		.loc 1 324 0
 2328 0e58 83F801B0 		strb	fp, [r3, #1]
 2329              	.LVL155:
 2330              		.loc 1 326 0
 2331 0e5c 83F802E0 		strb	lr, [r3, #2]
 2332              	.LVL156:
 2333              		.loc 1 328 0
 2334 0e60 83F803C0 		strb	ip, [r3, #3]
 2335              	.LVL157:
 2336              		.loc 1 344 0
 2337 0e64 9C72     		strb	r4, [r3, #10]
ARM GAS  /tmp/ccZueut9.s 			page 42


 2338              	.LVL158:
 2339              		.loc 1 346 0
 2340 0e66 D972     		strb	r1, [r3, #11]
 2341 0e68 C9F80000 		str	r0, [r9]
 2342              		.loc 1 349 0
 2343 0e6c 002D     		cmp	r5, #0
 2344 0e6e 01F06881 		beq	.L797
 2345              		.loc 1 358 0
 2346 0e72 0021     		movs	r1, #0
 2347              		.loc 1 363 0
 2348 0e74 1232     		adds	r2, r2, #18
 2349              		.loc 1 358 0
 2350 0e76 08F80010 		strb	r1, [r8, r0]
 2351              		.loc 1 363 0
 2352 0e7a C9F80020 		str	r2, [r9]
 2353              		.loc 1 359 0
 2354 0e7e 5973     		strb	r1, [r3, #13]
 2355              		.loc 1 360 0
 2356 0e80 9973     		strb	r1, [r3, #14]
 2357              		.loc 1 361 0
 2358 0e82 D973     		strb	r1, [r3, #15]
 2359              		.loc 1 362 0
 2360 0e84 1974     		strb	r1, [r3, #16]
 2361              		.loc 1 363 0
 2362 0e86 5974     		strb	r1, [r3, #17]
 2363              	.L82:
 2364              		.loc 1 367 0
 2365 0e88 0020     		movs	r0, #0
 2366 0e8a CAF80000 		str	r0, [r10]
 2367              	.L83:
 2368              		.loc 1 368 0 discriminator 3
 2369 0e8e C0B2     		uxtb	r0, r0
 2370 0e90 FFF7FEFF 		bl	get_magnetic_field
 2371              	.LVL159:
 2372              		.loc 1 370 0 discriminator 3
 2373 0e94 D9F80020 		ldr	r2, [r9]
 2374              		.loc 1 367 0 discriminator 3
 2375 0e98 DAF80000 		ldr	r0, [r10]
 2376              		.loc 1 369 0 discriminator 3
 2377 0e9c 10EE103A 		vmov	r3, s0	@ int
 2378              	.LVL160:
 2379              		.loc 1 371 0 discriminator 3
 2380 0ea0 08EB0201 		add	r1, r8, r2
 2381 0ea4 1C0A     		lsrs	r4, r3, #8
 2382              		.loc 1 370 0 discriminator 3
 2383 0ea6 08F80230 		strb	r3, [r8, r2]
 2384              		.loc 1 367 0 discriminator 3
 2385 0eaa 0130     		adds	r0, r0, #1
 2386              		.loc 1 371 0 discriminator 3
 2387 0eac 4C70     		strb	r4, [r1, #1]
 2388              		.loc 1 372 0 discriminator 3
 2389 0eae 1C0C     		lsrs	r4, r3, #16
 2390 0eb0 8C70     		strb	r4, [r1, #2]
 2391              		.loc 1 373 0 discriminator 3
 2392 0eb2 1B0E     		lsrs	r3, r3, #24
 2393 0eb4 141D     		adds	r4, r2, #4
 2394              		.loc 1 367 0 discriminator 3
ARM GAS  /tmp/ccZueut9.s 			page 43


 2395 0eb6 0228     		cmp	r0, #2
 2396              		.loc 1 373 0 discriminator 3
 2397 0eb8 CB70     		strb	r3, [r1, #3]
 2398 0eba C9F80040 		str	r4, [r9]
 2399              		.loc 1 367 0 discriminator 3
 2400 0ebe CAF80000 		str	r0, [r10]
 2401 0ec2 E4DD     		ble	.L83
 2402              		.loc 1 377 0
 2403 0ec4 002D     		cmp	r5, #0
 2404 0ec6 01F03181 		beq	.L798
 2405              		.loc 1 380 0
 2406 0eca 0023     		movs	r3, #0
 2407 0ecc 0532     		adds	r2, r2, #5
 2408 0ece 08F80430 		strb	r3, [r8, r4]
 2409 0ed2 C9F80020 		str	r2, [r9]
 2410              	.LVL161:
 2411              	.L85:
 2412              		.loc 1 384 0
 2413 0ed6 0020     		movs	r0, #0
 2414 0ed8 CAF80000 		str	r0, [r10]
 2415              	.L86:
 2416              		.loc 1 385 0 discriminator 3
 2417 0edc FFF7FEFF 		bl	e_get_calibrated_prox
 2418              	.LVL162:
 2419              		.loc 1 386 0 discriminator 3
 2420 0ee0 D9F80020 		ldr	r2, [r9]
 2421              		.loc 1 384 0 discriminator 3
 2422 0ee4 DAF80030 		ldr	r3, [r10]
 2423              		.loc 1 386 0 discriminator 3
 2424 0ee8 08F80200 		strb	r0, [r8, r2]
 2425              		.loc 1 387 0 discriminator 3
 2426 0eec 08EB0204 		add	r4, r8, r2
 2427 0ef0 0112     		asrs	r1, r0, #8
 2428              		.loc 1 384 0 discriminator 3
 2429 0ef2 581C     		adds	r0, r3, #1
 2430              		.loc 1 387 0 discriminator 3
 2431 0ef4 0232     		adds	r2, r2, #2
 2432              		.loc 1 384 0 discriminator 3
 2433 0ef6 0728     		cmp	r0, #7
 2434              		.loc 1 387 0 discriminator 3
 2435 0ef8 6170     		strb	r1, [r4, #1]
 2436 0efa C9F80020 		str	r2, [r9]
 2437              		.loc 1 384 0 discriminator 3
 2438 0efe CAF80000 		str	r0, [r10]
 2439 0f02 EBDD     		ble	.L86
 2440              		.loc 1 391 0
 2441 0f04 0020     		movs	r0, #0
 2442 0f06 CAF80000 		str	r0, [r10]
 2443              	.L87:
 2444              		.loc 1 392 0 discriminator 3
 2445 0f0a FFF7FEFF 		bl	e_get_ambient_light
 2446              	.LVL163:
 2447              		.loc 1 393 0 discriminator 3
 2448 0f0e D9F80010 		ldr	r1, [r9]
 2449              		.loc 1 391 0 discriminator 3
 2450 0f12 DAF80030 		ldr	r3, [r10]
 2451              		.loc 1 393 0 discriminator 3
ARM GAS  /tmp/ccZueut9.s 			page 44


 2452 0f16 08F80100 		strb	r0, [r8, r1]
 2453              		.loc 1 394 0 discriminator 3
 2454 0f1a 0212     		asrs	r2, r0, #8
 2455 0f1c 08EB0104 		add	r4, r8, r1
 2456              		.loc 1 391 0 discriminator 3
 2457 0f20 581C     		adds	r0, r3, #1
 2458 0f22 0728     		cmp	r0, #7
 2459              		.loc 1 394 0 discriminator 3
 2460 0f24 01F10203 		add	r3, r1, #2
 2461 0f28 6270     		strb	r2, [r4, #1]
 2462 0f2a C9F80030 		str	r3, [r9]
 2463              		.loc 1 391 0 discriminator 3
 2464 0f2e CAF80000 		str	r0, [r10]
 2465 0f32 EADD     		ble	.L87
 2466              		.loc 1 398 0
 2467 0f34 002D     		cmp	r5, #0
 2468 0f36 01F0EA80 		beq	.L799
 2469              		.loc 1 403 0
 2470 0f3a 0022     		movs	r2, #0
 2471              		.loc 1 404 0
 2472 0f3c 0431     		adds	r1, r1, #4
 2473              		.loc 1 403 0
 2474 0f3e 08F80320 		strb	r2, [r8, r3]
 2475              		.loc 1 404 0
 2476 0f42 C9F80010 		str	r1, [r9]
 2477 0f46 E270     		strb	r2, [r4, #3]
 2478              	.L89:
 2479              		.loc 1 408 0
 2480 0f48 0020     		movs	r0, #0
 2481 0f4a FFF7FEFF 		bl	e_get_micro_volume
 2482              	.LVL164:
 2483              		.loc 1 409 0
 2484 0f4e D9F80030 		ldr	r3, [r9]
 2485              		.loc 1 410 0
 2486 0f52 08EB0302 		add	r2, r8, r3
 2487 0f56 0112     		asrs	r1, r0, #8
 2488              		.loc 1 409 0
 2489 0f58 08F80300 		strb	r0, [r8, r3]
 2490              		.loc 1 410 0
 2491 0f5c 0233     		adds	r3, r3, #2
 2492              		.loc 1 411 0
 2493 0f5e 0120     		movs	r0, #1
 2494              		.loc 1 410 0
 2495 0f60 5170     		strb	r1, [r2, #1]
 2496 0f62 C9F80030 		str	r3, [r9]
 2497              		.loc 1 411 0
 2498 0f66 FFF7FEFF 		bl	e_get_micro_volume
 2499              	.LVL165:
 2500              		.loc 1 412 0
 2501 0f6a D9F80030 		ldr	r3, [r9]
 2502              		.loc 1 413 0
 2503 0f6e 08EB0302 		add	r2, r8, r3
 2504 0f72 0112     		asrs	r1, r0, #8
 2505              		.loc 1 412 0
 2506 0f74 08F80300 		strb	r0, [r8, r3]
 2507              		.loc 1 413 0
 2508 0f78 0233     		adds	r3, r3, #2
ARM GAS  /tmp/ccZueut9.s 			page 45


 2509              		.loc 1 414 0
 2510 0f7a 0220     		movs	r0, #2
 2511              		.loc 1 413 0
 2512 0f7c 5170     		strb	r1, [r2, #1]
 2513 0f7e C9F80030 		str	r3, [r9]
 2514              		.loc 1 414 0
 2515 0f82 FFF7FEFF 		bl	e_get_micro_volume
 2516              	.LVL166:
 2517              		.loc 1 415 0
 2518 0f86 D9F80030 		ldr	r3, [r9]
 2519              		.loc 1 416 0
 2520 0f8a 08EB0302 		add	r2, r8, r3
 2521 0f8e 0112     		asrs	r1, r0, #8
 2522              		.loc 1 415 0
 2523 0f90 08F80300 		strb	r0, [r8, r3]
 2524              		.loc 1 416 0
 2525 0f94 0233     		adds	r3, r3, #2
 2526              		.loc 1 417 0
 2527 0f96 0320     		movs	r0, #3
 2528              		.loc 1 416 0
 2529 0f98 5170     		strb	r1, [r2, #1]
 2530 0f9a C9F80030 		str	r3, [r9]
 2531              		.loc 1 417 0
 2532 0f9e FFF7FEFF 		bl	e_get_micro_volume
 2533              	.LVL167:
 2534              		.loc 1 418 0
 2535 0fa2 D9F80030 		ldr	r3, [r9]
 2536              		.loc 1 419 0
 2537 0fa6 08EB0302 		add	r2, r8, r3
 2538 0faa 0112     		asrs	r1, r0, #8
 2539              		.loc 1 418 0
 2540 0fac 08F80300 		strb	r0, [r8, r3]
 2541              		.loc 1 419 0
 2542 0fb0 0233     		adds	r3, r3, #2
 2543 0fb2 5170     		strb	r1, [r2, #1]
 2544 0fb4 C9F80030 		str	r3, [r9]
 2545              		.loc 1 422 0
 2546 0fb8 FFF7FEFF 		bl	e_get_steps_left
 2547              	.LVL168:
 2548              		.loc 1 423 0
 2549 0fbc D9F80030 		ldr	r3, [r9]
 2550              		.loc 1 424 0
 2551 0fc0 08EB0302 		add	r2, r8, r3
 2552 0fc4 0112     		asrs	r1, r0, #8
 2553              		.loc 1 423 0
 2554 0fc6 08F80300 		strb	r0, [r8, r3]
 2555              		.loc 1 424 0
 2556 0fca 0233     		adds	r3, r3, #2
 2557 0fcc 5170     		strb	r1, [r2, #1]
 2558 0fce C9F80030 		str	r3, [r9]
 2559              		.loc 1 425 0
 2560 0fd2 FFF7FEFF 		bl	e_get_steps_right
 2561              	.LVL169:
 2562              		.loc 1 426 0
 2563 0fd6 D9F80030 		ldr	r3, [r9]
 2564              		.loc 1 427 0
 2565 0fda 08EB0302 		add	r2, r8, r3
ARM GAS  /tmp/ccZueut9.s 			page 46


 2566 0fde 0112     		asrs	r1, r0, #8
 2567              		.loc 1 426 0
 2568 0fe0 08F80300 		strb	r0, [r8, r3]
 2569              		.loc 1 427 0
 2570 0fe4 0233     		adds	r3, r3, #2
 2571 0fe6 5170     		strb	r1, [r2, #1]
 2572 0fe8 C9F80030 		str	r3, [r9]
 2573              		.loc 1 430 0
 2574 0fec FFF7FEFF 		bl	getBatteryValueRaw
 2575              	.LVL170:
 2576              		.loc 1 431 0
 2577 0ff0 D9F80030 		ldr	r3, [r9]
 2578              		.loc 1 432 0
 2579 0ff4 08EB0302 		add	r2, r8, r3
 2580              		.loc 1 431 0
 2581 0ff8 08F80300 		strb	r0, [r8, r3]
 2582              		.loc 1 432 0
 2583 0ffc 010A     		lsrs	r1, r0, #8
 2584 0ffe 0233     		adds	r3, r3, #2
 2585 1000 5170     		strb	r1, [r2, #1]
 2586 1002 C9F80030 		str	r3, [r9]
 2587              		.loc 1 435 0
 2588 1006 FFF7FEFF 		bl	sdio_is_present
 2589              	.LVL171:
 2590 100a 0028     		cmp	r0, #0
 2591 100c 41F06D80 		bne	.L800
 2592              		.loc 1 440 0
 2593 1010 D9F80040 		ldr	r4, [r9]
 2594 1014 08F80400 		strb	r0, [r8, r4]
 2595 1018 0134     		adds	r4, r4, #1
 2596              	.L91:
 2597              		.loc 1 444 0
 2598 101a 631C     		adds	r3, r4, #1
 2599 101c C9F80030 		str	r3, [r9]
 2600 1020 FFF7FEFF 		bl	e_get_check
 2601              	.LVL172:
 2602              		.loc 1 445 0
 2603 1024 D9F800B0 		ldr	fp, [r9]
 2604              		.loc 1 444 0
 2605 1028 08F80400 		strb	r0, [r8, r4]
 2606              		.loc 1 445 0
 2607 102c 0BF10103 		add	r3, fp, #1
 2608 1030 C9F80030 		str	r3, [r9]
 2609 1034 FFF7FEFF 		bl	e_get_address
 2610              	.LVL173:
 2611              		.loc 1 446 0
 2612 1038 D9F80040 		ldr	r4, [r9]
 2613              		.loc 1 445 0
 2614 103c 08F80B00 		strb	r0, [r8, fp]
 2615              		.loc 1 446 0
 2616 1040 631C     		adds	r3, r4, #1
 2617 1042 C9F80030 		str	r3, [r9]
 2618 1046 FFF7FEFF 		bl	e_get_data
 2619              	.LVL174:
 2620              		.loc 1 449 0
 2621 104a 494A     		ldr	r2, .L822+16
 2622              		.loc 1 446 0
ARM GAS  /tmp/ccZueut9.s 			page 47


 2623 104c 08F80400 		strb	r0, [r8, r4]
 2624              		.loc 1 449 0
 2625 1050 484C     		ldr	r4, .L822+20
 2626 1052 2369     		ldr	r3, [r4, #16]
 2627 1054 2169     		ldr	r1, [r4, #16]
 2628 1056 1069     		ldr	r0, [r2, #16]
 2629 1058 2269     		ldr	r2, [r4, #16]
 2630 105a C0F30010 		ubfx	r0, r0, #4, #1
 2631 105e C1F3C031 		ubfx	r1, r1, #15, #1
 2632 1062 01EB4001 		add	r1, r1, r0, lsl #1
 2633 1066 C2F38032 		ubfx	r2, r2, #14, #1
 2634 106a 02EB4102 		add	r2, r2, r1, lsl #1
 2635 106e C3F34033 		ubfx	r3, r3, #13, #1
 2636              		.loc 1 450 0
 2637 1072 D9F80010 		ldr	r1, [r9]
 2638              		.loc 1 449 0
 2639 1076 03EB4203 		add	r3, r3, r2, lsl #1
 2640 107a 3F4A     		ldr	r2, .L822+24
 2641              		.loc 1 450 0
 2642 107c 08F80130 		strb	r3, [r8, r1]
 2643              		.loc 1 453 0
 2644 1080 0020     		movs	r0, #0
 2645              		.loc 1 450 0
 2646 1082 0131     		adds	r1, r1, #1
 2647              		.loc 1 449 0
 2648 1084 1360     		str	r3, [r2]
 2649              		.loc 1 450 0
 2650 1086 C9F80010 		str	r1, [r9]
 2651              		.loc 1 453 0
 2652 108a CAF80000 		str	r0, [r10]
 2653              	.L92:
 2654              		.loc 1 454 0 discriminator 3
 2655 108e FFF7FEFF 		bl	get_ground_prox
 2656              	.LVL175:
 2657              		.loc 1 455 0 discriminator 3
 2658 1092 D9F80020 		ldr	r2, [r9]
 2659              		.loc 1 453 0 discriminator 3
 2660 1096 DAF80030 		ldr	r3, [r10]
 2661              		.loc 1 455 0 discriminator 3
 2662 109a 08F80200 		strb	r0, [r8, r2]
 2663              		.loc 1 456 0 discriminator 3
 2664 109e 08EB0204 		add	r4, r8, r2
 2665 10a2 0112     		asrs	r1, r0, #8
 2666              		.loc 1 453 0 discriminator 3
 2667 10a4 581C     		adds	r0, r3, #1
 2668              		.loc 1 456 0 discriminator 3
 2669 10a6 0232     		adds	r2, r2, #2
 2670              		.loc 1 453 0 discriminator 3
 2671 10a8 0228     		cmp	r0, #2
 2672              		.loc 1 456 0 discriminator 3
 2673 10aa 6170     		strb	r1, [r4, #1]
 2674 10ac C9F80020 		str	r2, [r9]
 2675              		.loc 1 453 0 discriminator 3
 2676 10b0 CAF80000 		str	r0, [r10]
 2677 10b4 EBDD     		ble	.L92
 2678              		.loc 1 460 0
 2679 10b6 0020     		movs	r0, #0
ARM GAS  /tmp/ccZueut9.s 			page 48


 2680 10b8 CAF80000 		str	r0, [r10]
 2681              	.L93:
 2682              		.loc 1 461 0 discriminator 3
 2683 10bc FFF7FEFF 		bl	get_ground_ambient_light
 2684              	.LVL176:
 2685              		.loc 1 462 0 discriminator 3
 2686 10c0 D9F80010 		ldr	r1, [r9]
 2687              		.loc 1 460 0 discriminator 3
 2688 10c4 DAF80030 		ldr	r3, [r10]
 2689              		.loc 1 462 0 discriminator 3
 2690 10c8 08F80100 		strb	r0, [r8, r1]
 2691              		.loc 1 463 0 discriminator 3
 2692 10cc 0212     		asrs	r2, r0, #8
 2693 10ce 08EB0104 		add	r4, r8, r1
 2694              		.loc 1 460 0 discriminator 3
 2695 10d2 581C     		adds	r0, r3, #1
 2696 10d4 0228     		cmp	r0, #2
 2697              		.loc 1 463 0 discriminator 3
 2698 10d6 01F10203 		add	r3, r1, #2
 2699 10da 6270     		strb	r2, [r4, #1]
 2700 10dc C9F80030 		str	r3, [r9]
 2701              		.loc 1 460 0 discriminator 3
 2702 10e0 CAF80000 		str	r0, [r10]
 2703 10e4 EADD     		ble	.L93
 2704              		.loc 1 467 0
 2705 10e6 0331     		adds	r1, r1, #3
 2706 10e8 0022     		movs	r2, #0
 2707 10ea C9F80010 		str	r1, [r9]
 2708 10ee 08F80320 		strb	r2, [r8, r3]
 2709              		.loc 1 468 0
 2710 10f2 FFF704BA 		b	.L47
 2711              	.LVL177:
 2712              	.L76:
 2713              		.loc 1 993 0
 2714 10f6 002D     		cmp	r5, #0
 2715 10f8 7FF46CA9 		bne	.L46
 2716              		.loc 1 994 0
 2717 10fc FFF7FEFF 		bl	e_i2cp_enable
 2718              	.LVL178:
 2719              		.loc 1 995 0
 2720 1100 CAF80050 		str	r5, [r10]
 2721 1104 2846     		mov	r0, r5
 2722 1106 01E0     		b	.L200
 2723              	.L801:
 2724 1108 DAF80000 		ldr	r0, [r10]
 2725              	.L200:
 2726              		.loc 1 996 0 discriminator 1
 2727 110c D9F80030 		ldr	r3, [r9]
 2728 1110 1844     		add	r0, r0, r3
 2729 1112 4044     		add	r0, r0, r8
 2730 1114 FFF7FEFF 		bl	e_getchar_uart1
 2731              	.LVL179:
 2732 1118 0028     		cmp	r0, #0
 2733 111a F5D0     		beq	.L801
 2734              		.loc 1 995 0 discriminator 2
 2735 111c DAF80000 		ldr	r0, [r10]
 2736 1120 0130     		adds	r0, r0, #1
ARM GAS  /tmp/ccZueut9.s 			page 49


 2737 1122 1728     		cmp	r0, #23
 2738 1124 CAF80000 		str	r0, [r10]
 2739 1128 F0DD     		ble	.L200
 2740              		.loc 1 998 0
 2741 112a 9220     		movs	r0, #146
 2742 112c CAF80000 		str	r0, [r10]
 2743 1130 01E0     		b	.L203
 2744              	.L802:
 2745 1132 DAF80000 		ldr	r0, [r10]
 2746              	.L203:
 2747              		.loc 1 999 0 discriminator 1
 2748 1136 D9F80030 		ldr	r3, [r9]
 2749 113a 1844     		add	r0, r0, r3
 2750 113c 7A38     		subs	r0, r0, #122
 2751 113e 4044     		add	r0, r0, r8
 2752 1140 FFF7FEFF 		bl	e_getchar_uart1
 2753              	.LVL180:
 2754 1144 0028     		cmp	r0, #0
 2755 1146 F4D0     		beq	.L802
 2756              		.loc 1 998 0 discriminator 2
 2757 1148 DAF80000 		ldr	r0, [r10]
 2758 114c 0130     		adds	r0, r0, #1
 2759 114e 9428     		cmp	r0, #148
 2760 1150 CAF80000 		str	r0, [r10]
 2761 1154 EFDD     		ble	.L203
 2762              		.loc 1 1001 0
 2763 1156 A420     		movs	r0, #164
 2764 1158 CAF80000 		str	r0, [r10]
 2765 115c 10E0     		b	.L206
 2766              	.L823:
 2767 115e 00BF     		.align	2
 2768              	.L822:
 2769 1160 00000000 		.word	.LANCHOR10
 2770 1164 00000000 		.word	.LANCHOR11
 2771 1168 00000000 		.word	.LANCHOR12
 2772 116c 00000000 		.word	.LANCHOR13
 2773 1170 000C0240 		.word	1073875968
 2774 1174 00080240 		.word	1073874944
 2775 1178 00000000 		.word	selector
 2776              	.L803:
 2777 117c DAF80000 		ldr	r0, [r10]
 2778              	.L206:
 2779              		.loc 1 1002 0 discriminator 1
 2780 1180 D9F80030 		ldr	r3, [r9]
 2781 1184 1844     		add	r0, r0, r3
 2782 1186 8938     		subs	r0, r0, #137
 2783 1188 4044     		add	r0, r0, r8
 2784 118a FFF7FEFF 		bl	e_getchar_uart1
 2785              	.LVL181:
 2786 118e 0028     		cmp	r0, #0
 2787 1190 F4D0     		beq	.L803
 2788              		.loc 1 1001 0 discriminator 2
 2789 1192 DAF80000 		ldr	r0, [r10]
 2790 1196 0130     		adds	r0, r0, #1
 2791 1198 AB28     		cmp	r0, #171
 2792 119a CAF80000 		str	r0, [r10]
 2793 119e EFDD     		ble	.L206
ARM GAS  /tmp/ccZueut9.s 			page 50


 2794              		.loc 1 1004 0
 2795 11a0 0021     		movs	r1, #0
 2796 11a2 CAF80010 		str	r1, [r10]
 2797              	.L208:
 2798              		.loc 1 1005 0 discriminator 3
 2799 11a6 D9F80030 		ldr	r3, [r9]
 2800 11aa 08EB0102 		add	r2, r8, r1
 2801 11ae B020     		movs	r0, #176
 2802 11b0 C9B2     		uxtb	r1, r1
 2803 11b2 D25C     		ldrb	r2, [r2, r3]	@ zero_extendqisi2
 2804 11b4 FFF7FEFF 		bl	e_i2cp_write
 2805              	.LVL182:
 2806              		.loc 1 1004 0 discriminator 3
 2807 11b8 DAF80010 		ldr	r1, [r10]
 2808 11bc 0131     		adds	r1, r1, #1
 2809 11be 1729     		cmp	r1, #23
 2810 11c0 CAF80010 		str	r1, [r10]
 2811 11c4 EFDD     		ble	.L208
 2812              		.loc 1 1007 0
 2813 11c6 9221     		movs	r1, #146
 2814 11c8 CAF80010 		str	r1, [r10]
 2815              	.L209:
 2816              		.loc 1 1008 0 discriminator 3
 2817 11cc D9F80020 		ldr	r2, [r9]
 2818 11d0 08EB0103 		add	r3, r8, r1
 2819 11d4 1344     		add	r3, r3, r2
 2820 11d6 C9B2     		uxtb	r1, r1
 2821 11d8 13F87A2C 		ldrb	r2, [r3, #-122]	@ zero_extendqisi2
 2822 11dc B020     		movs	r0, #176
 2823 11de FFF7FEFF 		bl	e_i2cp_write
 2824              	.LVL183:
 2825              		.loc 1 1007 0 discriminator 3
 2826 11e2 DAF80010 		ldr	r1, [r10]
 2827 11e6 0131     		adds	r1, r1, #1
 2828 11e8 9429     		cmp	r1, #148
 2829 11ea CAF80010 		str	r1, [r10]
 2830 11ee EDDD     		ble	.L209
 2831              		.loc 1 1010 0
 2832 11f0 A421     		movs	r1, #164
 2833 11f2 CAF80010 		str	r1, [r10]
 2834              	.L210:
 2835              		.loc 1 1011 0 discriminator 3
 2836 11f6 D9F80020 		ldr	r2, [r9]
 2837 11fa 08EB0103 		add	r3, r8, r1
 2838 11fe 1344     		add	r3, r3, r2
 2839 1200 C9B2     		uxtb	r1, r1
 2840 1202 13F8892C 		ldrb	r2, [r3, #-137]	@ zero_extendqisi2
 2841 1206 B020     		movs	r0, #176
 2842 1208 FFF7FEFF 		bl	e_i2cp_write
 2843              	.LVL184:
 2844              		.loc 1 1010 0 discriminator 3
 2845 120c DAF80010 		ldr	r1, [r10]
 2846 1210 0131     		adds	r1, r1, #1
 2847 1212 AB29     		cmp	r1, #171
 2848 1214 CAF80010 		str	r1, [r10]
 2849 1218 EDDD     		ble	.L210
 2850              		.loc 1 1013 0
ARM GAS  /tmp/ccZueut9.s 			page 51


 2851 121a 0122     		movs	r2, #1
 2852 121c 9121     		movs	r1, #145
 2853 121e B020     		movs	r0, #176
 2854 1220 FFF7FEFF 		bl	e_i2cp_write
 2855              	.LVL185:
 2856              		.loc 1 1014 0
 2857 1224 FFF7FEFF 		bl	e_i2cp_disable
 2858              	.LVL186:
 2859 1228 FFF76AB9 		b	.L128
 2860              	.L740:
 2861              		.loc 1 1043 0
 2862 122c D9F80010 		ldr	r1, [r9]
 2863 1230 AB46     		mov	fp, r5
 2864 1232 0029     		cmp	r1, #0
 2865 1234 3EF42EAF 		beq	.L5
 2866              		.loc 1 1044 0
 2867 1238 002D     		cmp	r5, #0
 2868 123a 7EF42BAF 		bne	.L5
 2869              		.loc 1 1045 0
 2870 123e C94B     		ldr	r3, .L824
 2871 1240 1B78     		ldrb	r3, [r3]	@ zero_extendqisi2
 2872 1242 002B     		cmp	r3, #0
 2873 1244 40F0C286 		bne	.L804
 2874              	.L219:
 2875              		.loc 1 1054 0
 2876 1248 079B     		ldr	r3, [sp, #28]
 2877 124a 002B     		cmp	r3, #0
 2878 124c 00F04C86 		beq	.L805
 2879              		.loc 1 1055 0
 2880 1250 C548     		ldr	r0, .L824+4
 2881 1252 FFF7FEFF 		bl	e_send_uart1_char
 2882              	.LVL187:
 2883              	.L220:
 2884              		.loc 1 1056 0 discriminator 1
 2885 1256 FFF7FEFF 		bl	e_uart1_sending
 2886              	.LVL188:
 2887 125a 0028     		cmp	r0, #0
 2888 125c FBD1     		bne	.L220
 2889 125e FEF71CBF 		b	.L741
 2890              	.L775:
 2891              	.LVL189:
 2892              	.LBB3:
 2893              		.loc 1 1085 0
 2894 1262 FFF7FEFF 		bl	__locale_ctype_ptr
 2895              	.LVL190:
 2896 1266 2044     		add	r0, r0, r4
 2897 1268 4378     		ldrb	r3, [r0, #1]	@ zero_extendqisi2
 2898 126a 03F00303 		and	r3, r3, #3
 2899 126e 022B     		cmp	r3, #2
 2900 1270 08BF     		it	eq
 2901 1272 203C     		subeq	r4, r4, #32
 2902              	.LVL191:
 2903              	.LBE3:
 2904 1274 E4B2     		uxtb	r4, r4
 2905              		.loc 1 1087 0
 2906 1276 A4F14103 		sub	r3, r4, #65
 2907              		.loc 1 1085 0
ARM GAS  /tmp/ccZueut9.s 			page 52


 2908 127a 88F80040 		strb	r4, [r8]
 2909              		.loc 1 1087 0
 2910 127e 332B     		cmp	r3, #51
 2911 1280 00F2F485 		bhi	.L242
 2912 1284 01A2     		adr	r2, .L244
 2913 1286 52F823F0 		ldr	pc, [r2, r3, lsl #2]
 2914 128a 00BF     		.p2align 2
 2915              	.L244:
 2916 128c C1160000 		.word	.L243+1
 2917 1290 39160000 		.word	.L245+1
 2918 1294 D9150000 		.word	.L246+1
 2919 1298 CB1D0000 		.word	.L247+1
 2920 129c A1190000 		.word	.L248+1
 2921 12a0 271B0000 		.word	.L249+1
 2922 12a4 21180000 		.word	.L250+1
 2923 12a8 F91B0000 		.word	.L251+1
 2924 12ac F1180000 		.word	.L252+1
 2925 12b0 131A0000 		.word	.L253+1
 2926 12b4 6F160000 		.word	.L254+1
 2927 12b8 EB1A0000 		.word	.L255+1
 2928 12bc 3D190000 		.word	.L256+1
 2929 12c0 9B170000 		.word	.L257+1
 2930 12c4 15170000 		.word	.L258+1
 2931 12c8 5D1B0000 		.word	.L259+1
 2932 12cc 69180000 		.word	.L260+1
 2933 12d0 95000000 		.word	.L5+1
 2934 12d4 DB190000 		.word	.L261+1
 2935 12d8 A5150000 		.word	.L262+1
 2936 12dc 15150000 		.word	.L263+1
 2937 12e0 83140000 		.word	.L264+1
 2938 12e4 C9140000 		.word	.L265+1
 2939 12e8 6D1E0000 		.word	.L242+1
 2940 12ec 03140000 		.word	.L266+1
 2941 12f0 95130000 		.word	.L267+1
 2942 12f4 6D1E0000 		.word	.L242+1
 2943 12f8 6D1E0000 		.word	.L242+1
 2944 12fc 6D1E0000 		.word	.L242+1
 2945 1300 6D1E0000 		.word	.L242+1
 2946 1304 6D1E0000 		.word	.L242+1
 2947 1308 6D1E0000 		.word	.L242+1
 2948 130c 6D1E0000 		.word	.L242+1
 2949 1310 03290000 		.word	.L268+1
 2950 1314 6D1E0000 		.word	.L242+1
 2951 1318 6D1E0000 		.word	.L242+1
 2952 131c 6D1E0000 		.word	.L242+1
 2953 1320 6D1E0000 		.word	.L242+1
 2954 1324 69010000 		.word	.L240+1
 2955 1328 6D1E0000 		.word	.L242+1
 2956 132c 6D1E0000 		.word	.L242+1
 2957 1330 6D1E0000 		.word	.L242+1
 2958 1334 6D1E0000 		.word	.L242+1
 2959 1338 6D1E0000 		.word	.L242+1
 2960 133c 6D1E0000 		.word	.L242+1
 2961 1340 6D1E0000 		.word	.L242+1
 2962 1344 6D1E0000 		.word	.L242+1
 2963 1348 6D1E0000 		.word	.L242+1
 2964 134c 6D1E0000 		.word	.L242+1
ARM GAS  /tmp/ccZueut9.s 			page 53


 2965 1350 6D1E0000 		.word	.L242+1
 2966 1354 6D1E0000 		.word	.L242+1
 2967 1358 5D130000 		.word	.L269+1
 2968              		.p2align 1
 2969              	.L269:
 2970              	.LBB4:
 2971              		.loc 1 1519 0
 2972 135c BBF1000F 		cmp	fp, #0
 2973 1360 40F0DA87 		bne	.L418
 2974              		.loc 1 1520 0
 2975 1364 FFF7FEFF 		bl	getTemperature
 2976              	.LVL192:
 2977 1368 8049     		ldr	r1, .L824+8
 2978 136a 0246     		mov	r2, r0
 2979 136c 7E48     		ldr	r0, .L824+4
 2980 136e FFF7FEFF 		bl	sprintf
 2981              	.LVL193:
 2982              		.loc 1 1526 0
 2983 1372 079B     		ldr	r3, [sp, #28]
 2984 1374 002B     		cmp	r3, #0
 2985 1376 01F0C880 		beq	.L806
 2986              		.loc 1 1527 0
 2987 137a 7B48     		ldr	r0, .L824+4
 2988 137c FFF7FEFF 		bl	strlen
 2989              	.LVL194:
 2990 1380 0146     		mov	r1, r0
 2991 1382 7948     		ldr	r0, .L824+4
 2992 1384 FFF7FEFF 		bl	e_send_uart1_char
 2993              	.LVL195:
 2994              	.L421:
 2995              		.loc 1 1527 0 is_stmt 0 discriminator 2
 2996 1388 FFF7FEFF 		bl	e_uart1_sending
 2997              	.LVL196:
 2998 138c 0028     		cmp	r0, #0
 2999 138e FBD1     		bne	.L421
 3000 1390 FEF783BE 		b	.L741
 3001              	.L267:
 3002              		.loc 1 1594 0 is_stmt 1
 3003 1394 BBF1000F 		cmp	fp, #0
 3004 1398 7EF47CAE 		bne	.L5
 3005              		.loc 1 1595 0
 3006 139c 0223     		movs	r3, #2
 3007              		.loc 1 1600 0
 3008 139e 744D     		ldr	r5, .L824+12
 3009 13a0 714C     		ldr	r4, .L824+4
 3010              		.loc 1 1595 0
 3011 13a2 CAF80030 		str	r3, [r10]
 3012 13a6 079E     		ldr	r6, [sp, #28]
 3013 13a8 07E0     		b	.L448
 3014              	.L444:
 3015 13aa DAF80030 		ldr	r3, [r10]
 3016 13ae 0233     		adds	r3, r3, #2
 3017 13b0 FE2B     		cmp	r3, #254
 3018 13b2 CAF80030 		str	r3, [r10]
 3019 13b6 3EF770AE 		bgt	.L741
 3020              	.L448:
 3021              		.loc 1 1596 0
ARM GAS  /tmp/ccZueut9.s 			page 54


 3022 13ba FFF7FEFF 		bl	e_i2cp_enable
 3023              	.LVL197:
 3024              		.loc 1 1597 0
 3025 13be 0021     		movs	r1, #0
 3026 13c0 9AF80000 		ldrb	r0, [r10]	@ zero_extendqisi2
 3027 13c4 FFF7FEFF 		bl	e_i2cp_read
 3028              	.LVL198:
 3029 13c8 6A4B     		ldr	r3, .L824+16
 3030 13ca 1860     		str	r0, [r3]
 3031              		.loc 1 1598 0
 3032 13cc FFF7FEFF 		bl	e_i2cp_disable
 3033              	.LVL199:
 3034              		.loc 1 1599 0
 3035 13d0 684B     		ldr	r3, .L824+16
 3036 13d2 1B68     		ldr	r3, [r3]
 3037 13d4 002B     		cmp	r3, #0
 3038 13d6 E8DB     		blt	.L444
 3039              		.loc 1 1600 0
 3040 13d8 DAF80020 		ldr	r2, [r10]
 3041 13dc 2946     		mov	r1, r5
 3042 13de 2046     		mov	r0, r4
 3043 13e0 FFF7FEFF 		bl	sprintf
 3044              	.LVL200:
 3045              		.loc 1 1602 0
 3046 13e4 2046     		mov	r0, r4
 3047              		.loc 1 1601 0
 3048 13e6 002E     		cmp	r6, #0
 3049 13e8 00F0D987 		beq	.L445
 3050              		.loc 1 1602 0
 3051 13ec FFF7FEFF 		bl	strlen
 3052              	.LVL201:
 3053 13f0 0146     		mov	r1, r0
 3054 13f2 2046     		mov	r0, r4
 3055 13f4 FFF7FEFF 		bl	e_send_uart1_char
 3056              	.LVL202:
 3057              	.L446:
 3058              		.loc 1 1602 0 is_stmt 0 discriminator 2
 3059 13f8 FFF7FEFF 		bl	e_uart1_sending
 3060              	.LVL203:
 3061 13fc 0028     		cmp	r0, #0
 3062 13fe FBD1     		bne	.L446
 3063 1400 D3E7     		b	.L444
 3064              	.L266:
 3065              		.loc 1 1574 0 is_stmt 1
 3066 1402 BBF1000F 		cmp	fp, #0
 3067 1406 7EF445AE 		bne	.L5
 3068              		.loc 1 1575 0
 3069 140a 5B4B     		ldr	r3, .L824+20
 3070 140c 5B4A     		ldr	r2, .L824+24
 3071 140e 5C49     		ldr	r1, .L824+28
 3072 1410 5548     		ldr	r0, .L824+4
 3073 1412 FFF7FEFF 		bl	sscanf
 3074              	.LVL204:
 3075              		.loc 1 1576 0
 3076 1416 584B     		ldr	r3, .L824+20
 3077 1418 584A     		ldr	r2, .L824+24
 3078 141a 1B68     		ldr	r3, [r3]
ARM GAS  /tmp/ccZueut9.s 			page 55


 3079 141c 1268     		ldr	r2, [r2]
 3080 141e 5949     		ldr	r1, .L824+32
 3081 1420 5148     		ldr	r0, .L824+4
 3082 1422 FFF7FEFF 		bl	sprintf
 3083              	.LVL205:
 3084              		.loc 1 1577 0
 3085 1426 079B     		ldr	r3, [sp, #28]
 3086              		.loc 1 1578 0
 3087 1428 4F48     		ldr	r0, .L824+4
 3088              		.loc 1 1577 0
 3089 142a 002B     		cmp	r3, #0
 3090 142c 01F0D481 		beq	.L437
 3091              		.loc 1 1578 0
 3092 1430 FFF7FEFF 		bl	strlen
 3093              	.LVL206:
 3094 1434 0146     		mov	r1, r0
 3095 1436 4C48     		ldr	r0, .L824+4
 3096 1438 FFF7FEFF 		bl	e_send_uart1_char
 3097              	.LVL207:
 3098              	.L438:
 3099              		.loc 1 1578 0 is_stmt 0 discriminator 2
 3100 143c FFF7FEFF 		bl	e_uart1_sending
 3101              	.LVL208:
 3102 1440 0028     		cmp	r0, #0
 3103 1442 FBD1     		bne	.L438
 3104              		.loc 1 1582 0 is_stmt 1
 3105 1444 FFF7FEFF 		bl	e_i2cp_enable
 3106              	.LVL209:
 3107              		.loc 1 1583 0
 3108 1448 4B4B     		ldr	r3, .L824+20
 3109 144a 1978     		ldrb	r1, [r3]	@ zero_extendqisi2
 3110 144c 4B4B     		ldr	r3, .L824+24
 3111 144e 1878     		ldrb	r0, [r3]	@ zero_extendqisi2
 3112 1450 FFF7FEFF 		bl	e_i2cp_read
 3113              	.LVL210:
 3114 1454 474B     		ldr	r3, .L824+16
 3115 1456 1C46     		mov	r4, r3
 3116 1458 1860     		str	r0, [r3]
 3117              		.loc 1 1584 0
 3118 145a FFF7FEFF 		bl	e_i2cp_disable
 3119              	.LVL211:
 3120              		.loc 1 1585 0
 3121 145e 4A49     		ldr	r1, .L824+36
 3122 1460 2268     		ldr	r2, [r4]
 3123 1462 4148     		ldr	r0, .L824+4
 3124 1464 FFF7FEFF 		bl	sprintf
 3125              	.LVL212:
 3126              		.loc 1 1587 0
 3127 1468 3F48     		ldr	r0, .L824+4
 3128 146a FFF7FEFF 		bl	strlen
 3129              	.LVL213:
 3130 146e 0146     		mov	r1, r0
 3131 1470 3D48     		ldr	r0, .L824+4
 3132 1472 FFF7FEFF 		bl	e_send_uart1_char
 3133              	.LVL214:
 3134              	.L442:
 3135              		.loc 1 1587 0 is_stmt 0 discriminator 2
ARM GAS  /tmp/ccZueut9.s 			page 56


 3136 1476 FFF7FEFF 		bl	e_uart1_sending
 3137              	.LVL215:
 3138 147a 0028     		cmp	r0, #0
 3139 147c FBD1     		bne	.L442
 3140 147e FEF70CBE 		b	.L741
 3141              	.L264:
 3142              		.loc 1 1544 0 is_stmt 1
 3143 1482 BBF1000F 		cmp	fp, #0
 3144 1486 40F03F87 		bne	.L426
 3145              		.loc 1 1546 0
 3146 148a 079B     		ldr	r3, [sp, #28]
 3147              		.loc 1 1547 0
 3148 148c 3F48     		ldr	r0, .L824+40
 3149 148e 2521     		movs	r1, #37
 3150              		.loc 1 1546 0
 3151 1490 002B     		cmp	r3, #0
 3152 1492 01F02180 		beq	.L427
 3153              		.loc 1 1547 0
 3154 1496 FFF7FEFF 		bl	e_send_uart1_char
 3155              	.LVL216:
 3156              	.L428:
 3157              		.loc 1 1547 0 is_stmt 0 discriminator 2
 3158 149a FFF7FEFF 		bl	e_uart1_sending
 3159              	.LVL217:
 3160 149e 0028     		cmp	r0, #0
 3161 14a0 FBD1     		bne	.L428
 3162              		.loc 1 1551 0 is_stmt 1
 3163 14a2 3B4B     		ldr	r3, .L824+44
 3164 14a4 3B49     		ldr	r1, .L824+48
 3165 14a6 1A68     		ldr	r2, [r3]
 3166 14a8 2F48     		ldr	r0, .L824+4
 3167 14aa FFF7FEFF 		bl	sprintf
 3168              	.LVL218:
 3169              		.loc 1 1555 0
 3170 14ae 2E48     		ldr	r0, .L824+4
 3171 14b0 FFF7FEFF 		bl	strlen
 3172              	.LVL219:
 3173 14b4 0146     		mov	r1, r0
 3174 14b6 2C48     		ldr	r0, .L824+4
 3175 14b8 FFF7FEFF 		bl	e_send_uart1_char
 3176              	.LVL220:
 3177              	.L432:
 3178              		.loc 1 1555 0 is_stmt 0 discriminator 2
 3179 14bc FFF7FEFF 		bl	e_uart1_sending
 3180              	.LVL221:
 3181 14c0 0028     		cmp	r0, #0
 3182 14c2 FBD1     		bne	.L432
 3183 14c4 FEF7E9BD 		b	.L741
 3184              	.L265:
 3185              		.loc 1 1561 0 is_stmt 1
 3186 14c8 BBF1000F 		cmp	fp, #0
 3187 14cc 7EF4E2AD 		bne	.L5
 3188              		.loc 1 1562 0
 3189 14d0 284B     		ldr	r3, .L824+16
 3190 14d2 2A4A     		ldr	r2, .L824+24
 3191 14d4 3049     		ldr	r1, .L824+52
 3192 14d6 0093     		str	r3, [sp]
ARM GAS  /tmp/ccZueut9.s 			page 57


 3193 14d8 1C46     		mov	r4, r3
 3194 14da 2348     		ldr	r0, .L824+4
 3195 14dc 264B     		ldr	r3, .L824+20
 3196 14de FFF7FEFF 		bl	sscanf
 3197              	.LVL222:
 3198              		.loc 1 1563 0
 3199 14e2 FFF7FEFF 		bl	e_i2cp_enable
 3200              	.LVL223:
 3201              		.loc 1 1564 0
 3202 14e6 244B     		ldr	r3, .L824+20
 3203 14e8 2278     		ldrb	r2, [r4]	@ zero_extendqisi2
 3204 14ea 1978     		ldrb	r1, [r3]	@ zero_extendqisi2
 3205 14ec 234B     		ldr	r3, .L824+24
 3206 14ee 1878     		ldrb	r0, [r3]	@ zero_extendqisi2
 3207 14f0 FFF7FEFF 		bl	e_i2cp_write
 3208              	.LVL224:
 3209              		.loc 1 1565 0
 3210 14f4 FFF7FEFF 		bl	e_i2cp_disable
 3211              	.LVL225:
 3212              		.loc 1 1566 0
 3213 14f8 079B     		ldr	r3, [sp, #28]
 3214              		.loc 1 1567 0
 3215 14fa 2848     		ldr	r0, .L824+56
 3216 14fc 0321     		movs	r1, #3
 3217              		.loc 1 1566 0
 3218 14fe 002B     		cmp	r3, #0
 3219 1500 01F0AA81 		beq	.L434
 3220              		.loc 1 1567 0
 3221 1504 FFF7FEFF 		bl	e_send_uart1_char
 3222              	.LVL226:
 3223              	.L435:
 3224              		.loc 1 1567 0 is_stmt 0 discriminator 2
 3225 1508 FFF7FEFF 		bl	e_uart1_sending
 3226              	.LVL227:
 3227 150c 0028     		cmp	r0, #0
 3228 150e FBD1     		bne	.L435
 3229 1510 FEF7C3BD 		b	.L741
 3230              	.L263:
 3231              		.loc 1 1534 0 is_stmt 1
 3232 1514 0020     		movs	r0, #0
 3233 1516 FFF7FEFF 		bl	e_get_micro_volume
 3234              	.LVL228:
 3235 151a 0446     		mov	r4, r0
 3236 151c 0120     		movs	r0, #1
 3237 151e FFF7FEFF 		bl	e_get_micro_volume
 3238              	.LVL229:
 3239 1522 0546     		mov	r5, r0
 3240 1524 0220     		movs	r0, #2
 3241 1526 FFF7FEFF 		bl	e_get_micro_volume
 3242              	.LVL230:
 3243 152a 2B46     		mov	r3, r5
 3244 152c 0090     		str	r0, [sp]
 3245 152e 2246     		mov	r2, r4
 3246 1530 1B49     		ldr	r1, .L824+60
 3247 1532 0D48     		ldr	r0, .L824+4
 3248 1534 FFF7FEFF 		bl	sprintf
 3249              	.LVL231:
ARM GAS  /tmp/ccZueut9.s 			page 58


 3250              		.loc 1 1535 0
 3251 1538 BBF1000F 		cmp	fp, #0
 3252 153c 7EF4AAAD 		bne	.L5
 3253 1540 0948     		ldr	r0, .L824+4
 3254 1542 FFF7FEFF 		bl	strlen
 3255              	.LVL232:
 3256              		.loc 1 1537 0
 3257 1546 079B     		ldr	r3, [sp, #28]
 3258 1548 0146     		mov	r1, r0
 3259              		.loc 1 1538 0
 3260 154a 0748     		ldr	r0, .L824+4
 3261              		.loc 1 1537 0
 3262 154c 002B     		cmp	r3, #0
 3263 154e 01F00680 		beq	.L423
 3264              		.loc 1 1538 0
 3265 1552 FFF7FEFF 		bl	e_send_uart1_char
 3266              	.LVL233:
 3267              	.L424:
 3268              		.loc 1 1538 0 is_stmt 0 discriminator 2
 3269 1556 FFF7FEFF 		bl	e_uart1_sending
 3270              	.LVL234:
 3271 155a 0028     		cmp	r0, #0
 3272 155c FBD1     		bne	.L424
 3273 155e FEF79CBD 		b	.L741
 3274              	.L825:
 3275 1562 00BF     		.align	2
 3276              	.L824:
 3277 1564 00000000 		.word	.LANCHOR21
 3278 1568 00000000 		.word	buffer
 3279 156c B40A0000 		.word	.LC85
 3280 1570 240B0000 		.word	.LC93
 3281 1574 00000000 		.word	.LANCHOR26
 3282 1578 00000000 		.word	.LANCHOR25
 3283 157c 00000000 		.word	.LANCHOR24
 3284 1580 0C0B0000 		.word	.LC91
 3285 1584 180B0000 		.word	.LC92
 3286 1588 5C0B0000 		.word	.LC96
 3287 158c D40A0000 		.word	.LC88
 3288 1590 00000000 		.word	.LANCHOR0
 3289 1594 480B0000 		.word	.LC95
 3290 1598 FC0A0000 		.word	.LC89
 3291 159c 080B0000 		.word	.LC90
 3292 15a0 C40A0000 		.word	.LC87
 3293              	.L262:
 3294              		.loc 1 1487 0 is_stmt 1
 3295 15a4 C04A     		ldr	r2, .L826
 3296 15a6 C149     		ldr	r1, .L826+4
 3297 15a8 C148     		ldr	r0, .L826+8
 3298 15aa FFF7FEFF 		bl	sscanf
 3299              	.LVL235:
 3300              		.loc 1 1488 0
 3301 15ae C14B     		ldr	r3, .L826+12
 3302 15b0 1B78     		ldrb	r3, [r3]	@ zero_extendqisi2
 3303 15b2 23B9     		cbnz	r3, .L406
 3304              		.loc 1 1489 0
 3305 15b4 FFF7FEFF 		bl	e_init_sound
 3306              	.LVL236:
ARM GAS  /tmp/ccZueut9.s 			page 59


 3307              		.loc 1 1490 0
 3308 15b8 BE4A     		ldr	r2, .L826+12
 3309 15ba 0123     		movs	r3, #1
 3310 15bc 1370     		strb	r3, [r2]
 3311              	.L406:
 3312              		.loc 1 1492 0
 3313 15be BA4B     		ldr	r3, .L826
 3314 15c0 1B68     		ldr	r3, [r3]
 3315 15c2 013B     		subs	r3, r3, #1
 3316 15c4 042B     		cmp	r3, #4
 3317 15c6 01F25B81 		bhi	.L407
 3318 15ca DFE813F0 		tbh	[pc, r3, lsl #1]
 3319              	.L409:
 3320 15ce 4904     		.2byte	(.L408-.L409)/2
 3321 15d0 4304     		.2byte	(.L410-.L409)/2
 3322 15d2 3D04     		.2byte	(.L411-.L409)/2
 3323 15d4 3604     		.2byte	(.L412-.L409)/2
 3324 15d6 1E04     		.2byte	(.L413-.L409)/2
 3325              		.p2align 1
 3326              	.L246:
 3327              		.loc 1 1124 0
 3328 15d8 B74A     		ldr	r2, .L826+16
 3329 15da B849     		ldr	r1, .L826+20
 3330 15dc 1369     		ldr	r3, [r2, #16]
 3331 15de 1069     		ldr	r0, [r2, #16]
 3332 15e0 0C69     		ldr	r4, [r1, #16]
 3333 15e2 1269     		ldr	r2, [r2, #16]
 3334              		.loc 1 1125 0
 3335 15e4 B649     		ldr	r1, .L826+24
 3336              		.loc 1 1124 0
 3337 15e6 C4F30014 		ubfx	r4, r4, #4, #1
 3338 15ea C0F3C030 		ubfx	r0, r0, #15, #1
 3339 15ee 00EB4400 		add	r0, r0, r4, lsl #1
 3340 15f2 C2F38032 		ubfx	r2, r2, #14, #1
 3341 15f6 02EB4002 		add	r2, r2, r0, lsl #1
 3342 15fa C3F34033 		ubfx	r3, r3, #13, #1
 3343 15fe 03EB4203 		add	r3, r3, r2, lsl #1
 3344 1602 B04C     		ldr	r4, .L826+28
 3345              		.loc 1 1125 0
 3346 1604 AA48     		ldr	r0, .L826+8
 3347              		.loc 1 1124 0
 3348 1606 2360     		str	r3, [r4]
 3349              		.loc 1 1125 0
 3350 1608 1A46     		mov	r2, r3
 3351 160a FFF7FEFF 		bl	sprintf
 3352              	.LVL237:
 3353              		.loc 1 1126 0
 3354 160e BBF1000F 		cmp	fp, #0
 3355 1612 7EF43FAD 		bne	.L5
 3356 1616 A648     		ldr	r0, .L826+8
 3357 1618 FFF7FEFF 		bl	strlen
 3358              	.LVL238:
 3359              		.loc 1 1128 0
 3360 161c 079B     		ldr	r3, [sp, #28]
 3361 161e 0146     		mov	r1, r0
 3362              		.loc 1 1129 0
 3363 1620 A348     		ldr	r0, .L826+8
ARM GAS  /tmp/ccZueut9.s 			page 60


 3364              		.loc 1 1128 0
 3365 1622 002B     		cmp	r3, #0
 3366 1624 00F03387 		beq	.L281
 3367              		.loc 1 1129 0
 3368 1628 FFF7FEFF 		bl	e_send_uart1_char
 3369              	.LVL239:
 3370              	.L282:
 3371              		.loc 1 1129 0 is_stmt 0 discriminator 2
 3372 162c FFF7FEFF 		bl	e_uart1_sending
 3373              	.LVL240:
 3374 1630 0028     		cmp	r0, #0
 3375 1632 FBD1     		bne	.L282
 3376 1634 FEF731BD 		b	.L741
 3377              	.L245:
 3378              		.loc 1 1113 0 is_stmt 1
 3379 1638 A34A     		ldr	r2, .L826+32
 3380 163a A449     		ldr	r1, .L826+36
 3381 163c 9C48     		ldr	r0, .L826+8
 3382 163e FFF7FEFF 		bl	sscanf
 3383              	.LVL241:
 3384              		.loc 1 1114 0
 3385 1642 A14B     		ldr	r3, .L826+32
 3386 1644 1868     		ldr	r0, [r3]
 3387 1646 FFF7FEFF 		bl	e_set_body_led
 3388              	.LVL242:
 3389              		.loc 1 1115 0
 3390 164a BBF1000F 		cmp	fp, #0
 3391 164e 7EF421AD 		bne	.L5
 3392              		.loc 1 1117 0
 3393 1652 079B     		ldr	r3, [sp, #28]
 3394              		.loc 1 1118 0
 3395 1654 9E48     		ldr	r0, .L826+40
 3396 1656 0321     		movs	r1, #3
 3397              		.loc 1 1117 0
 3398 1658 002B     		cmp	r3, #0
 3399 165a 00F0A087 		beq	.L278
 3400              		.loc 1 1118 0
 3401 165e FFF7FEFF 		bl	e_send_uart1_char
 3402              	.LVL243:
 3403              	.L279:
 3404              		.loc 1 1118 0 is_stmt 0 discriminator 2
 3405 1662 FFF7FEFF 		bl	e_uart1_sending
 3406              	.LVL244:
 3407 1666 0028     		cmp	r0, #0
 3408 1668 FBD1     		bne	.L279
 3409 166a FEF716BD 		b	.L741
 3410              	.L254:
 3411              		.loc 1 1355 0 is_stmt 1
 3412 166e BBF1000F 		cmp	fp, #0
 3413 1672 40F08186 		bne	.L377
 3414              		.loc 1 1357 0
 3415 1676 079B     		ldr	r3, [sp, #28]
 3416              		.loc 1 1358 0
 3417 1678 9648     		ldr	r0, .L826+44
 3418 167a 3E21     		movs	r1, #62
 3419              		.loc 1 1357 0
 3420 167c 002B     		cmp	r3, #0
ARM GAS  /tmp/ccZueut9.s 			page 61


 3421 167e 00F0E786 		beq	.L378
 3422              		.loc 1 1358 0
 3423 1682 FFF7FEFF 		bl	e_send_uart1_char
 3424              	.LVL245:
 3425              	.L379:
 3426              		.loc 1 1358 0 is_stmt 0 discriminator 2
 3427 1686 FFF7FEFF 		bl	e_uart1_sending
 3428              	.LVL246:
 3429 168a 0028     		cmp	r0, #0
 3430 168c FBD1     		bne	.L379
 3431              		.loc 1 1363 0 is_stmt 1
 3432 168e 0121     		movs	r1, #1
 3433 1690 0820     		movs	r0, #8
 3434 1692 FFF7FEFF 		bl	e_set_led
 3435              	.LVL247:
 3436              		.loc 1 1365 0
 3437 1696 4FF4C870 		mov	r0, #400
 3438 169a FFF7FEFF 		bl	chThdSleep
 3439              	.LVL248:
 3440              		.loc 1 1366 0
 3441 169e FFF7FEFF 		bl	e_led_clear
 3442              	.LVL249:
 3443              		.loc 1 1368 0
 3444 16a2 6420     		movs	r0, #100
 3445 16a4 FFF7FEFF 		bl	chThdSleep
 3446              	.LVL250:
 3447              		.loc 1 1369 0
 3448 16a8 FFF7FEFF 		bl	e_calibrate_ir
 3449              	.LVL251:
 3450              		.loc 1 1373 0
 3451 16ac 1921     		movs	r1, #25
 3452 16ae 8A48     		ldr	r0, .L826+48
 3453 16b0 FFF7FEFF 		bl	e_send_uart1_char
 3454              	.LVL252:
 3455              	.L383:
 3456              		.loc 1 1373 0 is_stmt 0 discriminator 2
 3457 16b4 FFF7FEFF 		bl	e_uart1_sending
 3458              	.LVL253:
 3459 16b8 0028     		cmp	r0, #0
 3460 16ba FBD1     		bne	.L383
 3461 16bc FEF7EDBC 		b	.L741
 3462              	.LVL254:
 3463              	.L243:
 3464              		.loc 1 1089 0 is_stmt 1
 3465 16c0 BBF1000F 		cmp	fp, #0
 3466 16c4 40F06986 		bne	.L270
 3467              		.loc 1 1090 0
 3468 16c8 0121     		movs	r1, #1
 3469 16ca 5846     		mov	r0, fp
 3470 16cc FFF7FEFF 		bl	e_get_acc_filtered
 3471              	.LVL255:
 3472 16d0 0121     		movs	r1, #1
 3473 16d2 0446     		mov	r4, r0
 3474 16d4 0846     		mov	r0, r1
 3475 16d6 FFF7FEFF 		bl	e_get_acc_filtered
 3476              	.LVL256:
 3477 16da 0121     		movs	r1, #1
ARM GAS  /tmp/ccZueut9.s 			page 62


 3478 16dc 0546     		mov	r5, r0
 3479 16de 0220     		movs	r0, #2
 3480 16e0 FFF7FEFF 		bl	e_get_acc_filtered
 3481              	.LVL257:
 3482 16e4 2B46     		mov	r3, r5
 3483 16e6 0090     		str	r0, [sp]
 3484 16e8 2246     		mov	r2, r4
 3485 16ea 7C49     		ldr	r1, .L826+52
 3486 16ec 7048     		ldr	r0, .L826+8
 3487 16ee FFF7FEFF 		bl	sprintf
 3488              	.LVL258:
 3489              		.loc 1 1096 0
 3490 16f2 079B     		ldr	r3, [sp, #28]
 3491 16f4 002B     		cmp	r3, #0
 3492 16f6 00F0D286 		beq	.L807
 3493              		.loc 1 1097 0
 3494 16fa 6D48     		ldr	r0, .L826+8
 3495 16fc FFF7FEFF 		bl	strlen
 3496              	.LVL259:
 3497 1700 0146     		mov	r1, r0
 3498 1702 6B48     		ldr	r0, .L826+8
 3499 1704 FFF7FEFF 		bl	e_send_uart1_char
 3500              	.LVL260:
 3501              	.L273:
 3502              		.loc 1 1097 0 is_stmt 0 discriminator 2
 3503 1708 FFF7FEFF 		bl	e_uart1_sending
 3504              	.LVL261:
 3505 170c 0028     		cmp	r0, #0
 3506 170e FBD1     		bne	.L273
 3507 1710 FEF7C3BC 		b	.L741
 3508              	.L258:
 3509              		.loc 1 1433 0 is_stmt 1
 3510 1714 0020     		movs	r0, #0
 3511 1716 FFF7FEFF 		bl	e_get_ambient_light
 3512              	.LVL262:
 3513 171a 0B90     		str	r0, [sp, #44]
 3514 171c 0120     		movs	r0, #1
 3515 171e FFF7FEFF 		bl	e_get_ambient_light
 3516              	.LVL263:
 3517 1722 0446     		mov	r4, r0
 3518 1724 0220     		movs	r0, #2
 3519 1726 FFF7FEFF 		bl	e_get_ambient_light
 3520              	.LVL264:
 3521 172a 0890     		str	r0, [sp, #32]
 3522 172c 0320     		movs	r0, #3
 3523 172e FFF7FEFF 		bl	e_get_ambient_light
 3524              	.LVL265:
 3525 1732 0546     		mov	r5, r0
 3526 1734 0420     		movs	r0, #4
 3527 1736 FFF7FEFF 		bl	e_get_ambient_light
 3528              	.LVL266:
 3529 173a 0646     		mov	r6, r0
 3530 173c 0520     		movs	r0, #5
 3531 173e FFF7FEFF 		bl	e_get_ambient_light
 3532              	.LVL267:
 3533 1742 0A90     		str	r0, [sp, #40]
 3534 1744 0620     		movs	r0, #6
ARM GAS  /tmp/ccZueut9.s 			page 63


 3535 1746 FFF7FEFF 		bl	e_get_ambient_light
 3536              	.LVL268:
 3537 174a 0990     		str	r0, [sp, #36]
 3538 174c 0720     		movs	r0, #7
 3539 174e FFF7FEFF 		bl	e_get_ambient_light
 3540              	.LVL269:
 3541 1752 089B     		ldr	r3, [sp, #32]
 3542 1754 0A99     		ldr	r1, [sp, #40]
 3543 1756 0093     		str	r3, [sp]
 3544 1758 099B     		ldr	r3, [sp, #36]
 3545 175a 0590     		str	r0, [sp, #20]
 3546 175c 0493     		str	r3, [sp, #16]
 3547 175e CDE90261 		strd	r6, r1, [sp, #8]
 3548 1762 0195     		str	r5, [sp, #4]
 3549 1764 2346     		mov	r3, r4
 3550 1766 0B9A     		ldr	r2, [sp, #44]
 3551 1768 5D49     		ldr	r1, .L826+56
 3552 176a 5148     		ldr	r0, .L826+8
 3553 176c FFF7FEFF 		bl	sprintf
 3554              	.LVL270:
 3555              		.loc 1 1436 0
 3556 1770 BBF1000F 		cmp	fp, #0
 3557 1774 7EF48EAC 		bne	.L5
 3558 1778 4D48     		ldr	r0, .L826+8
 3559 177a FFF7FEFF 		bl	strlen
 3560              	.LVL271:
 3561              		.loc 1 1438 0
 3562 177e 079B     		ldr	r3, [sp, #28]
 3563 1780 0146     		mov	r1, r0
 3564              		.loc 1 1439 0
 3565 1782 4B48     		ldr	r0, .L826+8
 3566              		.loc 1 1438 0
 3567 1784 002B     		cmp	r3, #0
 3568 1786 00F09786 		beq	.L394
 3569              		.loc 1 1439 0
 3570 178a FFF7FEFF 		bl	e_send_uart1_char
 3571              	.LVL272:
 3572              	.L395:
 3573              		.loc 1 1439 0 is_stmt 0 discriminator 2
 3574 178e FFF7FEFF 		bl	e_uart1_sending
 3575              	.LVL273:
 3576 1792 0028     		cmp	r0, #0
 3577 1794 FBD1     		bne	.L395
 3578 1796 FEF780BC 		b	.L741
 3579              	.L257:
 3580              		.loc 1 1421 0 is_stmt 1
 3581 179a 0020     		movs	r0, #0
 3582 179c FFF7FEFF 		bl	e_get_calibrated_prox
 3583              	.LVL274:
 3584 17a0 0B90     		str	r0, [sp, #44]
 3585 17a2 0120     		movs	r0, #1
 3586 17a4 FFF7FEFF 		bl	e_get_calibrated_prox
 3587              	.LVL275:
 3588 17a8 0446     		mov	r4, r0
 3589 17aa 0220     		movs	r0, #2
 3590 17ac FFF7FEFF 		bl	e_get_calibrated_prox
 3591              	.LVL276:
ARM GAS  /tmp/ccZueut9.s 			page 64


 3592 17b0 0890     		str	r0, [sp, #32]
 3593 17b2 0320     		movs	r0, #3
 3594 17b4 FFF7FEFF 		bl	e_get_calibrated_prox
 3595              	.LVL277:
 3596 17b8 0546     		mov	r5, r0
 3597 17ba 0420     		movs	r0, #4
 3598 17bc FFF7FEFF 		bl	e_get_calibrated_prox
 3599              	.LVL278:
 3600 17c0 0646     		mov	r6, r0
 3601 17c2 0520     		movs	r0, #5
 3602 17c4 FFF7FEFF 		bl	e_get_calibrated_prox
 3603              	.LVL279:
 3604 17c8 0A90     		str	r0, [sp, #40]
 3605 17ca 0620     		movs	r0, #6
 3606 17cc FFF7FEFF 		bl	e_get_calibrated_prox
 3607              	.LVL280:
 3608 17d0 0990     		str	r0, [sp, #36]
 3609 17d2 0720     		movs	r0, #7
 3610 17d4 FFF7FEFF 		bl	e_get_calibrated_prox
 3611              	.LVL281:
 3612 17d8 089B     		ldr	r3, [sp, #32]
 3613 17da 0A99     		ldr	r1, [sp, #40]
 3614 17dc 0093     		str	r3, [sp]
 3615 17de 099B     		ldr	r3, [sp, #36]
 3616 17e0 0590     		str	r0, [sp, #20]
 3617 17e2 0493     		str	r3, [sp, #16]
 3618 17e4 CDE90261 		strd	r6, r1, [sp, #8]
 3619 17e8 0195     		str	r5, [sp, #4]
 3620 17ea 2346     		mov	r3, r4
 3621 17ec 0B9A     		ldr	r2, [sp, #44]
 3622 17ee 3D49     		ldr	r1, .L826+60
 3623 17f0 2F48     		ldr	r0, .L826+8
 3624 17f2 FFF7FEFF 		bl	sprintf
 3625              	.LVL282:
 3626              		.loc 1 1424 0
 3627 17f6 BBF1000F 		cmp	fp, #0
 3628 17fa 7EF44BAC 		bne	.L5
 3629 17fe 2C48     		ldr	r0, .L826+8
 3630 1800 FFF7FEFF 		bl	strlen
 3631              	.LVL283:
 3632              		.loc 1 1426 0
 3633 1804 079B     		ldr	r3, [sp, #28]
 3634 1806 0146     		mov	r1, r0
 3635              		.loc 1 1427 0
 3636 1808 2948     		ldr	r0, .L826+8
 3637              		.loc 1 1426 0
 3638 180a 002B     		cmp	r3, #0
 3639 180c 00F0E786 		beq	.L391
 3640              		.loc 1 1427 0
 3641 1810 FFF7FEFF 		bl	e_send_uart1_char
 3642              	.LVL284:
 3643              	.L392:
 3644              		.loc 1 1427 0 is_stmt 0 discriminator 2
 3645 1814 FFF7FEFF 		bl	e_uart1_sending
 3646              	.LVL285:
 3647 1818 0028     		cmp	r0, #0
 3648 181a FBD1     		bne	.L392
ARM GAS  /tmp/ccZueut9.s 			page 65


 3649 181c FEF73DBC 		b	.L741
 3650              	.L250:
 3651              		.loc 1 1169 0 is_stmt 1
 3652 1820 FFF7FEFF 		bl	e_get_check
 3653              	.LVL286:
 3654 1824 0446     		mov	r4, r0
 3655 1826 FFF7FEFF 		bl	e_get_address
 3656              	.LVL287:
 3657 182a 0546     		mov	r5, r0
 3658 182c FFF7FEFF 		bl	e_get_data
 3659              	.LVL288:
 3660 1830 2B46     		mov	r3, r5
 3661 1832 0090     		str	r0, [sp]
 3662 1834 2246     		mov	r2, r4
 3663 1836 2C49     		ldr	r1, .L826+64
 3664 1838 1D48     		ldr	r0, .L826+8
 3665 183a FFF7FEFF 		bl	sprintf
 3666              	.LVL289:
 3667              		.loc 1 1170 0
 3668 183e BBF1000F 		cmp	fp, #0
 3669 1842 7EF427AC 		bne	.L5
 3670 1846 1A48     		ldr	r0, .L826+8
 3671 1848 FFF7FEFF 		bl	strlen
 3672              	.LVL290:
 3673              		.loc 1 1172 0
 3674 184c 079B     		ldr	r3, [sp, #28]
 3675 184e 0146     		mov	r1, r0
 3676              		.loc 1 1173 0
 3677 1850 1748     		ldr	r0, .L826+8
 3678              		.loc 1 1172 0
 3679 1852 002B     		cmp	r3, #0
 3680 1854 00F09386 		beq	.L293
 3681              		.loc 1 1173 0
 3682 1858 FFF7FEFF 		bl	e_send_uart1_char
 3683              	.LVL291:
 3684              	.L294:
 3685              		.loc 1 1173 0 is_stmt 0 discriminator 2
 3686 185c FFF7FEFF 		bl	e_uart1_sending
 3687              	.LVL292:
 3688 1860 0028     		cmp	r0, #0
 3689 1862 FBD1     		bne	.L294
 3690 1864 FEF719BC 		b	.L741
 3691              	.L260:
 3692              		.loc 1 1457 0 is_stmt 1
 3693 1868 FFF7FEFF 		bl	e_get_steps_left
 3694              	.LVL293:
 3695 186c 0446     		mov	r4, r0
 3696 186e FFF7FEFF 		bl	e_get_steps_right
 3697              	.LVL294:
 3698 1872 2246     		mov	r2, r4
 3699 1874 0346     		mov	r3, r0
 3700 1876 1D49     		ldr	r1, .L826+68
 3701 1878 0D48     		ldr	r0, .L826+8
 3702 187a FFF7FEFF 		bl	sprintf
 3703              	.LVL295:
 3704              		.loc 1 1458 0
 3705 187e BBF1000F 		cmp	fp, #0
ARM GAS  /tmp/ccZueut9.s 			page 66


 3706 1882 7EF407AC 		bne	.L5
 3707 1886 0A48     		ldr	r0, .L826+8
 3708 1888 FFF7FEFF 		bl	strlen
 3709              	.LVL296:
 3710              		.loc 1 1460 0
 3711 188c 079B     		ldr	r3, [sp, #28]
 3712 188e 0146     		mov	r1, r0
 3713              		.loc 1 1461 0
 3714 1890 0748     		ldr	r0, .L826+8
 3715              		.loc 1 1460 0
 3716 1892 002B     		cmp	r3, #0
 3717 1894 00F09386 		beq	.L400
 3718              		.loc 1 1461 0
 3719 1898 FFF7FEFF 		bl	e_send_uart1_char
 3720              	.LVL297:
 3721              	.L401:
 3722              		.loc 1 1461 0 is_stmt 0 discriminator 2
 3723 189c FFF7FEFF 		bl	e_uart1_sending
 3724              	.LVL298:
 3725 18a0 0028     		cmp	r0, #0
 3726 18a2 FBD1     		bne	.L401
 3727 18a4 FEF7F9BB 		b	.L741
 3728              	.L827:
 3729              		.align	2
 3730              	.L826:
 3731 18a8 00000000 		.word	.LANCHOR31
 3732 18ac A80A0000 		.word	.LC83
 3733 18b0 00000000 		.word	buffer
 3734 18b4 00000000 		.word	.LANCHOR8
 3735 18b8 00080240 		.word	1073874944
 3736 18bc 000C0240 		.word	1073875968
 3737 18c0 94000000 		.word	.LC6
 3738 18c4 00000000 		.word	selector
 3739 18c8 00000000 		.word	.LANCHOR27
 3740 18cc 88000000 		.word	.LC4
 3741 18d0 90000000 		.word	.LC5
 3742 18d4 EC090000 		.word	.LC73
 3743 18d8 640B0000 		.word	.LC97
 3744 18dc 5C000000 		.word	.LC1
 3745 18e0 6C0A0000 		.word	.LC78
 3746 18e4 500A0000 		.word	.LC77
 3747 18e8 C4000000 		.word	.LC12
 3748 18ec 980A0000 		.word	.LC81
 3749              	.L252:
 3750              		.loc 1 1314 0 is_stmt 1
 3751 18f0 BBF1000F 		cmp	fp, #0
 3752 18f4 7EF4CEAB 		bne	.L5
 3753              		.loc 1 1315 0
 3754 18f8 0E99     		ldr	r1, [sp, #56]
 3755 18fa 119C     		ldr	r4, [sp, #68]
 3756 18fc 0868     		ldr	r0, [r1]
 3757 18fe 1399     		ldr	r1, [sp, #76]
 3758 1900 109B     		ldr	r3, [sp, #64]
 3759 1902 0968     		ldr	r1, [r1]
 3760 1904 129A     		ldr	r2, [sp, #72]
 3761 1906 2468     		ldr	r4, [r4]
 3762 1908 1B68     		ldr	r3, [r3]
ARM GAS  /tmp/ccZueut9.s 			page 67


 3763 190a 1268     		ldr	r2, [r2]
 3764 190c 0094     		str	r4, [sp]
 3765 190e CDE90110 		strd	r1, r0, [sp, #4]
 3766 1912 A249     		ldr	r1, .L828
 3767 1914 A248     		ldr	r0, .L828+4
 3768 1916 FFF7FEFF 		bl	sprintf
 3769              	.LVL299:
 3770              		.loc 1 1316 0
 3771 191a 079B     		ldr	r3, [sp, #28]
 3772              		.loc 1 1317 0
 3773 191c A048     		ldr	r0, .L828+4
 3774              		.loc 1 1316 0
 3775 191e 002B     		cmp	r3, #0
 3776 1920 00F0A287 		beq	.L365
 3777              		.loc 1 1317 0
 3778 1924 FFF7FEFF 		bl	strlen
 3779              	.LVL300:
 3780 1928 0146     		mov	r1, r0
 3781 192a 9D48     		ldr	r0, .L828+4
 3782 192c FFF7FEFF 		bl	e_send_uart1_char
 3783              	.LVL301:
 3784              	.L366:
 3785              		.loc 1 1317 0 is_stmt 0 discriminator 2
 3786 1930 FFF7FEFF 		bl	e_uart1_sending
 3787              	.LVL302:
 3788 1934 0028     		cmp	r0, #0
 3789 1936 FBD1     		bne	.L366
 3790 1938 FEF7AFBB 		b	.L741
 3791              	.L256:
 3792              		.loc 1 1392 0 is_stmt 1
 3793 193c BBF1000F 		cmp	fp, #0
 3794 1940 7EF4A8AB 		bne	.L5
 3795              		.loc 1 1393 0
 3796 1944 5846     		mov	r0, fp
 3797 1946 FFF7FEFF 		bl	get_ground_prox
 3798              	.LVL303:
 3799 194a 0446     		mov	r4, r0
 3800 194c 0120     		movs	r0, #1
 3801 194e FFF7FEFF 		bl	get_ground_prox
 3802              	.LVL304:
 3803 1952 0546     		mov	r5, r0
 3804 1954 0220     		movs	r0, #2
 3805 1956 FFF7FEFF 		bl	get_ground_prox
 3806              	.LVL305:
 3807 195a 0890     		str	r0, [sp, #32]
 3808 195c 0320     		movs	r0, #3
 3809 195e FFF7FEFF 		bl	get_ground_prox
 3810              	.LVL306:
 3811 1962 0646     		mov	r6, r0
 3812 1964 0420     		movs	r0, #4
 3813 1966 FFF7FEFF 		bl	get_ground_prox
 3814              	.LVL307:
 3815 196a 089B     		ldr	r3, [sp, #32]
 3816 196c 0093     		str	r3, [sp]
 3817 196e CDE90160 		strd	r6, r0, [sp, #4]
 3818 1972 2B46     		mov	r3, r5
 3819 1974 2246     		mov	r2, r4
ARM GAS  /tmp/ccZueut9.s 			page 68


 3820 1976 8B49     		ldr	r1, .L828+8
 3821 1978 8948     		ldr	r0, .L828+4
 3822 197a FFF7FEFF 		bl	sprintf
 3823              	.LVL308:
 3824              		.loc 1 1394 0
 3825 197e 079B     		ldr	r3, [sp, #28]
 3826              		.loc 1 1395 0
 3827 1980 8748     		ldr	r0, .L828+4
 3828              		.loc 1 1394 0
 3829 1982 002B     		cmp	r3, #0
 3830 1984 00F05C87 		beq	.L388
 3831              		.loc 1 1395 0
 3832 1988 FFF7FEFF 		bl	strlen
 3833              	.LVL309:
 3834 198c 0146     		mov	r1, r0
 3835 198e 8448     		ldr	r0, .L828+4
 3836 1990 FFF7FEFF 		bl	e_send_uart1_char
 3837              	.LVL310:
 3838              	.L389:
 3839              		.loc 1 1395 0 is_stmt 0 discriminator 2
 3840 1994 FFF7FEFF 		bl	e_uart1_sending
 3841              	.LVL311:
 3842 1998 0028     		cmp	r0, #0
 3843 199a FBD1     		bne	.L389
 3844 199c FEF77DBB 		b	.L741
 3845              	.L248:
 3846              		.loc 1 1147 0 is_stmt 1
 3847 19a0 814B     		ldr	r3, .L828+12
 3848 19a2 824A     		ldr	r2, .L828+16
 3849 19a4 1B68     		ldr	r3, [r3]
 3850 19a6 1268     		ldr	r2, [r2]
 3851 19a8 8149     		ldr	r1, .L828+20
 3852 19aa 7D48     		ldr	r0, .L828+4
 3853 19ac FFF7FEFF 		bl	sprintf
 3854              	.LVL312:
 3855              		.loc 1 1148 0
 3856 19b0 BBF1000F 		cmp	fp, #0
 3857 19b4 7EF46EAB 		bne	.L5
 3858 19b8 7948     		ldr	r0, .L828+4
 3859 19ba FFF7FEFF 		bl	strlen
 3860              	.LVL313:
 3861              		.loc 1 1150 0
 3862 19be 079B     		ldr	r3, [sp, #28]
 3863 19c0 0146     		mov	r1, r0
 3864              		.loc 1 1151 0
 3865 19c2 7748     		ldr	r0, .L828+4
 3866              		.loc 1 1150 0
 3867 19c4 002B     		cmp	r3, #0
 3868 19c6 00F0D285 		beq	.L287
 3869              		.loc 1 1151 0
 3870 19ca FFF7FEFF 		bl	e_send_uart1_char
 3871              	.LVL314:
 3872              	.L288:
 3873              		.loc 1 1151 0 is_stmt 0 discriminator 2
 3874 19ce FFF7FEFF 		bl	e_uart1_sending
 3875              	.LVL315:
 3876 19d2 0028     		cmp	r0, #0
ARM GAS  /tmp/ccZueut9.s 			page 69


 3877 19d4 FBD1     		bne	.L288
 3878 19d6 FEF760BB 		b	.L741
 3879              	.L261:
 3880              		.loc 1 1475 0 is_stmt 1
 3881 19da 0020     		movs	r0, #0
 3882 19dc FFF7FEFF 		bl	e_set_speed_left
 3883              	.LVL316:
 3884              		.loc 1 1476 0
 3885 19e0 0020     		movs	r0, #0
 3886 19e2 FFF7FEFF 		bl	e_set_speed_right
 3887              	.LVL317:
 3888              		.loc 1 1477 0
 3889 19e6 0021     		movs	r1, #0
 3890 19e8 0820     		movs	r0, #8
 3891 19ea FFF7FEFF 		bl	e_set_led
 3892              	.LVL318:
 3893              		.loc 1 1478 0
 3894 19ee BBF1000F 		cmp	fp, #0
 3895 19f2 7EF44FAB 		bne	.L5
 3896              		.loc 1 1480 0
 3897 19f6 079B     		ldr	r3, [sp, #28]
 3898              		.loc 1 1481 0
 3899 19f8 6E48     		ldr	r0, .L828+24
 3900 19fa 0321     		movs	r1, #3
 3901              		.loc 1 1480 0
 3902 19fc 002B     		cmp	r3, #0
 3903 19fe 00F0D685 		beq	.L403
 3904              		.loc 1 1481 0
 3905 1a02 FFF7FEFF 		bl	e_send_uart1_char
 3906              	.LVL319:
 3907              	.L404:
 3908              		.loc 1 1481 0 is_stmt 0 discriminator 2
 3909 1a06 FFF7FEFF 		bl	e_uart1_sending
 3910              	.LVL320:
 3911 1a0a 0028     		cmp	r0, #0
 3912 1a0c FBD1     		bne	.L404
 3913 1a0e FEF744BB 		b	.L741
 3914              	.L253:
 3915              		.loc 1 1324 0 is_stmt 1
 3916 1a12 BBF1000F 		cmp	fp, #0
 3917 1a16 7EF43DAB 		bne	.L5
 3918              		.loc 1 1327 0
 3919 1a1a 139B     		ldr	r3, [sp, #76]
 3920 1a1c 664D     		ldr	r5, .L828+28
 3921 1a1e 674E     		ldr	r6, .L828+32
 3922 1a20 0193     		str	r3, [sp, #4]
 3923              		.loc 1 1325 0
 3924 1a22 4FF0FF34 		mov	r4, #-1
 3925              		.loc 1 1327 0
 3926 1a26 119B     		ldr	r3, [sp, #68]
 3927 1a28 0093     		str	r3, [sp]
 3928 1a2a 0395     		str	r5, [sp, #12]
 3929 1a2c 0296     		str	r6, [sp, #8]
 3930 1a2e 644B     		ldr	r3, .L828+36
 3931 1a30 644A     		ldr	r2, .L828+40
 3932 1a32 6549     		ldr	r1, .L828+44
 3933 1a34 5A48     		ldr	r0, .L828+4
ARM GAS  /tmp/ccZueut9.s 			page 70


 3934              		.loc 1 1325 0
 3935 1a36 3460     		str	r4, [r6]
 3936              		.loc 1 1326 0
 3937 1a38 2C60     		str	r4, [r5]
 3938              		.loc 1 1327 0
 3939 1a3a FFF7FEFF 		bl	sscanf
 3940              	.LVL321:
 3941              		.loc 1 1328 0
 3942 1a3e 129A     		ldr	r2, [sp, #72]
 3943 1a40 1368     		ldr	r3, [r2]
 3944 1a42 002B     		cmp	r3, #0
 3945 1a44 40F0F186 		bne	.L368
 3946              		.loc 1 1329 0
 3947 1a48 109A     		ldr	r2, [sp, #64]
 3948 1a4a 119B     		ldr	r3, [sp, #68]
 3949 1a4c 1268     		ldr	r2, [r2]
 3950 1a4e 1B68     		ldr	r3, [r3]
 3951 1a50 03FB02F3 		mul	r3, r3, r2
 3952 1a54 0E9A     		ldr	r2, [sp, #56]
 3953 1a56 1360     		str	r3, [r2]
 3954              	.L369:
 3955              		.loc 1 1332 0
 3956 1a58 41F22802 		movw	r2, #4136
 3957 1a5c 9342     		cmp	r3, r2
 3958 1a5e 0BDD     		ble	.L370
 3959              		.loc 1 1333 0
 3960 1a60 1299     		ldr	r1, [sp, #72]
 3961 1a62 0122     		movs	r2, #1
 3962 1a64 0A60     		str	r2, [r1]
 3963              		.loc 1 1334 0
 3964 1a66 1099     		ldr	r1, [sp, #64]
 3965 1a68 2823     		movs	r3, #40
 3966 1a6a 0B60     		str	r3, [r1]
 3967              		.loc 1 1335 0
 3968 1a6c 1199     		ldr	r1, [sp, #68]
 3969 1a6e 0B60     		str	r3, [r1]
 3970              		.loc 1 1336 0
 3971 1a70 0E9B     		ldr	r3, [sp, #56]
 3972 1a72 4FF44862 		mov	r2, #3200
 3973 1a76 1A60     		str	r2, [r3]
 3974              	.L370:
 3975              		.loc 1 1338 0
 3976 1a78 FFF7FEFF 		bl	e_poxxxx_init_cam
 3977              	.LVL322:
 3978              		.loc 1 1339 0
 3979 1a7c 4F4B     		ldr	r3, .L828+32
 3980 1a7e 1868     		ldr	r0, [r3]
 3981              		.loc 1 1340 0
 3982 1a80 139B     		ldr	r3, [sp, #76]
 3983 1a82 1D68     		ldr	r5, [r3]
 3984 1a84 109B     		ldr	r3, [sp, #64]
 3985 1a86 1A68     		ldr	r2, [r3]
 3986              		.loc 1 1339 0
 3987 1a88 461C     		adds	r6, r0, #1
 3988              		.loc 1 1340 0
 3989 1a8a 02FB05F2 		mul	r2, r2, r5
 3990              		.loc 1 1339 0
ARM GAS  /tmp/ccZueut9.s 			page 71


 3991 1a8e 06D1     		bne	.L372
 3992              		.loc 1 1340 0
 3993 1a90 C2F52070 		rsb	r0, r2, #640
 3994 1a94 00EBD070 		add	r0, r0, r0, lsr #31
 3995 1a98 484B     		ldr	r3, .L828+32
 3996 1a9a 4010     		asrs	r0, r0, #1
 3997 1a9c 1860     		str	r0, [r3]
 3998              	.L372:
 3999              		.loc 1 1342 0
 4000 1a9e 4649     		ldr	r1, .L828+28
 4001 1aa0 119B     		ldr	r3, [sp, #68]
 4002 1aa2 0968     		ldr	r1, [r1]
 4003 1aa4 1B68     		ldr	r3, [r3]
 4004 1aa6 4C1C     		adds	r4, r1, #1
 4005 1aa8 03FB05F3 		mul	r3, r3, r5
 4006 1aac 06D1     		bne	.L373
 4007              		.loc 1 1343 0
 4008 1aae C3F5F071 		rsb	r1, r3, #480
 4009 1ab2 01EBD171 		add	r1, r1, r1, lsr #31
 4010 1ab6 404C     		ldr	r4, .L828+28
 4011 1ab8 4910     		asrs	r1, r1, #1
 4012 1aba 2160     		str	r1, [r4]
 4013              	.L373:
 4014              		.loc 1 1345 0
 4015 1abc 129C     		ldr	r4, [sp, #72]
 4016 1abe 2468     		ldr	r4, [r4]
 4017 1ac0 0294     		str	r4, [sp, #8]
 4018 1ac2 CDE90055 		strd	r5, r5, [sp]
 4019 1ac6 FFF7FEFF 		bl	e_poxxxx_config_cam
 4020              	.LVL323:
 4021              		.loc 1 1346 0
 4022 1aca FFF7FEFF 		bl	e_poxxxx_write_cam_registers
 4023              	.LVL324:
 4024              		.loc 1 1347 0
 4025 1ace 079B     		ldr	r3, [sp, #28]
 4026              		.loc 1 1348 0
 4027 1ad0 3E48     		ldr	r0, .L828+48
 4028 1ad2 0321     		movs	r1, #3
 4029              		.loc 1 1347 0
 4030 1ad4 002B     		cmp	r3, #0
 4031 1ad6 00F0DC86 		beq	.L374
 4032              		.loc 1 1348 0
 4033 1ada FFF7FEFF 		bl	e_send_uart1_char
 4034              	.LVL325:
 4035              	.L375:
 4036              		.loc 1 1348 0 is_stmt 0 discriminator 2
 4037 1ade FFF7FEFF 		bl	e_uart1_sending
 4038              	.LVL326:
 4039 1ae2 0028     		cmp	r0, #0
 4040 1ae4 FBD1     		bne	.L375
 4041 1ae6 FEF7D8BA 		b	.L741
 4042              	.L255:
 4043              		.loc 1 1379 0 is_stmt 1
 4044 1aea 394B     		ldr	r3, .L828+52
 4045 1aec 3949     		ldr	r1, .L828+56
 4046 1aee 3A4A     		ldr	r2, .L828+60
 4047 1af0 2B48     		ldr	r0, .L828+4
ARM GAS  /tmp/ccZueut9.s 			page 72


 4048 1af2 FFF7FEFF 		bl	sscanf
 4049              	.LVL327:
 4050              		.loc 1 1380 0
 4051 1af6 364B     		ldr	r3, .L828+52
 4052 1af8 1968     		ldr	r1, [r3]
 4053 1afa 374B     		ldr	r3, .L828+60
 4054 1afc 1868     		ldr	r0, [r3]
 4055 1afe FFF7FEFF 		bl	e_set_led
 4056              	.LVL328:
 4057              		.loc 1 1381 0
 4058 1b02 BBF1000F 		cmp	fp, #0
 4059 1b06 7EF4C5AA 		bne	.L5
 4060              		.loc 1 1383 0
 4061 1b0a 079B     		ldr	r3, [sp, #28]
 4062              		.loc 1 1384 0
 4063 1b0c 3348     		ldr	r0, .L828+64
 4064 1b0e 0321     		movs	r1, #3
 4065              		.loc 1 1383 0
 4066 1b10 002B     		cmp	r3, #0
 4067 1b12 00F06C85 		beq	.L385
 4068              		.loc 1 1384 0
 4069 1b16 FFF7FEFF 		bl	e_send_uart1_char
 4070              	.LVL329:
 4071              	.L386:
 4072              		.loc 1 1384 0 is_stmt 0 discriminator 2
 4073 1b1a FFF7FEFF 		bl	e_uart1_sending
 4074              	.LVL330:
 4075 1b1e 0028     		cmp	r0, #0
 4076 1b20 FBD1     		bne	.L386
 4077 1b22 FEF7BABA 		b	.L741
 4078              	.L249:
 4079              		.loc 1 1157 0 is_stmt 1
 4080 1b26 2A4A     		ldr	r2, .L828+52
 4081 1b28 2D49     		ldr	r1, .L828+68
 4082 1b2a 1D48     		ldr	r0, .L828+4
 4083 1b2c FFF7FEFF 		bl	sscanf
 4084              	.LVL331:
 4085              		.loc 1 1158 0
 4086 1b30 274B     		ldr	r3, .L828+52
 4087 1b32 1868     		ldr	r0, [r3]
 4088 1b34 FFF7FEFF 		bl	e_set_front_led
 4089              	.LVL332:
 4090              		.loc 1 1159 0
 4091 1b38 BBF1000F 		cmp	fp, #0
 4092 1b3c 7EF4AAAA 		bne	.L5
 4093              		.loc 1 1161 0
 4094 1b40 079B     		ldr	r3, [sp, #28]
 4095              		.loc 1 1162 0
 4096 1b42 2848     		ldr	r0, .L828+72
 4097 1b44 0321     		movs	r1, #3
 4098              		.loc 1 1161 0
 4099 1b46 002B     		cmp	r3, #0
 4100 1b48 00F02185 		beq	.L290
 4101              		.loc 1 1162 0
 4102 1b4c FFF7FEFF 		bl	e_send_uart1_char
 4103              	.LVL333:
 4104              	.L291:
ARM GAS  /tmp/ccZueut9.s 			page 73


 4105              		.loc 1 1162 0 is_stmt 0 discriminator 2
 4106 1b50 FFF7FEFF 		bl	e_uart1_sending
 4107              	.LVL334:
 4108 1b54 0028     		cmp	r0, #0
 4109 1b56 FBD1     		bne	.L291
 4110 1b58 FEF79FBA 		b	.L741
 4111              	.L259:
 4112              		.loc 1 1445 0 is_stmt 1
 4113 1b5c 224B     		ldr	r3, .L828+76
 4114 1b5e 234A     		ldr	r2, .L828+80
 4115 1b60 2349     		ldr	r1, .L828+84
 4116 1b62 0F48     		ldr	r0, .L828+4
 4117 1b64 FFF7FEFF 		bl	sscanf
 4118              	.LVL335:
 4119              		.loc 1 1446 0
 4120 1b68 204B     		ldr	r3, .L828+80
 4121 1b6a 1868     		ldr	r0, [r3]
 4122 1b6c FFF7FEFF 		bl	e_set_steps_left
 4123              	.LVL336:
 4124              		.loc 1 1447 0
 4125 1b70 1D4B     		ldr	r3, .L828+76
 4126 1b72 1868     		ldr	r0, [r3]
 4127 1b74 FFF7FEFF 		bl	e_set_steps_right
 4128              	.LVL337:
 4129              		.loc 1 1448 0
 4130 1b78 BBF1000F 		cmp	fp, #0
 4131 1b7c 7EF48AAA 		bne	.L5
 4132              		.loc 1 1450 0
 4133 1b80 079B     		ldr	r3, [sp, #28]
 4134              		.loc 1 1451 0
 4135 1b82 1C48     		ldr	r0, .L828+88
 4136 1b84 0321     		movs	r1, #3
 4137              		.loc 1 1450 0
 4138 1b86 002B     		cmp	r3, #0
 4139 1b88 00F02185 		beq	.L397
 4140              		.loc 1 1451 0
 4141 1b8c FFF7FEFF 		bl	e_send_uart1_char
 4142              	.LVL338:
 4143              	.L398:
 4144              		.loc 1 1451 0 is_stmt 0 discriminator 2
 4145 1b90 FFF7FEFF 		bl	e_uart1_sending
 4146              	.LVL339:
 4147 1b94 0028     		cmp	r0, #0
 4148 1b96 FBD1     		bne	.L398
 4149 1b98 FEF77FBA 		b	.L741
 4150              	.L829:
 4151              		.align	2
 4152              	.L828:
 4153 1b9c BC090000 		.word	.LC70
 4154 1ba0 00000000 		.word	buffer
 4155 1ba4 3C0A0000 		.word	.LC76
 4156 1ba8 00000000 		.word	.LANCHOR6
 4157 1bac 00000000 		.word	.LANCHOR7
 4158 1bb0 AC000000 		.word	.LC9
 4159 1bb4 A40A0000 		.word	.LC82
 4160 1bb8 00000000 		.word	.LANCHOR29
 4161 1bbc 00000000 		.word	.LANCHOR28
ARM GAS  /tmp/ccZueut9.s 			page 74


 4162 1bc0 00000000 		.word	.LANCHOR2
 4163 1bc4 00000000 		.word	.LANCHOR1
 4164 1bc8 D0090000 		.word	.LC71
 4165 1bcc E8090000 		.word	.LC72
 4166 1bd0 00000000 		.word	.LANCHOR27
 4167 1bd4 2C0A0000 		.word	.LC74
 4168 1bd8 00000000 		.word	.LANCHOR30
 4169 1bdc 380A0000 		.word	.LC75
 4170 1be0 B8000000 		.word	.LC10
 4171 1be4 C0000000 		.word	.LC11
 4172 1be8 00000000 		.word	.LANCHOR23
 4173 1bec 00000000 		.word	.LANCHOR22
 4174 1bf0 880A0000 		.word	.LC79
 4175 1bf4 940A0000 		.word	.LC80
 4176              	.L251:
 4177              		.loc 1 1195 0 is_stmt 1
 4178 1bf8 BBF1000F 		cmp	fp, #0
 4179 1bfc 7EF44AAA 		bne	.L5
 4180              		.loc 1 1233 0
 4181 1c00 079B     		ldr	r3, [sp, #28]
 4182              		.loc 1 1234 0
 4183 1c02 BE48     		ldr	r0, .L830
 4184 1c04 0121     		movs	r1, #1
 4185              		.loc 1 1233 0
 4186 1c06 002B     		cmp	r3, #0
 4187 1c08 00F00C85 		beq	.L301
 4188              		.loc 1 1234 0
 4189 1c0c FFF7FEFF 		bl	e_send_uart1_char
 4190              	.LVL340:
 4191              	.L302:
 4192              		.loc 1 1234 0 is_stmt 0 discriminator 2
 4193 1c10 FFF7FEFF 		bl	e_uart1_sending
 4194              	.LVL341:
 4195 1c14 0028     		cmp	r0, #0
 4196 1c16 FBD1     		bne	.L302
 4197              		.loc 1 1235 0 is_stmt 1
 4198 1c18 2121     		movs	r1, #33
 4199 1c1a B948     		ldr	r0, .L830+4
 4200 1c1c FFF7FEFF 		bl	e_send_uart1_char
 4201              	.LVL342:
 4202              	.L303:
 4203              		.loc 1 1235 0 is_stmt 0 discriminator 2
 4204 1c20 FFF7FEFF 		bl	e_uart1_sending
 4205              	.LVL343:
 4206 1c24 0028     		cmp	r0, #0
 4207 1c26 FBD1     		bne	.L303
 4208              		.loc 1 1236 0 is_stmt 1
 4209 1c28 3121     		movs	r1, #49
 4210 1c2a B648     		ldr	r0, .L830+8
 4211 1c2c FFF7FEFF 		bl	e_send_uart1_char
 4212              	.LVL344:
 4213              	.L304:
 4214              		.loc 1 1236 0 is_stmt 0 discriminator 2
 4215 1c30 FFF7FEFF 		bl	e_uart1_sending
 4216              	.LVL345:
 4217 1c34 0028     		cmp	r0, #0
 4218 1c36 FBD1     		bne	.L304
ARM GAS  /tmp/ccZueut9.s 			page 75


 4219              		.loc 1 1237 0 is_stmt 1
 4220 1c38 FFF7FEFF 		bl	isEpuckVersion1_3
 4221              	.LVL346:
 4222 1c3c 0028     		cmp	r0, #0
 4223 1c3e 00F03086 		beq	.L305
 4224              		.loc 1 1238 0
 4225 1c42 2121     		movs	r1, #33
 4226 1c44 B048     		ldr	r0, .L830+12
 4227 1c46 FFF7FEFF 		bl	e_send_uart1_char
 4228              	.LVL347:
 4229              	.L306:
 4230              		.loc 1 1238 0 is_stmt 0 discriminator 2
 4231 1c4a FFF7FEFF 		bl	e_uart1_sending
 4232              	.LVL348:
 4233 1c4e 0028     		cmp	r0, #0
 4234 1c50 FBD1     		bne	.L306
 4235              	.L307:
 4236              		.loc 1 1242 0 is_stmt 1
 4237 1c52 2521     		movs	r1, #37
 4238 1c54 AD48     		ldr	r0, .L830+16
 4239 1c56 FFF7FEFF 		bl	e_send_uart1_char
 4240              	.LVL349:
 4241              	.L309:
 4242              		.loc 1 1242 0 is_stmt 0 discriminator 2
 4243 1c5a FFF7FEFF 		bl	e_uart1_sending
 4244              	.LVL350:
 4245 1c5e 0028     		cmp	r0, #0
 4246 1c60 FBD1     		bne	.L309
 4247              		.loc 1 1243 0 is_stmt 1
 4248 1c62 2E21     		movs	r1, #46
 4249 1c64 AA48     		ldr	r0, .L830+20
 4250 1c66 FFF7FEFF 		bl	e_send_uart1_char
 4251              	.LVL351:
 4252              	.L310:
 4253              		.loc 1 1243 0 is_stmt 0 discriminator 2
 4254 1c6a FFF7FEFF 		bl	e_uart1_sending
 4255              	.LVL352:
 4256 1c6e 0028     		cmp	r0, #0
 4257 1c70 FBD1     		bne	.L310
 4258              		.loc 1 1244 0 is_stmt 1
 4259 1c72 2E21     		movs	r1, #46
 4260 1c74 A748     		ldr	r0, .L830+24
 4261 1c76 FFF7FEFF 		bl	e_send_uart1_char
 4262              	.LVL353:
 4263              	.L311:
 4264              		.loc 1 1244 0 is_stmt 0 discriminator 2
 4265 1c7a FFF7FEFF 		bl	e_uart1_sending
 4266              	.LVL354:
 4267 1c7e 0028     		cmp	r0, #0
 4268 1c80 FBD1     		bne	.L311
 4269              		.loc 1 1245 0 is_stmt 1
 4270 1c82 3221     		movs	r1, #50
 4271 1c84 A448     		ldr	r0, .L830+28
 4272 1c86 FFF7FEFF 		bl	e_send_uart1_char
 4273              	.LVL355:
 4274              	.L312:
 4275              		.loc 1 1245 0 is_stmt 0 discriminator 2
ARM GAS  /tmp/ccZueut9.s 			page 76


 4276 1c8a FFF7FEFF 		bl	e_uart1_sending
 4277              	.LVL356:
 4278 1c8e 0028     		cmp	r0, #0
 4279 1c90 FBD1     		bne	.L312
 4280              		.loc 1 1247 0 is_stmt 1
 4281 1c92 1F21     		movs	r1, #31
 4282 1c94 A148     		ldr	r0, .L830+32
 4283 1c96 FFF7FEFF 		bl	e_send_uart1_char
 4284              	.LVL357:
 4285              	.L313:
 4286              		.loc 1 1247 0 is_stmt 0 discriminator 2
 4287 1c9a FFF7FEFF 		bl	e_uart1_sending
 4288              	.LVL358:
 4289 1c9e 0028     		cmp	r0, #0
 4290 1ca0 FBD1     		bne	.L313
 4291              		.loc 1 1249 0 is_stmt 1
 4292 1ca2 FFF7FEFF 		bl	isEpuckVersion1_3
 4293              	.LVL359:
 4294 1ca6 0028     		cmp	r0, #0
 4295 1ca8 40F02186 		bne	.L808
 4296              	.L314:
 4297              		.loc 1 1252 0
 4298 1cac 1821     		movs	r1, #24
 4299 1cae 9C48     		ldr	r0, .L830+36
 4300 1cb0 FFF7FEFF 		bl	e_send_uart1_char
 4301              	.LVL360:
 4302              	.L316:
 4303              		.loc 1 1252 0 is_stmt 0 discriminator 2
 4304 1cb4 FFF7FEFF 		bl	e_uart1_sending
 4305              	.LVL361:
 4306 1cb8 0028     		cmp	r0, #0
 4307 1cba FBD1     		bne	.L316
 4308              		.loc 1 1253 0 is_stmt 1
 4309 1cbc 2821     		movs	r1, #40
 4310 1cbe 9948     		ldr	r0, .L830+40
 4311 1cc0 FFF7FEFF 		bl	e_send_uart1_char
 4312              	.LVL362:
 4313              	.L317:
 4314              		.loc 1 1253 0 is_stmt 0 discriminator 2
 4315 1cc4 FFF7FEFF 		bl	e_uart1_sending
 4316              	.LVL363:
 4317 1cc8 0028     		cmp	r0, #0
 4318 1cca FBD1     		bne	.L317
 4319              		.loc 1 1254 0 is_stmt 1
 4320 1ccc 4F21     		movs	r1, #79
 4321 1cce 9648     		ldr	r0, .L830+44
 4322 1cd0 FFF7FEFF 		bl	e_send_uart1_char
 4323              	.LVL364:
 4324              	.L318:
 4325              		.loc 1 1254 0 is_stmt 0 discriminator 2
 4326 1cd4 FFF7FEFF 		bl	e_uart1_sending
 4327              	.LVL365:
 4328 1cd8 0028     		cmp	r0, #0
 4329 1cda FBD1     		bne	.L318
 4330              		.loc 1 1255 0 is_stmt 1
 4331 1cdc 2F21     		movs	r1, #47
 4332 1cde 9348     		ldr	r0, .L830+48
ARM GAS  /tmp/ccZueut9.s 			page 77


 4333 1ce0 FFF7FEFF 		bl	e_send_uart1_char
 4334              	.LVL366:
 4335              	.L319:
 4336              		.loc 1 1255 0 is_stmt 0 discriminator 2
 4337 1ce4 FFF7FEFF 		bl	e_uart1_sending
 4338              	.LVL367:
 4339 1ce8 0028     		cmp	r0, #0
 4340 1cea FBD1     		bne	.L319
 4341              		.loc 1 1256 0 is_stmt 1
 4342 1cec 3321     		movs	r1, #51
 4343 1cee 9048     		ldr	r0, .L830+52
 4344 1cf0 FFF7FEFF 		bl	e_send_uart1_char
 4345              	.LVL368:
 4346              	.L320:
 4347              		.loc 1 1256 0 is_stmt 0 discriminator 2
 4348 1cf4 FFF7FEFF 		bl	e_uart1_sending
 4349              	.LVL369:
 4350 1cf8 0028     		cmp	r0, #0
 4351 1cfa FBD1     		bne	.L320
 4352              		.loc 1 1258 0 is_stmt 1
 4353 1cfc 2121     		movs	r1, #33
 4354 1cfe 8D48     		ldr	r0, .L830+56
 4355 1d00 FFF7FEFF 		bl	e_send_uart1_char
 4356              	.LVL370:
 4357              	.L321:
 4358              		.loc 1 1258 0 is_stmt 0 discriminator 2
 4359 1d04 FFF7FEFF 		bl	e_uart1_sending
 4360              	.LVL371:
 4361 1d08 0028     		cmp	r0, #0
 4362 1d0a FBD1     		bne	.L321
 4363              		.loc 1 1260 0 is_stmt 1
 4364 1d0c 1D21     		movs	r1, #29
 4365 1d0e 8A48     		ldr	r0, .L830+60
 4366 1d10 FFF7FEFF 		bl	e_send_uart1_char
 4367              	.LVL372:
 4368              	.L322:
 4369              		.loc 1 1260 0 is_stmt 0 discriminator 2
 4370 1d14 FFF7FEFF 		bl	e_uart1_sending
 4371              	.LVL373:
 4372 1d18 0028     		cmp	r0, #0
 4373 1d1a FBD1     		bne	.L322
 4374              		.loc 1 1261 0 is_stmt 1
 4375 1d1c 2121     		movs	r1, #33
 4376 1d1e 8748     		ldr	r0, .L830+64
 4377 1d20 FFF7FEFF 		bl	e_send_uart1_char
 4378              	.LVL374:
 4379              	.L323:
 4380              		.loc 1 1261 0 is_stmt 0 discriminator 2
 4381 1d24 FFF7FEFF 		bl	e_uart1_sending
 4382              	.LVL375:
 4383 1d28 0028     		cmp	r0, #0
 4384 1d2a FBD1     		bne	.L323
 4385              		.loc 1 1262 0 is_stmt 1
 4386 1d2c 3121     		movs	r1, #49
 4387 1d2e 8448     		ldr	r0, .L830+68
 4388 1d30 FFF7FEFF 		bl	e_send_uart1_char
 4389              	.LVL376:
ARM GAS  /tmp/ccZueut9.s 			page 78


 4390              	.L324:
 4391              		.loc 1 1262 0 is_stmt 0 discriminator 2
 4392 1d34 FFF7FEFF 		bl	e_uart1_sending
 4393              	.LVL377:
 4394 1d38 0028     		cmp	r0, #0
 4395 1d3a FBD1     		bne	.L324
 4396              		.loc 1 1263 0 is_stmt 1
 4397 1d3c 3121     		movs	r1, #49
 4398 1d3e 8148     		ldr	r0, .L830+72
 4399 1d40 FFF7FEFF 		bl	e_send_uart1_char
 4400              	.LVL378:
 4401              	.L325:
 4402              		.loc 1 1263 0 is_stmt 0 discriminator 2
 4403 1d44 FFF7FEFF 		bl	e_uart1_sending
 4404              	.LVL379:
 4405 1d48 0028     		cmp	r0, #0
 4406 1d4a FBD1     		bne	.L325
 4407              		.loc 1 1264 0 is_stmt 1
 4408 1d4c 2021     		movs	r1, #32
 4409 1d4e 7E48     		ldr	r0, .L830+76
 4410 1d50 FFF7FEFF 		bl	e_send_uart1_char
 4411              	.LVL380:
 4412              	.L326:
 4413              		.loc 1 1264 0 is_stmt 0 discriminator 2
 4414 1d54 FFF7FEFF 		bl	e_uart1_sending
 4415              	.LVL381:
 4416 1d58 0028     		cmp	r0, #0
 4417 1d5a FBD1     		bne	.L326
 4418              		.loc 1 1265 0 is_stmt 1
 4419 1d5c 3121     		movs	r1, #49
 4420 1d5e 7B48     		ldr	r0, .L830+80
 4421 1d60 FFF7FEFF 		bl	e_send_uart1_char
 4422              	.LVL382:
 4423              	.L327:
 4424              		.loc 1 1265 0 is_stmt 0 discriminator 2
 4425 1d64 FFF7FEFF 		bl	e_uart1_sending
 4426              	.LVL383:
 4427 1d68 0028     		cmp	r0, #0
 4428 1d6a FBD1     		bne	.L327
 4429              		.loc 1 1266 0 is_stmt 1
 4430 1d6c 3221     		movs	r1, #50
 4431 1d6e 7848     		ldr	r0, .L830+84
 4432 1d70 FFF7FEFF 		bl	e_send_uart1_char
 4433              	.LVL384:
 4434              	.L328:
 4435              		.loc 1 1266 0 is_stmt 0 discriminator 2
 4436 1d74 FFF7FEFF 		bl	e_uart1_sending
 4437              	.LVL385:
 4438 1d78 0028     		cmp	r0, #0
 4439 1d7a FBD1     		bne	.L328
 4440              		.loc 1 1267 0 is_stmt 1
 4441 1d7c FFF7FEFF 		bl	isEpuckVersion1_3
 4442              	.LVL386:
 4443 1d80 0028     		cmp	r0, #0
 4444 1d82 40F0AA85 		bne	.L809
 4445              	.L329:
 4446              		.loc 1 1270 0
ARM GAS  /tmp/ccZueut9.s 			page 79


 4447 1d86 2C21     		movs	r1, #44
 4448 1d88 7248     		ldr	r0, .L830+88
 4449 1d8a FFF7FEFF 		bl	e_send_uart1_char
 4450              	.LVL387:
 4451              	.L331:
 4452              		.loc 1 1270 0 is_stmt 0 discriminator 2
 4453 1d8e FFF7FEFF 		bl	e_uart1_sending
 4454              	.LVL388:
 4455 1d92 0028     		cmp	r0, #0
 4456 1d94 FBD1     		bne	.L331
 4457              		.loc 1 1271 0 is_stmt 1
 4458 1d96 2521     		movs	r1, #37
 4459 1d98 6F48     		ldr	r0, .L830+92
 4460 1d9a FFF7FEFF 		bl	e_send_uart1_char
 4461              	.LVL389:
 4462              	.L332:
 4463              		.loc 1 1271 0 is_stmt 0 discriminator 2
 4464 1d9e FFF7FEFF 		bl	e_uart1_sending
 4465              	.LVL390:
 4466 1da2 0028     		cmp	r0, #0
 4467 1da4 FBD1     		bne	.L332
 4468              		.loc 1 1272 0 is_stmt 1
 4469 1da6 2B21     		movs	r1, #43
 4470 1da8 6C48     		ldr	r0, .L830+96
 4471 1daa FFF7FEFF 		bl	e_send_uart1_char
 4472              	.LVL391:
 4473              	.L333:
 4474              		.loc 1 1272 0 is_stmt 0 discriminator 2
 4475 1dae FFF7FEFF 		bl	e_uart1_sending
 4476              	.LVL392:
 4477 1db2 0028     		cmp	r0, #0
 4478 1db4 FBD1     		bne	.L333
 4479              		.loc 1 1273 0 is_stmt 1
 4480 1db6 2A21     		movs	r1, #42
 4481 1db8 6948     		ldr	r0, .L830+100
 4482 1dba FFF7FEFF 		bl	e_send_uart1_char
 4483              	.LVL393:
 4484              	.L334:
 4485              		.loc 1 1273 0 is_stmt 0 discriminator 2
 4486 1dbe FFF7FEFF 		bl	e_uart1_sending
 4487              	.LVL394:
 4488 1dc2 0028     		cmp	r0, #0
 4489 1dc4 FBD1     		bne	.L334
 4490 1dc6 FEF768B9 		b	.L741
 4491              	.L247:
 4492              		.loc 1 1135 0 is_stmt 1
 4493 1dca 664B     		ldr	r3, .L830+104
 4494 1dcc 664A     		ldr	r2, .L830+108
 4495 1dce 6749     		ldr	r1, .L830+112
 4496 1dd0 6748     		ldr	r0, .L830+116
 4497 1dd2 FFF7FEFF 		bl	sscanf
 4498              	.LVL395:
 4499              		.loc 1 1136 0
 4500 1dd6 644B     		ldr	r3, .L830+108
 4501 1dd8 1868     		ldr	r0, [r3]
 4502 1dda FFF7FEFF 		bl	e_set_speed_left
 4503              	.LVL396:
ARM GAS  /tmp/ccZueut9.s 			page 80


 4504              		.loc 1 1137 0
 4505 1dde 614B     		ldr	r3, .L830+104
 4506 1de0 1868     		ldr	r0, [r3]
 4507 1de2 FFF7FEFF 		bl	e_set_speed_right
 4508              	.LVL397:
 4509              		.loc 1 1138 0
 4510 1de6 BBF1000F 		cmp	fp, #0
 4511 1dea 7EF453A9 		bne	.L5
 4512              		.loc 1 1140 0
 4513 1dee 079B     		ldr	r3, [sp, #28]
 4514              		.loc 1 1141 0
 4515 1df0 6048     		ldr	r0, .L830+120
 4516 1df2 0321     		movs	r1, #3
 4517              		.loc 1 1140 0
 4518 1df4 002B     		cmp	r3, #0
 4519 1df6 00F06783 		beq	.L284
 4520              		.loc 1 1141 0
 4521 1dfa FFF7FEFF 		bl	e_send_uart1_char
 4522              	.LVL398:
 4523              	.L285:
 4524              		.loc 1 1141 0 is_stmt 0 discriminator 2
 4525 1dfe FFF7FEFF 		bl	e_uart1_sending
 4526              	.LVL399:
 4527 1e02 0028     		cmp	r0, #0
 4528 1e04 FBD1     		bne	.L285
 4529 1e06 FEF748B9 		b	.L741
 4530              	.L413:
 4531              		.loc 1 1501 0 is_stmt 1
 4532 1e0a 41F65071 		movw	r1, #8016
 4533 1e0e 42F61430 		movw	r0, #11028
 4534 1e12 FFF7FEFF 		bl	e_play_sound
 4535              	.LVL400:
 4536              	.L414:
 4537              		.loc 1 1509 0
 4538 1e16 BBF1000F 		cmp	fp, #0
 4539 1e1a 7EF43BA9 		bne	.L5
 4540              		.loc 1 1511 0
 4541 1e1e 079B     		ldr	r3, [sp, #28]
 4542              		.loc 1 1512 0
 4543 1e20 5548     		ldr	r0, .L830+124
 4544 1e22 0321     		movs	r1, #3
 4545              		.loc 1 1511 0
 4546 1e24 002B     		cmp	r3, #0
 4547 1e26 00F0CF84 		beq	.L415
 4548              		.loc 1 1512 0
 4549 1e2a FFF7FEFF 		bl	e_send_uart1_char
 4550              	.LVL401:
 4551              	.L416:
 4552              		.loc 1 1512 0 is_stmt 0 discriminator 2
 4553 1e2e FFF7FEFF 		bl	e_uart1_sending
 4554              	.LVL402:
 4555 1e32 0028     		cmp	r0, #0
 4556 1e34 FBD1     		bne	.L416
 4557 1e36 FEF730B9 		b	.L741
 4558              	.L412:
 4559              		.loc 1 1499 0 is_stmt 1
 4560 1e3a 40F69461 		movw	r1, #3732
ARM GAS  /tmp/ccZueut9.s 			page 81


 4561 1e3e 41F67E40 		movw	r0, #7294
 4562 1e42 FFF7FEFF 		bl	e_play_sound
 4563              	.LVL403:
 4564              		.loc 1 1500 0
 4565 1e46 E6E7     		b	.L414
 4566              	.L411:
 4567              		.loc 1 1497 0
 4568 1e48 0022     		movs	r2, #0
 4569 1e4a 0221     		movs	r1, #2
 4570 1e4c 0B20     		movs	r0, #11
 4571 1e4e FFF7FEFF 		bl	playMelody
 4572              	.LVL404:
 4573              		.loc 1 1498 0
 4574 1e52 E0E7     		b	.L414
 4575              	.L410:
 4576              		.loc 1 1495 0
 4577 1e54 0022     		movs	r2, #0
 4578 1e56 0221     		movs	r1, #2
 4579 1e58 0420     		movs	r0, #4
 4580 1e5a FFF7FEFF 		bl	playMelody
 4581              	.LVL405:
 4582              		.loc 1 1496 0
 4583 1e5e DAE7     		b	.L414
 4584              	.L408:
 4585              		.loc 1 1493 0
 4586 1e60 0022     		movs	r2, #0
 4587 1e62 0221     		movs	r1, #2
 4588 1e64 0320     		movs	r0, #3
 4589 1e66 FFF7FEFF 		bl	playMelody
 4590              	.LVL406:
 4591              		.loc 1 1494 0
 4592 1e6a D4E7     		b	.L414
 4593              	.L242:
 4594              		.loc 1 1611 0
 4595 1e6c BBF1000F 		cmp	fp, #0
 4596 1e70 7EF410A9 		bne	.L5
 4597              		.loc 1 1613 0
 4598 1e74 079B     		ldr	r3, [sp, #28]
 4599              		.loc 1 1614 0
 4600 1e76 4148     		ldr	r0, .L830+128
 4601 1e78 1521     		movs	r1, #21
 4602              		.loc 1 1613 0
 4603 1e7a 002B     		cmp	r3, #0
 4604 1e7c 00F05283 		beq	.L449
 4605              		.loc 1 1614 0
 4606 1e80 FFF7FEFF 		bl	e_send_uart1_char
 4607              	.LVL407:
 4608              	.L450:
 4609              		.loc 1 1614 0 is_stmt 0 discriminator 2
 4610 1e84 FFF7FEFF 		bl	e_uart1_sending
 4611              	.LVL408:
 4612 1e88 0028     		cmp	r0, #0
 4613 1e8a FBD1     		bne	.L450
 4614 1e8c FEF705B9 		b	.L741
 4615              	.L222:
 4616              	.LBE4:
 4617              		.loc 1 1084 0 is_stmt 1
ARM GAS  /tmp/ccZueut9.s 			page 82


 4618 1e90 1C46     		mov	r4, r3
 4619              		.loc 1 1082 0
 4620 1e92 0222     		movs	r2, #2
 4621              		.loc 1 1071 0
 4622 1e94 88F80030 		strb	r3, [r8]
 4623              		.loc 1 1084 0
 4624 1e98 622C     		cmp	r4, #98
 4625              		.loc 1 1082 0
 4626 1e9a 4FF00003 		mov	r3, #0
 4627 1e9e C9F80020 		str	r2, [r9]
 4628 1ea2 88F80130 		strb	r3, [r8, #1]
 4629              		.loc 1 1084 0
 4630 1ea6 7EF45CA9 		bne	.L456
 4631              	.LBB5:
 4632              		.loc 1 1103 0
 4633 1eaa FFF7FEFF 		bl	getBatteryValueRaw
 4634              	.LVL409:
 4635 1eae 0446     		mov	r4, r0
 4636 1eb0 FFF7FEFF 		bl	getBatteryValuePercentage
 4637              	.LVL410:
 4638 1eb4 2246     		mov	r2, r4
 4639 1eb6 0346     		mov	r3, r0
 4640 1eb8 3149     		ldr	r1, .L830+132
 4641 1eba 2D48     		ldr	r0, .L830+116
 4642 1ebc FFF7FEFF 		bl	sprintf
 4643              	.LVL411:
 4644 1ec0 FEF7E8B8 		b	.L5
 4645              	.L134:
 4646              	.LBE5:
 4647              		.loc 1 488 0
 4648 1ec4 FFF7FEFF 		bl	serial_clear_last_errors
 4649              	.LVL412:
 4650              		.loc 1 489 0
 4651 1ec8 FEF719BB 		b	.L47
 4652              	.LVL413:
 4653              	.L14:
 4654              		.loc 1 218 0
 4655 1ecc 264A     		ldr	r2, .L830+108
 4656 1ece 0023     		movs	r3, #0
 4657 1ed0 1360     		str	r3, [r2]
 4658 1ed2 244A     		ldr	r2, .L830+104
 4659 1ed4 1360     		str	r3, [r2]
 4660 1ed6 FEF7B7B9 		b	.L26
 4661              	.LVL414:
 4662              	.L30:
 4663              		.loc 1 280 0
 4664 1eda 234A     		ldr	r2, .L830+108
 4665 1edc 0023     		movs	r3, #0
 4666 1ede 1360     		str	r3, [r2]
 4667 1ee0 204A     		ldr	r2, .L830+104
 4668 1ee2 1360     		str	r3, [r2]
 4669 1ee4 FEF724BA 		b	.L42
 4670              	.LVL415:
 4671              	.L805:
 4672              		.loc 1 1058 0
 4673 1ee8 2148     		ldr	r0, .L830+116
 4674 1eea FFF7FEFF 		bl	e_send_uart2_char
ARM GAS  /tmp/ccZueut9.s 			page 83


 4675              	.LVL416:
 4676              	.L221:
 4677              		.loc 1 1059 0 discriminator 1
 4678 1eee FFF7FEFF 		bl	e_uart2_sending
 4679              	.LVL417:
 4680 1ef2 0028     		cmp	r0, #0
 4681 1ef4 FBD1     		bne	.L221
 4682 1ef6 FEF75DB9 		b	.L732
 4683              	.L831:
 4684 1efa 00BF     		.align	2
 4685              	.L830:
 4686 1efc 14010000 		.word	.LC15
 4687 1f00 18010000 		.word	.LC16
 4688 1f04 3C010000 		.word	.LC17
 4689 1f08 70010000 		.word	.LC18
 4690 1f0c C4010000 		.word	.LC20
 4691 1f10 EC010000 		.word	.LC21
 4692 1f14 1C020000 		.word	.LC22
 4693 1f18 4C020000 		.word	.LC23
 4694 1f1c 80020000 		.word	.LC24
 4695 1f20 BC020000 		.word	.LC26
 4696 1f24 D8020000 		.word	.LC27
 4697 1f28 04030000 		.word	.LC28
 4698 1f2c 54030000 		.word	.LC29
 4699 1f30 84030000 		.word	.LC30
 4700 1f34 B8030000 		.word	.LC31
 4701 1f38 DC030000 		.word	.LC32
 4702 1f3c FC030000 		.word	.LC33
 4703 1f40 20040000 		.word	.LC34
 4704 1f44 54040000 		.word	.LC35
 4705 1f48 88040000 		.word	.LC36
 4706 1f4c AC040000 		.word	.LC37
 4707 1f50 E0040000 		.word	.LC38
 4708 1f54 34050000 		.word	.LC40
 4709 1f58 64050000 		.word	.LC41
 4710 1f5c 8C050000 		.word	.LC42
 4711 1f60 B8050000 		.word	.LC43
 4712 1f64 00000000 		.word	.LANCHOR6
 4713 1f68 00000000 		.word	.LANCHOR7
 4714 1f6c 9C000000 		.word	.LC7
 4715 1f70 00000000 		.word	buffer
 4716 1f74 A8000000 		.word	.LC8
 4717 1f78 B00A0000 		.word	.LC84
 4718 1f7c 300B0000 		.word	.LC94
 4719 1f80 78000000 		.word	.LC3
 4720              	.L177:
 4721              		.loc 1 920 0
 4722 1f84 CD4B     		ldr	r3, .L832
 4723 1f86 1A78     		ldrb	r2, [r3]	@ zero_extendqisi2
 4724 1f88 CD4B     		ldr	r3, .L832+4
 4725 1f8a 1B78     		ldrb	r3, [r3]	@ zero_extendqisi2
 4726 1f8c 03EB0223 		add	r3, r3, r2, lsl #8
 4727 1f90 CC4A     		ldr	r2, .L832+8
 4728 1f92 1846     		mov	r0, r3
 4729 1f94 1360     		str	r3, [r2]
 4730 1f96 FEF754BB 		b	.L189
 4731              	.L150:
ARM GAS  /tmp/ccZueut9.s 			page 84


 4732              		.loc 1 801 0
 4733 1f9a C84B     		ldr	r3, .L832
 4734 1f9c 1A78     		ldrb	r2, [r3]	@ zero_extendqisi2
 4735 1f9e C84B     		ldr	r3, .L832+4
 4736 1fa0 1B78     		ldrb	r3, [r3]	@ zero_extendqisi2
 4737 1fa2 03EB0223 		add	r3, r3, r2, lsl #8
 4738 1fa6 C84A     		ldr	r2, .L832+12
 4739 1fa8 1846     		mov	r0, r3
 4740 1faa 1360     		str	r3, [r2]
 4741 1fac FEF70DBC 		b	.L162
 4742              	.LVL418:
 4743              	.L779:
 4744              		.loc 1 212 0
 4745 1fb0 FFF7FEFF 		bl	e_init_sound
 4746              	.LVL419:
 4747              		.loc 1 213 0
 4748 1fb4 C54A     		ldr	r2, .L832+16
 4749 1fb6 0123     		movs	r3, #1
 4750 1fb8 1370     		strb	r3, [r2]
 4751 1fba FEF7A9B9 		b	.L27
 4752              	.LVL420:
 4753              	.L780:
 4754              		.loc 1 274 0
 4755 1fbe FFF7FEFF 		bl	e_init_sound
 4756              	.LVL421:
 4757              		.loc 1 275 0
 4758 1fc2 C24A     		ldr	r2, .L832+16
 4759 1fc4 0123     		movs	r3, #1
 4760 1fc6 1370     		strb	r3, [r2]
 4761 1fc8 FEF7F3B9 		b	.L43
 4762              	.LVL422:
 4763              	.L804:
 4764              		.loc 1 1046 0
 4765 1fcc C04B     		ldr	r3, .L832+20
 4766 1fce 1D70     		strb	r5, [r3]
 4767              		.loc 1 1047 0
 4768 1fd0 FFF7FEFF 		bl	e_poxxxx_wait_img_ready
 4769              	.LVL423:
 4770              		.loc 1 1048 0
 4771 1fd4 FFF7FEFF 		bl	cam_get_last_image_ptr
 4772              	.LVL424:
 4773 1fd8 0E9B     		ldr	r3, [sp, #56]
 4774 1fda 1A68     		ldr	r2, [r3]
 4775 1fdc 0F9B     		ldr	r3, [sp, #60]
 4776 1fde 0146     		mov	r1, r0
 4777 1fe0 08EB0300 		add	r0, r8, r3
 4778 1fe4 FFF7FEFF 		bl	memcpy
 4779              	.LVL425:
 4780 1fe8 D9F80010 		ldr	r1, [r9]
 4781 1fec FFF72CB9 		b	.L219
 4782              	.L787:
 4783              		.loc 1 870 0
 4784 1ff0 0146     		mov	r1, r0
 4785 1ff2 1846     		mov	r0, r3
 4786 1ff4 FFF7FEFF 		bl	e_set_led
 4787              	.LVL426:
 4788              		.loc 1 871 0
ARM GAS  /tmp/ccZueut9.s 			page 85


 4789 1ff8 FEF781BA 		b	.L47
 4790              	.L170:
 4791              		.loc 1 864 0
 4792 1ffc FFF7FEFF 		bl	e_set_body_led
 4793              	.LVL427:
 4794              		.loc 1 865 0
 4795 2000 FEF77DBA 		b	.L47
 4796              	.L101:
 4797              		.loc 1 510 0
 4798 2004 FFF7FEFF 		bl	e_set_speed_left
 4799              	.LVL428:
 4800              		.loc 1 511 0
 4801 2008 B24B     		ldr	r3, .L832+24
 4802 200a 1868     		ldr	r0, [r3]
 4803 200c FFF7FEFF 		bl	e_set_speed_right
 4804              	.LVL429:
 4805 2010 FEF7F3BD 		b	.L102
 4806              	.L99:
 4807              		.loc 1 499 0
 4808 2014 FFF7FEFF 		bl	disable_obstacle_avoidance
 4809              	.LVL430:
 4810 2018 FEF7D5BD 		b	.L100
 4811              	.L144:
 4812              		.loc 1 720 0
 4813 201c FFF7FEFF 		bl	VL53L0X_start
 4814              	.LVL431:
 4815 2020 FEF765BA 		b	.L145
 4816              	.L783:
 4817              		.loc 1 750 0
 4818 2024 FFF7FEFF 		bl	e_read_acc_spheric
 4819              	.LVL432:
 4820 2028 AB4B     		ldr	r3, .L832+28
 4821 202a 83ED000A 		vstr.32	s0, [r3]
 4822 202e C3ED010A 		vstr.32	s1, [r3, #4]
 4823 2032 DA78     		ldrb	r2, [r3, #3]	@ zero_extendqisi2
 4824 2034 0892     		str	r2, [sp, #32]
 4825 2036 9A79     		ldrb	r2, [r3, #6]	@ zero_extendqisi2
 4826 2038 83ED021A 		vstr.32	s2, [r3, #8]
 4827 203c 0992     		str	r2, [sp, #36]
 4828 203e DA79     		ldrb	r2, [r3, #7]	@ zero_extendqisi2
 4829 2040 0A92     		str	r2, [sp, #40]
 4830 2042 1A7A     		ldrb	r2, [r3, #8]	@ zero_extendqisi2
 4831 2044 0B92     		str	r2, [sp, #44]
 4832 2046 5A7A     		ldrb	r2, [r3, #9]	@ zero_extendqisi2
 4833 2048 0C92     		str	r2, [sp, #48]
 4834 204a 9A7A     		ldrb	r2, [r3, #10]	@ zero_extendqisi2
 4835 204c 0D92     		str	r2, [sp, #52]
 4836 204e 93F800B0 		ldrb	fp, [r3]	@ zero_extendqisi2
 4837 2052 93F801E0 		ldrb	lr, [r3, #1]	@ zero_extendqisi2
 4838 2056 93F802C0 		ldrb	ip, [r3, #2]	@ zero_extendqisi2
 4839 205a 1C79     		ldrb	r4, [r3, #4]	@ zero_extendqisi2
 4840 205c 5879     		ldrb	r0, [r3, #5]	@ zero_extendqisi2
 4841 205e DA7A     		ldrb	r2, [r3, #11]	@ zero_extendqisi2
 4842 2060 FEF70BBC 		b	.L149
 4843              	.L796:
 4844              		.loc 1 315 0
 4845 2064 FFF7FEFF 		bl	e_read_acc_spheric
ARM GAS  /tmp/ccZueut9.s 			page 86


 4846              	.LVL433:
 4847 2068 9B4B     		ldr	r3, .L832+28
 4848 206a C3ED010A 		vstr.32	s1, [r3, #4]
 4849 206e 1A79     		ldrb	r2, [r3, #4]	@ zero_extendqisi2
 4850 2070 83ED021A 		vstr.32	s2, [r3, #8]
 4851 2074 1446     		mov	r4, r2
 4852 2076 5A79     		ldrb	r2, [r3, #5]	@ zero_extendqisi2
 4853 2078 0892     		str	r2, [sp, #32]
 4854 207a 9A79     		ldrb	r2, [r3, #6]	@ zero_extendqisi2
 4855 207c 0992     		str	r2, [sp, #36]
 4856 207e DA79     		ldrb	r2, [r3, #7]	@ zero_extendqisi2
 4857 2080 0A92     		str	r2, [sp, #40]
 4858 2082 1A7A     		ldrb	r2, [r3, #8]	@ zero_extendqisi2
 4859 2084 0B92     		str	r2, [sp, #44]
 4860 2086 5A7A     		ldrb	r2, [r3, #9]	@ zero_extendqisi2
 4861 2088 83ED000A 		vstr.32	s0, [r3]
 4862 208c 0C92     		str	r2, [sp, #48]
 4863 208e 9A7A     		ldrb	r2, [r3, #10]	@ zero_extendqisi2
 4864 2090 0D92     		str	r2, [sp, #52]
 4865 2092 1878     		ldrb	r0, [r3]	@ zero_extendqisi2
 4866 2094 93F801B0 		ldrb	fp, [r3, #1]	@ zero_extendqisi2
 4867 2098 93F802E0 		ldrb	lr, [r3, #2]	@ zero_extendqisi2
 4868 209c 93F803C0 		ldrb	ip, [r3, #3]	@ zero_extendqisi2
 4869 20a0 D97A     		ldrb	r1, [r3, #11]	@ zero_extendqisi2
 4870 20a2 D9F80020 		ldr	r2, [r9]
 4871 20a6 FEF7BFBE 		b	.L80
 4872              	.L795:
 4873              		.loc 1 299 0
 4874 20aa 2846     		mov	r0, r5
 4875 20ac FFF7FEFF 		bl	e_get_acc
 4876              	.LVL434:
 4877 20b0 8A4C     		ldr	r4, .L832+32
 4878 20b2 2060     		str	r0, [r4]
 4879              		.loc 1 300 0
 4880 20b4 0120     		movs	r0, #1
 4881 20b6 FFF7FEFF 		bl	e_get_acc
 4882              	.LVL435:
 4883 20ba 894B     		ldr	r3, .L832+36
 4884 20bc 1860     		str	r0, [r3]
 4885              		.loc 1 301 0
 4886 20be 0220     		movs	r0, #2
 4887 20c0 FFF7FEFF 		bl	e_get_acc
 4888              	.LVL436:
 4889 20c4 864B     		ldr	r3, .L832+36
 4890 20c6 2468     		ldr	r4, [r4]
 4891 20c8 1A68     		ldr	r2, [r3]
 4892 20ca 864B     		ldr	r3, .L832+40
 4893 20cc 5FFA80FB 		uxtb	fp, r0
 4894 20d0 1860     		str	r0, [r3]
 4895 20d2 5FFA84FE 		uxtb	lr, r4
 4896 20d6 C0F30723 		ubfx	r3, r0, #8, #8
 4897 20da C4F30724 		ubfx	r4, r4, #8, #8
 4898 20de 5FFA82FC 		uxtb	ip, r2
 4899 20e2 C2F30720 		ubfx	r0, r2, #8, #8
 4900 20e6 FEF779BE 		b	.L78
 4901              	.LVL437:
 4902              	.L800:
ARM GAS  /tmp/ccZueut9.s 			page 87


 4903              		.loc 1 436 0
 4904 20ea FFF7FEFF 		bl	sdio_connect
 4905              	.LVL438:
 4906              		.loc 1 437 0
 4907 20ee D9F80030 		ldr	r3, [r9]
 4908              		.loc 1 436 0
 4909 20f2 B0FA80F0 		clz	r0, r0
 4910 20f6 4009     		lsrs	r0, r0, #5
 4911              		.loc 1 437 0
 4912 20f8 5A1C     		adds	r2, r3, #1
 4913              		.loc 1 436 0
 4914 20fa 08F80300 		strb	r0, [r8, r3]
 4915              		.loc 1 437 0
 4916 20fe C9F80020 		str	r2, [r9]
 4917              		.loc 1 438 0
 4918 2102 FFF7FEFF 		bl	sdio_disconnect
 4919              	.LVL439:
 4920 2106 D9F80040 		ldr	r4, [r9]
 4921 210a FEF786BF 		b	.L91
 4922              	.L799:
 4923              		.loc 1 399 0
 4924 210e FFF7FEFF 		bl	VL53L0X_get_dist_mm
 4925              	.LVL440:
 4926              		.loc 1 400 0
 4927 2112 D9F80030 		ldr	r3, [r9]
 4928              		.loc 1 401 0
 4929 2116 08EB0302 		add	r2, r8, r3
 4930              		.loc 1 400 0
 4931 211a 08F80300 		strb	r0, [r8, r3]
 4932              		.loc 1 401 0
 4933 211e 0112     		asrs	r1, r0, #8
 4934 2120 0233     		adds	r3, r3, #2
 4935 2122 5170     		strb	r1, [r2, #1]
 4936 2124 C9F80030 		str	r3, [r9]
 4937 2128 FEF70EBF 		b	.L89
 4938              	.LVL441:
 4939              	.L798:
 4940              		.loc 1 378 0
 4941 212c FFF7FEFF 		bl	getTemperature
 4942              	.LVL442:
 4943 2130 D9F80030 		ldr	r3, [r9]
 4944 2134 5A1C     		adds	r2, r3, #1
 4945 2136 08F80300 		strb	r0, [r8, r3]
 4946 213a C9F80020 		str	r2, [r9]
 4947 213e FEF7CABE 		b	.L85
 4948              	.L797:
 4949              		.loc 1 350 0
 4950 2142 694A     		ldr	r2, .L832+44
 4951 2144 6949     		ldr	r1, .L832+48
 4952 2146 6A48     		ldr	r0, .L832+52
 4953 2148 FFF7FEFF 		bl	getAllAxesGyro
 4954              	.LVL443:
 4955              		.loc 1 351 0
 4956 214c 684B     		ldr	r3, .L832+52
 4957 214e D9F80020 		ldr	r2, [r9]
 4958 2152 1968     		ldr	r1, [r3]
 4959              		.loc 1 353 0
ARM GAS  /tmp/ccZueut9.s 			page 88


 4960 2154 654B     		ldr	r3, .L832+48
 4961              		.loc 1 351 0
 4962 2156 08F80210 		strb	r1, [r8, r2]
 4963              		.loc 1 353 0
 4964 215a 1C68     		ldr	r4, [r3]
 4965              		.loc 1 355 0
 4966 215c 624B     		ldr	r3, .L832+44
 4967 215e 1868     		ldr	r0, [r3]
 4968              		.loc 1 352 0
 4969 2160 08EB0203 		add	r3, r8, r2
 4970 2164 0912     		asrs	r1, r1, #8
 4971              		.loc 1 356 0
 4972 2166 0632     		adds	r2, r2, #6
 4973              		.loc 1 352 0
 4974 2168 5970     		strb	r1, [r3, #1]
 4975              		.loc 1 356 0
 4976 216a C9F80020 		str	r2, [r9]
 4977              		.loc 1 354 0
 4978 216e 2112     		asrs	r1, r4, #8
 4979              		.loc 1 356 0
 4980 2170 0212     		asrs	r2, r0, #8
 4981              		.loc 1 353 0
 4982 2172 9C70     		strb	r4, [r3, #2]
 4983              		.loc 1 354 0
 4984 2174 D970     		strb	r1, [r3, #3]
 4985              		.loc 1 355 0
 4986 2176 1871     		strb	r0, [r3, #4]
 4987              		.loc 1 356 0
 4988 2178 5A71     		strb	r2, [r3, #5]
 4989 217a FEF785BE 		b	.L82
 4990              	.LVL444:
 4991              	.L785:
 4992              		.loc 1 824 0
 4993 217e 5A4A     		ldr	r2, .L832+44
 4994 2180 5A49     		ldr	r1, .L832+48
 4995 2182 5B48     		ldr	r0, .L832+52
 4996 2184 FFF7FEFF 		bl	getAllAxesGyro
 4997              	.LVL445:
 4998              		.loc 1 825 0
 4999 2188 594B     		ldr	r3, .L832+52
 5000 218a D9F80020 		ldr	r2, [r9]
 5001 218e 1968     		ldr	r1, [r3]
 5002              		.loc 1 827 0
 5003 2190 564B     		ldr	r3, .L832+48
 5004              		.loc 1 825 0
 5005 2192 08F80210 		strb	r1, [r8, r2]
 5006              		.loc 1 827 0
 5007 2196 1C68     		ldr	r4, [r3]
 5008              		.loc 1 829 0
 5009 2198 534B     		ldr	r3, .L832+44
 5010 219a 1868     		ldr	r0, [r3]
 5011              		.loc 1 826 0
 5012 219c 08EB0203 		add	r3, r8, r2
 5013 21a0 0912     		asrs	r1, r1, #8
 5014              		.loc 1 830 0
 5015 21a2 0632     		adds	r2, r2, #6
 5016              		.loc 1 826 0
ARM GAS  /tmp/ccZueut9.s 			page 89


 5017 21a4 5970     		strb	r1, [r3, #1]
 5018              		.loc 1 830 0
 5019 21a6 C9F80020 		str	r2, [r9]
 5020              		.loc 1 828 0
 5021 21aa 2112     		asrs	r1, r4, #8
 5022              		.loc 1 830 0
 5023 21ac 0212     		asrs	r2, r0, #8
 5024              		.loc 1 827 0
 5025 21ae 9C70     		strb	r4, [r3, #2]
 5026              		.loc 1 828 0
 5027 21b0 D970     		strb	r1, [r3, #3]
 5028              		.loc 1 829 0
 5029 21b2 1871     		strb	r0, [r3, #4]
 5030              		.loc 1 830 0
 5031 21b4 5A71     		strb	r2, [r3, #5]
 5032 21b6 FEF7A3B9 		b	.L128
 5033              	.L786:
 5034              		.loc 1 729 0
 5035 21ba 0121     		movs	r1, #1
 5036 21bc 2846     		mov	r0, r5
 5037 21be FFF7FEFF 		bl	e_get_acc_filtered
 5038              	.LVL446:
 5039 21c2 464C     		ldr	r4, .L832+32
 5040              		.loc 1 730 0
 5041 21c4 0121     		movs	r1, #1
 5042              		.loc 1 729 0
 5043 21c6 2060     		str	r0, [r4]
 5044              		.loc 1 730 0
 5045 21c8 0846     		mov	r0, r1
 5046 21ca FFF7FEFF 		bl	e_get_acc_filtered
 5047              	.LVL447:
 5048 21ce 444B     		ldr	r3, .L832+36
 5049              		.loc 1 731 0
 5050 21d0 0121     		movs	r1, #1
 5051              		.loc 1 730 0
 5052 21d2 1860     		str	r0, [r3]
 5053              		.loc 1 731 0
 5054 21d4 0220     		movs	r0, #2
 5055 21d6 FFF7FEFF 		bl	e_get_acc_filtered
 5056              	.LVL448:
 5057 21da 414B     		ldr	r3, .L832+36
 5058 21dc 2468     		ldr	r4, [r4]
 5059 21de 1A68     		ldr	r2, [r3]
 5060 21e0 404B     		ldr	r3, .L832+40
 5061 21e2 5FFA80FB 		uxtb	fp, r0
 5062 21e6 1860     		str	r0, [r3]
 5063 21e8 5FFA84FE 		uxtb	lr, r4
 5064 21ec C0F30723 		ubfx	r3, r0, #8, #8
 5065 21f0 C4F30724 		ubfx	r4, r4, #8, #8
 5066 21f4 5FFA82FC 		uxtb	ip, r2
 5067 21f8 C2F30720 		ubfx	r0, r2, #8, #8
 5068 21fc FEF728BC 		b	.L147
 5069              	.L788:
 5070              		.loc 1 614 0
 5071 2200 FFF7FEFF 		bl	VL53L0X_get_dist_mm
 5072              	.LVL449:
 5073              		.loc 1 615 0
ARM GAS  /tmp/ccZueut9.s 			page 90


 5074 2204 D9F80030 		ldr	r3, [r9]
 5075              		.loc 1 616 0
 5076 2208 08EB0302 		add	r2, r8, r3
 5077              		.loc 1 615 0
 5078 220c 08F80300 		strb	r0, [r8, r3]
 5079              		.loc 1 616 0
 5080 2210 0112     		asrs	r1, r0, #8
 5081 2212 0233     		adds	r3, r3, #2
 5082 2214 5170     		strb	r1, [r2, #1]
 5083 2216 C9F80030 		str	r3, [r9]
 5084 221a FEF771B9 		b	.L128
 5085              	.L782:
 5086              		.loc 1 625 0
 5087 221e FFF7FEFF 		bl	sdio_connect
 5088              	.LVL450:
 5089              		.loc 1 626 0
 5090 2222 D9F80030 		ldr	r3, [r9]
 5091              		.loc 1 625 0
 5092 2226 B0FA80F0 		clz	r0, r0
 5093              		.loc 1 626 0
 5094 222a 5A1C     		adds	r2, r3, #1
 5095              		.loc 1 625 0
 5096 222c 4009     		lsrs	r0, r0, #5
 5097 222e 08F80300 		strb	r0, [r8, r3]
 5098              		.loc 1 626 0
 5099 2232 C9F80020 		str	r2, [r9]
 5100              		.loc 1 627 0
 5101 2236 FFF7FEFF 		bl	sdio_disconnect
 5102              	.LVL451:
 5103 223a FEF760B9 		b	.L47
 5104              	.L190:
 5105              		.loc 1 947 0
 5106 223e FFF7FEFF 		bl	getTemperature
 5107              	.LVL452:
 5108 2242 D9F80020 		ldr	r2, [r9]
 5109 2246 3B78     		ldrb	r3, [r7]	@ zero_extendqisi2
 5110 2248 08F80200 		strb	r0, [r8, r2]
 5111 224c 0132     		adds	r2, r2, #1
 5112 224e C9F80020 		str	r2, [r9]
 5113 2252 FEF75DB9 		b	.L191
 5114              	.L790:
 5115              		.loc 1 554 0
 5116 2256 0022     		movs	r2, #0
 5117 2258 0221     		movs	r1, #2
 5118 225a 0320     		movs	r0, #3
 5119 225c FFF7FEFF 		bl	playMelody
 5120              	.LVL453:
 5121 2260 9DF86230 		ldrb	r3, [sp, #98]	@ zero_extendqisi2
 5122              		.loc 1 556 0
 5123 2264 9C07     		lsls	r4, r3, #30
 5124 2266 7EF52AAD 		bpl	.L116
 5125              	.L791:
 5126              		.loc 1 557 0
 5127 226a 0420     		movs	r0, #4
 5128 226c 0022     		movs	r2, #0
 5129 226e 0221     		movs	r1, #2
 5130 2270 FFF7FEFF 		bl	playMelody
ARM GAS  /tmp/ccZueut9.s 			page 91


 5131              	.LVL454:
 5132 2274 9DF86230 		ldrb	r3, [sp, #98]	@ zero_extendqisi2
 5133              		.loc 1 559 0
 5134 2278 5807     		lsls	r0, r3, #29
 5135 227a 7EF523AD 		bpl	.L117
 5136              	.L792:
 5137              		.loc 1 560 0
 5138 227e 0221     		movs	r1, #2
 5139 2280 0022     		movs	r2, #0
 5140 2282 0B20     		movs	r0, #11
 5141 2284 FFF7FEFF 		bl	playMelody
 5142              	.LVL455:
 5143 2288 9DF86230 		ldrb	r3, [sp, #98]	@ zero_extendqisi2
 5144              		.loc 1 562 0
 5145 228c 1907     		lsls	r1, r3, #28
 5146 228e 7EF51CAD 		bpl	.L118
 5147              	.L793:
 5148              		.loc 1 563 0
 5149 2292 40F69461 		movw	r1, #3732
 5150 2296 41F67E40 		movw	r0, #7294
 5151 229a FFF7FEFF 		bl	e_play_sound
 5152              	.LVL456:
 5153 229e 9DF86230 		ldrb	r3, [sp, #98]	@ zero_extendqisi2
 5154              		.loc 1 565 0
 5155 22a2 DA06     		lsls	r2, r3, #27
 5156 22a4 7EF514AD 		bpl	.L119
 5157              	.L794:
 5158              		.loc 1 566 0
 5159 22a8 41F65071 		movw	r1, #8016
 5160 22ac 42F61430 		movw	r0, #11028
 5161 22b0 FFF7FEFF 		bl	e_play_sound
 5162              	.LVL457:
 5163 22b4 9DF86230 		ldrb	r3, [sp, #98]	@ zero_extendqisi2
 5164 22b8 FEF70ABD 		b	.L119
 5165              	.L833:
 5166              		.align	2
 5167              	.L832:
 5168 22bc 00000000 		.word	.LANCHOR20
 5169 22c0 00000000 		.word	.LANCHOR19
 5170 22c4 00000000 		.word	.LANCHOR22
 5171 22c8 00000000 		.word	.LANCHOR7
 5172 22cc 00000000 		.word	.LANCHOR8
 5173 22d0 00000000 		.word	.LANCHOR21
 5174 22d4 00000000 		.word	.LANCHOR6
 5175 22d8 00000000 		.word	.LANCHOR13
 5176 22dc 00000000 		.word	.LANCHOR10
 5177 22e0 00000000 		.word	.LANCHOR11
 5178 22e4 00000000 		.word	.LANCHOR12
 5179 22e8 00000000 		.word	.LANCHOR14
 5180 22ec 00000000 		.word	.LANCHOR15
 5181 22f0 00000000 		.word	.LANCHOR16
 5182              	.L789:
 5183              		.loc 1 494 0
 5184 22f4 FFF7FEFF 		bl	calibrate_ir
 5185              	.LVL458:
 5186 22f8 9DF85030 		ldrb	r3, [sp, #80]	@ zero_extendqisi2
 5187 22fc FEF75EBC 		b	.L98
ARM GAS  /tmp/ccZueut9.s 			page 92


 5188              	.L781:
 5189              		.loc 1 655 0
 5190 2300 FFF7FEFF 		bl	mpu9250_magnetometer_setup
 5191              	.LVL459:
 5192 2304 FEF7F3B8 		b	.L145
 5193              	.L426:
 5194              	.LBB6:
 5195              		.loc 1 1551 0
 5196 2308 BD4B     		ldr	r3, .L834
 5197 230a BE49     		ldr	r1, .L834+4
 5198 230c 1A68     		ldr	r2, [r3]
 5199 230e BE48     		ldr	r0, .L834+8
 5200 2310 FFF7FEFF 		bl	sprintf
 5201              	.LVL460:
 5202 2314 FDF7BEBE 		b	.L5
 5203              	.L418:
 5204              		.loc 1 1522 0
 5205 2318 BC4B     		ldr	r3, .L834+12
 5206 231a 1868     		ldr	r0, [r3]
 5207 231c 9B88     		ldrh	r3, [r3, #4]	@ unaligned
 5208 231e C8F80000 		str	r0, [r8]	@ unaligned
 5209 2322 A8F80430 		strh	r3, [r8, #4]	@ unaligned
 5210 2326 FDF7B5BE 		b	.L5
 5211              	.L774:
 5212              		.loc 1 1103 0
 5213 232a FFF7FEFF 		bl	getBatteryValueRaw
 5214              	.LVL461:
 5215 232e 0446     		mov	r4, r0
 5216 2330 FFF7FEFF 		bl	getBatteryValuePercentage
 5217              	.LVL462:
 5218 2334 2246     		mov	r2, r4
 5219 2336 0346     		mov	r3, r0
 5220 2338 B549     		ldr	r1, .L834+16
 5221 233a B348     		ldr	r0, .L834+8
 5222 233c FFF7FEFF 		bl	sprintf
 5223              	.LVL463:
 5224              	.L458:
 5225 2340 B148     		ldr	r0, .L834+8
 5226 2342 FFF7FEFF 		bl	strlen
 5227              	.LVL464:
 5228              		.loc 1 1106 0
 5229 2346 079B     		ldr	r3, [sp, #28]
 5230 2348 0146     		mov	r1, r0
 5231              		.loc 1 1107 0
 5232 234a AF48     		ldr	r0, .L834+8
 5233              		.loc 1 1106 0
 5234 234c 002B     		cmp	r3, #0
 5235 234e 00F0FE80 		beq	.L275
 5236              		.loc 1 1107 0
 5237 2352 FFF7FEFF 		bl	e_send_uart1_char
 5238              	.LVL465:
 5239              	.L276:
 5240              		.loc 1 1107 0 is_stmt 0 discriminator 2
 5241 2356 FFF7FEFF 		bl	e_uart1_sending
 5242              	.LVL466:
 5243 235a 0028     		cmp	r0, #0
 5244 235c FBD1     		bne	.L276
ARM GAS  /tmp/ccZueut9.s 			page 93


 5245 235e FDF79CBE 		b	.L741
 5246              	.L296:
 5247              		.loc 1 1183 0 is_stmt 1
 5248 2362 AC4B     		ldr	r3, .L834+20
 5249              	.L761:
 5250 2364 03CB     		ldmia	r3!, {r0, r1}
 5251 2366 1B88     		ldrh	r3, [r3]	@ unaligned
 5252 2368 A8F80830 		strh	r3, [r8, #8]	@ unaligned
 5253 236c C8F80000 		str	r0, [r8]	@ unaligned
 5254 2370 C8F80410 		str	r1, [r8, #4]	@ unaligned
 5255 2374 FDF78EBE 		b	.L5
 5256              	.L377:
 5257              		.loc 1 1363 0
 5258 2378 0121     		movs	r1, #1
 5259 237a 0820     		movs	r0, #8
 5260 237c FFF7FEFF 		bl	e_set_led
 5261              	.LVL467:
 5262              		.loc 1 1365 0
 5263 2380 4FF4C870 		mov	r0, #400
 5264 2384 FFF7FEFF 		bl	chThdSleep
 5265              	.LVL468:
 5266              		.loc 1 1366 0
 5267 2388 FFF7FEFF 		bl	e_led_clear
 5268              	.LVL469:
 5269              		.loc 1 1368 0
 5270 238c 6420     		movs	r0, #100
 5271 238e FFF7FEFF 		bl	chThdSleep
 5272              	.LVL470:
 5273              		.loc 1 1369 0
 5274 2392 FFF7FEFF 		bl	e_calibrate_ir
 5275              	.LVL471:
 5276 2396 FDF77DBE 		b	.L5
 5277              	.LVL472:
 5278              	.L270:
 5279              		.loc 1 1092 0
 5280 239a 9F4B     		ldr	r3, .L834+24
 5281 239c E2E7     		b	.L761
 5282              	.L445:
 5283              		.loc 1 1604 0
 5284 239e FFF7FEFF 		bl	strlen
 5285              	.LVL473:
 5286 23a2 0146     		mov	r1, r0
 5287 23a4 2046     		mov	r0, r4
 5288 23a6 FFF7FEFF 		bl	e_send_uart2_char
 5289              	.LVL474:
 5290              	.L447:
 5291              		.loc 1 1604 0 is_stmt 0 discriminator 2
 5292 23aa FFF7FEFF 		bl	e_uart2_sending
 5293              	.LVL475:
 5294 23ae 0028     		cmp	r0, #0
 5295 23b0 FBD1     		bne	.L447
 5296 23b2 FEF7FABF 		b	.L444
 5297              	.L784:
 5298              	.LBE6:
 5299              		.loc 1 687 0 is_stmt 1
 5300 23b6 2046     		mov	r0, r4
 5301 23b8 FFF7FEFF 		bl	proximity_start
ARM GAS  /tmp/ccZueut9.s 			page 94


 5302              	.LVL476:
 5303 23bc FEF797B8 		b	.L145
 5304              	.L95:
 5305              		.loc 1 477 0
 5306 23c0 964A     		ldr	r2, .L834+28
 5307 23c2 D2F85432 		ldr	r3, [r2, #596]
 5308 23c6 1B68     		ldr	r3, [r3]
 5309 23c8 1B78     		ldrb	r3, [r3]	@ zero_extendqisi2
 5310 23ca 042B     		cmp	r3, #4
 5311 23cc 05D1     		bne	.L96
 5312              		.loc 1 478 0
 5313 23ce 1368     		ldr	r3, [r2]
 5314 23d0 1046     		mov	r0, r2
 5315 23d2 5B68     		ldr	r3, [r3, #4]
 5316 23d4 1322     		movs	r2, #19
 5317 23d6 14A9     		add	r1, sp, #80
 5318 23d8 9847     		blx	r3
 5319              	.LVL477:
 5320              	.L96:
 5321              		.loc 1 481 0
 5322 23da 0A20     		movs	r0, #10
 5323 23dc FFF7FEFF 		bl	chThdSleep
 5324              	.LVL478:
 5325 23e0 FEF7E2BB 		b	.L94
 5326              	.L142:
 5327              		.loc 1 702 0
 5328 23e4 8D4A     		ldr	r2, .L834+28
 5329 23e6 D2F85432 		ldr	r3, [r2, #596]
 5330 23ea 1B68     		ldr	r3, [r3]
 5331 23ec 1B78     		ldrb	r3, [r3]	@ zero_extendqisi2
 5332 23ee 042B     		cmp	r3, #4
 5333 23f0 05D1     		bne	.L143
 5334              		.loc 1 703 0
 5335 23f2 1368     		ldr	r3, [r2]
 5336 23f4 1046     		mov	r0, r2
 5337 23f6 5B68     		ldr	r3, [r3, #4]
 5338 23f8 0122     		movs	r2, #1
 5339 23fa 14A9     		add	r1, sp, #80
 5340 23fc 9847     		blx	r3
 5341              	.LVL479:
 5342              	.L143:
 5343              		.loc 1 706 0
 5344 23fe 0A20     		movs	r0, #10
 5345 2400 FFF7FEFF 		bl	chThdSleep
 5346              	.LVL480:
 5347 2404 FEF716BA 		b	.L141
 5348              	.L132:
 5349              		.loc 1 639 0
 5350 2408 844A     		ldr	r2, .L834+28
 5351 240a D2F85432 		ldr	r3, [r2, #596]
 5352 240e 1B68     		ldr	r3, [r3]
 5353 2410 1B78     		ldrb	r3, [r3]	@ zero_extendqisi2
 5354 2412 042B     		cmp	r3, #4
 5355 2414 05D1     		bne	.L133
 5356              		.loc 1 640 0
 5357 2416 1368     		ldr	r3, [r2]
 5358 2418 1046     		mov	r0, r2
ARM GAS  /tmp/ccZueut9.s 			page 95


 5359 241a 5B68     		ldr	r3, [r3, #4]
 5360 241c 0122     		movs	r2, #1
 5361 241e 14A9     		add	r1, sp, #80
 5362 2420 9847     		blx	r3
 5363              	.LVL481:
 5364              	.L133:
 5365              		.loc 1 643 0
 5366 2422 0A20     		movs	r0, #10
 5367 2424 FFF7FEFF 		bl	chThdSleep
 5368              	.LVL482:
 5369 2428 FEF757B8 		b	.L131
 5370              	.L137:
 5371              		.loc 1 670 0
 5372 242c 7B4A     		ldr	r2, .L834+28
 5373 242e D2F85432 		ldr	r3, [r2, #596]
 5374 2432 1B68     		ldr	r3, [r3]
 5375 2434 1B78     		ldrb	r3, [r3]	@ zero_extendqisi2
 5376 2436 042B     		cmp	r3, #4
 5377 2438 05D1     		bne	.L138
 5378              		.loc 1 671 0
 5379 243a 1368     		ldr	r3, [r2]
 5380 243c 1046     		mov	r0, r2
 5381 243e 5B68     		ldr	r3, [r3, #4]
 5382 2440 0122     		movs	r2, #1
 5383 2442 14A9     		add	r1, sp, #80
 5384 2444 9847     		blx	r3
 5385              	.LVL483:
 5386              	.L138:
 5387              		.loc 1 674 0
 5388 2446 0A20     		movs	r0, #10
 5389 2448 FFF7FEFF 		bl	chThdSleep
 5390              	.LVL484:
 5391 244c FEF756BA 		b	.L136
 5392              	.L378:
 5393              	.LBB7:
 5394              		.loc 1 1360 0
 5395 2450 FFF7FEFF 		bl	e_send_uart2_char
 5396              	.LVL485:
 5397              	.L381:
 5398              		.loc 1 1360 0 is_stmt 0 discriminator 2
 5399 2454 FFF7FEFF 		bl	e_uart2_sending
 5400              	.LVL486:
 5401 2458 0028     		cmp	r0, #0
 5402 245a FBD1     		bne	.L381
 5403              		.loc 1 1363 0 is_stmt 1
 5404 245c 0121     		movs	r1, #1
 5405 245e 0820     		movs	r0, #8
 5406 2460 FFF7FEFF 		bl	e_set_led
 5407              	.LVL487:
 5408              		.loc 1 1365 0
 5409 2464 4FF4C870 		mov	r0, #400
 5410 2468 FFF7FEFF 		bl	chThdSleep
 5411              	.LVL488:
 5412              		.loc 1 1366 0
 5413 246c FFF7FEFF 		bl	e_led_clear
 5414              	.LVL489:
 5415              		.loc 1 1368 0
ARM GAS  /tmp/ccZueut9.s 			page 96


 5416 2470 6420     		movs	r0, #100
 5417 2472 FFF7FEFF 		bl	chThdSleep
 5418              	.LVL490:
 5419              		.loc 1 1369 0
 5420 2476 FFF7FEFF 		bl	e_calibrate_ir
 5421              	.LVL491:
 5422              		.loc 1 1375 0
 5423 247a 1921     		movs	r1, #25
 5424 247c 6848     		ldr	r0, .L834+32
 5425 247e FFF7FEFF 		bl	e_send_uart2_char
 5426              	.LVL492:
 5427              	.L384:
 5428              		.loc 1 1375 0 is_stmt 0 discriminator 2
 5429 2482 FFF7FEFF 		bl	e_uart2_sending
 5430              	.LVL493:
 5431 2486 0028     		cmp	r0, #0
 5432 2488 FBD1     		bne	.L384
 5433 248a FDF793BE 		b	.L732
 5434              	.LVL494:
 5435              	.L281:
 5436              		.loc 1 1131 0 is_stmt 1
 5437 248e FFF7FEFF 		bl	e_send_uart2_char
 5438              	.LVL495:
 5439              	.L283:
 5440              		.loc 1 1131 0 is_stmt 0 discriminator 2
 5441 2492 FFF7FEFF 		bl	e_uart2_sending
 5442              	.LVL496:
 5443 2496 0028     		cmp	r0, #0
 5444 2498 FBD1     		bne	.L283
 5445 249a FDF78BBE 		b	.L732
 5446              	.L807:
 5447              		.loc 1 1099 0 is_stmt 1
 5448 249e 5A48     		ldr	r0, .L834+8
 5449 24a0 FFF7FEFF 		bl	strlen
 5450              	.LVL497:
 5451 24a4 0146     		mov	r1, r0
 5452 24a6 5848     		ldr	r0, .L834+8
 5453 24a8 FFF7FEFF 		bl	e_send_uart2_char
 5454              	.LVL498:
 5455              	.L274:
 5456              		.loc 1 1099 0 is_stmt 0 discriminator 2
 5457 24ac FFF7FEFF 		bl	e_uart2_sending
 5458              	.LVL499:
 5459 24b0 0028     		cmp	r0, #0
 5460 24b2 FBD1     		bne	.L274
 5461 24b4 FDF77EBE 		b	.L732
 5462              	.L394:
 5463              		.loc 1 1441 0 is_stmt 1
 5464 24b8 FFF7FEFF 		bl	e_send_uart2_char
 5465              	.LVL500:
 5466              	.L396:
 5467              		.loc 1 1441 0 is_stmt 0 discriminator 2
 5468 24bc FFF7FEFF 		bl	e_uart2_sending
 5469              	.LVL501:
 5470 24c0 0028     		cmp	r0, #0
 5471 24c2 FBD1     		bne	.L396
 5472 24c4 FDF776BE 		b	.L732
ARM GAS  /tmp/ccZueut9.s 			page 97


 5473              	.L284:
 5474              		.loc 1 1143 0 is_stmt 1
 5475 24c8 FFF7FEFF 		bl	e_send_uart2_char
 5476              	.LVL502:
 5477              	.L286:
 5478              		.loc 1 1143 0 is_stmt 0 discriminator 2
 5479 24cc FFF7FEFF 		bl	e_uart2_sending
 5480              	.LVL503:
 5481 24d0 0028     		cmp	r0, #0
 5482 24d2 FBD1     		bne	.L286
 5483 24d4 FDF76EBE 		b	.L732
 5484              	.L427:
 5485              		.loc 1 1549 0 is_stmt 1
 5486 24d8 FFF7FEFF 		bl	e_send_uart2_char
 5487              	.LVL504:
 5488              	.L430:
 5489              		.loc 1 1549 0 is_stmt 0 discriminator 2
 5490 24dc FFF7FEFF 		bl	e_uart2_sending
 5491              	.LVL505:
 5492 24e0 0028     		cmp	r0, #0
 5493 24e2 FBD1     		bne	.L430
 5494              		.loc 1 1551 0 is_stmt 1
 5495 24e4 464B     		ldr	r3, .L834
 5496 24e6 4749     		ldr	r1, .L834+4
 5497 24e8 1A68     		ldr	r2, [r3]
 5498 24ea 4748     		ldr	r0, .L834+8
 5499 24ec FFF7FEFF 		bl	sprintf
 5500              	.LVL506:
 5501              		.loc 1 1557 0
 5502 24f0 4548     		ldr	r0, .L834+8
 5503 24f2 FFF7FEFF 		bl	strlen
 5504              	.LVL507:
 5505 24f6 0146     		mov	r1, r0
 5506 24f8 4348     		ldr	r0, .L834+8
 5507 24fa FFF7FEFF 		bl	e_send_uart2_char
 5508              	.LVL508:
 5509              	.L433:
 5510              		.loc 1 1557 0 is_stmt 0 discriminator 2
 5511 24fe FFF7FEFF 		bl	e_uart2_sending
 5512              	.LVL509:
 5513 2502 0028     		cmp	r0, #0
 5514 2504 FBD1     		bne	.L433
 5515 2506 FDF755BE 		b	.L732
 5516              	.L806:
 5517              		.loc 1 1529 0 is_stmt 1
 5518 250a 3F48     		ldr	r0, .L834+8
 5519 250c FFF7FEFF 		bl	strlen
 5520              	.LVL510:
 5521 2510 0146     		mov	r1, r0
 5522 2512 3D48     		ldr	r0, .L834+8
 5523 2514 FFF7FEFF 		bl	e_send_uart2_char
 5524              	.LVL511:
 5525              	.L422:
 5526              		.loc 1 1529 0 is_stmt 0 discriminator 2
 5527 2518 FFF7FEFF 		bl	e_uart2_sending
 5528              	.LVL512:
 5529 251c 0028     		cmp	r0, #0
ARM GAS  /tmp/ccZueut9.s 			page 98


 5530 251e FBD1     		bne	.L422
 5531 2520 FDF748BE 		b	.L732
 5532              	.L449:
 5533              		.loc 1 1616 0 is_stmt 1
 5534 2524 FFF7FEFF 		bl	e_send_uart2_char
 5535              	.LVL513:
 5536              	.L451:
 5537              		.loc 1 1616 0 is_stmt 0 discriminator 2
 5538 2528 FFF7FEFF 		bl	e_uart2_sending
 5539              	.LVL514:
 5540 252c 0028     		cmp	r0, #0
 5541 252e FBD1     		bne	.L451
 5542 2530 FDF740BE 		b	.L732
 5543              	.L776:
 5544              		.loc 1 1190 0 is_stmt 1
 5545 2534 3448     		ldr	r0, .L834+8
 5546 2536 FFF7FEFF 		bl	strlen
 5547              	.LVL515:
 5548 253a 0146     		mov	r1, r0
 5549 253c 3248     		ldr	r0, .L834+8
 5550 253e FFF7FEFF 		bl	e_send_uart2_char
 5551              	.LVL516:
 5552              	.L300:
 5553              		.loc 1 1190 0 is_stmt 0 discriminator 2
 5554 2542 FFF7FEFF 		bl	e_uart2_sending
 5555              	.LVL517:
 5556 2546 0028     		cmp	r0, #0
 5557 2548 FBD1     		bne	.L300
 5558 254a FDF733BE 		b	.L732
 5559              	.L275:
 5560              		.loc 1 1109 0 is_stmt 1
 5561 254e FFF7FEFF 		bl	e_send_uart2_char
 5562              	.LVL518:
 5563              	.L277:
 5564              		.loc 1 1109 0 is_stmt 0 discriminator 2
 5565 2552 FFF7FEFF 		bl	e_uart2_sending
 5566              	.LVL519:
 5567 2556 0028     		cmp	r0, #0
 5568 2558 FBD1     		bne	.L277
 5569 255a FDF72BBE 		b	.L732
 5570              	.L423:
 5571              		.loc 1 1540 0 is_stmt 1
 5572 255e FFF7FEFF 		bl	e_send_uart2_char
 5573              	.LVL520:
 5574              	.L425:
 5575              		.loc 1 1540 0 is_stmt 0 discriminator 2
 5576 2562 FFF7FEFF 		bl	e_uart2_sending
 5577              	.LVL521:
 5578 2566 0028     		cmp	r0, #0
 5579 2568 FBD1     		bne	.L425
 5580 256a FDF723BE 		b	.L732
 5581              	.L287:
 5582              		.loc 1 1153 0 is_stmt 1
 5583 256e FFF7FEFF 		bl	e_send_uart2_char
 5584              	.LVL522:
 5585              	.L289:
 5586              		.loc 1 1153 0 is_stmt 0 discriminator 2
ARM GAS  /tmp/ccZueut9.s 			page 99


 5587 2572 FFF7FEFF 		bl	e_uart2_sending
 5588              	.LVL523:
 5589 2576 0028     		cmp	r0, #0
 5590 2578 FBD1     		bne	.L289
 5591 257a FDF71BBE 		b	.L732
 5592              	.L293:
 5593              		.loc 1 1175 0 is_stmt 1
 5594 257e FFF7FEFF 		bl	e_send_uart2_char
 5595              	.LVL524:
 5596              	.L295:
 5597              		.loc 1 1175 0 is_stmt 0 discriminator 2
 5598 2582 FFF7FEFF 		bl	e_uart2_sending
 5599              	.LVL525:
 5600 2586 0028     		cmp	r0, #0
 5601 2588 FBD1     		bne	.L295
 5602 258a FDF713BE 		b	.L732
 5603              	.L290:
 5604              		.loc 1 1164 0 is_stmt 1
 5605 258e FFF7FEFF 		bl	e_send_uart2_char
 5606              	.LVL526:
 5607              	.L292:
 5608              		.loc 1 1164 0 is_stmt 0 discriminator 2
 5609 2592 FFF7FEFF 		bl	e_uart2_sending
 5610              	.LVL527:
 5611 2596 0028     		cmp	r0, #0
 5612 2598 FBD1     		bne	.L292
 5613 259a FDF70BBE 		b	.L732
 5614              	.L278:
 5615              		.loc 1 1120 0 is_stmt 1
 5616 259e FFF7FEFF 		bl	e_send_uart2_char
 5617              	.LVL528:
 5618              	.L280:
 5619              		.loc 1 1120 0 is_stmt 0 discriminator 2
 5620 25a2 FFF7FEFF 		bl	e_uart2_sending
 5621              	.LVL529:
 5622 25a6 0028     		cmp	r0, #0
 5623 25a8 FBD1     		bne	.L280
 5624 25aa FDF703BE 		b	.L732
 5625              	.L403:
 5626              		.loc 1 1483 0 is_stmt 1
 5627 25ae FFF7FEFF 		bl	e_send_uart2_char
 5628              	.LVL530:
 5629              	.L405:
 5630              		.loc 1 1483 0 is_stmt 0 discriminator 2
 5631 25b2 FFF7FEFF 		bl	e_uart2_sending
 5632              	.LVL531:
 5633 25b6 0028     		cmp	r0, #0
 5634 25b8 FBD1     		bne	.L405
 5635 25ba FDF7FBBD 		b	.L732
 5636              	.L400:
 5637              		.loc 1 1463 0 is_stmt 1
 5638 25be FFF7FEFF 		bl	e_send_uart2_char
 5639              	.LVL532:
 5640              	.L402:
 5641              		.loc 1 1463 0 is_stmt 0 discriminator 2
 5642 25c2 FFF7FEFF 		bl	e_uart2_sending
 5643              	.LVL533:
ARM GAS  /tmp/ccZueut9.s 			page 100


 5644 25c6 0028     		cmp	r0, #0
 5645 25c8 FBD1     		bne	.L402
 5646 25ca FDF7F3BD 		b	.L732
 5647              	.L397:
 5648              		.loc 1 1453 0 is_stmt 1
 5649 25ce FFF7FEFF 		bl	e_send_uart2_char
 5650              	.LVL534:
 5651              	.L399:
 5652              		.loc 1 1453 0 is_stmt 0 discriminator 2
 5653 25d2 FFF7FEFF 		bl	e_uart2_sending
 5654              	.LVL535:
 5655 25d6 0028     		cmp	r0, #0
 5656 25d8 FBD1     		bne	.L399
 5657 25da FDF7EBBD 		b	.L732
 5658              	.L391:
 5659              		.loc 1 1429 0 is_stmt 1
 5660 25de FFF7FEFF 		bl	e_send_uart2_char
 5661              	.LVL536:
 5662              	.L393:
 5663              		.loc 1 1429 0 is_stmt 0 discriminator 2
 5664 25e2 FFF7FEFF 		bl	e_uart2_sending
 5665              	.LVL537:
 5666 25e6 0028     		cmp	r0, #0
 5667 25e8 FBD1     		bne	.L393
 5668 25ea FDF7E3BD 		b	.L732
 5669              	.L385:
 5670              		.loc 1 1386 0 is_stmt 1
 5671 25ee FFF7FEFF 		bl	e_send_uart2_char
 5672              	.LVL538:
 5673              	.L387:
 5674              		.loc 1 1386 0 is_stmt 0 discriminator 2
 5675 25f2 FFF7FEFF 		bl	e_uart2_sending
 5676              	.LVL539:
 5677 25f6 0028     		cmp	r0, #0
 5678 25f8 FBD1     		bne	.L387
 5679 25fa FDF7DBBD 		b	.L732
 5680              	.L835:
 5681 25fe 00BF     		.align	2
 5682              	.L834:
 5683 2600 00000000 		.word	.LANCHOR0
 5684 2604 480B0000 		.word	.LC95
 5685 2608 00000000 		.word	buffer
 5686 260c BC0A0000 		.word	.LC86
 5687 2610 78000000 		.word	.LC3
 5688 2614 08010000 		.word	.LC14
 5689 2618 6C000000 		.word	.LC2
 5690 261c 00000000 		.word	SDU1
 5691 2620 640B0000 		.word	.LC97
 5692              	.L301:
 5693              		.loc 1 1275 0 is_stmt 1
 5694 2624 FFF7FEFF 		bl	e_send_uart2_char
 5695              	.LVL540:
 5696              	.L335:
 5697              		.loc 1 1275 0 is_stmt 0 discriminator 2
 5698 2628 FFF7FEFF 		bl	e_uart2_sending
 5699              	.LVL541:
 5700 262c 0028     		cmp	r0, #0
ARM GAS  /tmp/ccZueut9.s 			page 101


 5701 262e FBD1     		bne	.L335
 5702              		.loc 1 1276 0 is_stmt 1
 5703 2630 FFF7FEFF 		bl	isEpuckVersion1_3
 5704              	.LVL542:
 5705 2634 0028     		cmp	r0, #0
 5706 2636 00F04781 		beq	.L810
 5707              	.L336:
 5708              		.loc 1 1279 0
 5709 263a FFF7FEFF 		bl	isEpuckVersion1_3
 5710              	.LVL543:
 5711 263e 0028     		cmp	r0, #0
 5712 2640 00F03981 		beq	.L338
 5713              		.loc 1 1280 0
 5714 2644 1921     		movs	r1, #25
 5715 2646 B748     		ldr	r0, .L836
 5716 2648 FFF7FEFF 		bl	e_send_uart2_char
 5717              	.LVL544:
 5718              	.L339:
 5719              		.loc 1 1280 0 is_stmt 0 discriminator 2
 5720 264c FFF7FEFF 		bl	e_uart2_sending
 5721              	.LVL545:
 5722 2650 0028     		cmp	r0, #0
 5723 2652 FBD1     		bne	.L339
 5724              	.L340:
 5725              		.loc 1 1284 0 is_stmt 1
 5726 2654 2B21     		movs	r1, #43
 5727 2656 B448     		ldr	r0, .L836+4
 5728 2658 FFF7FEFF 		bl	e_send_uart2_char
 5729              	.LVL546:
 5730              	.L342:
 5731              		.loc 1 1284 0 is_stmt 0 discriminator 2
 5732 265c FFF7FEFF 		bl	e_uart2_sending
 5733              	.LVL547:
 5734 2660 0028     		cmp	r0, #0
 5735 2662 FBD1     		bne	.L342
 5736              		.loc 1 1285 0 is_stmt 1
 5737 2664 1D21     		movs	r1, #29
 5738 2666 B148     		ldr	r0, .L836+8
 5739 2668 FFF7FEFF 		bl	e_send_uart2_char
 5740              	.LVL548:
 5741              	.L343:
 5742              		.loc 1 1285 0 is_stmt 0 discriminator 2
 5743 266c FFF7FEFF 		bl	e_uart2_sending
 5744              	.LVL549:
 5745 2670 0028     		cmp	r0, #0
 5746 2672 FBD1     		bne	.L343
 5747              		.loc 1 1286 0 is_stmt 1
 5748 2674 2621     		movs	r1, #38
 5749 2676 AE48     		ldr	r0, .L836+12
 5750 2678 FFF7FEFF 		bl	e_send_uart2_char
 5751              	.LVL550:
 5752              	.L344:
 5753              		.loc 1 1286 0 is_stmt 0 discriminator 2
 5754 267c FFF7FEFF 		bl	e_uart2_sending
 5755              	.LVL551:
 5756 2680 0028     		cmp	r0, #0
 5757 2682 FBD1     		bne	.L344
ARM GAS  /tmp/ccZueut9.s 			page 102


 5758              		.loc 1 1287 0 is_stmt 1
 5759 2684 2621     		movs	r1, #38
 5760 2686 AB48     		ldr	r0, .L836+16
 5761 2688 FFF7FEFF 		bl	e_send_uart2_char
 5762              	.LVL552:
 5763              	.L345:
 5764              		.loc 1 1287 0 is_stmt 0 discriminator 2
 5765 268c FFF7FEFF 		bl	e_uart2_sending
 5766              	.LVL553:
 5767 2690 0028     		cmp	r0, #0
 5768 2692 FBD1     		bne	.L345
 5769              		.loc 1 1288 0 is_stmt 1
 5770 2694 2C21     		movs	r1, #44
 5771 2696 A848     		ldr	r0, .L836+20
 5772 2698 FFF7FEFF 		bl	e_send_uart2_char
 5773              	.LVL554:
 5774              	.L346:
 5775              		.loc 1 1288 0 is_stmt 0 discriminator 2
 5776 269c FFF7FEFF 		bl	e_uart2_sending
 5777              	.LVL555:
 5778 26a0 0028     		cmp	r0, #0
 5779 26a2 FBD1     		bne	.L346
 5780              		.loc 1 1290 0 is_stmt 1
 5781 26a4 1721     		movs	r1, #23
 5782 26a6 A548     		ldr	r0, .L836+24
 5783 26a8 FFF7FEFF 		bl	e_send_uart2_char
 5784              	.LVL556:
 5785              	.L347:
 5786              		.loc 1 1290 0 is_stmt 0 discriminator 2
 5787 26ac FFF7FEFF 		bl	e_uart2_sending
 5788              	.LVL557:
 5789 26b0 0028     		cmp	r0, #0
 5790 26b2 FBD1     		bne	.L347
 5791              		.loc 1 1292 0 is_stmt 1
 5792 26b4 1021     		movs	r1, #16
 5793 26b6 A248     		ldr	r0, .L836+28
 5794 26b8 FFF7FEFF 		bl	e_send_uart2_char
 5795              	.LVL558:
 5796              	.L348:
 5797              		.loc 1 1292 0 is_stmt 0 discriminator 2
 5798 26bc FFF7FEFF 		bl	e_uart2_sending
 5799              	.LVL559:
 5800 26c0 0028     		cmp	r0, #0
 5801 26c2 FBD1     		bne	.L348
 5802              		.loc 1 1293 0 is_stmt 1
 5803 26c4 2221     		movs	r1, #34
 5804 26c6 9F48     		ldr	r0, .L836+32
 5805 26c8 FFF7FEFF 		bl	e_send_uart2_char
 5806              	.LVL560:
 5807              	.L349:
 5808              		.loc 1 1293 0 is_stmt 0 discriminator 2
 5809 26cc FFF7FEFF 		bl	e_uart2_sending
 5810              	.LVL561:
 5811 26d0 0028     		cmp	r0, #0
 5812 26d2 FBD1     		bne	.L349
 5813              		.loc 1 1294 0 is_stmt 1
 5814 26d4 4D21     		movs	r1, #77
ARM GAS  /tmp/ccZueut9.s 			page 103


 5815 26d6 9C48     		ldr	r0, .L836+36
 5816 26d8 FFF7FEFF 		bl	e_send_uart2_char
 5817              	.LVL562:
 5818              	.L350:
 5819              		.loc 1 1294 0 is_stmt 0 discriminator 2
 5820 26dc FFF7FEFF 		bl	e_uart2_sending
 5821              	.LVL563:
 5822 26e0 0028     		cmp	r0, #0
 5823 26e2 FBD1     		bne	.L350
 5824              		.loc 1 1295 0 is_stmt 1
 5825 26e4 2721     		movs	r1, #39
 5826 26e6 9948     		ldr	r0, .L836+40
 5827 26e8 FFF7FEFF 		bl	e_send_uart2_char
 5828              	.LVL564:
 5829              	.L351:
 5830              		.loc 1 1295 0 is_stmt 0 discriminator 2
 5831 26ec FFF7FEFF 		bl	e_uart2_sending
 5832              	.LVL565:
 5833 26f0 0028     		cmp	r0, #0
 5834 26f2 FBD1     		bne	.L351
 5835              		.loc 1 1296 0 is_stmt 1
 5836 26f4 2B21     		movs	r1, #43
 5837 26f6 9648     		ldr	r0, .L836+44
 5838 26f8 FFF7FEFF 		bl	e_send_uart2_char
 5839              	.LVL566:
 5840              	.L352:
 5841              		.loc 1 1296 0 is_stmt 0 discriminator 2
 5842 26fc FFF7FEFF 		bl	e_uart2_sending
 5843              	.LVL567:
 5844 2700 0028     		cmp	r0, #0
 5845 2702 FBD1     		bne	.L352
 5846              		.loc 1 1298 0 is_stmt 1
 5847 2704 1921     		movs	r1, #25
 5848 2706 9348     		ldr	r0, .L836+48
 5849 2708 FFF7FEFF 		bl	e_send_uart2_char
 5850              	.LVL568:
 5851              	.L353:
 5852              		.loc 1 1298 0 is_stmt 0 discriminator 2
 5853 270c FFF7FEFF 		bl	e_uart2_sending
 5854              	.LVL569:
 5855 2710 0028     		cmp	r0, #0
 5856 2712 FBD1     		bne	.L353
 5857              		.loc 1 1300 0 is_stmt 1
 5858 2714 1521     		movs	r1, #21
 5859 2716 9048     		ldr	r0, .L836+52
 5860 2718 FFF7FEFF 		bl	e_send_uart2_char
 5861              	.LVL570:
 5862              	.L354:
 5863              		.loc 1 1300 0 is_stmt 0 discriminator 2
 5864 271c FFF7FEFF 		bl	e_uart2_sending
 5865              	.LVL571:
 5866 2720 0028     		cmp	r0, #0
 5867 2722 FBD1     		bne	.L354
 5868              		.loc 1 1301 0 is_stmt 1
 5869 2724 1921     		movs	r1, #25
 5870 2726 8D48     		ldr	r0, .L836+56
 5871 2728 FFF7FEFF 		bl	e_send_uart2_char
ARM GAS  /tmp/ccZueut9.s 			page 104


 5872              	.LVL572:
 5873              	.L355:
 5874              		.loc 1 1301 0 is_stmt 0 discriminator 2
 5875 272c FFF7FEFF 		bl	e_uart2_sending
 5876              	.LVL573:
 5877 2730 0028     		cmp	r0, #0
 5878 2732 FBD1     		bne	.L355
 5879              		.loc 1 1302 0 is_stmt 1
 5880 2734 2921     		movs	r1, #41
 5881 2736 8A48     		ldr	r0, .L836+60
 5882 2738 FFF7FEFF 		bl	e_send_uart2_char
 5883              	.LVL574:
 5884              	.L356:
 5885              		.loc 1 1302 0 is_stmt 0 discriminator 2
 5886 273c FFF7FEFF 		bl	e_uart2_sending
 5887              	.LVL575:
 5888 2740 0028     		cmp	r0, #0
 5889 2742 FBD1     		bne	.L356
 5890              		.loc 1 1303 0 is_stmt 1
 5891 2744 2921     		movs	r1, #41
 5892 2746 8748     		ldr	r0, .L836+64
 5893 2748 FFF7FEFF 		bl	e_send_uart2_char
 5894              	.LVL576:
 5895              	.L357:
 5896              		.loc 1 1303 0 is_stmt 0 discriminator 2
 5897 274c FFF7FEFF 		bl	e_uart2_sending
 5898              	.LVL577:
 5899 2750 0028     		cmp	r0, #0
 5900 2752 FBD1     		bne	.L357
 5901              		.loc 1 1304 0 is_stmt 1
 5902 2754 1821     		movs	r1, #24
 5903 2756 8448     		ldr	r0, .L836+68
 5904 2758 FFF7FEFF 		bl	e_send_uart2_char
 5905              	.LVL578:
 5906              	.L358:
 5907              		.loc 1 1304 0 is_stmt 0 discriminator 2
 5908 275c FFF7FEFF 		bl	e_uart2_sending
 5909              	.LVL579:
 5910 2760 0028     		cmp	r0, #0
 5911 2762 FBD1     		bne	.L358
 5912              		.loc 1 1305 0 is_stmt 1
 5913 2764 2921     		movs	r1, #41
 5914 2766 8148     		ldr	r0, .L836+72
 5915 2768 FFF7FEFF 		bl	e_send_uart2_char
 5916              	.LVL580:
 5917              	.L359:
 5918              		.loc 1 1305 0 is_stmt 0 discriminator 2
 5919 276c FFF7FEFF 		bl	e_uart2_sending
 5920              	.LVL581:
 5921 2770 0028     		cmp	r0, #0
 5922 2772 FBD1     		bne	.L359
 5923              		.loc 1 1306 0 is_stmt 1
 5924 2774 2C21     		movs	r1, #44
 5925 2776 7E48     		ldr	r0, .L836+76
 5926 2778 FFF7FEFF 		bl	e_send_uart2_char
 5927              	.LVL582:
 5928              	.L360:
ARM GAS  /tmp/ccZueut9.s 			page 105


 5929              		.loc 1 1306 0 is_stmt 0 discriminator 2
 5930 277c FFF7FEFF 		bl	e_uart2_sending
 5931              	.LVL583:
 5932 2780 0028     		cmp	r0, #0
 5933 2782 FBD1     		bne	.L360
 5934              		.loc 1 1307 0 is_stmt 1
 5935 2784 2421     		movs	r1, #36
 5936 2786 7B48     		ldr	r0, .L836+80
 5937 2788 FFF7FEFF 		bl	e_send_uart2_char
 5938              	.LVL584:
 5939              	.L361:
 5940              		.loc 1 1307 0 is_stmt 0 discriminator 2
 5941 278c FFF7FEFF 		bl	e_uart2_sending
 5942              	.LVL585:
 5943 2790 0028     		cmp	r0, #0
 5944 2792 FBD1     		bne	.L361
 5945              		.loc 1 1308 0 is_stmt 1
 5946 2794 1D21     		movs	r1, #29
 5947 2796 7848     		ldr	r0, .L836+84
 5948 2798 FFF7FEFF 		bl	e_send_uart2_char
 5949              	.LVL586:
 5950              	.L362:
 5951              		.loc 1 1308 0 is_stmt 0 discriminator 2
 5952 279c FFF7FEFF 		bl	e_uart2_sending
 5953              	.LVL587:
 5954 27a0 0028     		cmp	r0, #0
 5955 27a2 FBD1     		bne	.L362
 5956              		.loc 1 1309 0 is_stmt 1
 5957 27a4 2521     		movs	r1, #37
 5958 27a6 7548     		ldr	r0, .L836+88
 5959 27a8 FFF7FEFF 		bl	e_send_uart2_char
 5960              	.LVL588:
 5961              	.L363:
 5962              		.loc 1 1309 0 is_stmt 0 discriminator 2
 5963 27ac FFF7FEFF 		bl	e_uart2_sending
 5964              	.LVL589:
 5965 27b0 0028     		cmp	r0, #0
 5966 27b2 FBD1     		bne	.L363
 5967              		.loc 1 1310 0 is_stmt 1
 5968 27b4 2421     		movs	r1, #36
 5969 27b6 7248     		ldr	r0, .L836+92
 5970 27b8 FFF7FEFF 		bl	e_send_uart2_char
 5971              	.LVL590:
 5972              	.L364:
 5973              		.loc 1 1310 0 is_stmt 0 discriminator 2
 5974 27bc FFF7FEFF 		bl	e_uart2_sending
 5975              	.LVL591:
 5976 27c0 0028     		cmp	r0, #0
 5977 27c2 FBD1     		bne	.L364
 5978 27c4 FDF7F6BC 		b	.L732
 5979              	.L415:
 5980              		.loc 1 1514 0 is_stmt 1
 5981 27c8 FFF7FEFF 		bl	e_send_uart2_char
 5982              	.LVL592:
 5983              	.L417:
 5984              		.loc 1 1514 0 is_stmt 0 discriminator 2
 5985 27cc FFF7FEFF 		bl	e_uart2_sending
ARM GAS  /tmp/ccZueut9.s 			page 106


 5986              	.LVL593:
 5987 27d0 0028     		cmp	r0, #0
 5988 27d2 FBD1     		bne	.L417
 5989 27d4 FDF7EEBC 		b	.L732
 5990              	.L437:
 5991              		.loc 1 1580 0 is_stmt 1
 5992 27d8 FFF7FEFF 		bl	strlen
 5993              	.LVL594:
 5994 27dc 0146     		mov	r1, r0
 5995 27de 6948     		ldr	r0, .L836+96
 5996 27e0 FFF7FEFF 		bl	e_send_uart2_char
 5997              	.LVL595:
 5998              	.L440:
 5999              		.loc 1 1580 0 is_stmt 0 discriminator 2
 6000 27e4 FFF7FEFF 		bl	e_uart2_sending
 6001              	.LVL596:
 6002 27e8 0028     		cmp	r0, #0
 6003 27ea FBD1     		bne	.L440
 6004              		.loc 1 1582 0 is_stmt 1
 6005 27ec FFF7FEFF 		bl	e_i2cp_enable
 6006              	.LVL597:
 6007              		.loc 1 1583 0
 6008 27f0 654B     		ldr	r3, .L836+100
 6009 27f2 1978     		ldrb	r1, [r3]	@ zero_extendqisi2
 6010 27f4 654B     		ldr	r3, .L836+104
 6011 27f6 1878     		ldrb	r0, [r3]	@ zero_extendqisi2
 6012 27f8 FFF7FEFF 		bl	e_i2cp_read
 6013              	.LVL598:
 6014 27fc 644B     		ldr	r3, .L836+108
 6015 27fe 1C46     		mov	r4, r3
 6016 2800 1860     		str	r0, [r3]
 6017              		.loc 1 1584 0
 6018 2802 FFF7FEFF 		bl	e_i2cp_disable
 6019              	.LVL599:
 6020              		.loc 1 1585 0
 6021 2806 6349     		ldr	r1, .L836+112
 6022 2808 2268     		ldr	r2, [r4]
 6023 280a 5E48     		ldr	r0, .L836+96
 6024 280c FFF7FEFF 		bl	sprintf
 6025              	.LVL600:
 6026              		.loc 1 1589 0
 6027 2810 5C48     		ldr	r0, .L836+96
 6028 2812 FFF7FEFF 		bl	strlen
 6029              	.LVL601:
 6030 2816 0146     		mov	r1, r0
 6031 2818 5A48     		ldr	r0, .L836+96
 6032 281a FFF7FEFF 		bl	e_send_uart2_char
 6033              	.LVL602:
 6034              	.L443:
 6035              		.loc 1 1589 0 is_stmt 0 discriminator 2
 6036 281e FFF7FEFF 		bl	e_uart2_sending
 6037              	.LVL603:
 6038 2822 0028     		cmp	r0, #0
 6039 2824 FBD1     		bne	.L443
 6040 2826 FDF7C5BC 		b	.L732
 6041              	.L368:
 6042              		.loc 1 1331 0 is_stmt 1
ARM GAS  /tmp/ccZueut9.s 			page 107


 6043 282a 109B     		ldr	r3, [sp, #64]
 6044 282c 1A68     		ldr	r2, [r3]
 6045 282e 119B     		ldr	r3, [sp, #68]
 6046 2830 1B68     		ldr	r3, [r3]
 6047 2832 03FB02F3 		mul	r3, r3, r2
 6048 2836 0E9A     		ldr	r2, [sp, #56]
 6049 2838 5B00     		lsls	r3, r3, #1
 6050 283a 1360     		str	r3, [r2]
 6051 283c FFF70CB9 		b	.L369
 6052              	.L388:
 6053              		.loc 1 1397 0
 6054 2840 FFF7FEFF 		bl	strlen
 6055              	.LVL604:
 6056 2844 0146     		mov	r1, r0
 6057 2846 4F48     		ldr	r0, .L836+96
 6058 2848 FFF7FEFF 		bl	e_send_uart2_char
 6059              	.LVL605:
 6060              	.L390:
 6061              		.loc 1 1397 0 is_stmt 0 discriminator 2
 6062 284c FFF7FEFF 		bl	e_uart2_sending
 6063              	.LVL606:
 6064 2850 0028     		cmp	r0, #0
 6065 2852 FBD1     		bne	.L390
 6066 2854 FDF7AEBC 		b	.L732
 6067              	.L434:
 6068              		.loc 1 1569 0 is_stmt 1
 6069 2858 FFF7FEFF 		bl	e_send_uart2_char
 6070              	.LVL607:
 6071              	.L436:
 6072              		.loc 1 1569 0 is_stmt 0 discriminator 2
 6073 285c FFF7FEFF 		bl	e_uart2_sending
 6074              	.LVL608:
 6075 2860 0028     		cmp	r0, #0
 6076 2862 FBD1     		bne	.L436
 6077 2864 FDF7A6BC 		b	.L732
 6078              	.L365:
 6079              		.loc 1 1319 0 is_stmt 1
 6080 2868 FFF7FEFF 		bl	strlen
 6081              	.LVL609:
 6082 286c 0146     		mov	r1, r0
 6083 286e 4548     		ldr	r0, .L836+96
 6084 2870 FFF7FEFF 		bl	e_send_uart2_char
 6085              	.LVL610:
 6086              	.L367:
 6087              		.loc 1 1319 0 is_stmt 0 discriminator 2
 6088 2874 FFF7FEFF 		bl	e_uart2_sending
 6089              	.LVL611:
 6090 2878 0028     		cmp	r0, #0
 6091 287a FBD1     		bne	.L367
 6092 287c FDF79ABC 		b	.L732
 6093              	.L407:
 6094              		.loc 1 1504 0 is_stmt 1
 6095 2880 FFF7FEFF 		bl	e_close_sound
 6096              	.LVL612:
 6097              		.loc 1 1505 0
 6098 2884 FFF7FEFF 		bl	stopCurrentMelody
 6099              	.LVL613:
ARM GAS  /tmp/ccZueut9.s 			page 108


 6100              		.loc 1 1506 0
 6101 2888 434A     		ldr	r2, .L836+116
 6102 288a 0023     		movs	r3, #0
 6103 288c 1370     		strb	r3, [r2]
 6104              		.loc 1 1507 0
 6105 288e FFF7C2BA 		b	.L414
 6106              	.L374:
 6107              		.loc 1 1350 0
 6108 2892 FFF7FEFF 		bl	e_send_uart2_char
 6109              	.LVL614:
 6110              	.L376:
 6111              		.loc 1 1350 0 is_stmt 0 discriminator 2
 6112 2896 FFF7FEFF 		bl	e_uart2_sending
 6113              	.LVL615:
 6114 289a 0028     		cmp	r0, #0
 6115 289c FBD1     		bne	.L376
 6116 289e FDF789BC 		b	.L732
 6117              	.L305:
 6118              		.loc 1 1240 0 is_stmt 1
 6119 28a2 2F21     		movs	r1, #47
 6120 28a4 3D48     		ldr	r0, .L836+120
 6121 28a6 FFF7FEFF 		bl	e_send_uart1_char
 6122              	.LVL616:
 6123              	.L308:
 6124              		.loc 1 1240 0 is_stmt 0 discriminator 2
 6125 28aa FFF7FEFF 		bl	e_uart1_sending
 6126              	.LVL617:
 6127 28ae 0028     		cmp	r0, #0
 6128 28b0 FBD1     		bne	.L308
 6129 28b2 FFF7CEB9 		b	.L307
 6130              	.L338:
 6131              		.loc 1 1282 0 is_stmt 1
 6132 28b6 2721     		movs	r1, #39
 6133 28b8 3948     		ldr	r0, .L836+124
 6134 28ba FFF7FEFF 		bl	e_send_uart2_char
 6135              	.LVL618:
 6136              	.L341:
 6137              		.loc 1 1282 0 is_stmt 0 discriminator 2
 6138 28be FFF7FEFF 		bl	e_uart2_sending
 6139              	.LVL619:
 6140 28c2 0028     		cmp	r0, #0
 6141 28c4 FBD1     		bne	.L341
 6142 28c6 C5E6     		b	.L340
 6143              	.L810:
 6144              		.loc 1 1277 0 is_stmt 1
 6145 28c8 1921     		movs	r1, #25
 6146 28ca 3648     		ldr	r0, .L836+128
 6147 28cc FFF7FEFF 		bl	e_send_uart2_char
 6148              	.LVL620:
 6149              	.L337:
 6150              		.loc 1 1277 0 is_stmt 0 discriminator 2
 6151 28d0 FFF7FEFF 		bl	e_uart2_sending
 6152              	.LVL621:
 6153 28d4 0028     		cmp	r0, #0
 6154 28d6 FBD1     		bne	.L337
 6155 28d8 AFE6     		b	.L336
 6156              	.L809:
ARM GAS  /tmp/ccZueut9.s 			page 109


 6157              		.loc 1 1268 0 is_stmt 1
 6158 28da 1F21     		movs	r1, #31
 6159 28dc 3248     		ldr	r0, .L836+132
 6160 28de FFF7FEFF 		bl	e_send_uart1_char
 6161              	.LVL622:
 6162              	.L330:
 6163              		.loc 1 1268 0 is_stmt 0 discriminator 2
 6164 28e2 FFF7FEFF 		bl	e_uart1_sending
 6165              	.LVL623:
 6166 28e6 0028     		cmp	r0, #0
 6167 28e8 FBD1     		bne	.L330
 6168 28ea FFF74CBA 		b	.L329
 6169              	.L808:
 6170              		.loc 1 1250 0 is_stmt 1
 6171 28ee 1821     		movs	r1, #24
 6172 28f0 2E48     		ldr	r0, .L836+136
 6173 28f2 FFF7FEFF 		bl	e_send_uart1_char
 6174              	.LVL624:
 6175              	.L315:
 6176              		.loc 1 1250 0 is_stmt 0 discriminator 2
 6177 28f6 FFF7FEFF 		bl	e_uart1_sending
 6178              	.LVL625:
 6179 28fa 0028     		cmp	r0, #0
 6180 28fc FBD1     		bne	.L315
 6181 28fe FFF7D5B9 		b	.L314
 6182              	.L268:
 6183              		.loc 1 1103 0 is_stmt 1
 6184 2902 FFF7FEFF 		bl	getBatteryValueRaw
 6185              	.LVL626:
 6186 2906 0446     		mov	r4, r0
 6187 2908 FFF7FEFF 		bl	getBatteryValuePercentage
 6188              	.LVL627:
 6189 290c 2246     		mov	r2, r4
 6190 290e 0346     		mov	r3, r0
 6191 2910 2749     		ldr	r1, .L836+140
 6192 2912 1C48     		ldr	r0, .L836+96
 6193 2914 FFF7FEFF 		bl	sprintf
 6194              	.LVL628:
 6195              		.loc 1 1104 0
 6196 2918 BBF1000F 		cmp	fp, #0
 6197 291c 3FF410AD 		beq	.L458
 6198 2920 FDF7B8BB 		b	.L5
 6199              	.L837:
 6200              		.align	2
 6201              	.L836:
 6202 2924 00060000 		.word	.LC45
 6203 2928 44060000 		.word	.LC47
 6204 292c 70060000 		.word	.LC48
 6205 2930 90060000 		.word	.LC49
 6206 2934 B8060000 		.word	.LC50
 6207 2938 E0060000 		.word	.LC51
 6208 293c 10070000 		.word	.LC52
 6209 2940 28070000 		.word	.LC53
 6210 2944 3C070000 		.word	.LC54
 6211 2948 60070000 		.word	.LC55
 6212 294c B0070000 		.word	.LC56
 6213 2950 D8070000 		.word	.LC57
ARM GAS  /tmp/ccZueut9.s 			page 110


 6214 2954 04080000 		.word	.LC58
 6215 2958 20080000 		.word	.LC59
 6216 295c 38080000 		.word	.LC60
 6217 2960 54080000 		.word	.LC61
 6218 2964 80080000 		.word	.LC62
 6219 2968 AC080000 		.word	.LC63
 6220 296c C8080000 		.word	.LC64
 6221 2970 F4080000 		.word	.LC65
 6222 2974 24090000 		.word	.LC66
 6223 2978 4C090000 		.word	.LC67
 6224 297c 6C090000 		.word	.LC68
 6225 2980 94090000 		.word	.LC69
 6226 2984 00000000 		.word	buffer
 6227 2988 00000000 		.word	.LANCHOR25
 6228 298c 00000000 		.word	.LANCHOR24
 6229 2990 00000000 		.word	.LANCHOR26
 6230 2994 5C0B0000 		.word	.LC96
 6231 2998 00000000 		.word	.LANCHOR8
 6232 299c 94010000 		.word	.LC19
 6233 29a0 1C060000 		.word	.LC46
 6234 29a4 E4050000 		.word	.LC44
 6235 29a8 14050000 		.word	.LC39
 6236 29ac A0020000 		.word	.LC25
 6237 29b0 78000000 		.word	.LC3
 6238              	.LVL629:
 6239              	.L461:
 6240              	.LBE7:
 6241              		.loc 1 105 0
 6242 29b4 0123     		movs	r3, #1
 6243 29b6 0793     		str	r3, [sp, #28]
 6244              	.LVL630:
 6245              	.L2:
 6246              		.loc 1 117 0
 6247 29b8 FFF7FEFF 		bl	e_i2cp_init
 6248              	.LVL631:
 6249              		.loc 1 133 0
 6250 29bc 2D4C     		ldr	r4, .L838
 6251              		.loc 1 135 0
 6252 29be 2E4E     		ldr	r6, .L838+4
 6253              		.loc 1 136 0
 6254 29c0 2E4F     		ldr	r7, .L838+8
 6255              		.loc 1 122 0
 6256 29c2 FFF7FEFF 		bl	e_init_remote_control
 6257              	.LVL632:
 6258              		.loc 1 130 0
 6259 29c6 0123     		movs	r3, #1
 6260 29c8 2D4A     		ldr	r2, .L838+12
 6261              		.loc 1 133 0
 6262 29ca 1294     		str	r4, [sp, #72]
 6263              		.loc 1 130 0
 6264 29cc 4FF6FE71 		movw	r1, #65534
 6265 29d0 7F20     		movs	r0, #127
 6266              		.loc 1 135 0
 6267 29d2 1096     		str	r6, [sp, #64]
 6268              		.loc 1 136 0
 6269 29d4 1197     		str	r7, [sp, #68]
 6270              		.loc 1 130 0
ARM GAS  /tmp/ccZueut9.s 			page 111


 6271 29d6 FFF7FEFF 		bl	ReadEE
 6272              	.LVL633:
 6273              		.loc 1 138 0
 6274 29da 2A4B     		ldr	r3, .L838+16
 6275              		.loc 1 140 0
 6276 29dc 2A4A     		ldr	r2, .L838+20
 6277              		.loc 1 138 0
 6278 29de 0E93     		str	r3, [sp, #56]
 6279              		.loc 1 133 0
 6280 29e0 0123     		movs	r3, #1
 6281              		.loc 1 137 0
 6282 29e2 2A48     		ldr	r0, .L838+24
 6283              		.loc 1 140 0
 6284 29e4 1268     		ldr	r2, [r2]
 6285              		.loc 1 133 0
 6286 29e6 2360     		str	r3, [r4]
 6287              		.loc 1 135 0
 6288 29e8 2823     		movs	r3, #40
 6289 29ea 3360     		str	r3, [r6]
 6290              		.loc 1 136 0
 6291 29ec 3B60     		str	r3, [r7]
 6292              		.loc 1 138 0
 6293 29ee 2549     		ldr	r1, .L838+16
 6294              		.loc 1 137 0
 6295 29f0 1390     		str	r0, [sp, #76]
 6296 29f2 0823     		movs	r3, #8
 6297 29f4 0360     		str	r3, [r0]
 6298              		.loc 1 140 0
 6299 29f6 0F2A     		cmp	r2, #15
 6300              		.loc 1 138 0
 6301 29f8 4FF44863 		mov	r3, #3200
 6302              		.loc 1 137 0
 6303 29fc 0546     		mov	r5, r0
 6304              		.loc 1 138 0
 6305 29fe 0B60     		str	r3, [r1]
 6306              		.loc 1 140 0
 6307 2a00 1AD0     		beq	.L4
 6308              		.loc 1 141 0
 6309 2a02 FFF7FEFF 		bl	e_poxxxx_init_cam
 6310              	.LVL634:
 6311              		.loc 1 142 0
 6312 2a06 2D68     		ldr	r5, [r5]
 6313 2a08 3268     		ldr	r2, [r6]
 6314 2a0a 3B68     		ldr	r3, [r7]
 6315 2a0c 2468     		ldr	r4, [r4]
 6316 2a0e 0294     		str	r4, [sp, #8]
 6317 2a10 02FB05F2 		mul	r2, r2, r5
 6318 2a14 03FB05F3 		mul	r3, r3, r5
 6319 2a18 C3F5F071 		rsb	r1, r3, #480
 6320 2a1c C2F52070 		rsb	r0, r2, #640
 6321 2a20 01EBD171 		add	r1, r1, r1, lsr #31
 6322 2a24 00EBD070 		add	r0, r0, r0, lsr #31
 6323 2a28 4910     		asrs	r1, r1, #1
 6324 2a2a 0195     		str	r5, [sp, #4]
 6325 2a2c 0095     		str	r5, [sp]
 6326 2a2e 4010     		asrs	r0, r0, #1
 6327 2a30 FFF7FEFF 		bl	e_poxxxx_config_cam
ARM GAS  /tmp/ccZueut9.s 			page 112


 6328              	.LVL635:
 6329              		.loc 1 143 0
 6330 2a34 FFF7FEFF 		bl	e_poxxxx_write_cam_registers
 6331              	.LVL636:
 6332              	.L4:
 6333              		.loc 1 151 0
 6334 2a38 079B     		ldr	r3, [sp, #28]
 6335 2a3a 63B1     		cbz	r3, .L811
 6336              		.loc 1 152 0
 6337 2a3c FFF7FEFF 		bl	e_acc_calibr
 6338              	.LVL637:
 6339              		.loc 1 153 0
 6340 2a40 5821     		movs	r1, #88
 6341 2a42 1348     		ldr	r0, .L838+28
 6342 2a44 FFF7FEFF 		bl	e_send_uart1_char
 6343              	.LVL638:
 6344              	.L6:
 6345              		.loc 1 153 0 is_stmt 0 discriminator 2
 6346 2a48 FFF7FEFF 		bl	e_uart1_sending
 6347              	.LVL639:
 6348 2a4c 0028     		cmp	r0, #0
 6349 2a4e FBD1     		bne	.L6
 6350              		.loc 1 112 0 is_stmt 1
 6351 2a50 8346     		mov	fp, r0
 6352 2a52 FDF715BB 		b	.L7
 6353              	.L811:
 6354              		.loc 1 157 0
 6355 2a56 FFF7FEFF 		bl	e_acc_calibr
 6356              	.LVL640:
 6357              		.loc 1 158 0
 6358 2a5a 5821     		movs	r1, #88
 6359 2a5c 0C48     		ldr	r0, .L838+28
 6360 2a5e FFF7FEFF 		bl	e_send_uart2_char
 6361              	.LVL641:
 6362              	.L8:
 6363              		.loc 1 158 0 is_stmt 0 discriminator 2
 6364 2a62 FFF7FEFF 		bl	e_uart2_sending
 6365              	.LVL642:
 6366 2a66 0790     		str	r0, [sp, #28]
 6367 2a68 0028     		cmp	r0, #0
 6368 2a6a FAD1     		bne	.L8
 6369              		.loc 1 112 0 is_stmt 1
 6370 2a6c 8346     		mov	fp, r0
 6371 2a6e FDF707BB 		b	.L7
 6372              	.L839:
 6373 2a72 00BF     		.align	2
 6374              	.L838:
 6375 2a74 00000000 		.word	.LANCHOR1
 6376 2a78 00000000 		.word	.LANCHOR2
 6377 2a7c 00000000 		.word	.LANCHOR3
 6378 2a80 00000000 		.word	.LANCHOR0
 6379 2a84 00000000 		.word	.LANCHOR5
 6380 2a88 00000000 		.word	selector
 6381 2a8c 00000000 		.word	.LANCHOR4
 6382 2a90 00000000 		.word	.LC0
 6383              		.cfi_endproc
 6384              	.LFE259:
ARM GAS  /tmp/ccZueut9.s 			page 113


 6385              		.size	run_asercom2, .-run_asercom2
 6386              		.section	.bss.LED_action.13457,"aw",%nobits
 6387              		.align	2
 6388              		.set	.LANCHOR27,. + 0
 6389              		.type	LED_action.13457, %object
 6390              		.size	LED_action.13457, 4
 6391              	LED_action.13457:
 6392 0000 00000000 		.space	4
 6393              		.section	.bss.LED_nbr.13456,"aw",%nobits
 6394              		.align	2
 6395              		.set	.LANCHOR30,. + 0
 6396              		.type	LED_nbr.13456, %object
 6397              		.size	LED_nbr.13456, 4
 6398              	LED_nbr.13456:
 6399 0000 00000000 		.space	4
 6400              		.section	.bss.accelero.13481,"aw",%nobits
 6401              		.align	2
 6402              		.set	.LANCHOR13,. + 0
 6403              		.type	accelero.13481, %object
 6404              		.size	accelero.13481, 12
 6405              	accelero.13481:
 6406 0000 00000000 		.space	12
 6406      00000000 
 6406      00000000 
 6407              		.section	.bss.accx.13458,"aw",%nobits
 6408              		.align	2
 6409              		.set	.LANCHOR10,. + 0
 6410              		.type	accx.13458, %object
 6411              		.size	accx.13458, 4
 6412              	accx.13458:
 6413 0000 00000000 		.space	4
 6414              		.section	.bss.accy.13459,"aw",%nobits
 6415              		.align	2
 6416              		.set	.LANCHOR11,. + 0
 6417              		.type	accy.13459, %object
 6418              		.size	accy.13459, 4
 6419              	accy.13459:
 6420 0000 00000000 		.space	4
 6421              		.section	.bss.accz.13460,"aw",%nobits
 6422              		.align	2
 6423              		.set	.LANCHOR12,. + 0
 6424              		.type	accz.13460, %object
 6425              		.size	accz.13460, 4
 6426              	accz.13460:
 6427 0000 00000000 		.space	4
 6428              		.section	.bss.c1.13446,"aw",%nobits
 6429              		.set	.LANCHOR19,. + 0
 6430              		.type	c1.13446, %object
 6431              		.size	c1.13446, 1
 6432              	c1.13446:
 6433 0000 00       		.space	1
 6434              		.section	.bss.c2.13447,"aw",%nobits
 6435              		.set	.LANCHOR20,. + 0
 6436              		.type	c2.13447, %object
 6437              		.size	c2.13447, 1
 6438              	c2.13447:
 6439 0000 00       		.space	1
ARM GAS  /tmp/ccZueut9.s 			page 114


 6440              		.section	.bss.cam_heigth.13467,"aw",%nobits
 6441              		.align	2
 6442              		.set	.LANCHOR3,. + 0
 6443              		.type	cam_heigth.13467, %object
 6444              		.size	cam_heigth.13467, 4
 6445              	cam_heigth.13467:
 6446 0000 00000000 		.space	4
 6447              		.section	.bss.cam_mode.13465,"aw",%nobits
 6448              		.align	2
 6449              		.set	.LANCHOR1,. + 0
 6450              		.type	cam_mode.13465, %object
 6451              		.size	cam_mode.13465, 4
 6452              	cam_mode.13465:
 6453 0000 00000000 		.space	4
 6454              		.section	.bss.cam_size.13469,"aw",%nobits
 6455              		.align	2
 6456              		.set	.LANCHOR5,. + 0
 6457              		.type	cam_size.13469, %object
 6458              		.size	cam_size.13469, 4
 6459              	cam_size.13469:
 6460 0000 00000000 		.space	4
 6461              		.section	.bss.cam_width.13466,"aw",%nobits
 6462              		.align	2
 6463              		.set	.LANCHOR2,. + 0
 6464              		.type	cam_width.13466, %object
 6465              		.size	cam_width.13466, 4
 6466              	cam_width.13466:
 6467 0000 00000000 		.space	4
 6468              		.section	.bss.cam_x1.13470,"aw",%nobits
 6469              		.align	2
 6470              		.set	.LANCHOR28,. + 0
 6471              		.type	cam_x1.13470, %object
 6472              		.size	cam_x1.13470, 4
 6473              	cam_x1.13470:
 6474 0000 00000000 		.space	4
 6475              		.section	.bss.cam_y1.13471,"aw",%nobits
 6476              		.align	2
 6477              		.set	.LANCHOR29,. + 0
 6478              		.type	cam_y1.13471, %object
 6479              		.size	cam_y1.13471, 4
 6480              	cam_y1.13471:
 6481 0000 00000000 		.space	4
 6482              		.section	.bss.cam_zoom.13468,"aw",%nobits
 6483              		.align	2
 6484              		.set	.LANCHOR4,. + 0
 6485              		.type	cam_zoom.13468, %object
 6486              		.size	cam_zoom.13468, 4
 6487              	cam_zoom.13468:
 6488 0000 00000000 		.space	4
 6489              		.section	.bss.first.13472,"aw",%nobits
 6490              		.set	.LANCHOR8,. + 0
 6491              		.type	first.13472, %object
 6492              		.size	first.13472, 1
 6493              	first.13472:
 6494 0000 00       		.space	1
 6495              		.section	.bss.gyrox.13462,"aw",%nobits
 6496              		.align	2
ARM GAS  /tmp/ccZueut9.s 			page 115


 6497              		.set	.LANCHOR16,. + 0
 6498              		.type	gyrox.13462, %object
 6499              		.size	gyrox.13462, 4
 6500              	gyrox.13462:
 6501 0000 00000000 		.space	4
 6502              		.section	.bss.gyroy.13463,"aw",%nobits
 6503              		.align	2
 6504              		.set	.LANCHOR15,. + 0
 6505              		.type	gyroy.13463, %object
 6506              		.size	gyroy.13463, 4
 6507              	gyroy.13463:
 6508 0000 00000000 		.space	4
 6509              		.section	.bss.gyroz.13464,"aw",%nobits
 6510              		.align	2
 6511              		.set	.LANCHOR14,. + 0
 6512              		.type	gyroz.13464, %object
 6513              		.size	gyroz.13464, 4
 6514              	gyroz.13464:
 6515 0000 00000000 		.space	4
 6516              		.section	.bss.i.13449,"aw",%nobits
 6517              		.align	2
 6518              		.set	.LANCHOR9,. + 0
 6519              		.type	i.13449, %object
 6520              		.size	i.13449, 4
 6521              	i.13449:
 6522 0000 00000000 		.space	4
 6523              		.section	.bss.j.13450,"aw",%nobits
 6524              		.align	2
 6525              		.set	.LANCHOR17,. + 0
 6526              		.type	j.13450, %object
 6527              		.size	j.13450, 4
 6528              	j.13450:
 6529 0000 00000000 		.space	4
 6530              		.section	.bss.mod.13475,"aw",%nobits
 6531              		.align	2
 6532              		.set	.LANCHOR24,. + 0
 6533              		.type	mod.13475, %object
 6534              		.size	mod.13475, 4
 6535              	mod.13475:
 6536 0000 00000000 		.space	4
 6537              		.section	.bss.positionl.13455,"aw",%nobits
 6538              		.align	2
 6539              		.set	.LANCHOR22,. + 0
 6540              		.type	positionl.13455, %object
 6541              		.size	positionl.13455, 4
 6542              	positionl.13455:
 6543 0000 00000000 		.space	4
 6544              		.section	.bss.positionr.13454,"aw",%nobits
 6545              		.align	2
 6546              		.set	.LANCHOR23,. + 0
 6547              		.type	positionr.13454, %object
 6548              		.size	positionr.13454, 4
 6549              	positionr.13454:
 6550 0000 00000000 		.space	4
 6551              		.section	.bss.reg.13476,"aw",%nobits
 6552              		.align	2
 6553              		.set	.LANCHOR25,. + 0
ARM GAS  /tmp/ccZueut9.s 			page 116


 6554              		.type	reg.13476, %object
 6555              		.size	reg.13476, 4
 6556              	reg.13476:
 6557 0000 00000000 		.space	4
 6558              		.section	.bss.rgb_value.13473,"aw",%nobits
 6559              		.align	2
 6560              		.set	.LANCHOR18,. + 0
 6561              		.type	rgb_value.13473, %object
 6562              		.size	rgb_value.13473, 12
 6563              	rgb_value.13473:
 6564 0000 00000000 		.space	12
 6564      00000000 
 6564      00000000 
 6565              		.section	.bss.sound.13461,"aw",%nobits
 6566              		.align	2
 6567              		.set	.LANCHOR31,. + 0
 6568              		.type	sound.13461, %object
 6569              		.size	sound.13461, 4
 6570              	sound.13461:
 6571 0000 00000000 		.space	4
 6572              		.section	.bss.speedl.13453,"aw",%nobits
 6573              		.align	2
 6574              		.set	.LANCHOR7,. + 0
 6575              		.type	speedl.13453, %object
 6576              		.size	speedl.13453, 4
 6577              	speedl.13453:
 6578 0000 00000000 		.space	4
 6579              		.section	.bss.speedr.13452,"aw",%nobits
 6580              		.align	2
 6581              		.set	.LANCHOR6,. + 0
 6582              		.type	speedr.13452, %object
 6583              		.size	speedr.13452, 4
 6584              	speedr.13452:
 6585 0000 00000000 		.space	4
 6586              		.section	.bss.val.13477,"aw",%nobits
 6587              		.align	2
 6588              		.set	.LANCHOR26,. + 0
 6589              		.type	val.13477, %object
 6590              		.size	val.13477, 4
 6591              	val.13477:
 6592 0000 00000000 		.space	4
 6593              		.section	.bss.wait_cam.13448,"aw",%nobits
 6594              		.set	.LANCHOR21,. + 0
 6595              		.type	wait_cam.13448, %object
 6596              		.size	wait_cam.13448, 1
 6597              	wait_cam.13448:
 6598 0000 00       		.space	1
 6599              		.section	.data.HWversion.13489,"aw",%progbits
 6600              		.align	2
 6601              		.set	.LANCHOR0,. + 0
 6602              		.type	HWversion.13489, %object
 6603              		.size	HWversion.13489, 4
 6604              	HWversion.13489:
 6605 0000 FFFF0000 		.word	65535
 6606              		.section	.rodata.run_asercom2.str1.4,"aMS",%progbits,1
 6607              		.align	2
 6608              	.LC0:
ARM GAS  /tmp/ccZueut9.s 			page 117


 6609 0000 0C075745 		.ascii	"\014\007WELCOME to the SerCom protocol on e-Puck\015"
 6609      4C434F4D 
 6609      4520746F 
 6609      20746865 
 6609      20536572 
 6610 002b 0A746865 		.ascii	"\012the EPFL education robot type \"H\" for help\015"
 6610      20455046 
 6610      4C206564 
 6610      75636174 
 6610      696F6E20 
 6611 0057 0A00     		.ascii	"\012\000"
 6612 0059 000000   		.space	3
 6613              	.LC1:
 6614 005c 612C2564 		.ascii	"a,%d,%d,%d\015\012\000"
 6614      2C25642C 
 6614      25640D0A 
 6614      00
 6615 0069 000000   		.space	3
 6616              	.LC2:
 6617 006c 612C302C 		.ascii	"a,0,0,0\015\012\000"
 6617      302C300D 
 6617      0A00
 6618 0076 0000     		.space	2
 6619              	.LC3:
 6620 0078 622C2564 		.ascii	"b,%d (%d%%)\015\012\000"
 6620      20282564 
 6620      2525290D 
 6620      0A00
 6621 0086 0000     		.space	2
 6622              	.LC4:
 6623 0088 422C2564 		.ascii	"B,%d\015\000"
 6623      0D00
 6624 008e 0000     		.space	2
 6625              	.LC5:
 6626 0090 620D0A00 		.ascii	"b\015\012\000"
 6627              	.LC6:
 6628 0094 632C2564 		.ascii	"c,%d\015\012\000"
 6628      0D0A00
 6629 009b 00       		.space	1
 6630              	.LC7:
 6631 009c 442C2564 		.ascii	"D,%d,%d\015\000"
 6631      2C25640D 
 6631      00
 6632 00a5 000000   		.space	3
 6633              	.LC8:
 6634 00a8 640D0A00 		.ascii	"d\015\012\000"
 6635              	.LC9:
 6636 00ac 652C2564 		.ascii	"e,%d,%d\015\012\000"
 6636      2C25640D 
 6636      0A00
 6637 00b6 0000     		.space	2
 6638              	.LC10:
 6639 00b8 462C2564 		.ascii	"F,%d\015\000"
 6639      0D00
 6640 00be 0000     		.space	2
 6641              	.LC11:
 6642 00c0 660D0A00 		.ascii	"f\015\012\000"
ARM GAS  /tmp/ccZueut9.s 			page 118


 6643              	.LC12:
 6644 00c4 67204952 		.ascii	"g IR check : 0x%x, address : 0x%x, data : 0x%x\015\012"
 6644      20636865 
 6644      636B203A 
 6644      20307825 
 6644      782C2061 
 6645 00f4 00       		.ascii	"\000"
 6646 00f5 000000   		.space	3
 6647              	.LC13:
 6648 00f8 672C2564 		.ascii	"g,%d,%d,%d\015\012\000"
 6648      2C25642C 
 6648      25640D0A 
 6648      00
 6649 0105 000000   		.space	3
 6650              	.LC14:
 6651 0108 672C302C 		.ascii	"g,0,0,0\015\012\000"
 6651      302C300D 
 6651      0A00
 6652 0112 0000     		.space	2
 6653              	.LC15:
 6654 0114 0A00     		.ascii	"\012\000"
 6655 0116 0000     		.space	2
 6656              	.LC16:
 6657 0118 22412220 		.ascii	"\"A\"               Accelerometer\015\012\000"
 6657      20202020 
 6657      20202020 
 6657      20202020 
 6657      20204163 
 6658 013a 0000     		.space	2
 6659              	.LC17:
 6660 013c 22422C23 		.ascii	"\"B,#\"             Body led 0=off 1=on 2=inverse\015"
 6660      22202020 
 6660      20202020 
 6660      20202020 
 6660      2020426F 
 6661 016c 0A00     		.ascii	"\012\000"
 6662 016e 0000     		.space	2
 6663              	.LC18:
 6664 0170 22622220 		.ascii	"\"b\"               Battery value\015\012\000"
 6664      20202020 
 6664      20202020 
 6664      20202020 
 6664      20204261 
 6665 0192 0000     		.space	2
 6666              	.LC19:
 6667 0194 22622220 		.ascii	"\"b\"               Battery state (1=ok, 0=low)\015"
 6667      20202020 
 6667      20202020 
 6667      20202020 
 6667      20204261 
 6668 01c2 0A00     		.ascii	"\012\000"
 6669              	.LC20:
 6670 01c4 22432220 		.ascii	"\"C\"               Selector position\015\012\000"
 6670      20202020 
 6670      20202020 
 6670      20202020 
 6670      20205365 
ARM GAS  /tmp/ccZueut9.s 			page 119


 6671 01ea 0000     		.space	2
 6672              	.LC21:
 6673 01ec 22442C23 		.ascii	"\"D,#,#\"           Set motor speed left,right\015\012"
 6673      2C232220 
 6673      20202020 
 6673      20202020 
 6673      20205365 
 6674 021a 00       		.ascii	"\000"
 6675 021b 00       		.space	1
 6676              	.LC22:
 6677 021c 22452220 		.ascii	"\"E\"               Get motor speed left,right\015\012"
 6677      20202020 
 6677      20202020 
 6677      20202020 
 6677      20204765 
 6678 024a 00       		.ascii	"\000"
 6679 024b 00       		.space	1
 6680              	.LC23:
 6681 024c 22462C23 		.ascii	"\"F,#\"             Front led 0=off 1=on 2=inverse\015"
 6681      22202020 
 6681      20202020 
 6681      20202020 
 6681      20204672 
 6682 027d 0A00     		.ascii	"\012\000"
 6683 027f 00       		.space	1
 6684              	.LC24:
 6685 0280 22472220 		.ascii	"\"G\"               IR receiver\015\012\000"
 6685      20202020 
 6685      20202020 
 6685      20202020 
 6685      20204952 
 6686              	.LC25:
 6687 02a0 22672220 		.ascii	"\"g\"               Gyro\015\012\000"
 6687      20202020 
 6687      20202020 
 6687      20202020 
 6687      20204779 
 6688 02b9 000000   		.space	3
 6689              	.LC26:
 6690 02bc 22482220 		.ascii	"\"H\"               Help\015\012\000"
 6690      20202020 
 6690      20202020 
 6690      20202020 
 6690      20204865 
 6691 02d5 000000   		.space	3
 6692              	.LC27:
 6693 02d8 22492220 		.ascii	"\"I\"               Get camera parameter\015\012\000"
 6693      20202020 
 6693      20202020 
 6693      20202020 
 6693      20204765 
 6694 0301 000000   		.space	3
 6695              	.LC28:
 6696 0304 224A2C23 		.ascii	"\"J,#,#,#,#,#,#\"   Set camera parameter mode,width"
 6696      2C232C23 
 6696      2C232C23 
 6696      2C232220 
ARM GAS  /tmp/ccZueut9.s 			page 120


 6696      20205365 
 6697 0335 2C686569 		.ascii	",heigth,zoom(1,4 or 8),x1,y1\015\012\000"
 6697      6774682C 
 6697      7A6F6F6D 
 6697      28312C34 
 6697      206F7220 
 6698              	.LC29:
