ARM GAS  /tmp/ccZueut9.s 			page 1


   1              		.cpu cortex-m4
   2              		.eabi_attribute 27, 1
   3              		.eabi_attribute 28, 1
   4              		.eabi_attribute 20, 1
   5              		.eabi_attribute 21, 1
   6              		.eabi_attribute 23, 3
   7              		.eabi_attribute 24, 1
   8              		.eabi_attribute 25, 1
   9              		.eabi_attribute 26, 1
  10              		.eabi_attribute 30, 2
  11              		.eabi_attribute 34, 1
  12              		.eabi_attribute 18, 4
  13              		.file	"Asercom2.c"
  14              		.text
  15              	.Ltext0:
  16              		.cfi_sections	.debug_frame
  17              		.section	.text.run_asercom2,"ax",%progbits
  18              		.align	1
  19              		.p2align 4,,15
  20              		.global	run_asercom2
  21              		.syntax unified
  22              		.thumb
  23              		.thumb_func
  24              		.fpu fpv4-sp-d16
  25              		.type	run_asercom2, %function
  26              	run_asercom2:
  27              	.LFB259:
  28              		.file 1 "../e-puck2_main-processor/src/epuck1x/Asercom2.c"
  29              		.loc 1 76 0
  30              		.cfi_startproc
  31              		@ args = 0, pretend = 0, frame = 80
  32              		@ frame_needed = 0, uses_anonymous_args = 0
  33 0000 2DE9F04F 		push	{r4, r5, r6, r7, r8, r9, r10, fp, lr}
  34              		.cfi_def_cfa_offset 36
  35              		.cfi_offset 4, -36
  36              		.cfi_offset 5, -32
  37              		.cfi_offset 6, -28
  38              		.cfi_offset 7, -24
  39              		.cfi_offset 8, -20
  40              		.cfi_offset 9, -16
  41              		.cfi_offset 10, -12
  42              		.cfi_offset 11, -8
  43              		.cfi_offset 14, -4
  44 0004 2DED028B 		vpush.64	{d8}
  45              		.cfi_def_cfa_offset 44
  46              		.cfi_offset 80, -44
  47              		.cfi_offset 81, -40
  48 0008 A94B     		ldr	r3, .L812
  49 000a 9BB0     		sub	sp, sp, #108
  50              		.cfi_def_cfa_offset 152
  51              		.loc 1 76 0
  52 000c 1B68     		ldr	r3, [r3]
  53 000e 1993     		str	r3, [sp, #100]
  54              	.LVL0:
  55              		.loc 1 95 0
  56 0010 0023     		movs	r3, #0
  57 0012 1793     		str	r3, [sp, #92]
ARM GAS  /tmp/ccZueut9.s 			page 2


  58 0014 CDE91433 		strd	r3, r3, [sp, #80]
  59 0018 1693     		str	r3, [sp, #88]
  60 001a CDF85F30 		str	r3, [sp, #95]	@ unaligned
  61              		.loc 1 99 0
  62 001e FFF7FEFF 		bl	e_init_motors
  63              	.LVL1:
  64              		.loc 1 103 0
  65 0022 FFF7FEFF 		bl	getselector
  66              	.LVL2:
  67 0026 A34B     		ldr	r3, .L812+4
  68              		.loc 1 104 0
  69 0028 0328     		cmp	r0, #3
  70              		.loc 1 103 0
  71 002a 1860     		str	r0, [r3]
  72              		.loc 1 104 0
  73 002c 02F0C284 		beq	.L461
  74              		.loc 1 104 0 is_stmt 0 discriminator 1
  75 0030 A0F10F03 		sub	r3, r0, #15
  76 0034 B3FA83F3 		clz	r3, r3
  77 0038 5B09     		lsrs	r3, r3, #5
  78              		.loc 1 109 0 is_stmt 1 discriminator 1
  79 003a 0A28     		cmp	r0, #10
  80              		.loc 1 104 0 discriminator 1
  81 003c 0793     		str	r3, [sp, #28]
  82              	.LVL3:
  83              		.loc 1 109 0 discriminator 1
  84 003e 42F0BB84 		bne	.L2
  85              		.loc 1 122 0
  86 0042 FFF7FEFF 		bl	e_init_remote_control
  87              	.LVL4:
  88              		.loc 1 138 0
  89 0046 9C4B     		ldr	r3, .L812+8
  90              		.loc 1 133 0
  91 0048 9C4C     		ldr	r4, .L812+12
  92              		.loc 1 130 0
  93 004a 9D4A     		ldr	r2, .L812+16
  94              		.loc 1 135 0
  95 004c 9D4D     		ldr	r5, .L812+20
  96              		.loc 1 136 0
  97 004e 9E4E     		ldr	r6, .L812+24
  98              		.loc 1 137 0
  99 0050 9E4F     		ldr	r7, .L812+28
 100              		.loc 1 138 0
 101 0052 0E93     		str	r3, [sp, #56]
 102              		.loc 1 130 0
 103 0054 4FF6FE71 		movw	r1, #65534
 104 0058 0123     		movs	r3, #1
 105 005a 7F20     		movs	r0, #127
 106              		.loc 1 133 0
 107 005c 1294     		str	r4, [sp, #72]
 108              		.loc 1 135 0
 109 005e 1095     		str	r5, [sp, #64]
 110              		.loc 1 136 0
 111 0060 1196     		str	r6, [sp, #68]
 112              		.loc 1 137 0
 113 0062 1397     		str	r7, [sp, #76]
 114              		.loc 1 130 0
ARM GAS  /tmp/ccZueut9.s 			page 3


 115 0064 FFF7FEFF 		bl	ReadEE
 116              	.LVL5:
 117              		.loc 1 133 0
 118 0068 0122     		movs	r2, #1
 119              		.loc 1 135 0
 120 006a 2823     		movs	r3, #40
 121              		.loc 1 133 0
 122 006c 2260     		str	r2, [r4]
 123              		.loc 1 110 0
 124 006e 9346     		mov	fp, r2
 125              		.loc 1 138 0
 126 0070 0E9A     		ldr	r2, [sp, #56]
 127              		.loc 1 135 0
 128 0072 2B60     		str	r3, [r5]
 129              		.loc 1 137 0
 130 0074 0821     		movs	r1, #8
 131              		.loc 1 136 0
 132 0076 3360     		str	r3, [r6]
 133              		.loc 1 138 0
 134 0078 4FF44863 		mov	r3, #3200
 135              		.loc 1 137 0
 136 007c 3960     		str	r1, [r7]
 137              		.loc 1 138 0
 138 007e 1360     		str	r3, [r2]
 139              	.LVL6:
 140              	.L7:
 141              		.loc 1 112 0
 142 0080 0023     		movs	r3, #0
 143 0082 934F     		ldr	r7, .L812+32
 144 0084 DFF86492 		ldr	r9, .L812+60
 145 0088 DFF84C82 		ldr	r8, .L812+40
 146 008c DFF860A2 		ldr	r10, .L812+64
 147 0090 0F93     		str	r3, [sp, #60]
 148 0092 0693     		str	r3, [sp, #24]
 149              	.LVL7:
 150              	.L5:
 151              		.loc 1 164 0
 152 0094 BBF1000F 		cmp	fp, #0
 153 0098 23D1     		bne	.L10
 154              	.LVL8:
 155              	.L741:
 156              		.loc 1 166 0
 157 009a 079B     		ldr	r3, [sp, #28]
 158 009c 002B     		cmp	r3, #0
 159 009e 00F08980 		beq	.L732
 160              	.L777:
 161              		.loc 1 167 0
 162 00a2 8B4D     		ldr	r5, .L812+32
 163              	.LVL9:
 164              	.L11:
 165 00a4 2846     		mov	r0, r5
 166 00a6 FFF7FEFF 		bl	e_getchar_uart1
 167              	.LVL10:
 168 00aa 0446     		mov	r4, r0
 169 00ac C8B9     		cbnz	r0, .L10
 170              		.loc 1 170 0
 171 00ae FFF7FEFF 		bl	e_get_data
ARM GAS  /tmp/ccZueut9.s 			page 4


 172              	.LVL11:
 173 00b2 0646     		mov	r6, r0
 174              	.LVL12:
 175              		.loc 1 171 0
 176 00b4 FFF7FEFF 		bl	e_get_address
 177              	.LVL13:
 178              		.loc 1 172 0
 179 00b8 10F0F70F 		tst	r0, #247
 180 00bc F2D1     		bne	.L11
 181              		.loc 1 172 0 is_stmt 0 discriminator 3
 182 00be 069B     		ldr	r3, [sp, #24]
 183 00c0 B342     		cmp	r3, r6
 184 00c2 EFD0     		beq	.L11
 185              		.loc 1 173 0 is_stmt 1
 186 00c4 092E     		cmp	r6, #9
 187 00c6 01F20187 		bhi	.L14
 188 00ca DFE816F0 		tbh	[pc, r6, lsl #1]
 189              	.L16:
 190 00ce 1C01     		.2byte	(.L15-.L16)/2
 191 00d0 1301     		.2byte	(.L17-.L16)/2
 192 00d2 E900     		.2byte	(.L18-.L16)/2
 193 00d4 E000     		.2byte	(.L19-.L16)/2
 194 00d6 DD00     		.2byte	(.L20-.L16)/2
 195 00d8 D700     		.2byte	(.L21-.L16)/2
 196 00da D400     		.2byte	(.L22-.L16)/2
 197 00dc CD00     		.2byte	(.L23-.L16)/2
 198 00de C600     		.2byte	(.L24-.L16)/2
 199 00e0 B600     		.2byte	(.L25-.L16)/2
 200              	.LVL14:
 201              		.p2align 1
 202              	.L10:
 203              		.loc 1 292 0
 204 00e2 3B78     		ldrb	r3, [r7]	@ zero_extendqisi2
 205 00e4 1D06     		lsls	r5, r3, #24
 206 00e6 00F16D81 		bmi	.L772
 207              		.loc 1 1063 0
 208 00ea 002B     		cmp	r3, #0
 209 00ec D2D0     		beq	.L5
 210              		.loc 1 1064 0
 211 00ee BBF1000F 		cmp	fp, #0
 212 00f2 41F0CD86 		bne	.L222
 213              		.loc 1 1066 0
 214 00f6 079A     		ldr	r2, [sp, #28]
 215              		.loc 1 1067 0
 216 00f8 754C     		ldr	r4, .L812+32
 217              		.loc 1 1066 0
 218 00fa 002A     		cmp	r2, #0
 219 00fc 7FD0     		beq	.L224
 220 00fe 03E0     		b	.L223
 221              	.L225:
 222              		.loc 1 1067 0 discriminator 4
 223 0100 2046     		mov	r0, r4
 224 0102 FFF7FEFF 		bl	e_getchar_uart1
 225              	.LVL15:
 226 0106 3B78     		ldrb	r3, [r7]	@ zero_extendqisi2
 227              	.L223:
 228              		.loc 1 1067 0 is_stmt 0 discriminator 1
ARM GAS  /tmp/ccZueut9.s 			page 5


 229 0108 0A2B     		cmp	r3, #10
 230 010a F9D0     		beq	.L225
 231              		.loc 1 1067 0 discriminator 3
 232 010c 0D2B     		cmp	r3, #13
 233 010e F7D0     		beq	.L225
 234              		.loc 1 1072 0 is_stmt 1
 235 0110 0122     		movs	r2, #1
 236              		.loc 1 1071 0
 237 0112 88F80030 		strb	r3, [r8]
 238              		.loc 1 1072 0
 239 0116 C9F80020 		str	r2, [r9]
 240              		.loc 1 1076 0
 241 011a 6D4C     		ldr	r4, .L812+32
 242 011c 04E0     		b	.L233
 243              	.L773:
 244 011e 3B78     		ldrb	r3, [r7]	@ zero_extendqisi2
 245              		.loc 1 1077 0
 246 0120 0A2B     		cmp	r3, #10
 247 0122 11D0     		beq	.L239
 248              	.L231:
 249              		.loc 1 1077 0 is_stmt 0 discriminator 1
 250 0124 0D2B     		cmp	r3, #13
 251 0126 0FD0     		beq	.L239
 252              	.L233:
 253              		.loc 1 1076 0 is_stmt 1
 254 0128 2046     		mov	r0, r4
 255 012a FFF7FEFF 		bl	e_getchar_uart1
 256              	.LVL16:
 257 012e 0028     		cmp	r0, #0
 258 0130 F5D0     		beq	.L773
 259              		.loc 1 1076 0 is_stmt 0 discriminator 1
 260 0132 D9F80020 		ldr	r2, [r9]
 261 0136 3B78     		ldrb	r3, [r7]	@ zero_extendqisi2
 262 0138 08F80230 		strb	r3, [r8, r2]
 263              		.loc 1 1077 0 is_stmt 1 discriminator 1
 264 013c 0A2B     		cmp	r3, #10
 265              		.loc 1 1076 0 discriminator 1
 266 013e 02F10102 		add	r2, r2, #1
 267 0142 C9F80020 		str	r2, [r9]
 268              		.loc 1 1077 0 discriminator 1
 269 0146 EDD1     		bne	.L231
 270              	.L239:
 271 0148 D9F80030 		ldr	r3, [r9]
 272              		.loc 1 1082 0
 273 014c 0022     		movs	r2, #0
 274 014e 08F80320 		strb	r2, [r8, r3]
 275              		.loc 1 1084 0
 276 0152 98F80040 		ldrb	r4, [r8]	@ zero_extendqisi2
 277 0156 591C     		adds	r1, r3, #1
 278 0158 622C     		cmp	r4, #98
 279              		.loc 1 1082 0
 280 015a C9F80010 		str	r1, [r9]
 281              		.loc 1 1084 0
 282 015e 02F0E480 		beq	.L774
 283              	.L456:
 284              		.loc 1 1084 0 is_stmt 0 discriminator 1
 285 0162 672C     		cmp	r4, #103
ARM GAS  /tmp/ccZueut9.s 			page 6


 286 0164 41F07D80 		bne	.L775
 287              	.L240:
 288              	.LBB2:
 289              		.loc 1 1180 0 is_stmt 1
 290 0168 BBF1000F 		cmp	fp, #0
 291 016c 42F0F980 		bne	.L296
 292              		.loc 1 1181 0
 293 0170 FFF7FEFF 		bl	getXAxisGyro
 294              	.LVL17:
 295 0174 0446     		mov	r4, r0
 296 0176 FFF7FEFF 		bl	getYAxisGyro
 297              	.LVL18:
 298 017a 0546     		mov	r5, r0
 299 017c FFF7FEFF 		bl	getZAxisGyro
 300              	.LVL19:
 301 0180 2B46     		mov	r3, r5
 302 0182 0090     		str	r0, [sp]
 303 0184 2246     		mov	r2, r4
 304 0186 5349     		ldr	r1, .L812+36
 305 0188 5348     		ldr	r0, .L812+40
 306 018a FFF7FEFF 		bl	sprintf
 307              	.LVL20:
 308              		.loc 1 1187 0
 309 018e 079B     		ldr	r3, [sp, #28]
 310 0190 002B     		cmp	r3, #0
 311 0192 02F0CF81 		beq	.L776
 312              		.loc 1 1188 0
 313 0196 5048     		ldr	r0, .L812+40
 314 0198 FFF7FEFF 		bl	strlen
 315              	.LVL21:
 316 019c 0146     		mov	r1, r0
 317 019e 4E48     		ldr	r0, .L812+40
 318 01a0 FFF7FEFF 		bl	e_send_uart1_char
 319              	.LVL22:
 320              	.L299:
 321              		.loc 1 1188 0 is_stmt 0 discriminator 2
 322 01a4 FFF7FEFF 		bl	e_uart1_sending
 323              	.LVL23:
 324 01a8 0028     		cmp	r0, #0
 325 01aa FBD1     		bne	.L299
 326              	.LVL24:
 327              	.LBE2:
 328              		.loc 1 166 0 is_stmt 1
 329 01ac 079B     		ldr	r3, [sp, #28]
 330 01ae 002B     		cmp	r3, #0
 331 01b0 7FF477AF 		bne	.L777
 332              	.LVL25:
 333              	.L732:
 334              		.loc 1 229 0
 335 01b4 464D     		ldr	r5, .L812+32
 336              	.LVL26:
 337              	.L12:
 338 01b6 2846     		mov	r0, r5
 339 01b8 FFF7FEFF 		bl	e_getchar_uart2
 340              	.LVL27:
 341 01bc 0446     		mov	r4, r0
 342 01be 0028     		cmp	r0, #0
ARM GAS  /tmp/ccZueut9.s 			page 7


 343 01c0 8FD1     		bne	.L10
 344              		.loc 1 232 0
 345 01c2 FFF7FEFF 		bl	e_get_data
 346              	.LVL28:
 347 01c6 0646     		mov	r6, r0
 348              	.LVL29:
 349              		.loc 1 233 0
 350 01c8 FFF7FEFF 		bl	e_get_address
 351              	.LVL30:
 352              		.loc 1 234 0
 353 01cc 10F0F70F 		tst	r0, #247
 354 01d0 F1D1     		bne	.L12
 355              		.loc 1 234 0 is_stmt 0 discriminator 3
 356 01d2 069B     		ldr	r3, [sp, #24]
 357 01d4 B342     		cmp	r3, r6
 358 01d6 EED0     		beq	.L12
 359              		.loc 1 235 0 is_stmt 1
 360 01d8 092E     		cmp	r6, #9
 361 01da 01F27E86 		bhi	.L30
 362 01de DFE816F0 		tbh	[pc, r6, lsl #1]
 363              	.L32:
 364 01e2 E300     		.2byte	(.L31-.L32)/2
 365 01e4 DA00     		.2byte	(.L33-.L32)/2
 366 01e6 D300     		.2byte	(.L34-.L32)/2
 367 01e8 CA00     		.2byte	(.L35-.L32)/2
 368 01ea C700     		.2byte	(.L36-.L32)/2
 369 01ec C100     		.2byte	(.L37-.L32)/2
 370 01ee BE00     		.2byte	(.L38-.L32)/2
 371 01f0 B700     		.2byte	(.L39-.L32)/2
 372 01f2 B000     		.2byte	(.L40-.L32)/2
 373 01f4 A000     		.2byte	(.L41-.L32)/2
 374              	.LVL31:
 375              		.p2align 1
 376              	.L227:
 377              		.loc 1 1069 0 discriminator 4
 378 01f6 2046     		mov	r0, r4
 379 01f8 FFF7FEFF 		bl	e_getchar_uart2
 380              	.LVL32:
 381 01fc 3B78     		ldrb	r3, [r7]	@ zero_extendqisi2
 382              	.L224:
 383              		.loc 1 1069 0 is_stmt 0 discriminator 1
 384 01fe 0A2B     		cmp	r3, #10
 385 0200 F9D0     		beq	.L227
 386              		.loc 1 1069 0 discriminator 3
 387 0202 0D2B     		cmp	r3, #13
 388 0204 F7D0     		beq	.L227
 389              		.loc 1 1072 0 is_stmt 1
 390 0206 0122     		movs	r2, #1
 391              		.loc 1 1071 0
 392 0208 88F80030 		strb	r3, [r8]
 393              		.loc 1 1072 0
 394 020c C9F80020 		str	r2, [r9]
 395              		.loc 1 1079 0
 396 0210 2F4C     		ldr	r4, .L812+32
 397 0212 04E0     		b	.L238
 398              	.L778:
 399 0214 3B78     		ldrb	r3, [r7]	@ zero_extendqisi2
ARM GAS  /tmp/ccZueut9.s 			page 8


 400              	.L236:
 401              		.loc 1 1080 0
 402 0216 0A2B     		cmp	r3, #10
 403 0218 96D0     		beq	.L239
 404              		.loc 1 1080 0 is_stmt 0 discriminator 1
 405 021a 0D2B     		cmp	r3, #13
 406 021c 94D0     		beq	.L239
 407              	.L238:
 408              		.loc 1 1079 0 is_stmt 1
 409 021e 2046     		mov	r0, r4
 410 0220 FFF7FEFF 		bl	e_getchar_uart2
 411              	.LVL33:
 412 0224 0028     		cmp	r0, #0
 413 0226 F5D0     		beq	.L778
 414              		.loc 1 1079 0 is_stmt 0 discriminator 1
 415 0228 D9F80020 		ldr	r2, [r9]
 416 022c 3B78     		ldrb	r3, [r7]	@ zero_extendqisi2
 417 022e 08F80230 		strb	r3, [r8, r2]
 418 0232 0132     		adds	r2, r2, #1
 419 0234 C9F80020 		str	r2, [r9]
 420 0238 EDE7     		b	.L236
 421              	.LVL34:
 422              	.L25:
 423              		.loc 1 207 0 is_stmt 1
 424 023a 284B     		ldr	r3, .L812+44
 425              	.L762:
 426              		.loc 1 208 0
 427 023c 284A     		ldr	r2, .L812+48
 428 023e 2949     		ldr	r1, .L812+52
 429 0240 1160     		str	r1, [r2]
 430              		.loc 1 207 0
 431 0242 294A     		ldr	r2, .L812+56
 432              		.loc 1 209 0
 433 0244 0C46     		mov	r4, r1
 434              		.loc 1 207 0
 435 0246 1360     		str	r3, [r2]
 436              	.LVL35:
 437              	.L26:
 438              		.loc 1 221 0
 439 0248 2046     		mov	r0, r4
 440 024a FFF7FEFF 		bl	e_set_speed_left
 441              	.LVL36:
 442              		.loc 1 222 0
 443 024e 264B     		ldr	r3, .L812+56
 444 0250 1868     		ldr	r0, [r3]
 445 0252 FFF7FEFF 		bl	e_set_speed_right
 446              	.LVL37:
 447 0256 0696     		str	r6, [sp, #24]
 448 0258 24E7     		b	.L11
 449              	.LVL38:
 450              	.L24:
 451              		.loc 1 203 0
 452 025a 234A     		ldr	r2, .L812+56
 453 025c 214B     		ldr	r3, .L812+52
 454 025e 1360     		str	r3, [r2]
 455              		.loc 1 204 0
 456 0260 1F4A     		ldr	r2, .L812+48
ARM GAS  /tmp/ccZueut9.s 			page 9


 457              		.loc 1 205 0
 458 0262 1C46     		mov	r4, r3
 459              		.loc 1 204 0
 460 0264 1360     		str	r3, [r2]
 461              		.loc 1 205 0
 462 0266 EFE7     		b	.L26
 463              	.L23:
 464              		.loc 1 200 0
 465 0268 1C4C     		ldr	r4, .L812+44
 466              	.L763:
 467              		.loc 1 199 0
 468 026a 1F4B     		ldr	r3, .L812+56
 469 026c 1D4A     		ldr	r2, .L812+52
 470 026e 1A60     		str	r2, [r3]
 471              		.loc 1 200 0
 472 0270 1B4B     		ldr	r3, .L812+48
 473 0272 1C60     		str	r4, [r3]
 474              		.loc 1 201 0
 475 0274 E8E7     		b	.L26
 476              	.L22:
 477              		.loc 1 196 0
 478 0276 4FF41674 		mov	r4, #600
 479 027a F6E7     		b	.L763
 480              	.L21:
 481              		.loc 1 191 0
 482 027c 1A4A     		ldr	r2, .L812+56
 483 027e 0023     		movs	r3, #0
 484 0280 1360     		str	r3, [r2]
 485              		.loc 1 192 0
 486 0282 174A     		ldr	r2, .L812+48
 487 0284 1360     		str	r3, [r2]
 488              		.loc 1 193 0
 489 0286 DFE7     		b	.L26
 490              	.L20:
 491              		.loc 1 187 0
 492 0288 4FF41673 		mov	r3, #600
 493 028c D6E7     		b	.L762
 494              	.L19:
 495              		.loc 1 183 0
 496 028e 164A     		ldr	r2, .L812+56
 497 0290 4FF49673 		mov	r3, #300
 498 0294 1360     		str	r3, [r2]
 499              		.loc 1 184 0
 500 0296 124B     		ldr	r3, .L812+48
 501 0298 4FF41674 		mov	r4, #600
 502 029c 1C60     		str	r4, [r3]
 503              		.loc 1 185 0
 504 029e D3E7     		b	.L26
 505              	.L18:
 506              		.loc 1 179 0
 507 02a0 114B     		ldr	r3, .L812+56
 508 02a2 4FF41674 		mov	r4, #600
 509 02a6 1C60     		str	r4, [r3]
 510              		.loc 1 180 0
 511 02a8 0D4B     		ldr	r3, .L812+48
 512 02aa 1C60     		str	r4, [r3]
 513              		.loc 1 181 0
ARM GAS  /tmp/ccZueut9.s 			page 10


 514 02ac CCE7     		b	.L26
 515              	.L813:
 516 02ae 00BF     		.align	2
 517              	.L812:
 518 02b0 00000000 		.word	__stack_chk_guard
 519 02b4 00000000 		.word	selector
 520 02b8 00000000 		.word	.LANCHOR5
 521 02bc 00000000 		.word	.LANCHOR1
 522 02c0 00000000 		.word	.LANCHOR0
 523 02c4 00000000 		.word	.LANCHOR2
 524 02c8 00000000 		.word	.LANCHOR3
 525 02cc 00000000 		.word	.LANCHOR4
 526 02d0 00000000 		.word	c
 527 02d4 F8000000 		.word	.LC13
 528 02d8 00000000 		.word	buffer
 529 02dc D4FEFFFF 		.word	-300
 530 02e0 00000000 		.word	.LANCHOR7
 531 02e4 A8FDFFFF 		.word	-600
 532 02e8 00000000 		.word	.LANCHOR6
 533 02ec 00000000 		.word	.LANCHOR9
 534 02f0 00000000 		.word	.LANCHOR17
 535              	.L17:
 536              		.loc 1 175 0
 537 02f4 8E4A     		ldr	r2, .L814
 538 02f6 4FF41673 		mov	r3, #600
 539 02fa 1360     		str	r3, [r2]
 540              		.loc 1 176 0
 541 02fc 8D4B     		ldr	r3, .L814+4
 542 02fe 4FF49674 		mov	r4, #300
 543 0302 1C60     		str	r4, [r3]
 544              		.loc 1 177 0
 545 0304 A0E7     		b	.L26
 546              	.L15:
 547              		.loc 1 211 0
 548 0306 8C4B     		ldr	r3, .L814+8
 549 0308 1B78     		ldrb	r3, [r3]	@ zero_extendqisi2
 550 030a 002B     		cmp	r3, #0
 551 030c 01F05086 		beq	.L779
 552              	.LVL39:
 553              	.L27:
 554              		.loc 1 215 0
 555 0310 41F65071 		movw	r1, #8016
 556 0314 42F61430 		movw	r0, #11028
 557 0318 FFF7FEFF 		bl	e_play_sound
 558              	.LVL40:
 559 031c 854B     		ldr	r3, .L814+4
 560 031e 1C68     		ldr	r4, [r3]
 561              		.loc 1 216 0
 562 0320 92E7     		b	.L26
 563              	.LVL41:
 564              	.L41:
 565              		.loc 1 269 0
 566 0322 864B     		ldr	r3, .L814+12
 567              	.L764:
 568              		.loc 1 270 0
 569 0324 834A     		ldr	r2, .L814+4
 570 0326 8649     		ldr	r1, .L814+16
ARM GAS  /tmp/ccZueut9.s 			page 11


 571 0328 1160     		str	r1, [r2]
 572              		.loc 1 269 0
 573 032a 814A     		ldr	r2, .L814
 574              		.loc 1 271 0
 575 032c 0C46     		mov	r4, r1
 576              		.loc 1 269 0
 577 032e 1360     		str	r3, [r2]
 578              	.LVL42:
 579              	.L42:
 580              		.loc 1 283 0
 581 0330 2046     		mov	r0, r4
 582 0332 FFF7FEFF 		bl	e_set_speed_left
 583              	.LVL43:
 584              		.loc 1 284 0
 585 0336 7E4B     		ldr	r3, .L814
 586 0338 1868     		ldr	r0, [r3]
 587 033a FFF7FEFF 		bl	e_set_speed_right
 588              	.LVL44:
 589 033e 0696     		str	r6, [sp, #24]
 590 0340 39E7     		b	.L12
 591              	.LVL45:
 592              	.L40:
 593              		.loc 1 265 0
 594 0342 7B4A     		ldr	r2, .L814
 595 0344 7E4B     		ldr	r3, .L814+16
 596 0346 1360     		str	r3, [r2]
 597              		.loc 1 266 0
 598 0348 7A4A     		ldr	r2, .L814+4
 599              		.loc 1 267 0
 600 034a 1C46     		mov	r4, r3
 601              		.loc 1 266 0
 602 034c 1360     		str	r3, [r2]
 603              		.loc 1 267 0
 604 034e EFE7     		b	.L42
 605              	.L39:
 606              		.loc 1 262 0
 607 0350 7A4C     		ldr	r4, .L814+12
 608              	.L765:
 609              		.loc 1 261 0
 610 0352 774B     		ldr	r3, .L814
 611 0354 7A4A     		ldr	r2, .L814+16
 612 0356 1A60     		str	r2, [r3]
 613              		.loc 1 262 0
 614 0358 764B     		ldr	r3, .L814+4
 615 035a 1C60     		str	r4, [r3]
 616              		.loc 1 263 0
 617 035c E8E7     		b	.L42
 618              	.L38:
 619              		.loc 1 258 0
 620 035e 4FF41674 		mov	r4, #600
 621 0362 F6E7     		b	.L765
 622              	.L37:
 623              		.loc 1 253 0
 624 0364 724A     		ldr	r2, .L814
 625 0366 0023     		movs	r3, #0
 626 0368 1360     		str	r3, [r2]
 627              		.loc 1 254 0
ARM GAS  /tmp/ccZueut9.s 			page 12


 628 036a 724A     		ldr	r2, .L814+4
 629 036c 1360     		str	r3, [r2]
 630              		.loc 1 255 0
 631 036e DFE7     		b	.L42
 632              	.L36:
 633              		.loc 1 249 0
 634 0370 4FF41673 		mov	r3, #600
 635 0374 D6E7     		b	.L764
 636              	.L35:
 637              		.loc 1 245 0
 638 0376 6E4A     		ldr	r2, .L814
 639 0378 4FF49673 		mov	r3, #300
 640 037c 1360     		str	r3, [r2]
 641              		.loc 1 246 0
 642 037e 6D4B     		ldr	r3, .L814+4
 643 0380 4FF41674 		mov	r4, #600
 644 0384 1C60     		str	r4, [r3]
 645              		.loc 1 247 0
 646 0386 D3E7     		b	.L42
 647              	.L34:
 648              		.loc 1 241 0
 649 0388 694B     		ldr	r3, .L814
 650 038a 4FF41674 		mov	r4, #600
 651 038e 1C60     		str	r4, [r3]
 652              		.loc 1 242 0
 653 0390 684B     		ldr	r3, .L814+4
 654 0392 1C60     		str	r4, [r3]
 655              		.loc 1 243 0
 656 0394 CCE7     		b	.L42
 657              	.L33:
 658              		.loc 1 237 0
 659 0396 664A     		ldr	r2, .L814
 660 0398 4FF41673 		mov	r3, #600
 661 039c 1360     		str	r3, [r2]
 662              		.loc 1 238 0
 663 039e 654B     		ldr	r3, .L814+4
 664 03a0 4FF49674 		mov	r4, #300
 665 03a4 1C60     		str	r4, [r3]
 666              		.loc 1 239 0
 667 03a6 C3E7     		b	.L42
 668              	.L31:
 669              		.loc 1 273 0
 670 03a8 634B     		ldr	r3, .L814+8
 671 03aa 1B78     		ldrb	r3, [r3]	@ zero_extendqisi2
 672 03ac 002B     		cmp	r3, #0
 673 03ae 01F00686 		beq	.L780
 674              	.LVL46:
 675              	.L43:
 676              		.loc 1 277 0
 677 03b2 41F65071 		movw	r1, #8016
 678 03b6 42F61430 		movw	r0, #11028
 679 03ba FFF7FEFF 		bl	e_play_sound
 680              	.LVL47:
 681 03be 5D4B     		ldr	r3, .L814+4
 682 03c0 1C68     		ldr	r4, [r3]
 683              		.loc 1 278 0
 684 03c2 B5E7     		b	.L42
ARM GAS  /tmp/ccZueut9.s 			page 13


 685              	.LVL48:
 686              	.L772:
 687              		.loc 1 293 0
 688 03c4 0022     		movs	r2, #0
 689              		.loc 1 1038 0
 690 03c6 5F4E     		ldr	r6, .L814+20
 691              		.loc 1 752 0
 692 03c8 9FED5F8A 		vldr.32	s16, .L814+24
 693              		.loc 1 293 0
 694 03cc C9F80020 		str	r2, [r9]
 695 03d0 5B42     		negs	r3, r3
 696 03d2 5D46     		mov	r5, fp
 697              	.L46:
 698              		.loc 1 295 0
 699 03d4 DAB2     		uxtb	r2, r3
 700 03d6 083A     		subs	r2, r2, #8
 701 03d8 6F2A     		cmp	r2, #111
 702 03da 00F29080 		bhi	.L47
 703 03de DFE812F0 		tbh	[pc, r2, lsl #1]
 704              	.L49:
 705 03e2 ED04     		.2byte	(.L48-.L49)/2
 706 03e4 D703     		.2byte	(.L50-.L49)/2
 707 03e6 A804     		.2byte	(.L51-.L49)/2
 708 03e8 7E03     		.2byte	(.L52-.L49)/2
 709 03ea 7F04     		.2byte	(.L53-.L49)/2
 710 03ec B003     		.2byte	(.L54-.L49)/2
 711 03ee AB01     		.2byte	(.L55-.L49)/2
 712 03f0 7000     		.2byte	(.L56-.L49)/2
 713 03f2 8102     		.2byte	(.L57-.L49)/2
 714 03f4 1D02     		.2byte	(.L58-.L49)/2
 715 03f6 8E00     		.2byte	(.L47-.L49)/2
 716 03f8 8E00     		.2byte	(.L47-.L49)/2
 717 03fa 8E00     		.2byte	(.L47-.L49)/2
 718 03fc 8E00     		.2byte	(.L47-.L49)/2
 719 03fe 8E00     		.2byte	(.L47-.L49)/2
 720 0400 8E00     		.2byte	(.L47-.L49)/2
 721 0402 8E00     		.2byte	(.L47-.L49)/2
 722 0404 8E00     		.2byte	(.L47-.L49)/2
 723 0406 8E00     		.2byte	(.L47-.L49)/2
 724 0408 8E00     		.2byte	(.L47-.L49)/2
 725 040a 8E00     		.2byte	(.L47-.L49)/2
 726 040c 8E00     		.2byte	(.L47-.L49)/2
 727 040e 8E00     		.2byte	(.L47-.L49)/2
 728 0410 8E00     		.2byte	(.L47-.L49)/2
 729 0412 8E00     		.2byte	(.L47-.L49)/2
 730 0414 8E00     		.2byte	(.L47-.L49)/2
 731 0416 8E00     		.2byte	(.L47-.L49)/2
 732 0418 8E00     		.2byte	(.L47-.L49)/2
 733 041a 8E00     		.2byte	(.L47-.L49)/2
 734 041c 8E00     		.2byte	(.L47-.L49)/2
 735 041e 8E00     		.2byte	(.L47-.L49)/2
 736 0420 8E00     		.2byte	(.L47-.L49)/2
 737 0422 8E00     		.2byte	(.L47-.L49)/2
 738 0424 8E00     		.2byte	(.L47-.L49)/2
 739 0426 8E00     		.2byte	(.L47-.L49)/2
 740 0428 8E00     		.2byte	(.L47-.L49)/2
 741 042a 8E00     		.2byte	(.L47-.L49)/2
ARM GAS  /tmp/ccZueut9.s 			page 14


 742 042c 8E00     		.2byte	(.L47-.L49)/2
 743 042e 8E00     		.2byte	(.L47-.L49)/2
 744 0430 8E00     		.2byte	(.L47-.L49)/2
 745 0432 8E00     		.2byte	(.L47-.L49)/2
 746 0434 8E00     		.2byte	(.L47-.L49)/2
 747 0436 8E00     		.2byte	(.L47-.L49)/2
 748 0438 8E00     		.2byte	(.L47-.L49)/2
 749 043a 8E00     		.2byte	(.L47-.L49)/2
 750 043c 8E00     		.2byte	(.L47-.L49)/2
 751 043e 8E00     		.2byte	(.L47-.L49)/2
 752 0440 8E00     		.2byte	(.L47-.L49)/2
 753 0442 8E00     		.2byte	(.L47-.L49)/2
 754 0444 8E00     		.2byte	(.L47-.L49)/2
 755 0446 8E00     		.2byte	(.L47-.L49)/2
 756 0448 8E00     		.2byte	(.L47-.L49)/2
 757 044a 8E00     		.2byte	(.L47-.L49)/2
 758 044c 8E00     		.2byte	(.L47-.L49)/2
 759 044e 8E00     		.2byte	(.L47-.L49)/2
 760 0450 8E00     		.2byte	(.L47-.L49)/2
 761 0452 8E00     		.2byte	(.L47-.L49)/2
 762 0454 3602     		.2byte	(.L59-.L49)/2
 763 0456 8E00     		.2byte	(.L47-.L49)/2
 764 0458 8E00     		.2byte	(.L47-.L49)/2
 765 045a C601     		.2byte	(.L60-.L49)/2
 766 045c C402     		.2byte	(.L61-.L49)/2
 767 045e 8E00     		.2byte	(.L47-.L49)/2
 768 0460 8E00     		.2byte	(.L47-.L49)/2
 769 0462 8E00     		.2byte	(.L47-.L49)/2
 770 0464 A102     		.2byte	(.L62-.L49)/2
 771 0466 8E00     		.2byte	(.L47-.L49)/2
 772 0468 8E00     		.2byte	(.L47-.L49)/2
 773 046a 8803     		.2byte	(.L63-.L49)/2
 774 046c 5901     		.2byte	(.L64-.L49)/2
 775 046e EA00     		.2byte	(.L65-.L49)/2
 776 0470 D200     		.2byte	(.L66-.L49)/2
 777 0472 0201     		.2byte	(.L67-.L49)/2
 778 0474 B700     		.2byte	(.L68-.L49)/2
 779 0476 8E00     		.2byte	(.L47-.L49)/2
 780 0478 8E00     		.2byte	(.L47-.L49)/2
 781 047a 8E00     		.2byte	(.L47-.L49)/2
 782 047c 8E00     		.2byte	(.L47-.L49)/2
 783 047e 8E00     		.2byte	(.L47-.L49)/2
 784 0480 4803     		.2byte	(.L69-.L49)/2
 785 0482 8E00     		.2byte	(.L47-.L49)/2
 786 0484 F502     		.2byte	(.L70-.L49)/2
 787 0486 8E00     		.2byte	(.L47-.L49)/2
 788 0488 8E00     		.2byte	(.L47-.L49)/2
 789 048a 8E00     		.2byte	(.L47-.L49)/2
 790 048c 8E00     		.2byte	(.L47-.L49)/2
 791 048e 8E00     		.2byte	(.L47-.L49)/2
 792 0490 8E00     		.2byte	(.L47-.L49)/2
 793 0492 8E00     		.2byte	(.L47-.L49)/2
 794 0494 2703     		.2byte	(.L71-.L49)/2
 795 0496 B801     		.2byte	(.L72-.L49)/2
 796 0498 8E00     		.2byte	(.L47-.L49)/2
 797 049a 8E00     		.2byte	(.L47-.L49)/2
 798 049c 8E00     		.2byte	(.L47-.L49)/2
ARM GAS  /tmp/ccZueut9.s 			page 15


 799 049e 8E00     		.2byte	(.L47-.L49)/2
 800 04a0 E202     		.2byte	(.L73-.L49)/2
 801 04a2 8E00     		.2byte	(.L47-.L49)/2
 802 04a4 8E00     		.2byte	(.L47-.L49)/2
 803 04a6 8E00     		.2byte	(.L47-.L49)/2
 804 04a8 8E00     		.2byte	(.L47-.L49)/2
 805 04aa 8E00     		.2byte	(.L47-.L49)/2
 806 04ac 8E00     		.2byte	(.L47-.L49)/2
 807 04ae 8E00     		.2byte	(.L47-.L49)/2
 808 04b0 8E00     		.2byte	(.L47-.L49)/2
 809 04b2 8E00     		.2byte	(.L47-.L49)/2
 810 04b4 8E00     		.2byte	(.L47-.L49)/2
 811 04b6 8E00     		.2byte	(.L47-.L49)/2
 812 04b8 8E00     		.2byte	(.L47-.L49)/2
 813 04ba D702     		.2byte	(.L74-.L49)/2
 814 04bc 8B01     		.2byte	(.L75-.L49)/2
 815 04be 8E00     		.2byte	(.L47-.L49)/2
 816 04c0 8A06     		.2byte	(.L76-.L49)/2
 817              		.p2align 1
 818              	.L56:
 819              		.loc 1 634 0
 820 04c2 55B9     		cbnz	r5, .L131
 821              		.loc 1 636 0
 822 04c4 079B     		ldr	r3, [sp, #28]
 823 04c6 002B     		cmp	r3, #0
 824 04c8 01F09E87 		beq	.L132
 825              		.loc 1 637 0
 826 04cc 1F4B     		ldr	r3, .L814+28
 827 04ce 1F48     		ldr	r0, .L814+28
 828 04d0 1B68     		ldr	r3, [r3]
 829 04d2 0122     		movs	r2, #1
 830 04d4 5B68     		ldr	r3, [r3, #4]
 831 04d6 14A9     		add	r1, sp, #80
 832 04d8 9847     		blx	r3
 833              	.LVL49:
 834              	.L131:
 835              		.loc 1 647 0
 836 04da FFF7FEFF 		bl	serial_get_last_errors
 837              	.LVL50:
 838 04de 0028     		cmp	r0, #0
 839 04e0 41F0F084 		bne	.L134
 840              		.loc 1 654 0
 841 04e4 9DF85030 		ldrb	r3, [sp, #80]	@ zero_extendqisi2
 842 04e8 012B     		cmp	r3, #1
 843 04ea 01F00987 		beq	.L781
 844              	.L145:
 845              		.loc 1 723 0
 846 04ee D9F80030 		ldr	r3, [r9]
 847 04f2 0021     		movs	r1, #0
 848 04f4 5A1C     		adds	r2, r3, #1
 849 04f6 08F80310 		strb	r1, [r8, r3]
 850 04fa C9F80020 		str	r2, [r9]
 851              	.L47:
 852              		.loc 1 1035 0
 853 04fe 35B9     		cbnz	r5, .L769
 854              	.L128:
 855              		.loc 1 1037 0
ARM GAS  /tmp/ccZueut9.s 			page 16


 856 0500 079B     		ldr	r3, [sp, #28]
 857 0502 53B1     		cbz	r3, .L216
 858              	.L217:
 859              		.loc 1 1038 0 discriminator 1
 860 0504 3046     		mov	r0, r6
 861 0506 FFF7FEFF 		bl	e_getchar_uart1
 862              	.LVL51:
 863 050a 0028     		cmp	r0, #0
 864 050c FAD0     		beq	.L217
 865              	.L769:
 866 050e 3B78     		ldrb	r3, [r7]	@ zero_extendqisi2
 867              	.L191:
 868              		.loc 1 1042 0
 869 0510 002B     		cmp	r3, #0
 870 0512 00F08B86 		beq	.L740
 871 0516 5B42     		negs	r3, r3
 872 0518 5CE7     		b	.L46
 873              	.L216:
 874              		.loc 1 1040 0 discriminator 1
 875 051a 3046     		mov	r0, r6
 876 051c FFF7FEFF 		bl	e_getchar_uart2
 877              	.LVL52:
 878 0520 0028     		cmp	r0, #0
 879 0522 F4D1     		bne	.L769
 880              		.loc 1 1040 0 is_stmt 0
 881 0524 3046     		mov	r0, r6
 882 0526 FFF7FEFF 		bl	e_getchar_uart2
 883              	.LVL53:
 884 052a 0028     		cmp	r0, #0
 885 052c F5D0     		beq	.L216
 886 052e EEE7     		b	.L769
 887              	.L815:
 888              		.align	2
 889              	.L814:
 890 0530 00000000 		.word	.LANCHOR6
 891 0534 00000000 		.word	.LANCHOR7
 892 0538 00000000 		.word	.LANCHOR8
 893 053c D4FEFFFF 		.word	-300
 894 0540 A8FDFFFF 		.word	-600
 895 0544 00000000 		.word	c
 896 0548 00000000 		.word	0
 897 054c 00000000 		.word	SD3
 898              	.L68:
 899              		.loc 1 935 0 is_stmt 1
 900 0550 FFF7FEFF 		bl	e_get_steps_left
 901              	.LVL54:
 902              		.loc 1 936 0
 903 0554 D9F80030 		ldr	r3, [r9]
 904              		.loc 1 937 0
 905 0558 08EB0302 		add	r2, r8, r3
 906              		.loc 1 936 0
 907 055c 08F80300 		strb	r0, [r8, r3]
 908              		.loc 1 937 0
 909 0560 0112     		asrs	r1, r0, #8
 910 0562 0233     		adds	r3, r3, #2
 911 0564 5170     		strb	r1, [r2, #1]
 912 0566 C9F80030 		str	r3, [r9]
ARM GAS  /tmp/ccZueut9.s 			page 17


 913              		.loc 1 938 0
 914 056a FFF7FEFF 		bl	e_get_steps_right
 915              	.LVL55:
 916              	.L768:
 917              		.loc 1 961 0
 918 056e D9F80030 		ldr	r3, [r9]
 919              		.loc 1 962 0
 920 0572 08EB0302 		add	r2, r8, r3
 921              		.loc 1 961 0
 922 0576 08F80300 		strb	r0, [r8, r3]
 923              		.loc 1 962 0
 924 057a 0112     		asrs	r1, r0, #8
 925 057c 0233     		adds	r3, r3, #2
 926 057e 5170     		strb	r1, [r2, #1]
 927 0580 C9F80030 		str	r3, [r9]
 928              		.loc 1 963 0
 929 0584 BBE7     		b	.L47
 930              	.L66:
 931              		.loc 1 903 0
 932 0586 0020     		movs	r0, #0
 933 0588 CAF80000 		str	r0, [r10]
 934              	.L176:
 935              		.loc 1 904 0 discriminator 3
 936 058c FFF7FEFF 		bl	e_get_ambient_light
 937              	.LVL56:
 938              		.loc 1 905 0 discriminator 3
 939 0590 D9F80020 		ldr	r2, [r9]
 940              		.loc 1 903 0 discriminator 3
 941 0594 DAF80030 		ldr	r3, [r10]
 942              		.loc 1 905 0 discriminator 3
 943 0598 08F80200 		strb	r0, [r8, r2]
 944              		.loc 1 906 0 discriminator 3
 945 059c 08EB0204 		add	r4, r8, r2
 946 05a0 0112     		asrs	r1, r0, #8
 947              		.loc 1 903 0 discriminator 3
 948 05a2 581C     		adds	r0, r3, #1
 949              		.loc 1 906 0 discriminator 3
 950 05a4 0232     		adds	r2, r2, #2
 951              		.loc 1 903 0 discriminator 3
 952 05a6 0728     		cmp	r0, #7
 953              		.loc 1 906 0 discriminator 3
 954 05a8 6170     		strb	r1, [r4, #1]
 955 05aa C9F80020 		str	r2, [r9]
 956              		.loc 1 903 0 discriminator 3
 957 05ae CAF80000 		str	r0, [r10]
 958 05b2 EBDD     		ble	.L176
 959 05b4 A3E7     		b	.L47
 960              	.L65:
 961              		.loc 1 896 0
 962 05b6 0020     		movs	r0, #0
 963 05b8 CAF80000 		str	r0, [r10]
 964              	.L174:
 965              		.loc 1 897 0 discriminator 3
 966 05bc FFF7FEFF 		bl	e_get_calibrated_prox
 967              	.LVL57:
 968              		.loc 1 898 0 discriminator 3
 969 05c0 D9F80020 		ldr	r2, [r9]
ARM GAS  /tmp/ccZueut9.s 			page 18


 970              		.loc 1 896 0 discriminator 3
 971 05c4 DAF80030 		ldr	r3, [r10]
 972              		.loc 1 898 0 discriminator 3
 973 05c8 08F80200 		strb	r0, [r8, r2]
 974              		.loc 1 899 0 discriminator 3
 975 05cc 08EB0204 		add	r4, r8, r2
 976 05d0 0112     		asrs	r1, r0, #8
 977              		.loc 1 896 0 discriminator 3
 978 05d2 581C     		adds	r0, r3, #1
 979              		.loc 1 899 0 discriminator 3
 980 05d4 0232     		adds	r2, r2, #2
 981              		.loc 1 896 0 discriminator 3
 982 05d6 0728     		cmp	r0, #7
 983              		.loc 1 899 0 discriminator 3
 984 05d8 6170     		strb	r1, [r4, #1]
 985 05da C9F80020 		str	r2, [r9]
 986              		.loc 1 896 0 discriminator 3
 987 05de CAF80000 		str	r0, [r10]
 988 05e2 EBDD     		ble	.L174
 989 05e4 8BE7     		b	.L47
 990              	.L67:
 991              		.loc 1 911 0
 992 05e6 002D     		cmp	r5, #0
 993 05e8 41F0CC84 		bne	.L177
 994              		.loc 1 913 0
 995 05ec 079B     		ldr	r3, [sp, #28]
 996              		.loc 1 914 0
 997 05ee B54C     		ldr	r4, .L816
 998              		.loc 1 913 0
 999 05f0 002B     		cmp	r3, #0
 1000 05f2 2FD0     		beq	.L178
 1001              	.L179:
 1002              		.loc 1 914 0 discriminator 1
 1003 05f4 2046     		mov	r0, r4
 1004 05f6 FFF7FEFF 		bl	e_getchar_uart1
 1005              	.LVL58:
 1006 05fa 0028     		cmp	r0, #0
 1007 05fc FAD0     		beq	.L179
 1008              		.loc 1 915 0
 1009 05fe B24C     		ldr	r4, .L816+4
 1010              	.L180:
 1011              		.loc 1 915 0 is_stmt 0 discriminator 1
 1012 0600 2046     		mov	r0, r4
 1013 0602 FFF7FEFF 		bl	e_getchar_uart1
 1014              	.LVL59:
 1015 0606 0028     		cmp	r0, #0
 1016 0608 FAD0     		beq	.L180
 1017              		.loc 1 920 0 is_stmt 1
 1018 060a AF4B     		ldr	r3, .L816+4
 1019              		.loc 1 924 0
 1020 060c AD4C     		ldr	r4, .L816
 1021              		.loc 1 920 0
 1022 060e 1A78     		ldrb	r2, [r3]	@ zero_extendqisi2
 1023 0610 AC4B     		ldr	r3, .L816
 1024 0612 1B78     		ldrb	r3, [r3]	@ zero_extendqisi2
 1025 0614 03EB0223 		add	r3, r3, r2, lsl #8
 1026 0618 AC4A     		ldr	r2, .L816+8
ARM GAS  /tmp/ccZueut9.s 			page 19


 1027 061a 1360     		str	r3, [r2]
 1028              	.L184:
 1029              		.loc 1 924 0 discriminator 1
 1030 061c 2046     		mov	r0, r4
 1031 061e FFF7FEFF 		bl	e_getchar_uart1
 1032              	.LVL60:
 1033 0622 0028     		cmp	r0, #0
 1034 0624 FAD0     		beq	.L184
 1035              		.loc 1 925 0
 1036 0626 A84C     		ldr	r4, .L816+4
 1037              	.L185:
 1038              		.loc 1 925 0 is_stmt 0 discriminator 1
 1039 0628 2046     		mov	r0, r4
 1040 062a FFF7FEFF 		bl	e_getchar_uart1
 1041              	.LVL61:
 1042 062e 0028     		cmp	r0, #0
 1043 0630 FAD0     		beq	.L185
 1044              	.L739:
 1045 0632 A54B     		ldr	r3, .L816+4
 1046 0634 A549     		ldr	r1, .L816+8
 1047 0636 1A78     		ldrb	r2, [r3]	@ zero_extendqisi2
 1048 0638 A24B     		ldr	r3, .L816
 1049 063a 0868     		ldr	r0, [r1]
 1050 063c 1B78     		ldrb	r3, [r3]	@ zero_extendqisi2
 1051 063e 03EB0223 		add	r3, r3, r2, lsl #8
 1052              	.L189:
 1053              		.loc 1 930 0 is_stmt 1
 1054 0642 A34A     		ldr	r2, .L816+12
 1055 0644 1446     		mov	r4, r2
 1056 0646 1360     		str	r3, [r2]
 1057              		.loc 1 931 0
 1058 0648 FFF7FEFF 		bl	e_set_steps_left
 1059              	.LVL62:
 1060              		.loc 1 932 0
 1061 064c 2068     		ldr	r0, [r4]
 1062 064e FFF7FEFF 		bl	e_set_steps_right
 1063              	.LVL63:
 1064              		.loc 1 933 0
 1065 0652 54E7     		b	.L47
 1066              	.L178:
 1067              		.loc 1 917 0 discriminator 1
 1068 0654 2046     		mov	r0, r4
 1069 0656 FFF7FEFF 		bl	e_getchar_uart2
 1070              	.LVL64:
 1071 065a 0028     		cmp	r0, #0
 1072 065c FAD0     		beq	.L178
 1073              		.loc 1 918 0
 1074 065e 9A4C     		ldr	r4, .L816+4
 1075              	.L182:
 1076              		.loc 1 918 0 is_stmt 0 discriminator 1
 1077 0660 2046     		mov	r0, r4
 1078 0662 FFF7FEFF 		bl	e_getchar_uart2
 1079              	.LVL65:
 1080 0666 0028     		cmp	r0, #0
 1081 0668 FAD0     		beq	.L182
 1082              		.loc 1 920 0 is_stmt 1
 1083 066a 974B     		ldr	r3, .L816+4
ARM GAS  /tmp/ccZueut9.s 			page 20


 1084              		.loc 1 927 0
 1085 066c 954C     		ldr	r4, .L816
 1086              		.loc 1 920 0
 1087 066e 1A78     		ldrb	r2, [r3]	@ zero_extendqisi2
 1088 0670 944B     		ldr	r3, .L816
 1089 0672 1B78     		ldrb	r3, [r3]	@ zero_extendqisi2
 1090 0674 03EB0223 		add	r3, r3, r2, lsl #8
 1091 0678 944A     		ldr	r2, .L816+8
 1092 067a 1360     		str	r3, [r2]
 1093              	.L187:
 1094              		.loc 1 927 0 discriminator 1
 1095 067c 2046     		mov	r0, r4
 1096 067e FFF7FEFF 		bl	e_getchar_uart2
 1097              	.LVL66:
 1098 0682 0028     		cmp	r0, #0
 1099 0684 FAD0     		beq	.L187
 1100              		.loc 1 928 0
 1101 0686 904C     		ldr	r4, .L816+4
 1102              	.L188:
 1103              		.loc 1 928 0 is_stmt 0 discriminator 1
 1104 0688 2046     		mov	r0, r4
 1105 068a FFF7FEFF 		bl	e_getchar_uart2
 1106              	.LVL67:
 1107 068e 0028     		cmp	r0, #0
 1108 0690 FAD0     		beq	.L188
 1109 0692 CEE7     		b	.L739
 1110              	.L64:
 1111              		.loc 1 876 0 is_stmt 1
 1112 0694 002D     		cmp	r5, #0
 1113 0696 7FF49DAE 		bne	.L46
 1114              		.loc 1 877 0
 1115 069a CAF80050 		str	r5, [r10]
 1116 069e 2846     		mov	r0, r5
 1117              	.L172:
 1118              		.loc 1 878 0 discriminator 3
 1119 06a0 FFF7FEFF 		bl	get_ground_prox
 1120              	.LVL68:
 1121              		.loc 1 879 0 discriminator 3
 1122 06a4 D9F80020 		ldr	r2, [r9]
 1123              		.loc 1 877 0 discriminator 3
 1124 06a8 DAF80030 		ldr	r3, [r10]
 1125              		.loc 1 879 0 discriminator 3
 1126 06ac 08F80200 		strb	r0, [r8, r2]
 1127              		.loc 1 880 0 discriminator 3
 1128 06b0 08EB0204 		add	r4, r8, r2
 1129 06b4 0112     		asrs	r1, r0, #8
 1130              		.loc 1 877 0 discriminator 3
 1131 06b6 581C     		adds	r0, r3, #1
 1132              		.loc 1 880 0 discriminator 3
 1133 06b8 0232     		adds	r2, r2, #2
 1134              		.loc 1 877 0 discriminator 3
 1135 06ba 0228     		cmp	r0, #2
 1136              		.loc 1 880 0 discriminator 3
 1137 06bc 6170     		strb	r1, [r4, #1]
 1138 06be C9F80020 		str	r2, [r9]
 1139              		.loc 1 877 0 discriminator 3
 1140 06c2 CAF80000 		str	r0, [r10]
ARM GAS  /tmp/ccZueut9.s 			page 21


 1141 06c6 EBDD     		ble	.L172
 1142              		.loc 1 883 0
 1143 06c8 0320     		movs	r0, #3
 1144 06ca CAF80000 		str	r0, [r10]
 1145              	.L173:
 1146              		.loc 1 884 0 discriminator 3
 1147 06ce FFF7FEFF 		bl	get_ground_prox
 1148              	.LVL69:
 1149              		.loc 1 885 0 discriminator 3
 1150 06d2 D9F80020 		ldr	r2, [r9]
 1151              		.loc 1 883 0 discriminator 3
 1152 06d6 DAF80030 		ldr	r3, [r10]
 1153              		.loc 1 885 0 discriminator 3
 1154 06da 08F80200 		strb	r0, [r8, r2]
 1155              		.loc 1 886 0 discriminator 3
 1156 06de 08EB0204 		add	r4, r8, r2
 1157 06e2 0112     		asrs	r1, r0, #8
 1158              		.loc 1 883 0 discriminator 3
 1159 06e4 581C     		adds	r0, r3, #1
 1160              		.loc 1 886 0 discriminator 3
 1161 06e6 0232     		adds	r2, r2, #2
 1162              		.loc 1 883 0 discriminator 3
 1163 06e8 0328     		cmp	r0, #3
 1164              		.loc 1 886 0 discriminator 3
 1165 06ea 6170     		strb	r1, [r4, #1]
 1166 06ec C9F80020 		str	r2, [r9]
 1167              		.loc 1 883 0 discriminator 3
 1168 06f0 CAF80000 		str	r0, [r10]
 1169 06f4 EBDD     		ble	.L173
 1170 06f6 03E7     		b	.L128
 1171              	.L75:
 1172              		.loc 1 952 0
 1173 06f8 0020     		movs	r0, #0
 1174 06fa FFF7FEFF 		bl	e_get_micro_volume
 1175              	.LVL70:
 1176              		.loc 1 953 0
 1177 06fe D9F80030 		ldr	r3, [r9]
 1178              		.loc 1 954 0
 1179 0702 08EB0302 		add	r2, r8, r3
 1180 0706 0112     		asrs	r1, r0, #8
 1181              		.loc 1 953 0
 1182 0708 08F80300 		strb	r0, [r8, r3]
 1183              		.loc 1 954 0
 1184 070c 0233     		adds	r3, r3, #2
 1185              		.loc 1 956 0
 1186 070e 0120     		movs	r0, #1
 1187              		.loc 1 954 0
 1188 0710 5170     		strb	r1, [r2, #1]
 1189 0712 C9F80030 		str	r3, [r9]
 1190              		.loc 1 956 0
 1191 0716 FFF7FEFF 		bl	e_get_micro_volume
 1192              	.LVL71:
 1193              		.loc 1 957 0
 1194 071a D9F80030 		ldr	r3, [r9]
 1195              		.loc 1 958 0
 1196 071e 0112     		asrs	r1, r0, #8
 1197              		.loc 1 957 0
ARM GAS  /tmp/ccZueut9.s 			page 22


 1198 0720 08F80300 		strb	r0, [r8, r3]
 1199              		.loc 1 958 0
 1200 0724 08EB0302 		add	r2, r8, r3
 1201              		.loc 1 960 0
 1202 0728 0220     		movs	r0, #2
 1203              		.loc 1 958 0
 1204 072a 0233     		adds	r3, r3, #2
 1205              	.L767:
 1206 072c 5170     		strb	r1, [r2, #1]
 1207 072e C9F80030 		str	r3, [r9]
 1208              		.loc 1 960 0
 1209 0732 FFF7FEFF 		bl	e_get_micro_volume
 1210              	.LVL72:
 1211 0736 1AE7     		b	.L768
 1212              	.L55:
 1213              		.loc 1 624 0
 1214 0738 FFF7FEFF 		bl	sdio_is_present
 1215              	.LVL73:
 1216 073c 0028     		cmp	r0, #0
 1217 073e 41F06E85 		bne	.L782
 1218              		.loc 1 629 0
 1219 0742 D9F80030 		ldr	r3, [r9]
 1220 0746 5A1C     		adds	r2, r3, #1
 1221 0748 08F80300 		strb	r0, [r8, r3]
 1222 074c C9F80020 		str	r2, [r9]
 1223 0750 D5E6     		b	.L47
 1224              	.L72:
 1225              		.loc 1 786 0
 1226 0752 FFF7FEFF 		bl	getBatteryValueRaw
 1227              	.LVL74:
 1228              		.loc 1 787 0
 1229 0756 D9F80030 		ldr	r3, [r9]
 1230              		.loc 1 788 0
 1231 075a 08EB0302 		add	r2, r8, r3
 1232              		.loc 1 787 0
 1233 075e 08F80300 		strb	r0, [r8, r3]
 1234              		.loc 1 788 0
 1235 0762 010A     		lsrs	r1, r0, #8
 1236 0764 0233     		adds	r3, r3, #2
 1237 0766 5170     		strb	r1, [r2, #1]
 1238 0768 C9F80030 		str	r3, [r9]
 1239              		.loc 1 789 0
 1240 076c C7E6     		b	.L47
 1241              	.LVL75:
 1242              	.L60:
 1243              		.loc 1 792 0
 1244 076e 002D     		cmp	r5, #0
 1245 0770 41F01384 		bne	.L150
 1246              		.loc 1 794 0
 1247 0774 079B     		ldr	r3, [sp, #28]
 1248              		.loc 1 795 0
 1249 0776 534C     		ldr	r4, .L816
 1250              		.loc 1 794 0
 1251 0778 002B     		cmp	r3, #0
 1252 077a 2FD0     		beq	.L151
 1253              	.L152:
 1254              		.loc 1 795 0 discriminator 1
ARM GAS  /tmp/ccZueut9.s 			page 23


 1255 077c 2046     		mov	r0, r4
 1256 077e FFF7FEFF 		bl	e_getchar_uart1
 1257              	.LVL76:
 1258 0782 0028     		cmp	r0, #0
 1259 0784 FAD0     		beq	.L152
 1260              		.loc 1 796 0
 1261 0786 504C     		ldr	r4, .L816+4
 1262              	.L153:
 1263              		.loc 1 796 0 is_stmt 0 discriminator 1
 1264 0788 2046     		mov	r0, r4
 1265 078a FFF7FEFF 		bl	e_getchar_uart1
 1266              	.LVL77:
 1267 078e 0028     		cmp	r0, #0
 1268 0790 FAD0     		beq	.L153
 1269              		.loc 1 801 0 is_stmt 1
 1270 0792 4D4B     		ldr	r3, .L816+4
 1271              		.loc 1 805 0
 1272 0794 4B4C     		ldr	r4, .L816
 1273              		.loc 1 801 0
 1274 0796 1A78     		ldrb	r2, [r3]	@ zero_extendqisi2
 1275 0798 4A4B     		ldr	r3, .L816
 1276 079a 1B78     		ldrb	r3, [r3]	@ zero_extendqisi2
 1277 079c 03EB0223 		add	r3, r3, r2, lsl #8
 1278 07a0 4C4A     		ldr	r2, .L816+16
 1279 07a2 1360     		str	r3, [r2]
 1280              	.L157:
 1281              		.loc 1 805 0 discriminator 1
 1282 07a4 2046     		mov	r0, r4
 1283 07a6 FFF7FEFF 		bl	e_getchar_uart1
 1284              	.LVL78:
 1285 07aa 0028     		cmp	r0, #0
 1286 07ac FAD0     		beq	.L157
 1287              		.loc 1 806 0
 1288 07ae 464C     		ldr	r4, .L816+4
 1289              	.L158:
 1290              		.loc 1 806 0 is_stmt 0 discriminator 1
 1291 07b0 2046     		mov	r0, r4
 1292 07b2 FFF7FEFF 		bl	e_getchar_uart1
 1293              	.LVL79:
 1294 07b6 0028     		cmp	r0, #0
 1295 07b8 FAD0     		beq	.L158
 1296              	.L735:
 1297 07ba 434B     		ldr	r3, .L816+4
 1298 07bc 4549     		ldr	r1, .L816+16
 1299 07be 1A78     		ldrb	r2, [r3]	@ zero_extendqisi2
 1300 07c0 404B     		ldr	r3, .L816
 1301 07c2 0868     		ldr	r0, [r1]
 1302 07c4 1B78     		ldrb	r3, [r3]	@ zero_extendqisi2
 1303 07c6 03EB0223 		add	r3, r3, r2, lsl #8
 1304              	.L162:
 1305              		.loc 1 811 0 is_stmt 1
 1306 07ca 434A     		ldr	r2, .L816+20
 1307 07cc 1446     		mov	r4, r2
 1308 07ce 1360     		str	r3, [r2]
 1309              		.loc 1 812 0
 1310 07d0 FFF7FEFF 		bl	e_set_speed_left
 1311              	.LVL80:
ARM GAS  /tmp/ccZueut9.s 			page 24


 1312              		.loc 1 813 0
 1313 07d4 2068     		ldr	r0, [r4]
 1314 07d6 FFF7FEFF 		bl	e_set_speed_right
 1315              	.LVL81:
 1316              		.loc 1 814 0
 1317 07da 90E6     		b	.L47
 1318              	.L151:
 1319              		.loc 1 798 0 discriminator 1
 1320 07dc 2046     		mov	r0, r4
 1321 07de FFF7FEFF 		bl	e_getchar_uart2
 1322              	.LVL82:
 1323 07e2 0028     		cmp	r0, #0
 1324 07e4 FAD0     		beq	.L151
 1325              		.loc 1 799 0
 1326 07e6 384C     		ldr	r4, .L816+4
 1327              	.L155:
 1328              		.loc 1 799 0 is_stmt 0 discriminator 1
 1329 07e8 2046     		mov	r0, r4
 1330 07ea FFF7FEFF 		bl	e_getchar_uart2
 1331              	.LVL83:
 1332 07ee 0028     		cmp	r0, #0
 1333 07f0 FAD0     		beq	.L155
 1334              		.loc 1 801 0 is_stmt 1
 1335 07f2 354B     		ldr	r3, .L816+4
 1336              		.loc 1 808 0
 1337 07f4 334C     		ldr	r4, .L816
 1338              		.loc 1 801 0
 1339 07f6 1A78     		ldrb	r2, [r3]	@ zero_extendqisi2
 1340 07f8 324B     		ldr	r3, .L816
 1341 07fa 1B78     		ldrb	r3, [r3]	@ zero_extendqisi2
 1342 07fc 03EB0223 		add	r3, r3, r2, lsl #8
 1343 0800 344A     		ldr	r2, .L816+16
 1344 0802 1360     		str	r3, [r2]
 1345              	.L160:
 1346              		.loc 1 808 0 discriminator 1
 1347 0804 2046     		mov	r0, r4
 1348 0806 FFF7FEFF 		bl	e_getchar_uart2
 1349              	.LVL84:
 1350 080a 0028     		cmp	r0, #0
 1351 080c FAD0     		beq	.L160
 1352              		.loc 1 809 0
 1353 080e 2E4C     		ldr	r4, .L816+4
 1354              	.L161:
 1355              		.loc 1 809 0 is_stmt 0 discriminator 1
 1356 0810 2046     		mov	r0, r4
 1357 0812 FFF7FEFF 		bl	e_getchar_uart2
 1358              	.LVL85:
 1359 0816 0028     		cmp	r0, #0
 1360 0818 FAD0     		beq	.L161
 1361 081a CEE7     		b	.L735
 1362              	.L58:
 1363              		.loc 1 697 0 is_stmt 1
 1364 081c 55B9     		cbnz	r5, .L141
 1365              		.loc 1 699 0
 1366 081e 079B     		ldr	r3, [sp, #28]
 1367 0820 002B     		cmp	r3, #0
 1368 0822 01F0DF85 		beq	.L142
ARM GAS  /tmp/ccZueut9.s 			page 25


 1369              		.loc 1 700 0
 1370 0826 2D4B     		ldr	r3, .L816+24
 1371 0828 2C48     		ldr	r0, .L816+24
 1372 082a 1B68     		ldr	r3, [r3]
 1373 082c 0122     		movs	r2, #1
 1374 082e 5B68     		ldr	r3, [r3, #4]
 1375 0830 14A9     		add	r1, sp, #80
 1376 0832 9847     		blx	r3
 1377              	.LVL86:
 1378              	.L141:
 1379              		.loc 1 710 0
 1380 0834 FFF7FEFF 		bl	serial_get_last_errors
 1381              	.LVL87:
 1382 0838 0028     		cmp	r0, #0
 1383 083a 41F04383 		bne	.L134
 1384              		.loc 1 717 0
 1385 083e 9DF85030 		ldrb	r3, [sp, #80]	@ zero_extendqisi2
 1386 0842 002B     		cmp	r3, #0
 1387 0844 41F0EA83 		bne	.L144
 1388              		.loc 1 718 0
 1389 0848 FFF7FEFF 		bl	VL53L0X_stop
 1390              	.LVL88:
 1391 084c 4FE6     		b	.L145
 1392              	.L59:
 1393              		.loc 1 749 0
 1394 084e 002D     		cmp	r5, #0
 1395 0850 01F0E883 		beq	.L783
 1396              		.loc 1 754 0
 1397 0854 0022     		movs	r2, #0
 1398              		.loc 1 752 0
 1399 0856 224B     		ldr	r3, .L816+28
 1400              		.loc 1 754 0
 1401 0858 0992     		str	r2, [sp, #36]
 1402 085a CDE90C22 		strd	r2, r2, [sp, #48]
 1403 085e CDE90A22 		strd	r2, r2, [sp, #40]
 1404              		.loc 1 752 0
 1405 0862 83ED008A 		vstr.32	s16, [r3]
 1406              		.loc 1 753 0
 1407 0866 83ED028A 		vstr.32	s16, [r3, #8]
 1408              		.loc 1 754 0
 1409 086a 83ED018A 		vstr.32	s16, [r3, #4]
 1410 086e 1046     		mov	r0, r2
 1411 0870 1446     		mov	r4, r2
 1412 0872 0892     		str	r2, [sp, #32]
 1413 0874 9446     		mov	ip, r2
 1414 0876 9646     		mov	lr, r2
 1415 0878 9346     		mov	fp, r2
 1416              	.L149:
 1417              	.LVL89:
 1418              		.loc 1 757 0
 1419 087a D9F80010 		ldr	r1, [r9]
 1420              		.loc 1 759 0
 1421 087e 08EB0103 		add	r3, r8, r1
 1422              		.loc 1 757 0
 1423 0882 08F801B0 		strb	fp, [r8, r1]
 1424              	.LVL90:
 1425              		.loc 1 781 0
ARM GAS  /tmp/ccZueut9.s 			page 26


 1426 0886 01F10C0B 		add	fp, r1, #12
 1427              		.loc 1 763 0
 1428 088a 9DF82010 		ldrb	r1, [sp, #32]	@ zero_extendqisi2
 1429 088e D970     		strb	r1, [r3, #3]
 1430              		.loc 1 770 0
 1431 0890 9DF82410 		ldrb	r1, [sp, #36]	@ zero_extendqisi2
 1432 0894 9971     		strb	r1, [r3, #6]
 1433              		.loc 1 772 0
 1434 0896 9DF82810 		ldrb	r1, [sp, #40]	@ zero_extendqisi2
 1435 089a D971     		strb	r1, [r3, #7]
 1436              		.loc 1 775 0
 1437 089c 9DF82C10 		ldrb	r1, [sp, #44]	@ zero_extendqisi2
 1438 08a0 1972     		strb	r1, [r3, #8]
 1439              		.loc 1 777 0
 1440 08a2 9DF83010 		ldrb	r1, [sp, #48]	@ zero_extendqisi2
 1441 08a6 5972     		strb	r1, [r3, #9]
 1442              		.loc 1 779 0
 1443 08a8 9DF83410 		ldrb	r1, [sp, #52]	@ zero_extendqisi2
 1444              		.loc 1 759 0
 1445 08ac 83F801E0 		strb	lr, [r3, #1]
 1446              	.LVL91:
 1447              		.loc 1 761 0
 1448 08b0 83F802C0 		strb	ip, [r3, #2]
 1449              	.LVL92:
 1450              		.loc 1 766 0
 1451 08b4 1C71     		strb	r4, [r3, #4]
 1452              	.LVL93:
 1453              		.loc 1 768 0
 1454 08b6 5871     		strb	r0, [r3, #5]
 1455              	.LVL94:
 1456              		.loc 1 779 0
 1457 08b8 9972     		strb	r1, [r3, #10]
 1458              	.LVL95:
 1459              		.loc 1 781 0
 1460 08ba DA72     		strb	r2, [r3, #11]
 1461 08bc C9F800B0 		str	fp, [r9]
 1462              		.loc 1 782 0
 1463 08c0 1DE6     		b	.L47
 1464              	.L817:
 1465 08c2 00BF     		.align	2
 1466              	.L816:
 1467 08c4 00000000 		.word	.LANCHOR19
 1468 08c8 00000000 		.word	.LANCHOR20
 1469 08cc 00000000 		.word	.LANCHOR22
 1470 08d0 00000000 		.word	.LANCHOR23
 1471 08d4 00000000 		.word	.LANCHOR7
 1472 08d8 00000000 		.word	.LANCHOR6
 1473 08dc 00000000 		.word	SD3
 1474 08e0 00000000 		.word	.LANCHOR13
 1475              	.LVL96:
 1476              	.L57:
 1477              		.loc 1 665 0
 1478 08e4 55B9     		cbnz	r5, .L136
 1479              		.loc 1 667 0
 1480 08e6 079B     		ldr	r3, [sp, #28]
 1481 08e8 002B     		cmp	r3, #0
 1482 08ea 01F09F85 		beq	.L137
ARM GAS  /tmp/ccZueut9.s 			page 27


 1483              		.loc 1 668 0
 1484 08ee 9C4B     		ldr	r3, .L818
 1485 08f0 9B48     		ldr	r0, .L818
 1486 08f2 1B68     		ldr	r3, [r3]
 1487 08f4 0122     		movs	r2, #1
 1488 08f6 5B68     		ldr	r3, [r3, #4]
 1489 08f8 14A9     		add	r1, sp, #80
 1490 08fa 9847     		blx	r3
 1491              	.LVL97:
 1492              	.L136:
 1493              		.loc 1 678 0
 1494 08fc FFF7FEFF 		bl	serial_get_last_errors
 1495              	.LVL98:
 1496 0900 0446     		mov	r4, r0
 1497 0902 0028     		cmp	r0, #0
 1498 0904 41F0DE82 		bne	.L134
 1499              		.loc 1 685 0
 1500 0908 FFF7FEFF 		bl	proximity_stop
 1501              	.LVL99:
 1502              		.loc 1 686 0
 1503 090c 9DF85030 		ldrb	r3, [sp, #80]	@ zero_extendqisi2
 1504 0910 012B     		cmp	r3, #1
 1505 0912 01F05085 		beq	.L784
 1506              		.loc 1 688 0
 1507 0916 022B     		cmp	r3, #2
 1508 0918 7FF4E9AD 		bne	.L145
 1509              		.loc 1 689 0
 1510 091c 0120     		movs	r0, #1
 1511 091e FFF7FEFF 		bl	proximity_start
 1512              	.LVL100:
 1513 0922 E4E5     		b	.L145
 1514              	.L62:
 1515              		.loc 1 842 0
 1516 0924 002D     		cmp	r5, #0
 1517 0926 7FF455AD 		bne	.L46
 1518              		.loc 1 843 0
 1519 092a D9F80030 		ldr	r3, [r9]
 1520 092e 0333     		adds	r3, r3, #3
 1521 0930 08EB0300 		add	r0, r8, r3
 1522 0934 FFF7FEFF 		bl	e_poxxxx_launch_capture
 1523              	.LVL101:
 1524              		.loc 1 845 0
 1525 0938 1299     		ldr	r1, [sp, #72]
 1526 093a D9F80030 		ldr	r3, [r9]
 1527              		.loc 1 849 0
 1528 093e 0E9A     		ldr	r2, [sp, #56]
 1529              		.loc 1 845 0
 1530 0940 0868     		ldr	r0, [r1]
 1531              		.loc 1 846 0
 1532 0942 1099     		ldr	r1, [sp, #64]
 1533              		.loc 1 845 0
 1534 0944 08F80300 		strb	r0, [r8, r3]
 1535              		.loc 1 849 0
 1536 0948 1268     		ldr	r2, [r2]
 1537              		.loc 1 846 0
 1538 094a 0968     		ldr	r1, [r1]
 1539              		.loc 1 847 0
ARM GAS  /tmp/ccZueut9.s 			page 28


 1540 094c D81C     		adds	r0, r3, #3
 1541              		.loc 1 846 0
 1542 094e 4344     		add	r3, r3, r8
 1543              		.loc 1 849 0
 1544 0950 0244     		add	r2, r2, r0
 1545              		.loc 1 846 0
 1546 0952 5970     		strb	r1, [r3, #1]
 1547              		.loc 1 847 0
 1548 0954 1199     		ldr	r1, [sp, #68]
 1549              		.loc 1 849 0
 1550 0956 C9F80020 		str	r2, [r9]
 1551              		.loc 1 848 0
 1552 095a 82B2     		uxth	r2, r0
 1553              		.loc 1 847 0
 1554 095c 0968     		ldr	r1, [r1]
 1555              		.loc 1 848 0
 1556 095e 0F92     		str	r2, [sp, #60]
 1557              	.LVL102:
 1558              		.loc 1 844 0
 1559 0960 804A     		ldr	r2, .L818+4
 1560              	.LVL103:
 1561              		.loc 1 847 0
 1562 0962 9970     		strb	r1, [r3, #2]
 1563              		.loc 1 844 0
 1564 0964 0123     		movs	r3, #1
 1565 0966 1370     		strb	r3, [r2]
 1566 0968 CAE5     		b	.L128
 1567              	.LVL104:
 1568              	.L61:
 1569              		.loc 1 816 0
 1570 096a 7F4A     		ldr	r2, .L818+8
 1571 096c D9F80030 		ldr	r3, [r9]
 1572              		.loc 1 818 0
 1573 0970 7E49     		ldr	r1, .L818+12
 1574              		.loc 1 816 0
 1575 0972 1268     		ldr	r2, [r2]
 1576              		.loc 1 818 0
 1577 0974 0868     		ldr	r0, [r1]
 1578              		.loc 1 816 0
 1579 0976 08F80320 		strb	r2, [r8, r3]
 1580              		.loc 1 817 0
 1581 097a 08EB0301 		add	r1, r8, r3
 1582 097e 1212     		asrs	r2, r2, #8
 1583              		.loc 1 819 0
 1584 0980 0433     		adds	r3, r3, #4
 1585              		.loc 1 817 0
 1586 0982 4A70     		strb	r2, [r1, #1]
 1587              		.loc 1 819 0
 1588 0984 0212     		asrs	r2, r0, #8
 1589 0986 C9F80030 		str	r3, [r9]
 1590              		.loc 1 818 0
 1591 098a 8870     		strb	r0, [r1, #2]
 1592              		.loc 1 819 0
 1593 098c CA70     		strb	r2, [r1, #3]
 1594              		.loc 1 820 0
 1595 098e B6E5     		b	.L47
 1596              	.L74:
ARM GAS  /tmp/ccZueut9.s 			page 29


 1597              		.loc 1 944 0
 1598 0990 002D     		cmp	r5, #0
 1599 0992 41F05484 		bne	.L190
 1600              		.loc 1 945 0
 1601 0996 D9F80030 		ldr	r3, [r9]
 1602 099a 5A1C     		adds	r2, r3, #1
 1603 099c 08F80350 		strb	r5, [r8, r3]
 1604 09a0 C9F80020 		str	r2, [r9]
 1605 09a4 ACE5     		b	.L128
 1606              	.L73:
 1607              		.loc 1 823 0
 1608 09a6 002D     		cmp	r5, #0
 1609 09a8 01F0E983 		beq	.L785
 1610              		.loc 1 832 0
 1611 09ac D9F80000 		ldr	r0, [r9]
 1612              		.loc 1 833 0
 1613 09b0 08EB0001 		add	r1, r8, r0
 1614              		.loc 1 832 0
 1615 09b4 0022     		movs	r2, #0
 1616              		.loc 1 837 0
 1617 09b6 841D     		adds	r4, r0, #6
 1618              		.loc 1 832 0
 1619 09b8 08F80020 		strb	r2, [r8, r0]
 1620              		.loc 1 837 0
 1621 09bc C9F80040 		str	r4, [r9]
 1622              		.loc 1 833 0
 1623 09c0 4A70     		strb	r2, [r1, #1]
 1624              		.loc 1 834 0
 1625 09c2 8A70     		strb	r2, [r1, #2]
 1626              		.loc 1 835 0
 1627 09c4 CA70     		strb	r2, [r1, #3]
 1628              		.loc 1 836 0
 1629 09c6 0A71     		strb	r2, [r1, #4]
 1630              		.loc 1 837 0
 1631 09c8 4A71     		strb	r2, [r1, #5]
 1632 09ca 03E5     		b	.L46
 1633              	.L70:
 1634              		.loc 1 1018 0
 1635 09cc 002D     		cmp	r5, #0
 1636 09ce 7FF401AD 		bne	.L46
 1637              		.loc 1 1019 0
 1638 09d2 079B     		ldr	r3, [sp, #28]
 1639              		.loc 1 1020 0
 1640 09d4 664C     		ldr	r4, .L818+16
 1641              		.loc 1 1019 0
 1642 09d6 FBB1     		cbz	r3, .L211
 1643              	.L212:
 1644              		.loc 1 1020 0 discriminator 1
 1645 09d8 2046     		mov	r0, r4
 1646 09da FFF7FEFF 		bl	e_getchar_uart1
 1647              	.LVL105:
 1648 09de 0028     		cmp	r0, #0
 1649 09e0 FAD0     		beq	.L212
 1650              		.loc 1 1021 0
 1651 09e2 644C     		ldr	r4, .L818+20
 1652              	.L213:
 1653              		.loc 1 1021 0 is_stmt 0 discriminator 1
ARM GAS  /tmp/ccZueut9.s 			page 30


 1654 09e4 2046     		mov	r0, r4
 1655 09e6 FFF7FEFF 		bl	e_getchar_uart1
 1656              	.LVL106:
 1657 09ea 0028     		cmp	r0, #0
 1658 09ec FAD0     		beq	.L213
 1659              	.L214:
 1660              		.loc 1 1026 0 is_stmt 1
 1661 09ee FFF7FEFF 		bl	e_i2cp_enable
 1662              	.LVL107:
 1663              		.loc 1 1027 0
 1664 09f2 604B     		ldr	r3, .L818+20
 1665 09f4 604C     		ldr	r4, .L818+24
 1666 09f6 1978     		ldrb	r1, [r3]	@ zero_extendqisi2
 1667 09f8 5D4B     		ldr	r3, .L818+16
 1668 09fa 1878     		ldrb	r0, [r3]	@ zero_extendqisi2
 1669 09fc FFF7FEFF 		bl	e_i2cp_read
 1670              	.LVL108:
 1671 0a00 2060     		str	r0, [r4]
 1672              		.loc 1 1028 0
 1673 0a02 FFF7FEFF 		bl	e_i2cp_disable
 1674              	.LVL109:
 1675              		.loc 1 1029 0
 1676 0a06 D9F80030 		ldr	r3, [r9]
 1677 0a0a 2268     		ldr	r2, [r4]
 1678 0a0c 08F80320 		strb	r2, [r8, r3]
 1679 0a10 0133     		adds	r3, r3, #1
 1680 0a12 C9F80030 		str	r3, [r9]
 1681 0a16 73E5     		b	.L128
 1682              	.L211:
 1683              		.loc 1 1023 0 discriminator 1
 1684 0a18 2046     		mov	r0, r4
 1685 0a1a FFF7FEFF 		bl	e_getchar_uart2
 1686              	.LVL110:
 1687 0a1e 0028     		cmp	r0, #0
 1688 0a20 FAD0     		beq	.L211
 1689              		.loc 1 1024 0
 1690 0a22 544C     		ldr	r4, .L818+20
 1691              	.L215:
 1692              		.loc 1 1024 0 is_stmt 0 discriminator 1
 1693 0a24 2046     		mov	r0, r4
 1694 0a26 FFF7FEFF 		bl	e_getchar_uart2
 1695              	.LVL111:
 1696 0a2a 0028     		cmp	r0, #0
 1697 0a2c FAD0     		beq	.L215
 1698 0a2e DEE7     		b	.L214
 1699              	.L71:
 1700              		.loc 1 728 0 is_stmt 1
 1701 0a30 002D     		cmp	r5, #0
 1702 0a32 01F0C283 		beq	.L786
 1703              		.loc 1 736 0
 1704 0a36 5149     		ldr	r1, .L818+28
 1705 0a38 0022     		movs	r2, #0
 1706 0a3a 0A60     		str	r2, [r1]
 1707              		.loc 1 737 0
 1708 0a3c 5049     		ldr	r1, .L818+32
 1709 0a3e 0A60     		str	r2, [r1]
 1710              		.loc 1 738 0
ARM GAS  /tmp/ccZueut9.s 			page 31


 1711 0a40 5049     		ldr	r1, .L818+36
 1712 0a42 1346     		mov	r3, r2
 1713 0a44 0A60     		str	r2, [r1]
 1714 0a46 9346     		mov	fp, r2
 1715 0a48 1046     		mov	r0, r2
 1716 0a4a 9446     		mov	ip, r2
 1717 0a4c 1446     		mov	r4, r2
 1718 0a4e 9646     		mov	lr, r2
 1719              	.L147:
 1720              		.loc 1 740 0
 1721 0a50 D9F80020 		ldr	r2, [r9]
 1722              		.loc 1 741 0
 1723 0a54 08EB0201 		add	r1, r8, r2
 1724              		.loc 1 740 0
 1725 0a58 08F802E0 		strb	lr, [r8, r2]
 1726              		.loc 1 745 0
 1727 0a5c 0632     		adds	r2, r2, #6
 1728              		.loc 1 741 0
 1729 0a5e 4C70     		strb	r4, [r1, #1]
 1730              		.loc 1 742 0
 1731 0a60 81F802C0 		strb	ip, [r1, #2]
 1732              		.loc 1 743 0
 1733 0a64 C870     		strb	r0, [r1, #3]
 1734              		.loc 1 744 0
 1735 0a66 81F804B0 		strb	fp, [r1, #4]
 1736              		.loc 1 745 0
 1737 0a6a 4B71     		strb	r3, [r1, #5]
 1738 0a6c C9F80020 		str	r2, [r9]
 1739              		.loc 1 746 0
 1740 0a70 45E5     		b	.L47
 1741              	.L69:
 1742              		.loc 1 977 0
 1743 0a72 002D     		cmp	r5, #0
 1744 0a74 7FF4AEAC 		bne	.L46
 1745              		.loc 1 978 0
 1746 0a78 079B     		ldr	r3, [sp, #28]
 1747              		.loc 1 979 0
 1748 0a7a 3D4C     		ldr	r4, .L818+16
 1749              		.loc 1 978 0
 1750 0a7c EBB1     		cbz	r3, .L192
 1751              	.L193:
 1752              		.loc 1 979 0 discriminator 1
 1753 0a7e 2046     		mov	r0, r4
 1754 0a80 FFF7FEFF 		bl	e_getchar_uart1
 1755              	.LVL112:
 1756 0a84 0028     		cmp	r0, #0
 1757 0a86 FAD0     		beq	.L193
 1758              		.loc 1 980 0
 1759 0a88 3A4C     		ldr	r4, .L818+20
 1760              	.L194:
 1761              		.loc 1 980 0 is_stmt 0 discriminator 1
 1762 0a8a 2046     		mov	r0, r4
 1763 0a8c FFF7FEFF 		bl	e_getchar_uart1
 1764              	.LVL113:
 1765 0a90 0028     		cmp	r0, #0
 1766 0a92 FAD0     		beq	.L194
 1767              		.loc 1 981 0 is_stmt 1
ARM GAS  /tmp/ccZueut9.s 			page 32


 1768 0a94 384C     		ldr	r4, .L818+24
 1769              	.L195:
 1770              		.loc 1 981 0 is_stmt 0 discriminator 1
 1771 0a96 2046     		mov	r0, r4
 1772 0a98 FFF7FEFF 		bl	e_getchar_uart1
 1773              	.LVL114:
 1774 0a9c 0028     		cmp	r0, #0
 1775 0a9e FAD0     		beq	.L195
 1776              	.L196:
 1777              		.loc 1 987 0 is_stmt 1
 1778 0aa0 FFF7FEFF 		bl	e_i2cp_enable
 1779              	.LVL115:
 1780              		.loc 1 988 0
 1781 0aa4 344B     		ldr	r3, .L818+24
 1782 0aa6 1A78     		ldrb	r2, [r3]	@ zero_extendqisi2
 1783 0aa8 324B     		ldr	r3, .L818+20
 1784 0aaa 1978     		ldrb	r1, [r3]	@ zero_extendqisi2
 1785 0aac 304B     		ldr	r3, .L818+16
 1786 0aae 1878     		ldrb	r0, [r3]	@ zero_extendqisi2
 1787 0ab0 FFF7FEFF 		bl	e_i2cp_write
 1788              	.LVL116:
 1789              		.loc 1 989 0
 1790 0ab4 FFF7FEFF 		bl	e_i2cp_disable
 1791              	.LVL117:
 1792 0ab8 22E5     		b	.L128
 1793              	.L192:
 1794              		.loc 1 983 0 discriminator 1
 1795 0aba 2046     		mov	r0, r4
 1796 0abc FFF7FEFF 		bl	e_getchar_uart2
 1797              	.LVL118:
 1798 0ac0 0028     		cmp	r0, #0
 1799 0ac2 FAD0     		beq	.L192
 1800              		.loc 1 984 0
 1801 0ac4 2B4C     		ldr	r4, .L818+20
 1802              	.L197:
 1803              		.loc 1 984 0 is_stmt 0 discriminator 1
 1804 0ac6 2046     		mov	r0, r4
 1805 0ac8 FFF7FEFF 		bl	e_getchar_uart2
 1806              	.LVL119:
 1807 0acc 0028     		cmp	r0, #0
 1808 0ace FAD0     		beq	.L197
 1809              		.loc 1 985 0 is_stmt 1
 1810 0ad0 294C     		ldr	r4, .L818+24
 1811              	.L198:
 1812              		.loc 1 985 0 is_stmt 0 discriminator 1
 1813 0ad2 2046     		mov	r0, r4
 1814 0ad4 FFF7FEFF 		bl	e_getchar_uart2
 1815              	.LVL120:
 1816 0ad8 0028     		cmp	r0, #0
 1817 0ada FAD0     		beq	.L198
 1818 0adc E0E7     		b	.L196
 1819              	.L52:
 1820              		.loc 1 591 0 is_stmt 1
 1821 0ade D9F80040 		ldr	r4, [r9]
 1822 0ae2 631C     		adds	r3, r4, #1
 1823 0ae4 C9F80030 		str	r3, [r9]
 1824 0ae8 FFF7FEFF 		bl	button_get_state
ARM GAS  /tmp/ccZueut9.s 			page 33


 1825              	.LVL121:
 1826 0aec 08F80400 		strb	r0, [r8, r4]
 1827              		.loc 1 592 0
 1828 0af0 05E5     		b	.L47
 1829              	.L63:
 1830              		.loc 1 853 0
 1831 0af2 6DB9     		cbnz	r5, .L164
 1832              		.loc 1 855 0
 1833 0af4 079B     		ldr	r3, [sp, #28]
 1834              		.loc 1 856 0
 1835 0af6 244C     		ldr	r4, .L818+40
 1836              		.loc 1 855 0
 1837 0af8 BBB1     		cbz	r3, .L165
 1838              	.L166:
 1839              		.loc 1 856 0 discriminator 1
 1840 0afa 2046     		mov	r0, r4
 1841 0afc FFF7FEFF 		bl	e_getchar_uart1
 1842              	.LVL122:
 1843 0b00 0028     		cmp	r0, #0
 1844 0b02 FAD0     		beq	.L166
 1845              		.loc 1 857 0
 1846 0b04 214C     		ldr	r4, .L818+44
 1847              	.L167:
 1848              		.loc 1 857 0 is_stmt 0 discriminator 1
 1849 0b06 2046     		mov	r0, r4
 1850 0b08 FFF7FEFF 		bl	e_getchar_uart1
 1851              	.LVL123:
 1852 0b0c 0028     		cmp	r0, #0
 1853 0b0e FAD0     		beq	.L167
 1854              	.L164:
 1855              		.loc 1 862 0 is_stmt 1
 1856 0b10 1D4B     		ldr	r3, .L818+40
 1857 0b12 1E4A     		ldr	r2, .L818+44
 1858 0b14 1B78     		ldrb	r3, [r3]	@ zero_extendqisi2
 1859 0b16 1078     		ldrb	r0, [r2]	@ zero_extendqisi2
 1860 0b18 082B     		cmp	r3, #8
 1861 0b1a 01F06F82 		beq	.L170
 1862 0b1e 092B     		cmp	r3, #9
 1863 0b20 41F06682 		bne	.L787
 1864              		.loc 1 867 0
 1865 0b24 FFF7FEFF 		bl	e_set_front_led
 1866              	.LVL124:
 1867              		.loc 1 868 0
 1868 0b28 E9E4     		b	.L47
 1869              	.L165:
 1870              		.loc 1 859 0 discriminator 1
 1871 0b2a 2046     		mov	r0, r4
 1872 0b2c FFF7FEFF 		bl	e_getchar_uart2
 1873              	.LVL125:
 1874 0b30 0028     		cmp	r0, #0
 1875 0b32 FAD0     		beq	.L165
 1876              		.loc 1 860 0
 1877 0b34 154C     		ldr	r4, .L818+44
 1878              	.L168:
 1879              		.loc 1 860 0 is_stmt 0 discriminator 1
 1880 0b36 2046     		mov	r0, r4
 1881 0b38 FFF7FEFF 		bl	e_getchar_uart2
ARM GAS  /tmp/ccZueut9.s 			page 34


 1882              	.LVL126:
 1883 0b3c 0028     		cmp	r0, #0
 1884 0b3e FAD0     		beq	.L168
 1885 0b40 E6E7     		b	.L164
 1886              	.L54:
 1887              		.loc 1 613 0 is_stmt 1
 1888 0b42 002D     		cmp	r5, #0
 1889 0b44 01F05C83 		beq	.L788
 1890              		.loc 1 618 0
 1891 0b48 D9F80020 		ldr	r2, [r9]
 1892              		.loc 1 619 0
 1893 0b4c 08EB0200 		add	r0, r8, r2
 1894              		.loc 1 618 0
 1895 0b50 0021     		movs	r1, #0
 1896              		.loc 1 619 0
 1897 0b52 941C     		adds	r4, r2, #2
 1898              		.loc 1 618 0
 1899 0b54 08F80210 		strb	r1, [r8, r2]
 1900              		.loc 1 619 0
 1901 0b58 C9F80040 		str	r4, [r9]
 1902 0b5c 4170     		strb	r1, [r0, #1]
 1903 0b5e 39E4     		b	.L46
 1904              	.L819:
 1905              		.align	2
 1906              	.L818:
 1907 0b60 00000000 		.word	SD3
 1908 0b64 00000000 		.word	.LANCHOR21
 1909 0b68 00000000 		.word	.LANCHOR7
 1910 0b6c 00000000 		.word	.LANCHOR6
 1911 0b70 00000000 		.word	.LANCHOR24
 1912 0b74 00000000 		.word	.LANCHOR25
 1913 0b78 00000000 		.word	.LANCHOR26
 1914 0b7c 00000000 		.word	.LANCHOR10
 1915 0b80 00000000 		.word	.LANCHOR11
 1916 0b84 00000000 		.word	.LANCHOR12
 1917 0b88 00000000 		.word	.LANCHOR19
 1918 0b8c 00000000 		.word	.LANCHOR20
 1919              	.L50:
 1920              		.loc 1 472 0
 1921 0b90 55B9     		cbnz	r5, .L94
 1922              		.loc 1 474 0
 1923 0b92 079B     		ldr	r3, [sp, #28]
 1924 0b94 002B     		cmp	r3, #0
 1925 0b96 01F01384 		beq	.L95
 1926              		.loc 1 475 0
 1927 0b9a 844B     		ldr	r3, .L820
 1928 0b9c 8348     		ldr	r0, .L820
 1929 0b9e 1B68     		ldr	r3, [r3]
 1930 0ba0 1322     		movs	r2, #19
 1931 0ba2 5B68     		ldr	r3, [r3, #4]
 1932 0ba4 14A9     		add	r1, sp, #80
 1933 0ba6 9847     		blx	r3
 1934              	.LVL127:
 1935              	.L94:
 1936              		.loc 1 485 0
 1937 0ba8 FFF7FEFF 		bl	serial_get_last_errors
 1938              	.LVL128:
ARM GAS  /tmp/ccZueut9.s 			page 35


 1939 0bac 0028     		cmp	r0, #0
 1940 0bae 41F08981 		bne	.L134
 1941              		.loc 1 493 0
 1942 0bb2 9DF85030 		ldrb	r3, [sp, #80]	@ zero_extendqisi2
 1943 0bb6 DC07     		lsls	r4, r3, #31
 1944 0bb8 01F19C83 		bmi	.L789
 1945              	.L98:
 1946              		.loc 1 496 0
 1947 0bbc 9807     		lsls	r0, r3, #30
 1948 0bbe 41F12982 		bpl	.L99
 1949              		.loc 1 497 0
 1950 0bc2 FFF7FEFF 		bl	enable_obstacle_avoidance
 1951              	.LVL129:
 1952              	.L100:
 1953              		.loc 1 504 0
 1954 0bc6 9DF85410 		ldrb	r1, [sp, #84]	@ zero_extendqisi2
 1955 0bca 9DF85330 		ldrb	r3, [sp, #83]	@ zero_extendqisi2
 1956              		.loc 1 503 0
 1957 0bce 9DF85240 		ldrb	r4, [sp, #82]	@ zero_extendqisi2
 1958 0bd2 9DF85100 		ldrb	r0, [sp, #81]	@ zero_extendqisi2
 1959              		.loc 1 506 0
 1960 0bd6 9DF85020 		ldrb	r2, [sp, #80]	@ zero_extendqisi2
 1961              		.loc 1 504 0
 1962 0bda 03EB0123 		add	r3, r3, r1, lsl #8
 1963              		.loc 1 503 0
 1964 0bde 7449     		ldr	r1, .L820+4
 1965 0be0 00EB0420 		add	r0, r0, r4, lsl #8
 1966              		.loc 1 504 0
 1967 0be4 734C     		ldr	r4, .L820+8
 1968              		.loc 1 503 0
 1969 0be6 0860     		str	r0, [r1]
 1970              		.loc 1 506 0
 1971 0be8 5107     		lsls	r1, r2, #29
 1972              		.loc 1 504 0
 1973 0bea 2360     		str	r3, [r4]
 1974              		.loc 1 506 0
 1975 0bec 41F10A82 		bpl	.L101
 1976              		.loc 1 507 0
 1977 0bf0 FFF7FEFF 		bl	e_set_steps_left
 1978              	.LVL130:
 1979              		.loc 1 508 0
 1980 0bf4 2068     		ldr	r0, [r4]
 1981 0bf6 FFF7FEFF 		bl	e_set_steps_right
 1982              	.LVL131:
 1983              	.L102:
 1984              		.loc 1 515 0
 1985 0bfa 9DF85530 		ldrb	r3, [sp, #85]	@ zero_extendqisi2
 1986 0bfe 13F00101 		ands	r1, r3, #1
 1987              		.loc 1 516 0
 1988 0c02 16BF     		itet	ne
 1989 0c04 0020     		movne	r0, #0
 1990              		.loc 1 518 0
 1991 0c06 0846     		moveq	r0, r1
 1992              		.loc 1 516 0
 1993 0c08 0121     		movne	r1, #1
 1994              		.loc 1 518 0
 1995 0c0a FFF7FEFF 		bl	set_led
ARM GAS  /tmp/ccZueut9.s 			page 36


 1996              	.LVL132:
 1997              		.loc 1 520 0
 1998 0c0e 9DF85530 		ldrb	r3, [sp, #85]	@ zero_extendqisi2
 1999 0c12 13F00201 		ands	r1, r3, #2
 2000              		.loc 1 521 0
 2001 0c16 1ABF     		itte	ne
 2002 0c18 0121     		movne	r1, #1
 2003 0c1a 0846     		movne	r0, r1
 2004              		.loc 1 523 0
 2005 0c1c 0120     		moveq	r0, #1
 2006 0c1e FFF7FEFF 		bl	set_led
 2007              	.LVL133:
 2008              		.loc 1 525 0
 2009 0c22 9DF85530 		ldrb	r3, [sp, #85]	@ zero_extendqisi2
 2010 0c26 13F00401 		ands	r1, r3, #4
 2011              		.loc 1 526 0
 2012 0c2a 18BF     		it	ne
 2013 0c2c 0121     		movne	r1, #1
 2014              		.loc 1 528 0
 2015 0c2e 0220     		movs	r0, #2
 2016 0c30 FFF7FEFF 		bl	set_led
 2017              	.LVL134:
 2018              		.loc 1 530 0
 2019 0c34 9DF85530 		ldrb	r3, [sp, #85]	@ zero_extendqisi2
 2020 0c38 13F00801 		ands	r1, r3, #8
 2021              		.loc 1 531 0
 2022 0c3c 18BF     		it	ne
 2023 0c3e 0121     		movne	r1, #1
 2024              		.loc 1 533 0
 2025 0c40 0320     		movs	r0, #3
 2026 0c42 FFF7FEFF 		bl	set_led
 2027              	.LVL135:
 2028              		.loc 1 535 0
 2029 0c46 9DF85530 		ldrb	r3, [sp, #85]	@ zero_extendqisi2
 2030 0c4a 13F01000 		ands	r0, r3, #16
 2031              		.loc 1 536 0
 2032 0c4e 18BF     		it	ne
 2033 0c50 0120     		movne	r0, #1
 2034              		.loc 1 538 0
 2035 0c52 FFF7FEFF 		bl	set_body_led
 2036              	.LVL136:
 2037              		.loc 1 540 0
 2038 0c56 9DF85530 		ldrb	r3, [sp, #85]	@ zero_extendqisi2
 2039 0c5a 13F02000 		ands	r0, r3, #32
 2040              		.loc 1 541 0
 2041 0c5e 18BF     		it	ne
 2042 0c60 0120     		movne	r0, #1
 2043              		.loc 1 543 0
 2044 0c62 FFF7FEFF 		bl	set_front_led
 2045              	.LVL137:
 2046              		.loc 1 547 0
 2047 0c66 9DF85830 		ldrb	r3, [sp, #88]	@ zero_extendqisi2
 2048 0c6a 9DF85720 		ldrb	r2, [sp, #87]	@ zero_extendqisi2
 2049 0c6e 9DF85610 		ldrb	r1, [sp, #86]	@ zero_extendqisi2
 2050 0c72 0020     		movs	r0, #0
 2051 0c74 FFF7FEFF 		bl	set_rgb_led
 2052              	.LVL138:
ARM GAS  /tmp/ccZueut9.s 			page 37


 2053              		.loc 1 548 0
 2054 0c78 9DF85B30 		ldrb	r3, [sp, #91]	@ zero_extendqisi2
 2055 0c7c 9DF85A20 		ldrb	r2, [sp, #90]	@ zero_extendqisi2
 2056 0c80 9DF85910 		ldrb	r1, [sp, #89]	@ zero_extendqisi2
 2057 0c84 0120     		movs	r0, #1
 2058 0c86 FFF7FEFF 		bl	set_rgb_led
 2059              	.LVL139:
 2060              		.loc 1 549 0
 2061 0c8a 9DF85E30 		ldrb	r3, [sp, #94]	@ zero_extendqisi2
 2062 0c8e 9DF85D20 		ldrb	r2, [sp, #93]	@ zero_extendqisi2
 2063 0c92 9DF85C10 		ldrb	r1, [sp, #92]	@ zero_extendqisi2
 2064 0c96 0220     		movs	r0, #2
 2065 0c98 FFF7FEFF 		bl	set_rgb_led
 2066              	.LVL140:
 2067              		.loc 1 550 0
 2068 0c9c 9DF86130 		ldrb	r3, [sp, #97]	@ zero_extendqisi2
 2069 0ca0 9DF86020 		ldrb	r2, [sp, #96]	@ zero_extendqisi2
 2070 0ca4 9DF85F10 		ldrb	r1, [sp, #95]	@ zero_extendqisi2
 2071 0ca8 0320     		movs	r0, #3
 2072 0caa FFF7FEFF 		bl	set_rgb_led
 2073              	.LVL141:
 2074              		.loc 1 553 0
 2075 0cae 9DF86230 		ldrb	r3, [sp, #98]	@ zero_extendqisi2
 2076 0cb2 DA07     		lsls	r2, r3, #31
 2077 0cb4 01F1CF82 		bmi	.L790
 2078              		.loc 1 556 0
 2079 0cb8 9C07     		lsls	r4, r3, #30
 2080 0cba 01F1D682 		bmi	.L791
 2081              	.L116:
 2082              		.loc 1 559 0
 2083 0cbe 5807     		lsls	r0, r3, #29
 2084 0cc0 01F1DD82 		bmi	.L792
 2085              	.L117:
 2086              		.loc 1 562 0
 2087 0cc4 1907     		lsls	r1, r3, #28
 2088 0cc6 01F1E482 		bmi	.L793
 2089              	.L118:
 2090              		.loc 1 565 0
 2091 0cca DA06     		lsls	r2, r3, #27
 2092 0ccc 01F1EC82 		bmi	.L794
 2093              	.L119:
 2094              		.loc 1 568 0
 2095 0cd0 9B06     		lsls	r3, r3, #26
 2096 0cd2 7FF514AC 		bpl	.L47
 2097              		.loc 1 569 0
 2098 0cd6 FFF7FEFF 		bl	e_close_sound
 2099              	.LVL142:
 2100              		.loc 1 570 0
 2101 0cda FFF7FEFF 		bl	stopCurrentMelody
 2102              	.LVL143:
 2103 0cde 0EE4     		b	.L47
 2104              	.L53:
 2105              		.loc 1 595 0
 2106 0ce0 0020     		movs	r0, #0
 2107 0ce2 FFF7FEFF 		bl	e_get_micro_volume
 2108              	.LVL144:
 2109              		.loc 1 596 0
ARM GAS  /tmp/ccZueut9.s 			page 38


 2110 0ce6 D9F80030 		ldr	r3, [r9]
 2111              		.loc 1 597 0
 2112 0cea 08EB0302 		add	r2, r8, r3
 2113 0cee 0112     		asrs	r1, r0, #8
 2114              		.loc 1 596 0
 2115 0cf0 08F80300 		strb	r0, [r8, r3]
 2116              		.loc 1 597 0
 2117 0cf4 0233     		adds	r3, r3, #2
 2118              		.loc 1 599 0
 2119 0cf6 0120     		movs	r0, #1
 2120              		.loc 1 597 0
 2121 0cf8 5170     		strb	r1, [r2, #1]
 2122 0cfa C9F80030 		str	r3, [r9]
 2123              		.loc 1 599 0
 2124 0cfe FFF7FEFF 		bl	e_get_micro_volume
 2125              	.LVL145:
 2126              		.loc 1 600 0
 2127 0d02 D9F80030 		ldr	r3, [r9]
 2128              		.loc 1 601 0
 2129 0d06 08EB0302 		add	r2, r8, r3
 2130 0d0a 0112     		asrs	r1, r0, #8
 2131              		.loc 1 600 0
 2132 0d0c 08F80300 		strb	r0, [r8, r3]
 2133              		.loc 1 601 0
 2134 0d10 0233     		adds	r3, r3, #2
 2135              		.loc 1 603 0
 2136 0d12 0220     		movs	r0, #2
 2137              		.loc 1 601 0
 2138 0d14 5170     		strb	r1, [r2, #1]
 2139 0d16 C9F80030 		str	r3, [r9]
 2140              		.loc 1 603 0
 2141 0d1a FFF7FEFF 		bl	e_get_micro_volume
 2142              	.LVL146:
 2143              		.loc 1 604 0
 2144 0d1e D9F80030 		ldr	r3, [r9]
 2145              		.loc 1 605 0
 2146 0d22 0112     		asrs	r1, r0, #8
 2147              		.loc 1 604 0
 2148 0d24 08F80300 		strb	r0, [r8, r3]
 2149              		.loc 1 605 0
 2150 0d28 08EB0302 		add	r2, r8, r3
 2151              		.loc 1 607 0
 2152 0d2c 0320     		movs	r0, #3
 2153              		.loc 1 605 0
 2154 0d2e 0233     		adds	r3, r3, #2
 2155 0d30 FCE4     		b	.L767
 2156              	.L51:
 2157              		.loc 1 575 0
 2158 0d32 0020     		movs	r0, #0
 2159 0d34 079C     		ldr	r4, [sp, #28]
 2160 0d36 CAF80000 		str	r0, [r10]
 2161              	.L126:
 2162              		.loc 1 576 0
 2163 0d3a 5DB9     		cbnz	r5, .L121
 2164              		.loc 1 578 0
 2165 0d3c 7CB3     		cbz	r4, .L122
 2166 0d3e 01E0     		b	.L124
ARM GAS  /tmp/ccZueut9.s 			page 39


 2167              	.L123:
 2168 0d40 DAF80000 		ldr	r0, [r10]
 2169              	.L124:
 2170              		.loc 1 579 0 discriminator 1
 2171 0d44 1C4B     		ldr	r3, .L820+12
 2172 0d46 1844     		add	r0, r0, r3
 2173 0d48 FFF7FEFF 		bl	e_getchar_uart1
 2174              	.LVL147:
 2175 0d4c 0028     		cmp	r0, #0
 2176 0d4e F7D0     		beq	.L123
 2177              	.L766:
 2178 0d50 DAF80000 		ldr	r0, [r10]
 2179              	.L121:
 2180              		.loc 1 575 0 discriminator 2
 2181 0d54 0130     		adds	r0, r0, #1
 2182 0d56 0B28     		cmp	r0, #11
 2183 0d58 CAF80000 		str	r0, [r10]
 2184 0d5c EDDD     		ble	.L126
 2185              		.loc 1 584 0
 2186 0d5e 164B     		ldr	r3, .L820+12
 2187 0d60 1A46     		mov	r2, r3
 2188 0d62 1146     		mov	r1, r2
 2189 0d64 0C46     		mov	r4, r1
 2190 0d66 9B78     		ldrb	r3, [r3, #2]	@ zero_extendqisi2
 2191 0d68 5278     		ldrb	r2, [r2, #1]	@ zero_extendqisi2
 2192 0d6a 0978     		ldrb	r1, [r1]	@ zero_extendqisi2
 2193 0d6c 0020     		movs	r0, #0
 2194 0d6e FFF7FEFF 		bl	set_rgb_led
 2195              	.LVL148:
 2196              		.loc 1 585 0
 2197 0d72 6379     		ldrb	r3, [r4, #5]	@ zero_extendqisi2
 2198 0d74 2279     		ldrb	r2, [r4, #4]	@ zero_extendqisi2
 2199 0d76 E178     		ldrb	r1, [r4, #3]	@ zero_extendqisi2
 2200 0d78 0120     		movs	r0, #1
 2201 0d7a FFF7FEFF 		bl	set_rgb_led
 2202              	.LVL149:
 2203              		.loc 1 586 0
 2204 0d7e 237A     		ldrb	r3, [r4, #8]	@ zero_extendqisi2
 2205 0d80 E279     		ldrb	r2, [r4, #7]	@ zero_extendqisi2
 2206 0d82 A179     		ldrb	r1, [r4, #6]	@ zero_extendqisi2
 2207 0d84 0220     		movs	r0, #2
 2208 0d86 FFF7FEFF 		bl	set_rgb_led
 2209              	.LVL150:
 2210              		.loc 1 587 0
 2211 0d8a E37A     		ldrb	r3, [r4, #11]	@ zero_extendqisi2
 2212 0d8c A27A     		ldrb	r2, [r4, #10]	@ zero_extendqisi2
 2213 0d8e 617A     		ldrb	r1, [r4, #9]	@ zero_extendqisi2
 2214 0d90 0320     		movs	r0, #3
 2215 0d92 FFF7FEFF 		bl	set_rgb_led
 2216              	.LVL151:
 2217              		.loc 1 588 0
 2218 0d96 FFF7B2BB 		b	.L47
 2219              	.L125:
 2220 0d9a DAF80000 		ldr	r0, [r10]
 2221              	.L122:
 2222              		.loc 1 581 0 discriminator 1
 2223 0d9e 064B     		ldr	r3, .L820+12
ARM GAS  /tmp/ccZueut9.s 			page 40


 2224 0da0 1844     		add	r0, r0, r3
 2225 0da2 FFF7FEFF 		bl	e_getchar_uart2
 2226              	.LVL152:
 2227 0da6 0028     		cmp	r0, #0
 2228 0da8 F7D0     		beq	.L125
 2229 0daa D1E7     		b	.L766
 2230              	.L821:
 2231              		.align	2
 2232              	.L820:
 2233 0dac 00000000 		.word	SD3
 2234 0db0 00000000 		.word	.LANCHOR7
 2235 0db4 00000000 		.word	.LANCHOR6
 2236 0db8 00000000 		.word	.LANCHOR18
 2237              	.L48:
 2238              		.loc 1 298 0
 2239 0dbc 002D     		cmp	r5, #0
 2240 0dbe 01F07481 		beq	.L795
 2241              		.loc 1 303 0
 2242 0dc2 E749     		ldr	r1, .L822
 2243 0dc4 0022     		movs	r2, #0
 2244 0dc6 0A60     		str	r2, [r1]
 2245              		.loc 1 304 0
 2246 0dc8 E649     		ldr	r1, .L822+4
 2247 0dca 0A60     		str	r2, [r1]
 2248              		.loc 1 305 0
 2249 0dcc E649     		ldr	r1, .L822+8
 2250 0dce 1346     		mov	r3, r2
 2251 0dd0 0A60     		str	r2, [r1]
 2252 0dd2 9346     		mov	fp, r2
 2253 0dd4 1046     		mov	r0, r2
 2254 0dd6 9446     		mov	ip, r2
 2255 0dd8 1446     		mov	r4, r2
 2256 0dda 9646     		mov	lr, r2
 2257              	.L78:
 2258              		.loc 1 307 0
 2259 0ddc D9F80020 		ldr	r2, [r9]
 2260              		.loc 1 308 0
 2261 0de0 08EB0201 		add	r1, r8, r2
 2262              		.loc 1 307 0
 2263 0de4 08F802E0 		strb	lr, [r8, r2]
 2264              		.loc 1 312 0
 2265 0de8 0632     		adds	r2, r2, #6
 2266              		.loc 1 308 0
 2267 0dea 4C70     		strb	r4, [r1, #1]
 2268              		.loc 1 309 0
 2269 0dec 81F802C0 		strb	ip, [r1, #2]
 2270              		.loc 1 310 0
 2271 0df0 C870     		strb	r0, [r1, #3]
 2272              		.loc 1 311 0
 2273 0df2 81F804B0 		strb	fp, [r1, #4]
 2274              		.loc 1 312 0
 2275 0df6 4B71     		strb	r3, [r1, #5]
 2276 0df8 C9F80020 		str	r2, [r9]
 2277              		.loc 1 314 0
 2278 0dfc 002D     		cmp	r5, #0
 2279 0dfe 01F03181 		beq	.L796
 2280              		.loc 1 319 0
ARM GAS  /tmp/ccZueut9.s 			page 41


 2281 0e02 0021     		movs	r1, #0
 2282              		.loc 1 317 0
 2283 0e04 D94B     		ldr	r3, .L822+12
 2284              		.loc 1 319 0
 2285 0e06 CDE90C11 		strd	r1, r1, [sp, #48]
 2286 0e0a CDE90A11 		strd	r1, r1, [sp, #40]
 2287 0e0e CDE90811 		strd	r1, r1, [sp, #32]
 2288              		.loc 1 317 0
 2289 0e12 83ED008A 		vstr.32	s16, [r3]
 2290              		.loc 1 318 0
 2291 0e16 83ED028A 		vstr.32	s16, [r3, #8]
 2292              		.loc 1 319 0
 2293 0e1a 83ED018A 		vstr.32	s16, [r3, #4]
 2294 0e1e 0C46     		mov	r4, r1
 2295 0e20 8C46     		mov	ip, r1
 2296 0e22 8E46     		mov	lr, r1
 2297 0e24 8B46     		mov	fp, r1
 2298 0e26 0846     		mov	r0, r1
 2299              	.L80:
 2300              	.LVL153:
 2301              		.loc 1 324 0
 2302 0e28 08EB0203 		add	r3, r8, r2
 2303              		.loc 1 322 0
 2304 0e2c 08F80200 		strb	r0, [r8, r2]
 2305              	.LVL154:
 2306              		.loc 1 331 0
 2307 0e30 1C71     		strb	r4, [r3, #4]
 2308              		.loc 1 333 0
 2309 0e32 9DF82040 		ldrb	r4, [sp, #32]	@ zero_extendqisi2
 2310 0e36 5C71     		strb	r4, [r3, #5]
 2311              		.loc 1 335 0
 2312 0e38 9DF82440 		ldrb	r4, [sp, #36]	@ zero_extendqisi2
 2313 0e3c 9C71     		strb	r4, [r3, #6]
 2314              		.loc 1 337 0
 2315 0e3e 9DF82840 		ldrb	r4, [sp, #40]	@ zero_extendqisi2
 2316 0e42 DC71     		strb	r4, [r3, #7]
 2317              		.loc 1 340 0
 2318 0e44 9DF82C40 		ldrb	r4, [sp, #44]	@ zero_extendqisi2
 2319 0e48 1C72     		strb	r4, [r3, #8]
 2320              		.loc 1 342 0
 2321 0e4a 9DF83040 		ldrb	r4, [sp, #48]	@ zero_extendqisi2
 2322 0e4e 5C72     		strb	r4, [r3, #9]
 2323              		.loc 1 346 0
 2324 0e50 02F10C00 		add	r0, r2, #12
 2325              		.loc 1 344 0
 2326 0e54 9DF83440 		ldrb	r4, [sp, #52]	@ zero_extendqisi2
 2327              		.loc 1 324 0
 2328 0e58 83F801B0 		strb	fp, [r3, #1]
 2329              	.LVL155:
 2330              		.loc 1 326 0
 2331 0e5c 83F802E0 		strb	lr, [r3, #2]
 2332              	.LVL156:
 2333              		.loc 1 328 0
 2334 0e60 83F803C0 		strb	ip, [r3, #3]
 2335              	.LVL157:
 2336              		.loc 1 344 0
 2337 0e64 9C72     		strb	r4, [r3, #10]
ARM GAS  /tmp/ccZueut9.s 			page 42


 2338              	.LVL158:
 2339              		.loc 1 346 0
 2340 0e66 D972     		strb	r1, [r3, #11]
 2341 0e68 C9F80000 		str	r0, [r9]
 2342              		.loc 1 349 0
 2343 0e6c 002D     		cmp	r5, #0
 2344 0e6e 01F06881 		beq	.L797
 2345              		.loc 1 358 0
 2346 0e72 0021     		movs	r1, #0
 2347              		.loc 1 363 0
 2348 0e74 1232     		adds	r2, r2, #18
 2349              		.loc 1 358 0
 2350 0e76 08F80010 		strb	r1, [r8, r0]
 2351              		.loc 1 363 0
 2352 0e7a C9F80020 		str	r2, [r9]
 2353              		.loc 1 359 0
 2354 0e7e 5973     		strb	r1, [r3, #13]
 2355              		.loc 1 360 0
 2356 0e80 9973     		strb	r1, [r3, #14]
 2357              		.loc 1 361 0
 2358 0e82 D973     		strb	r1, [r3, #15]
 2359              		.loc 1 362 0
 2360 0e84 1974     		strb	r1, [r3, #16]
 2361              		.loc 1 363 0
 2362 0e86 5974     		strb	r1, [r3, #17]
 2363              	.L82:
 2364              		.loc 1 367 0
 2365 0e88 0020     		movs	r0, #0
 2366 0e8a CAF80000 		str	r0, [r10]
 2367              	.L83:
 2368              		.loc 1 368 0 discriminator 3
 2369 0e8e C0B2     		uxtb	r0, r0
 2370 0e90 FFF7FEFF 		bl	get_magnetic_field
 2371              	.LVL159:
 2372              		.loc 1 370 0 discriminator 3
 2373 0e94 D9F80020 		ldr	r2, [r9]
 2374              		.loc 1 367 0 discriminator 3
 2375 0e98 DAF80000 		ldr	r0, [r10]
 2376              		.loc 1 369 0 discriminator 3
 2377 0e9c 10EE103A 		vmov	r3, s0	@ int
 2378              	.LVL160:
 2379              		.loc 1 371 0 discriminator 3
 2380 0ea0 08EB0201 		add	r1, r8, r2
 2381 0ea4 1C0A     		lsrs	r4, r3, #8
 2382              		.loc 1 370 0 discriminator 3
 2383 0ea6 08F80230 		strb	r3, [r8, r2]
 2384              		.loc 1 367 0 discriminator 3
 2385 0eaa 0130     		adds	r0, r0, #1
 2386              		.loc 1 371 0 discriminator 3
 2387 0eac 4C70     		strb	r4, [r1, #1]
 2388              		.loc 1 372 0 discriminator 3
 2389 0eae 1C0C     		lsrs	r4, r3, #16
 2390 0eb0 8C70     		strb	r4, [r1, #2]
 2391              		.loc 1 373 0 discriminator 3
 2392 0eb2 1B0E     		lsrs	r3, r3, #24
 2393 0eb4 141D     		adds	r4, r2, #4
 2394              		.loc 1 367 0 discriminator 3
ARM GAS  /tmp/ccZueut9.s 			page 43


 2395 0eb6 0228     		cmp	r0, #2
 2396              		.loc 1 373 0 discriminator 3
 2397 0eb8 CB70     		strb	r3, [r1, #3]
 2398 0eba C9F80040 		str	r4, [r9]
 2399              		.loc 1 367 0 discriminator 3
 2400 0ebe CAF80000 		str	r0, [r10]
 2401 0ec2 E4DD     		ble	.L83
 2402              		.loc 1 377 0
 2403 0ec4 002D     		cmp	r5, #0
 2404 0ec6 01F03181 		beq	.L798
 2405              		.loc 1 380 0
 2406 0eca 0023     		movs	r3, #0
 2407 0ecc 0532     		adds	r2, r2, #5
 2408 0ece 08F80430 		strb	r3, [r8, r4]
 2409 0ed2 C9F80020 		str	r2, [r9]
 2410              	.LVL161:
 2411              	.L85:
 2412              		.loc 1 384 0
 2413 0ed6 0020     		movs	r0, #0
 2414 0ed8 CAF80000 		str	r0, [r10]
 2415              	.L86:
 2416              		.loc 1 385 0 discriminator 3
 2417 0edc FFF7FEFF 		bl	e_get_calibrated_prox
 2418              	.LVL162:
 2419              		.loc 1 386 0 discriminator 3
 2420 0ee0 D9F80020 		ldr	r2, [r9]
 2421              		.loc 1 384 0 discriminator 3
 2422 0ee4 DAF80030 		ldr	r3, [r10]
 2423              		.loc 1 386 0 discriminator 3
 2424 0ee8 08F80200 		strb	r0, [r8, r2]
 2425              		.loc 1 387 0 discriminator 3
 2426 0eec 08EB0204 		add	r4, r8, r2
 2427 0ef0 0112     		asrs	r1, r0, #8
 2428              		.loc 1 384 0 discriminator 3
 2429 0ef2 581C     		adds	r0, r3, #1
 2430              		.loc 1 387 0 discriminator 3
 2431 0ef4 0232     		adds	r2, r2, #2
 2432              		.loc 1 384 0 discriminator 3
 2433 0ef6 0728     		cmp	r0, #7
 2434              		.loc 1 387 0 discriminator 3
 2435 0ef8 6170     		strb	r1, [r4, #1]
 2436 0efa C9F80020 		str	r2, [r9]
 2437              		.loc 1 384 0 discriminator 3
 2438 0efe CAF80000 		str	r0, [r10]
 2439 0f02 EBDD     		ble	.L86
 2440              		.loc 1 391 0
 2441 0f04 0020     		movs	r0, #0
 2442 0f06 CAF80000 		str	r0, [r10]
 2443              	.L87:
 2444              		.loc 1 392 0 discriminator 3
 2445 0f0a FFF7FEFF 		bl	e_get_ambient_light
 2446              	.LVL163:
 2447              		.loc 1 393 0 discriminator 3
 2448 0f0e D9F80010 		ldr	r1, [r9]
 2449              		.loc 1 391 0 discriminator 3
 2450 0f12 DAF80030 		ldr	r3, [r10]
 2451              		.loc 1 393 0 discriminator 3
ARM GAS  /tmp/ccZueut9.s 			page 44


 2452 0f16 08F80100 		strb	r0, [r8, r1]
 2453              		.loc 1 394 0 discriminator 3
 2454 0f1a 0212     		asrs	r2, r0, #8
 2455 0f1c 08EB0104 		add	r4, r8, r1
 2456              		.loc 1 391 0 discriminator 3
 2457 0f20 581C     		adds	r0, r3, #1
 2458 0f22 0728     		cmp	r0, #7
 2459              		.loc 1 394 0 discriminator 3
 2460 0f24 01F10203 		add	r3, r1, #2
 2461 0f28 6270     		strb	r2, [r4, #1]
 2462 0f2a C9F80030 		str	r3, [r9]
 2463              		.loc 1 391 0 discriminator 3
 2464 0f2e CAF80000 		str	r0, [r10]
 2465 0f32 EADD     		ble	.L87
 2466              		.loc 1 398 0
 2467 0f34 002D     		cmp	r5, #0
 2468 0f36 01F0EA80 		beq	.L799
 2469              		.loc 1 403 0
 2470 0f3a 0022     		movs	r2, #0
 2471              		.loc 1 404 0
 2472 0f3c 0431     		adds	r1, r1, #4
 2473              		.loc 1 403 0
 2474 0f3e 08F80320 		strb	r2, [r8, r3]
 2475              		.loc 1 404 0
 2476 0f42 C9F80010 		str	r1, [r9]
 2477 0f46 E270     		strb	r2, [r4, #3]
 2478              	.L89:
 2479              		.loc 1 408 0
 2480 0f48 0020     		movs	r0, #0
 2481 0f4a FFF7FEFF 		bl	e_get_micro_volume
 2482              	.LVL164:
 2483              		.loc 1 409 0
 2484 0f4e D9F80030 		ldr	r3, [r9]
 2485              		.loc 1 410 0
 2486 0f52 08EB0302 		add	r2, r8, r3
 2487 0f56 0112     		asrs	r1, r0, #8
 2488              		.loc 1 409 0
 2489 0f58 08F80300 		strb	r0, [r8, r3]
 2490              		.loc 1 410 0
 2491 0f5c 0233     		adds	r3, r3, #2
 2492              		.loc 1 411 0
 2493 0f5e 0120     		movs	r0, #1
 2494              		.loc 1 410 0
 2495 0f60 5170     		strb	r1, [r2, #1]
 2496 0f62 C9F80030 		str	r3, [r9]
 2497              		.loc 1 411 0
 2498 0f66 FFF7FEFF 		bl	e_get_micro_volume
 2499              	.LVL165:
 2500              		.loc 1 412 0
 2501 0f6a D9F80030 		ldr	r3, [r9]
 2502              		.loc 1 413 0
 2503 0f6e 08EB0302 		add	r2, r8, r3
 2504 0f72 0112     		asrs	r1, r0, #8
 2505              		.loc 1 412 0
 2506 0f74 08F80300 		strb	r0, [r8, r3]
 2507              		.loc 1 413 0
 2508 0f78 0233     		adds	r3, r3, #2
ARM GAS  /tmp/ccZueut9.s 			page 45


 2509              		.loc 1 414 0
 2510 0f7a 0220     		movs	r0, #2
 2511              		.loc 1 413 0
 2512 0f7c 5170     		strb	r1, [r2, #1]
 2513 0f7e C9F80030 		str	r3, [r9]
 2514              		.loc 1 414 0
 2515 0f82 FFF7FEFF 		bl	e_get_micro_volume
 2516              	.LVL166:
 2517              		.loc 1 415 0
 2518 0f86 D9F80030 		ldr	r3, [r9]
 2519              		.loc 1 416 0
 2520 0f8a 08EB0302 		add	r2, r8, r3
 2521 0f8e 0112     		asrs	r1, r0, #8
 2522              		.loc 1 415 0
 2523 0f90 08F80300 		strb	r0, [r8, r3]
 2524              		.loc 1 416 0
 2525 0f94 0233     		adds	r3, r3, #2
 2526              		.loc 1 417 0
 2527 0f96 0320     		movs	r0, #3
 2528              		.loc 1 416 0
 2529 0f98 5170     		strb	r1, [r2, #1]
 2530 0f9a C9F80030 		str	r3, [r9]
 2531              		.loc 1 417 0
 2532 0f9e FFF7FEFF 		bl	e_get_micro_volume
 2533              	.LVL167:
 2534              		.loc 1 418 0
 2535 0fa2 D9F80030 		ldr	r3, [r9]
 2536              		.loc 1 419 0
 2537 0fa6 08EB0302 		add	r2, r8, r3
 2538 0faa 0112     		asrs	r1, r0, #8
 2539              		.loc 1 418 0
 2540 0fac 08F80300 		strb	r0, [r8, r3]
 2541              		.loc 1 419 0
 2542 0fb0 0233     		adds	r3, r3, #2
 2543 0fb2 5170     		strb	r1, [r2, #1]
 2544 0fb4 C9F80030 		str	r3, [r9]
 2545              		.loc 1 422 0
 2546 0fb8 FFF7FEFF 		bl	e_get_steps_left
 2547              	.LVL168:
 2548              		.loc 1 423 0
 2549 0fbc D9F80030 		ldr	r3, [r9]
 2550              		.loc 1 424 0
 2551 0fc0 08EB0302 		add	r2, r8, r3
 2552 0fc4 0112     		asrs	r1, r0, #8
 2553              		.loc 1 423 0
 2554 0fc6 08F80300 		strb	r0, [r8, r3]
 2555              		.loc 1 424 0
 2556 0fca 0233     		adds	r3, r3, #2
 2557 0fcc 5170     		strb	r1, [r2, #1]
 2558 0fce C9F80030 		str	r3, [r9]
 2559              		.loc 1 425 0
 2560 0fd2 FFF7FEFF 		bl	e_get_steps_right
 2561              	.LVL169:
 2562              		.loc 1 426 0
 2563 0fd6 D9F80030 		ldr	r3, [r9]
 2564              		.loc 1 427 0
 2565 0fda 08EB0302 		add	r2, r8, r3
ARM GAS  /tmp/ccZueut9.s 			page 46


 2566 0fde 0112     		asrs	r1, r0, #8
 2567              		.loc 1 426 0
 2568 0fe0 08F80300 		strb	r0, [r8, r3]
 2569              		.loc 1 427 0
 2570 0fe4 0233     		adds	r3, r3, #2
 2571 0fe6 5170     		strb	r1, [r2, #1]
 2572 0fe8 C9F80030 		str	r3, [r9]
 2573              		.loc 1 430 0
 2574 0fec FFF7FEFF 		bl	getBatteryValueRaw
 2575              	.LVL170:
 2576              		.loc 1 431 0
 2577 0ff0 D9F80030 		ldr	r3, [r9]
 2578              		.loc 1 432 0
 2579 0ff4 08EB0302 		add	r2, r8, r3
 2580              		.loc 1 431 0
 2581 0ff8 08F80300 		strb	r0, [r8, r3]
 2582              		.loc 1 432 0
 2583 0ffc 010A     		lsrs	r1, r0, #8
 2584 0ffe 0233     		adds	r3, r3, #2
 2585 1000 5170     		strb	r1, [r2, #1]
 2586 1002 C9F80030 		str	r3, [r9]
 2587              		.loc 1 435 0
 2588 1006 FFF7FEFF 		bl	sdio_is_present
 2589              	.LVL171:
 2590 100a 0028     		cmp	r0, #0
 2591 100c 41F06D80 		bne	.L800
 2592              		.loc 1 440 0
 2593 1010 D9F80040 		ldr	r4, [r9]
 2594 1014 08F80400 		strb	r0, [r8, r4]
 2595 1018 0134     		adds	r4, r4, #1
 2596              	.L91:
 2597              		.loc 1 444 0
 2598 101a 631C     		adds	r3, r4, #1
 2599 101c C9F80030 		str	r3, [r9]
 2600 1020 FFF7FEFF 		bl	e_get_check
 2601              	.LVL172:
 2602              		.loc 1 445 0
 2603 1024 D9F800B0 		ldr	fp, [r9]
 2604              		.loc 1 444 0
 2605 1028 08F80400 		strb	r0, [r8, r4]
 2606              		.loc 1 445 0
 2607 102c 0BF10103 		add	r3, fp, #1
 2608 1030 C9F80030 		str	r3, [r9]
 2609 1034 FFF7FEFF 		bl	e_get_address
 2610              	.LVL173:
 2611              		.loc 1 446 0
 2612 1038 D9F80040 		ldr	r4, [r9]
 2613              		.loc 1 445 0
 2614 103c 08F80B00 		strb	r0, [r8, fp]
 2615              		.loc 1 446 0
 2616 1040 631C     		adds	r3, r4, #1
 2617 1042 C9F80030 		str	r3, [r9]
 2618 1046 FFF7FEFF 		bl	e_get_data
 2619              	.LVL174:
 2620              		.loc 1 449 0
 2621 104a 494A     		ldr	r2, .L822+16
 2622              		.loc 1 446 0
ARM GAS  /tmp/ccZueut9.s 			page 47


 2623 104c 08F80400 		strb	r0, [r8, r4]
 2624              		.loc 1 449 0
 2625 1050 484C     		ldr	r4, .L822+20
 2626 1052 2369     		ldr	r3, [r4, #16]
 2627 1054 2169     		ldr	r1, [r4, #16]
 2628 1056 1069     		ldr	r0, [r2, #16]
 2629 1058 2269     		ldr	r2, [r4, #16]
 2630 105a C0F30010 		ubfx	r0, r0, #4, #1
 2631 105e C1F3C031 		ubfx	r1, r1, #15, #1
 2632 1062 01EB4001 		add	r1, r1, r0, lsl #1
 2633 1066 C2F38032 		ubfx	r2, r2, #14, #1
 2634 106a 02EB4102 		add	r2, r2, r1, lsl #1
 2635 106e C3F34033 		ubfx	r3, r3, #13, #1
 2636              		.loc 1 450 0
 2637 1072 D9F80010 		ldr	r1, [r9]
 2638              		.loc 1 449 0
 2639 1076 03EB4203 		add	r3, r3, r2, lsl #1
 2640 107a 3F4A     		ldr	r2, .L822+24
 2641              		.loc 1 450 0
 2642 107c 08F80130 		strb	r3, [r8, r1]
 2643              		.loc 1 453 0
 2644 1080 0020     		movs	r0, #0
 2645              		.loc 1 450 0
 2646 1082 0131     		adds	r1, r1, #1
 2647              		.loc 1 449 0
 2648 1084 1360     		str	r3, [r2]
 2649              		.loc 1 450 0
 2650 1086 C9F80010 		str	r1, [r9]
 2651              		.loc 1 453 0
 2652 108a CAF80000 		str	r0, [r10]
 2653              	.L92:
 2654              		.loc 1 454 0 discriminator 3
 2655 108e FFF7FEFF 		bl	get_ground_prox
 2656              	.LVL175:
 2657              		.loc 1 455 0 discriminator 3
 2658 1092 D9F80020 		ldr	r2, [r9]
 2659              		.loc 1 453 0 discriminator 3
 2660 1096 DAF80030 		ldr	r3, [r10]
 2661              		.loc 1 455 0 discriminator 3
 2662 109a 08F80200 		strb	r0, [r8, r2]
 2663              		.loc 1 456 0 discriminator 3
 2664 109e 08EB0204 		add	r4, r8, r2
 2665 10a2 0112     		asrs	r1, r0, #8
 2666              		.loc 1 453 0 discriminator 3
 2667 10a4 581C     		adds	r0, r3, #1
 2668              		.loc 1 456 0 discriminator 3
 2669 10a6 0232     		adds	r2, r2, #2
 2670              		.loc 1 453 0 discriminator 3
 2671 10a8 0228     		cmp	r0, #2
 2672              		.loc 1 456 0 discriminator 3
 2673 10aa 6170     		strb	r1, [r4, #1]
 2674 10ac C9F80020 		str	r2, [r9]
 2675              		.loc 1 453 0 discriminator 3
 2676 10b0 CAF80000 		str	r0, [r10]
 2677 10b4 EBDD     		ble	.L92
 2678              		.loc 1 460 0
 2679 10b6 0020     		movs	r0, #0
ARM GAS  /tmp/ccZueut9.s 			page 48


 2680 10b8 CAF80000 		str	r0, [r10]
 2681              	.L93:
 2682              		.loc 1 461 0 discriminator 3
 2683 10bc FFF7FEFF 		bl	get_ground_ambient_light
 2684              	.LVL176:
 2685              		.loc 1 462 0 discriminator 3
 2686 10c0 D9F80010 		ldr	r1, [r9]
 2687              		.loc 1 460 0 discriminator 3
 2688 10c4 DAF80030 		ldr	r3, [r10]
 2689              		.loc 1 462 0 discriminator 3
 2690 10c8 08F80100 		strb	r0, [r8, r1]
 2691              		.loc 1 463 0 discriminator 3
 2692 10cc 0212     		asrs	r2, r0, #8
 2693 10ce 08EB0104 		add	r4, r8, r1
 2694              		.loc 1 460 0 discriminator 3
 2695 10d2 581C     		adds	r0, r3, #1
 2696 10d4 0228     		cmp	r0, #2
 2697              		.loc 1 463 0 discriminator 3
 2698 10d6 01F10203 		add	r3, r1, #2
 2699 10da 6270     		strb	r2, [r4, #1]
 2700 10dc C9F80030 		str	r3, [r9]
 2701              		.loc 1 460 0 discriminator 3
 2702 10e0 CAF80000 		str	r0, [r10]
 2703 10e4 EADD     		ble	.L93
 2704              		.loc 1 467 0
 2705 10e6 0331     		adds	r1, r1, #3
 2706 10e8 0022     		movs	r2, #0
 2707 10ea C9F80010 		str	r1, [r9]
 2708 10ee 08F80320 		strb	r2, [r8, r3]
 2709              		.loc 1 468 0
 2710 10f2 FFF704BA 		b	.L47
 2711              	.LVL177:
 2712              	.L76:
 2713              		.loc 1 993 0
 2714 10f6 002D     		cmp	r5, #0
 2715 10f8 7FF46CA9 		bne	.L46
 2716              		.loc 1 994 0
 2717 10fc FFF7FEFF 		bl	e_i2cp_enable
 2718              	.LVL178:
 2719              		.loc 1 995 0
 2720 1100 CAF80050 		str	r5, [r10]
 2721 1104 2846     		mov	r0, r5
 2722 1106 01E0     		b	.L200
 2723              	.L801:
 2724 1108 DAF80000 		ldr	r0, [r10]
 2725              	.L200:
 2726              		.loc 1 996 0 discriminator 1
 2727 110c D9F80030 		ldr	r3, [r9]
 2728 1110 1844     		add	r0, r0, r3
 2729 1112 4044     		add	r0, r0, r8
 2730 1114 FFF7FEFF 		bl	e_getchar_uart1
 2731              	.LVL179:
 2732 1118 0028     		cmp	r0, #0
 2733 111a F5D0     		beq	.L801
 2734              		.loc 1 995 0 discriminator 2
 2735 111c DAF80000 		ldr	r0, [r10]
 2736 1120 0130     		adds	r0, r0, #1
ARM GAS  /tmp/ccZueut9.s 			page 49


 2737 1122 1728     		cmp	r0, #23
 2738 1124 CAF80000 		str	r0, [r10]
 2739 1128 F0DD     		ble	.L200
 2740              		.loc 1 998 0
 2741 112a 9220     		movs	r0, #146
 2742 112c CAF80000 		str	r0, [r10]
 2743 1130 01E0     		b	.L203
 2744              	.L802:
 2745 1132 DAF80000 		ldr	r0, [r10]
 2746              	.L203:
 2747              		.loc 1 999 0 discriminator 1
 2748 1136 D9F80030 		ldr	r3, [r9]
 2749 113a 1844     		add	r0, r0, r3
 2750 113c 7A38     		subs	r0, r0, #122
 2751 113e 4044     		add	r0, r0, r8
 2752 1140 FFF7FEFF 		bl	e_getchar_uart1
 2753              	.LVL180:
 2754 1144 0028     		cmp	r0, #0
 2755 1146 F4D0     		beq	.L802
 2756              		.loc 1 998 0 discriminator 2
 2757 1148 DAF80000 		ldr	r0, [r10]
 2758 114c 0130     		adds	r0, r0, #1
 2759 114e 9428     		cmp	r0, #148
 2760 1150 CAF80000 		str	r0, [r10]
 2761 1154 EFDD     		ble	.L203
 2762              		.loc 1 1001 0
 2763 1156 A420     		movs	r0, #164
 2764 1158 CAF80000 		str	r0, [r10]
 2765 115c 10E0     		b	.L206
 2766              	.L823:
 2767 115e 00BF     		.align	2
 2768              	.L822:
 2769 1160 00000000 		.word	.LANCHOR10
 2770 1164 00000000 		.word	.LANCHOR11
 2771 1168 00000000 		.word	.LANCHOR12
 2772 116c 00000000 		.word	.LANCHOR13
 2773 1170 000C0240 		.word	1073875968
 2774 1174 00080240 		.word	1073874944
 2775 1178 00000000 		.word	selector
 2776              	.L803:
 2777 117c DAF80000 		ldr	r0, [r10]
 2778              	.L206:
 2779              		.loc 1 1002 0 discriminator 1
 2780 1180 D9F80030 		ldr	r3, [r9]
 2781 1184 1844     		add	r0, r0, r3
 2782 1186 8938     		subs	r0, r0, #137
 2783 1188 4044     		add	r0, r0, r8
 2784 118a FFF7FEFF 		bl	e_getchar_uart1
 2785              	.LVL181:
 2786 118e 0028     		cmp	r0, #0
 2787 1190 F4D0     		beq	.L803
 2788              		.loc 1 1001 0 discriminator 2
 2789 1192 DAF80000 		ldr	r0, [r10]
 2790 1196 0130     		adds	r0, r0, #1
 2791 1198 AB28     		cmp	r0, #171
 2792 119a CAF80000 		str	r0, [r10]
 2793 119e EFDD     		ble	.L206
ARM GAS  /tmp/ccZueut9.s 			page 50


 2794              		.loc 1 1004 0
 2795 11a0 0021     		movs	r1, #0
 2796 11a2 CAF80010 		str	r1, [r10]
 2797              	.L208:
 2798              		.loc 1 1005 0 discriminator 3
 2799 11a6 D9F80030 		ldr	r3, [r9]
 2800 11aa 08EB0102 		add	r2, r8, r1
 2801 11ae B020     		movs	r0, #176
 2802 11b0 C9B2     		uxtb	r1, r1
 2803 11b2 D25C     		ldrb	r2, [r2, r3]	@ zero_extendqisi2
 2804 11b4 FFF7FEFF 		bl	e_i2cp_write
 2805              	.LVL182:
 2806              		.loc 1 1004 0 discriminator 3
 2807 11b8 DAF80010 		ldr	r1, [r10]
 2808 11bc 0131     		adds	r1, r1, #1
 2809 11be 1729     		cmp	r1, #23
 2810 11c0 CAF80010 		str	r1, [r10]
 2811 11c4 EFDD     		ble	.L208
 2812              		.loc 1 1007 0
 2813 11c6 9221     		movs	r1, #146
 2814 11c8 CAF80010 		str	r1, [r10]
 2815              	.L209:
 2816              		.loc 1 1008 0 discriminator 3
 2817 11cc D9F80020 		ldr	r2, [r9]
 2818 11d0 08EB0103 		add	r3, r8, r1
 2819 11d4 1344     		add	r3, r3, r2
 2820 11d6 C9B2     		uxtb	r1, r1
 2821 11d8 13F87A2C 		ldrb	r2, [r3, #-122]	@ zero_extendqisi2
 2822 11dc B020     		movs	r0, #176
 2823 11de FFF7FEFF 		bl	e_i2cp_write
 2824              	.LVL183:
 2825              		.loc 1 1007 0 discriminator 3
 2826 11e2 DAF80010 		ldr	r1, [r10]
 2827 11e6 0131     		adds	r1, r1, #1
 2828 11e8 9429     		cmp	r1, #148
 2829 11ea CAF80010 		str	r1, [r10]
 2830 11ee EDDD     		ble	.L209
 2831              		.loc 1 1010 0
 2832 11f0 A421     		movs	r1, #164
 2833 11f2 CAF80010 		str	r1, [r10]
 2834              	.L210:
 2835              		.loc 1 1011 0 discriminator 3
 2836 11f6 D9F80020 		ldr	r2, [r9]
 2837 11fa 08EB0103 		add	r3, r8, r1
 2838 11fe 1344     		add	r3, r3, r2
 2839 1200 C9B2     		uxtb	r1, r1
 2840 1202 13F8892C 		ldrb	r2, [r3, #-137]	@ zero_extendqisi2
 2841 1206 B020     		movs	r0, #176
 2842 1208 FFF7FEFF 		bl	e_i2cp_write
 2843              	.LVL184:
 2844              		.loc 1 1010 0 discriminator 3
 2845 120c DAF80010 		ldr	r1, [r10]
 2846 1210 0131     		adds	r1, r1, #1
 2847 1212 AB29     		cmp	r1, #171
 2848 1214 CAF80010 		str	r1, [r10]
 2849 1218 EDDD     		ble	.L210
 2850              		.loc 1 1013 0
ARM GAS  /tmp/ccZueut9.s 			page 51


 2851 121a 0122     		movs	r2, #1
 2852 121c 9121     		movs	r1, #145
 2853 121e B020     		movs	r0, #176
 2854 1220 FFF7FEFF 		bl	e_i2cp_write
 2855              	.LVL185:
 2856              		.loc 1 1014 0
 2857 1224 FFF7FEFF 		bl	e_i2cp_disable
 2858              	.LVL186:
 2859 1228 FFF76AB9 		b	.L128
 2860              	.L740:
 2861              		.loc 1 1043 0
 2862 122c D9F80010 		ldr	r1, [r9]
 2863 1230 AB46     		mov	fp, r5
 2864 1232 0029     		cmp	r1, #0
 2865 1234 3EF42EAF 		beq	.L5
 2866              		.loc 1 1044 0
 2867 1238 002D     		cmp	r5, #0
 2868 123a 7EF42BAF 		bne	.L5
 2869              		.loc 1 1045 0
 2870 123e C94B     		ldr	r3, .L824
 2871 1240 1B78     		ldrb	r3, [r3]	@ zero_extendqisi2
 2872 1242 002B     		cmp	r3, #0
 2873 1244 40F0C286 		bne	.L804
 2874              	.L219:
 2875              		.loc 1 1054 0
 2876 1248 079B     		ldr	r3, [sp, #28]
 2877 124a 002B     		cmp	r3, #0
 2878 124c 00F04C86 		beq	.L805
 2879              		.loc 1 1055 0
 2880 1250 C548     		ldr	r0, .L824+4
 2881 1252 FFF7FEFF 		bl	e_send_uart1_char
 2882              	.LVL187:
 2883              	.L220:
 2884              		.loc 1 1056 0 discriminator 1
 2885 1256 FFF7FEFF 		bl	e_uart1_sending
 2886              	.LVL188:
 2887 125a 0028     		cmp	r0, #0
 2888 125c FBD1     		bne	.L220
 2889 125e FEF71CBF 		b	.L741
 2890              	.L775:
 2891              	.LVL189:
 2892              	.LBB3:
 2893              		.loc 1 1085 0
 2894 1262 FFF7FEFF 		bl	__locale_ctype_ptr
 2895              	.LVL190:
 2896 1266 2044     		add	r0, r0, r4
 2897 1268 4378     		ldrb	r3, [r0, #1]	@ zero_extendqisi2
 2898 126a 03F00303 		and	r3, r3, #3
 2899 126e 022B     		cmp	r3, #2
 2900 1270 08BF     		it	eq
 2901 1272 203C     		subeq	r4, r4, #32
 2902              	.LVL191:
 2903              	.LBE3:
 2904 1274 E4B2     		uxtb	r4, r4
 2905              		.loc 1 1087 0
 2906 1276 A4F14103 		sub	r3, r4, #65
 2907              		.loc 1 1085 0
ARM GAS  /tmp/ccZueut9.s 			page 52


 2908 127a 88F80040 		strb	r4, [r8]
 2909              		.loc 1 1087 0
 2910 127e 332B     		cmp	r3, #51
 2911 1280 00F2F485 		bhi	.L242
 2912 1284 01A2     		adr	r2, .L244
 2913 1286 52F823F0 		ldr	pc, [r2, r3, lsl #2]
 2914 128a 00BF     		.p2align 2
 2915              	.L244:
 2916 128c C1160000 		.word	.L243+1
 2917 1290 39160000 		.word	.L245+1
 2918 1294 D9150000 		.word	.L246+1
 2919 1298 CB1D0000 		.word	.L247+1
 2920 129c A1190000 		.word	.L248+1
 2921 12a0 271B0000 		.word	.L249+1
 2922 12a4 21180000 		.word	.L250+1
 2923 12a8 F91B0000 		.word	.L251+1
 2924 12ac F1180000 		.word	.L252+1
 2925 12b0 131A0000 		.word	.L253+1
 2926 12b4 6F160000 		.word	.L254+1
 2927 12b8 EB1A0000 		.word	.L255+1
 2928 12bc 3D190000 		.word	.L256+1
 2929 12c0 9B170000 		.word	.L257+1
 2930 12c4 15170000 		.word	.L258+1
 2931 12c8 5D1B0000 		.word	.L259+1
 2932 12cc 69180000 		.word	.L260+1
 2933 12d0 95000000 		.word	.L5+1
 2934 12d4 DB190000 		.word	.L261+1
 2935 12d8 A5150000 		.word	.L262+1
 2936 12dc 15150000 		.word	.L263+1
 2937 12e0 83140000 		.word	.L264+1
 2938 12e4 C9140000 		.word	.L265+1
 2939 12e8 6D1E0000 		.word	.L242+1
 2940 12ec 03140000 		.word	.L266+1
 2941 12f0 95130000 		.word	.L267+1
 2942 12f4 6D1E0000 		.word	.L242+1
 2943 12f8 6D1E0000 		.word	.L242+1
 2944 12fc 6D1E0000 		.word	.L242+1
 2945 1300 6D1E0000 		.word	.L242+1
 2946 1304 6D1E0000 		.word	.L242+1
 2947 1308 6D1E0000 		.word	.L242+1
 2948 130c 6D1E0000 		.word	.L242+1
 2949 1310 03290000 		.word	.L268+1
 2950 1314 6D1E0000 		.word	.L242+1
 2951 1318 6D1E0000 		.word	.L242+1
 2952 131c 6D1E0000 		.word	.L242+1
 2953 1320 6D1E0000 		.word	.L242+1
 2954 1324 69010000 		.word	.L240+1
 2955 1328 6D1E0000 		.word	.L242+1
 2956 132c 6D1E0000 		.word	.L242+1
 2957 1330 6D1E0000 		.word	.L242+1
 2958 1334 6D1E0000 		.word	.L242+1
 2959 1338 6D1E0000 		.word	.L242+1
 2960 133c 6D1E0000 		.word	.L242+1
 2961 1340 6D1E0000 		.word	.L242+1
 2962 1344 6D1E0000 		.word	.L242+1
 2963 1348 6D1E0000 		.word	.L242+1
 2964 134c 6D1E0000 		.word	.L242+1
ARM GAS  /tmp/ccZueut9.s 			page 53


 2965 1350 6D1E0000 		.word	.L242+1
 2966 1354 6D1E0000 		.word	.L242+1
 2967 1358 5D130000 		.word	.L269+1
 2968              		.p2align 1
 2969              	.L269:
 2970              	.LBB4:
 2971              		.loc 1 1519 0
 2972 135c BBF1000F 		cmp	fp, #0
 2973 1360 40F0DA87 		bne	.L418
 2974              		.loc 1 1520 0
 2975 1364 FFF7FEFF 		bl	getTemperature
 2976              	.LVL192:
 2977 1368 8049     		ldr	r1, .L824+8
 2978 136a 0246     		mov	r2, r0
 2979 136c 7E48     		ldr	r0, .L824+4
 2980 136e FFF7FEFF 		bl	sprintf
 2981              	.LVL193:
 2982              		.loc 1 1526 0
 2983 1372 079B     		ldr	r3, [sp, #28]
 2984 1374 002B     		cmp	r3, #0
 2985 1376 01F0C880 		beq	.L806
 2986              		.loc 1 1527 0
 2987 137a 7B48     		ldr	r0, .L824+4
 2988 137c FFF7FEFF 		bl	strlen
 2989              	.LVL194:
 2990 1380 0146     		mov	r1, r0
 2991 1382 7948     		ldr	r0, .L824+4
 2992 1384 FFF7FEFF 		bl	e_send_uart1_char
 2993              	.LVL195:
 2994              	.L421:
 2995              		.loc 1 1527 0 is_stmt 0 discriminator 2
 2996 1388 FFF7FEFF 		bl	e_uart1_sending
 2997              	.LVL196:
 2998 138c 0028     		cmp	r0, #0
 2999 138e FBD1     		bne	.L421
 3000 1390 FEF783BE 		b	.L741
 3001              	.L267:
 3002              		.loc 1 1594 0 is_stmt 1
 3003 1394 BBF1000F 		cmp	fp, #0
 3004 1398 7EF47CAE 		bne	.L5
 3005              		.loc 1 1595 0
 3006 139c 0223     		movs	r3, #2
 3007              		.loc 1 1600 0
 3008 139e 744D     		ldr	r5, .L824+12
 3009 13a0 714C     		ldr	r4, .L824+4
 3010              		.loc 1 1595 0
 3011 13a2 CAF80030 		str	r3, [r10]
 3012 13a6 079E     		ldr	r6, [sp, #28]
 3013 13a8 07E0     		b	.L448
 3014              	.L444:
 3015 13aa DAF80030 		ldr	r3, [r10]
 3016 13ae 0233     		adds	r3, r3, #2
 3017 13b0 FE2B     		cmp	r3, #254
 3018 13b2 CAF80030 		str	r3, [r10]
 3019 13b6 3EF770AE 		bgt	.L741
 3020              	.L448:
 3021              		.loc 1 1596 0
ARM GAS  /tmp/ccZueut9.s 			page 54


 3022 13ba FFF7FEFF 		bl	e_i2cp_enable
 3023              	.LVL197:
 3024              		.loc 1 1597 0
 3025 13be 0021     		movs	r1, #0
 3026 13c0 9AF80000 		ldrb	r0, [r10]	@ zero_extendqisi2
 3027 13c4 FFF7FEFF 		bl	e_i2cp_read
 3028              	.LVL198:
 3029 13c8 6A4B     		ldr	r3, .L824+16
 3030 13ca 1860     		str	r0, [r3]
 3031              		.loc 1 1598 0
 3032 13cc FFF7FEFF 		bl	e_i2cp_disable
 3033              	.LVL199:
 3034              		.loc 1 1599 0
 3035 13d0 684B     		ldr	r3, .L824+16
 3036 13d2 1B68     		ldr	r3, [r3]
 3037 13d4 002B     		cmp	r3, #0
 3038 13d6 E8DB     		blt	.L444
 3039              		.loc 1 1600 0
 3040 13d8 DAF80020 		ldr	r2, [r10]
 3041 13dc 2946     		mov	r1, r5
 3042 13de 2046     		mov	r0, r4
 3043 13e0 FFF7FEFF 		bl	sprintf
 3044              	.LVL200:
 3045              		.loc 1 1602 0
 3046 13e4 2046     		mov	r0, r4
 3047              		.loc 1 1601 0
 3048 13e6 002E     		cmp	r6, #0
 3049 13e8 00F0D987 		beq	.L445
 3050              		.loc 1 1602 0
 3051 13ec FFF7FEFF 		bl	strlen
 3052              	.LVL201:
 3053 13f0 0146     		mov	r1, r0
 3054 13f2 2046     		mov	r0, r4
 3055 13f4 FFF7FEFF 		bl	e_send_uart1_char
 3056              	.LVL202:
 3057              	.L446:
 3058              		.loc 1 1602 0 is_stmt 0 discriminator 2
 3059 13f8 FFF7FEFF 		bl	e_uart1_sending
 3060              	.LVL203:
 3061 13fc 0028     		cmp	r0, #0
 3062 13fe FBD1     		bne	.L446
 3063 1400 D3E7     		b	.L444
 3064              	.L266:
 3065              		.loc 1 1574 0 is_stmt 1
 3066 1402 BBF1000F 		cmp	fp, #0
 3067 1406 7EF445AE 		bne	.L5
 3068              		.loc 1 1575 0
 3069 140a 5B4B     		ldr	r3, .L824+20
 3070 140c 5B4A     		ldr	r2, .L824+24
 3071 140e 5C49     		ldr	r1, .L824+28
 3072 1410 5548     		ldr	r0, .L824+4
 3073 1412 FFF7FEFF 		bl	sscanf
 3074              	.LVL204:
 3075              		.loc 1 1576 0
 3076 1416 584B     		ldr	r3, .L824+20
 3077 1418 584A     		ldr	r2, .L824+24
 3078 141a 1B68     		ldr	r3, [r3]
ARM GAS  /tmp/ccZueut9.s 			page 55


 3079 141c 1268     		ldr	r2, [r2]
 3080 141e 5949     		ldr	r1, .L824+32
 3081 1420 5148     		ldr	r0, .L824+4
 3082 1422 FFF7FEFF 		bl	sprintf
 3083              	.LVL205:
 3084              		.loc 1 1577 0
 3085 1426 079B     		ldr	r3, [sp, #28]
 3086              		.loc 1 1578 0
 3087 1428 4F48     		ldr	r0, .L824+4
 3088              		.loc 1 1577 0
 3089 142a 002B     		cmp	r3, #0
 3090 142c 01F0D481 		beq	.L437
 3091              		.loc 1 1578 0
 3092 1430 FFF7FEFF 		bl	strlen
 3093              	.LVL206:
 3094 1434 0146     		mov	r1, r0
 3095 1436 4C48     		ldr	r0, .L824+4
 3096 1438 FFF7FEFF 		bl	e_send_uart1_char
 3097              	.LVL207:
 3098              	.L438:
 3099              		.loc 1 1578 0 is_stmt 0 discriminator 2
 3100 143c FFF7FEFF 		bl	e_uart1_sending
 3101              	.LVL208:
 3102 1440 0028     		cmp	r0, #0
 3103 1442 FBD1     		bne	.L438
 3104              		.loc 1 1582 0 is_stmt 1
 3105 1444 FFF7FEFF 		bl	e_i2cp_enable
 3106              	.LVL209:
 3107              		.loc 1 1583 0
 3108 1448 4B4B     		ldr	r3, .L824+20
 3109 144a 1978     		ldrb	r1, [r3]	@ zero_extendqisi2
 3110 144c 4B4B     		ldr	r3, .L824+24
 3111 144e 1878     		ldrb	r0, [r3]	@ zero_extendqisi2
 3112 1450 FFF7FEFF 		bl	e_i2cp_read
 3113              	.LVL210:
 3114 1454 474B     		ldr	r3, .L824+16
 3115 1456 1C46     		mov	r4, r3
 3116 1458 1860     		str	r0, [r3]
 3117              		.loc 1 1584 0
 3118 145a FFF7FEFF 		bl	e_i2cp_disable
 3119              	.LVL211:
 3120              		.loc 1 1585 0
 3121 145e 4A49     		ldr	r1, .L824+36
 3122 1460 2268     		ldr	r2, [r4]
 3123 1462 4148     		ldr	r0, .L824+4
 3124 1464 FFF7FEFF 		bl	sprintf
 3125              	.LVL212:
 3126              		.loc 1 1587 0
 3127 1468 3F48     		ldr	r0, .L824+4
 3128 146a FFF7FEFF 		bl	strlen
 3129              	.LVL213:
 3130 146e 0146     		mov	r1, r0
 3131 1470 3D48     		ldr	r0, .L824+4
 3132 1472 FFF7FEFF 		bl	e_send_uart1_char
 3133              	.LVL214:
 3134              	.L442:
 3135              		.loc 1 1587 0 is_stmt 0 discriminator 2
ARM GAS  /tmp/ccZueut9.s 			page 56


 3136 1476 FFF7FEFF 		bl	e_uart1_sending
 3137              	.LVL215:
 3138 147a 0028     		cmp	r0, #0
 3139 147c FBD1     		bne	.L442
 3140 147e FEF70CBE 		b	.L741
 3141              	.L264:
 3142              		.loc 1 1544 0 is_stmt 1
 3143 1482 BBF1000F 		cmp	fp, #0
 3144 1486 40F03F87 		bne	.L426
 3145              		.loc 1 1546 0
 3146 148a 079B     		ldr	r3, [sp, #28]
 3147              		.loc 1 1547 0
 3148 148c 3F48     		ldr	r0, .L824+40
 3149 148e 2521     		movs	r1, #37
 3150              		.loc 1 1546 0
 3151 1490 002B     		cmp	r3, #0
 3152 1492 01F02180 		beq	.L427
 3153              		.loc 1 1547 0
 3154 1496 FFF7FEFF 		bl	e_send_uart1_char
 3155              	.LVL216:
 3156              	.L428:
 3157              		.loc 1 1547 0 is_stmt 0 discriminator 2
 3158 149a FFF7FEFF 		bl	e_uart1_sending
 3159              	.LVL217:
 3160 149e 0028     		cmp	r0, #0
 3161 14a0 FBD1     		bne	.L428
 3162              		.loc 1 1551 0 is_stmt 1
 3163 14a2 3B4B     		ldr	r3, .L824+44
 3164 14a4 3B49     		ldr	r1, .L824+48
 3165 14a6 1A68     		ldr	r2, [r3]
 3166 14a8 2F48     		ldr	r0, .L824+4
 3167 14aa FFF7FEFF 		bl	sprintf
 3168              	.LVL218:
 3169              		.loc 1 1555 0
 3170 14ae 2E48     		ldr	r0, .L824+4
 3171 14b0 FFF7FEFF 		bl	strlen
 3172              	.LVL219:
 3173 14b4 0146     		mov	r1, r0
 3174 14b6 2C48     		ldr	r0, .L824+4
 3175 14b8 FFF7FEFF 		bl	e_send_uart1_char
 3176              	.LVL220:
 3177              	.L432:
 3178              		.loc 1 1555 0 is_stmt 0 discriminator 2
 3179 14bc FFF7FEFF 		bl	e_uart1_sending
 3180              	.LVL221:
 3181 14c0 0028     		cmp	r0, #0
 3182 14c2 FBD1     		bne	.L432
 3183 14c4 FEF7E9BD 		b	.L741
 3184              	.L265:
 3185              		.loc 1 1561 0 is_stmt 1
 3186 14c8 BBF1000F 		cmp	fp, #0
 3187 14cc 7EF4E2AD 		bne	.L5
 3188              		.loc 1 1562 0
 3189 14d0 284B     		ldr	r3, .L824+16
 3190 14d2 2A4A     		ldr	r2, .L824+24
 3191 14d4 3049     		ldr	r1, .L824+52
 3192 14d6 0093     		str	r3, [sp]
ARM GAS  /tmp/ccZueut9.s 			page 57


 3193 14d8 1C46     		mov	r4, r3
 3194 14da 2348     		ldr	r0, .L824+4
 3195 14dc 264B     		ldr	r3, .L824+20
 3196 14de FFF7FEFF 		bl	sscanf
 3197              	.LVL222:
 3198              		.loc 1 1563 0
 3199 14e2 FFF7FEFF 		bl	e_i2cp_enable
 3200              	.LVL223:
 3201              		.loc 1 1564 0
 3202 14e6 244B     		ldr	r3, .L824+20
 3203 14e8 2278     		ldrb	r2, [r4]	@ zero_extendqisi2
 3204 14ea 1978     		ldrb	r1, [r3]	@ zero_extendqisi2
 3205 14ec 234B     		ldr	r3, .L824+24
 3206 14ee 1878     		ldrb	r0, [r3]	@ zero_extendqisi2
 3207 14f0 FFF7FEFF 		bl	e_i2cp_write
 3208              	.LVL224:
 3209              		.loc 1 1565 0
 3210 14f4 FFF7FEFF 		bl	e_i2cp_disable
 3211              	.LVL225:
 3212              		.loc 1 1566 0
 3213 14f8 079B     		ldr	r3, [sp, #28]
 3214              		.loc 1 1567 0
 3215 14fa 2848     		ldr	r0, .L824+56
 3216 14fc 0321     		movs	r1, #3
 3217              		.loc 1 1566 0
 3218 14fe 002B     		cmp	r3, #0
 3219 1500 01F0AA81 		beq	.L434
 3220              		.loc 1 1567 0
 3221 1504 FFF7FEFF 		bl	e_send_uart1_char
 3222              	.LVL226:
 3223              	.L435:
 3224              		.loc 1 1567 0 is_stmt 0 discriminator 2
 3225 1508 FFF7FEFF 		bl	e_uart1_sending
 3226              	.LVL227:
 3227 150c 0028     		cmp	r0, #0
 3228 150e FBD1     		bne	.L435
 3229 1510 FEF7C3BD 		b	.L741
 3230              	.L263:
 3231              		.loc 1 1534 0 is_stmt 1
 3232 1514 0020     		movs	r0, #0
 3233 1516 FFF7FEFF 		bl	e_get_micro_volume
 3234              	.LVL228:
 3235 151a 0446     		mov	r4, r0
 3236 151c 0120     		movs	r0, #1
 3237 151e FFF7FEFF 		bl	e_get_micro_volume
 3238              	.LVL229:
 3239 1522 0546     		mov	r5, r0
 3240 1524 0220     		movs	r0, #2
 3241 1526 FFF7FEFF 		bl	e_get_micro_volume
 3242              	.LVL230:
 3243 152a 2B46     		mov	r3, r5
 3244 152c 0090     		str	r0, [sp]
 3245 152e 2246     		mov	r2, r4
 3246 1530 1B49     		ldr	r1, .L824+60
 3247 1532 0D48     		ldr	r0, .L824+4
 3248 1534 FFF7FEFF 		bl	sprintf
 3249              	.LVL231:
ARM GAS  /tmp/ccZueut9.s 			page 58


 3250              		.loc 1 1535 0
 3251 1538 BBF1000F 		cmp	fp, #0
 3252 153c 7EF4AAAD 		bne	.L5
 3253 1540 0948     		ldr	r0, .L824+4
 3254 1542 FFF7FEFF 		bl	strlen
 3255              	.LVL232:
 3256              		.loc 1 1537 0
 3257 1546 079B     		ldr	r3, [sp, #28]
 3258 1548 0146     		mov	r1, r0
 3259              		.loc 1 1538 0
 3260 154a 0748     		ldr	r0, .L824+4
 3261              		.loc 1 1537 0
 3262 154c 002B     		cmp	r3, #0
 3263 154e 01F00680 		beq	.L423
 3264              		.loc 1 1538 0
 3265 1552 FFF7FEFF 		bl	e_send_uart1_char
 3266              	.LVL233:
 3267              	.L424:
 3268              		.loc 1 1538 0 is_stmt 0 discriminator 2
 3269 1556 FFF7FEFF 		bl	e_uart1_sending
 3270              	.LVL234:
 3271 155a 0028     		cmp	r0, #0
 3272 155c FBD1     		bne	.L424
 3273 155e FEF79CBD 		b	.L741
 3274              	.L825:
 3275 1562 00BF     		.align	2
 3276              	.L824:
 3277 1564 00000000 		.word	.LANCHOR21
 3278 1568 00000000 		.word	buffer
 3279 156c B40A0000 		.word	.LC85
 3280 1570 240B0000 		.word	.LC93
 3281 1574 00000000 		.word	.LANCHOR26
 3282 1578 00000000 		.word	.LANCHOR25
 3283 157c 00000000 		.word	.LANCHOR24
 3284 1580 0C0B0000 		.word	.LC91
 3285 1584 180B0000 		.word	.LC92
 3286 1588 5C0B0000 		.word	.LC96
 3287 158c D40A0000 		.word	.LC88
 3288 1590 00000000 		.word	.LANCHOR0
 3289 1594 480B0000 		.word	.LC95
 3290 1598 FC0A0000 		.word	.LC89
 3291 159c 080B0000 		.word	.LC90
 3292 15a0 C40A0000 		.word	.LC87
 3293              	.L262:
 3294              		.loc 1 1487 0 is_stmt 1
 3295 15a4 C04A     		ldr	r2, .L826
 3296 15a6 C149     		ldr	r1, .L826+4
 3297 15a8 C148     		ldr	r0, .L826+8
 3298 15aa FFF7FEFF 		bl	sscanf
 3299              	.LVL235:
 3300              		.loc 1 1488 0
 3301 15ae C14B     		ldr	r3, .L826+12
 3302 15b0 1B78     		ldrb	r3, [r3]	@ zero_extendqisi2
 3303 15b2 23B9     		cbnz	r3, .L406
 3304              		.loc 1 1489 0
 3305 15b4 FFF7FEFF 		bl	e_init_sound
 3306              	.LVL236:
ARM GAS  /tmp/ccZueut9.s 			page 59


 3307              		.loc 1 1490 0
 3308 15b8 BE4A     		ldr	r2, .L826+12
 3309 15ba 0123     		movs	r3, #1
 3310 15bc 1370     		strb	r3, [r2]
 3311              	.L406:
 3312              		.loc 1 1492 0
 3313 15be BA4B     		ldr	r3, .L826
 3314 15c0 1B68     		ldr	r3, [r3]
 3315 15c2 013B     		subs	r3, r3, #1
 3316 15c4 042B     		cmp	r3, #4
 3317 15c6 01F25B81 		bhi	.L407
 3318 15ca DFE813F0 		tbh	[pc, r3, lsl #1]
 3319              	.L409:
 3320 15ce 4904     		.2byte	(.L408-.L409)/2
 3321 15d0 4304     		.2byte	(.L410-.L409)/2
 3322 15d2 3D04     		.2byte	(.L411-.L409)/2
 3323 15d4 3604     		.2byte	(.L412-.L409)/2
 3324 15d6 1E04     		.2byte	(.L413-.L409)/2
 3325              		.p2align 1
 3326              	.L246:
 3327              		.loc 1 1124 0
 3328 15d8 B74A     		ldr	r2, .L826+16
 3329 15da B849     		ldr	r1, .L826+20
 3330 15dc 1369     		ldr	r3, [r2, #16]
 3331 15de 1069     		ldr	r0, [r2, #16]
 3332 15e0 0C69     		ldr	r4, [r1, #16]
 3333 15e2 1269     		ldr	r2, [r2, #16]
 3334              		.loc 1 1125 0
 3335 15e4 B649     		ldr	r1, .L826+24
 3336              		.loc 1 1124 0
 3337 15e6 C4F30014 		ubfx	r4, r4, #4, #1
 3338 15ea C0F3C030 		ubfx	r0, r0, #15, #1
 3339 15ee 00EB4400 		add	r0, r0, r4, lsl #1
 3340 15f2 C2F38032 		ubfx	r2, r2, #14, #1
 3341 15f6 02EB4002 		add	r2, r2, r0, lsl #1
 3342 15fa C3F34033 		ubfx	r3, r3, #13, #1
 3343 15fe 03EB4203 		add	r3, r3, r2, lsl #1
 3344 1602 B04C     		ldr	r4, .L826+28
 3345              		.loc 1 1125 0
 3346 1604 AA48     		ldr	r0, .L826+8
 3347              		.loc 1 1124 0
 3348 1606 2360     		str	r3, [r4]
 3349              		.loc 1 1125 0
 3350 1608 1A46     		mov	r2, r3
 3351 160a FFF7FEFF 		bl	sprintf
 3352              	.LVL237:
 3353              		.loc 1 1126 0
 3354 160e BBF1000F 		cmp	fp, #0
 3355 1612 7EF43FAD 		bne	.L5
 3356 1616 A648     		ldr	r0, .L826+8
 3357 1618 FFF7FEFF 		bl	strlen
 3358              	.LVL238:
 3359              		.loc 1 1128 0
 3360 161c 079B     		ldr	r3, [sp, #28]
 3361 161e 0146     		mov	r1, r0
 3362              		.loc 1 1129 0
 3363 1620 A348     		ldr	r0, .L826+8
ARM GAS  /tmp/ccZueut9.s 			page 60


 3364              		.loc 1 1128 0
 3365 1622 002B     		cmp	r3, #0
 3366 1624 00F03387 		beq	.L281
 3367              		.loc 1 1129 0
 3368 1628 FFF7FEFF 		bl	e_send_uart1_char
 3369              	.LVL239:
 3370              	.L282:
 3371              		.loc 1 1129 0 is_stmt 0 discriminator 2
 3372 162c FFF7FEFF 		bl	e_uart1_sending
 3373              	.LVL240:
 3374 1630 0028     		cmp	r0, #0
 3375 1632 FBD1     		bne	.L282
 3376 1634 FEF731BD 		b	.L741
 3377              	.L245:
 3378              		.loc 1 1113 0 is_stmt 1
 3379 1638 A34A     		ldr	r2, .L826+32
 3380 163a A449     		ldr	r1, .L826+36
 3381 163c 9C48     		ldr	r0, .L826+8
 3382 163e FFF7FEFF 		bl	sscanf
 3383              	.LVL241:
 3384              		.loc 1 1114 0
 3385 1642 A14B     		ldr	r3, .L826+32
 3386 1644 1868     		ldr	r0, [r3]
 3387 1646 FFF7FEFF 		bl	e_set_body_led
 3388              	.LVL242:
 3389              		.loc 1 1115 0
 3390 164a BBF1000F 		cmp	fp, #0
 3391 164e 7EF421AD 		bne	.L5
 3392              		.loc 1 1117 0
 3393 1652 079B     		ldr	r3, [sp, #28]
 3394              		.loc 1 1118 0
 3395 1654 9E48     		ldr	r0, .L826+40
 3396 1656 0321     		movs	r1, #3
 3397              		.loc 1 1117 0
 3398 1658 002B     		cmp	r3, #0
 3399 165a 00F0A087 		beq	.L278
 3400              		.loc 1 1118 0
 3401 165e FFF7FEFF 		bl	e_send_uart1_char
 3402              	.LVL243:
 3403              	.L279:
 3404              		.loc 1 1118 0 is_stmt 0 discriminator 2
 3405 1662 FFF7FEFF 		bl	e_uart1_sending
 3406              	.LVL244:
 3407 1666 0028     		cmp	r0, #0
 3408 1668 FBD1     		bne	.L279
 3409 166a FEF716BD 		b	.L741
 3410              	.L254:
 3411              		.loc 1 1355 0 is_stmt 1
 3412 166e BBF1000F 		cmp	fp, #0
 3413 1672 40F08186 		bne	.L377
 3414              		.loc 1 1357 0
 3415 1676 079B     		ldr	r3, [sp, #28]
 3416              		.loc 1 1358 0
 3417 1678 9648     		ldr	r0, .L826+44
 3418 167a 3E21     		movs	r1, #62
 3419              		.loc 1 1357 0
 3420 167c 002B     		cmp	r3, #0
ARM GAS  /tmp/ccZueut9.s 			page 61


 3421 167e 00F0E786 		beq	.L378
 3422              		.loc 1 1358 0
 3423 1682 FFF7FEFF 		bl	e_send_uart1_char
 3424              	.LVL245:
 3425              	.L379:
 3426              		.loc 1 1358 0 is_stmt 0 discriminator 2
 3427 1686 FFF7FEFF 		bl	e_uart1_sending
 3428              	.LVL246:
 3429 168a 0028     		cmp	r0, #0
 3430 168c FBD1     		bne	.L379
 3431              		.loc 1 1363 0 is_stmt 1
 3432 168e 0121     		movs	r1, #1
 3433 1690 0820     		movs	r0, #8
 3434 1692 FFF7FEFF 		bl	e_set_led
 3435              	.LVL247:
 3436              		.loc 1 1365 0
 3437 1696 4FF4C870 		mov	r0, #400
 3438 169a FFF7FEFF 		bl	chThdSleep
 3439              	.LVL248:
 3440              		.loc 1 1366 0
 3441 169e FFF7FEFF 		bl	e_led_clear
 3442              	.LVL249:
 3443              		.loc 1 1368 0
 3444 16a2 6420     		movs	r0, #100
 3445 16a4 FFF7FEFF 		bl	chThdSleep
 3446              	.LVL250:
 3447              		.loc 1 1369 0
 3448 16a8 FFF7FEFF 		bl	e_calibrate_ir
 3449              	.LVL251:
 3450              		.loc 1 1373 0
 3451 16ac 1921     		movs	r1, #25
 3452 16ae 8A48     		ldr	r0, .L826+48
 3453 16b0 FFF7FEFF 		bl	e_send_uart1_char
 3454              	.LVL252:
 3455              	.L383:
 3456              		.loc 1 1373 0 is_stmt 0 discriminator 2
 3457 16b4 FFF7FEFF 		bl	e_uart1_sending
 3458              	.LVL253:
 3459 16b8 0028     		cmp	r0, #0
 3460 16ba FBD1     		bne	.L383
 3461 16bc FEF7EDBC 		b	.L741
 3462              	.LVL254:
 3463              	.L243:
 3464              		.loc 1 1089 0 is_stmt 1
 3465 16c0 BBF1000F 		cmp	fp, #0
 3466 16c4 40F06986 		bne	.L270
 3467              		.loc 1 1090 0
 3468 16c8 0121     		movs	r1, #1
 3469 16ca 5846     		mov	r0, fp
 3470 16cc FFF7FEFF 		bl	e_get_acc_filtered
 3471              	.LVL255:
 3472 16d0 0121     		movs	r1, #1
 3473 16d2 0446     		mov	r4, r0
 3474 16d4 0846     		mov	r0, r1
 3475 16d6 FFF7FEFF 		bl	e_get_acc_filtered
 3476              	.LVL256:
 3477 16da 0121     		movs	r1, #1
ARM GAS  /tmp/ccZueut9.s 			page 62


 3478 16dc 0546     		mov	r5, r0
 3479 16de 0220     		movs	r0, #2
 3480 16e0 FFF7FEFF 		bl	e_get_acc_filtered
 3481              	.LVL257:
 3482 16e4 2B46     		mov	r3, r5
 3483 16e6 0090     		str	r0, [sp]
 3484 16e8 2246     		mov	r2, r4
 3485 16ea 7C49     		ldr	r1, .L826+52
 3486 16ec 7048     		ldr	r0, .L826+8
 3487 16ee FFF7FEFF 		bl	sprintf
 3488              	.LVL258:
 3489              		.loc 1 1096 0
 3490 16f2 079B     		ldr	r3, [sp, #28]
 3491 16f4 002B     		cmp	r3, #0
 3492 16f6 00F0D286 		beq	.L807
 3493              		.loc 1 1097 0
 3494 16fa 6D48     		ldr	r0, .L826+8
 3495 16fc FFF7FEFF 		bl	strlen
 3496              	.LVL259:
 3497 1700 0146     		mov	r1, r0
 3498 1702 6B48     		ldr	r0, .L826+8
 3499 1704 FFF7FEFF 		bl	e_send_uart1_char
 3500              	.LVL260:
 3501              	.L273:
 3502              		.loc 1 1097 0 is_stmt 0 discriminator 2
 3503 1708 FFF7FEFF 		bl	e_uart1_sending
 3504              	.LVL261:
 3505 170c 0028     		cmp	r0, #0
 3506 170e FBD1     		bne	.L273
 3507 1710 FEF7C3BC 		b	.L741
 3508              	.L258:
 3509              		.loc 1 1433 0 is_stmt 1
 3510 1714 0020     		movs	r0, #0
 3511 1716 FFF7FEFF 		bl	e_get_ambient_light
 3512              	.LVL262:
 3513 171a 0B90     		str	r0, [sp, #44]
 3514 171c 0120     		movs	r0, #1
 3515 171e FFF7FEFF 		bl	e_get_ambient_light
 3516              	.LVL263:
 3517 1722 0446     		mov	r4, r0
 3518 1724 0220     		movs	r0, #2
 3519 1726 FFF7FEFF 		bl	e_get_ambient_light
 3520              	.LVL264:
 3521 172a 0890     		str	r0, [sp, #32]
 3522 172c 0320     		movs	r0, #3
 3523 172e FFF7FEFF 		bl	e_get_ambient_light
 3524              	.LVL265:
 3525 1732 0546     		mov	r5, r0
 3526 1734 0420     		movs	r0, #4
 3527 1736 FFF7FEFF 		bl	e_get_ambient_light
 3528              	.LVL266:
 3529 173a 0646     		mov	r6, r0
 3530 173c 0520     		movs	r0, #5
 3531 173e FFF7FEFF 		bl	e_get_ambient_light
 3532              	.LVL267:
 3533 1742 0A90     		str	r0, [sp, #40]
 3534 1744 0620     		movs	r0, #6
ARM GAS  /tmp/ccZueut9.s 			page 63


 3535 1746 FFF7FEFF 		bl	e_get_ambient_light
 3536              	.LVL268:
 3537 174a 0990     		str	r0, [sp, #36]
 3538 174c 0720     		movs	r0, #7
 3539 174e FFF7FEFF 		bl	e_get_ambient_light
 3540              	.LVL269:
 3541 1752 089B     		ldr	r3, [sp, #32]
 3542 1754 0A99     		ldr	r1, [sp, #40]
 3543 1756 0093     		str	r3, [sp]
 3544 1758 099B     		ldr	r3, [sp, #36]
 3545 175a 0590     		str	r0, [sp, #20]
 3546 175c 0493     		str	r3, [sp, #16]
 3547 175e CDE90261 		strd	r6, r1, [sp, #8]
 3548 1762 0195     		str	r5, [sp, #4]
 3549 1764 2346     		mov	r3, r4
 3550 1766 0B9A     		ldr	r2, [sp, #44]
 3551 1768 5D49     		ldr	r1, .L826+56
 3552 176a 5148     		ldr	r0, .L826+8
 3553 176c FFF7FEFF 		bl	sprintf
 3554              	.LVL270:
 3555              		.loc 1 1436 0
 3556 1770 BBF1000F 		cmp	fp, #0
 3557 1774 7EF48EAC 		bne	.L5
 3558 1778 4D48     		ldr	r0, .L826+8
 3559 177a FFF7FEFF 		bl	strlen
 3560              	.LVL271:
 3561              		.loc 1 1438 0
 3562 177e 079B     		ldr	r3, [sp, #28]
 3563 1780 0146     		mov	r1, r0
 3564              		.loc 1 1439 0
 3565 1782 4B48     		ldr	r0, .L826+8
 3566              		.loc 1 1438 0
 3567 1784 002B     		cmp	r3, #0
 3568 1786 00F09786 		beq	.L394
 3569              		.loc 1 1439 0
 3570 178a FFF7FEFF 		bl	e_send_uart1_char
 3571              	.LVL272:
 3572              	.L395:
 3573              		.loc 1 1439 0 is_stmt 0 discriminator 2
 3574 178e FFF7FEFF 		bl	e_uart1_sending
 3575              	.LVL273:
 3576 1792 0028     		cmp	r0, #0
 3577 1794 FBD1     		bne	.L395
 3578 1796 FEF780BC 		b	.L741
 3579              	.L257:
 3580              		.loc 1 1421 0 is_stmt 1
 3581 179a 0020     		movs	r0, #0
 3582 179c FFF7FEFF 		bl	e_get_calibrated_prox
 3583              	.LVL274:
 3584 17a0 0B90     		str	r0, [sp, #44]
 3585 17a2 0120     		movs	r0, #1
 3586 17a4 FFF7FEFF 		bl	e_get_calibrated_prox
 3587              	.LVL275:
 3588 17a8 0446     		mov	r4, r0
 3589 17aa 0220     		movs	r0, #2
 3590 17ac FFF7FEFF 		bl	e_get_calibrated_prox
 3591              	.LVL276:
ARM GAS  /tmp/ccZueut9.s 			page 64


 3592 17b0 0890     		str	r0, [sp, #32]
 3593 17b2 0320     		movs	r0, #3
 3594 17b4 FFF7FEFF 		bl	e_get_calibrated_prox
 3595              	.LVL277:
 3596 17b8 0546     		mov	r5, r0
 3597 17ba 0420     		movs	r0, #4
 3598 17bc FFF7FEFF 		bl	e_get_calibrated_prox
 3599              	.LVL278:
 3600 17c0 0646     		mov	r6, r0
 3601 17c2 0520     		movs	r0, #5
 3602 17c4 FFF7FEFF 		bl	e_get_calibrated_prox
 3603              	.LVL279:
 3604 17c8 0A90     		str	r0, [sp, #40]
 3605 17ca 0620     		movs	r0, #6
 3606 17cc FFF7FEFF 		bl	e_get_calibrated_prox
 3607              	.LVL280:
 3608 17d0 0990     		str	r0, [sp, #36]
 3609 17d2 0720     		movs	r0, #7
 3610 17d4 FFF7FEFF 		bl	e_get_calibrated_prox
 3611              	.LVL281:
 3612 17d8 089B     		ldr	r3, [sp, #32]
 3613 17da 0A99     		ldr	r1, [sp, #40]
 3614 17dc 0093     		str	r3, [sp]
 3615 17de 099B     		ldr	r3, [sp, #36]
 3616 17e0 0590     		str	r0, [sp, #20]
 3617 17e2 0493     		str	r3, [sp, #16]
 3618 17e4 CDE90261 		strd	r6, r1, [sp, #8]
 3619 17e8 0195     		str	r5, [sp, #4]
 3620 17ea 2346     		mov	r3, r4
 3621 17ec 0B9A     		ldr	r2, [sp, #44]
 3622 17ee 3D49     		ldr	r1, .L826+60
 3623 17f0 2F48     		ldr	r0, .L826+8
 3624 17f2 FFF7FEFF 		bl	sprintf
 3625              	.LVL282:
 3626              		.loc 1 1424 0
 3627 17f6 BBF1000F 		cmp	fp, #0
 3628 17fa 7EF44BAC 		bne	.L5
 3629 17fe 2C48     		ldr	r0, .L826+8
 3630 1800 FFF7FEFF 		bl	strlen
 3631              	.LVL283:
 3632              		.loc 1 1426 0
 3633 1804 079B     		ldr	r3, [sp, #28]
 3634 1806 0146     		mov	r1, r0
 3635              		.loc 1 1427 0
 3636 1808 2948     		ldr	r0, .L826+8
 3637              		.loc 1 1426 0
 3638 180a 002B     		cmp	r3, #0
 3639 180c 00F0E786 		beq	.L391
 3640              		.loc 1 1427 0
 3641 1810 FFF7FEFF 		bl	e_send_uart1_char
 3642              	.LVL284:
 3643              	.L392:
 3644              		.loc 1 1427 0 is_stmt 0 discriminator 2
 3645 1814 FFF7FEFF 		bl	e_uart1_sending
 3646              	.LVL285:
 3647 1818 0028     		cmp	r0, #0
 3648 181a FBD1     		bne	.L392
ARM GAS  /tmp/ccZueut9.s 			page 65


 3649 181c FEF73DBC 		b	.L741
 3650              	.L250:
 3651              		.loc 1 1169 0 is_stmt 1
 3652 1820 FFF7FEFF 		bl	e_get_check
 3653              	.LVL286:
 3654 1824 0446     		mov	r4, r0
 3655 1826 FFF7FEFF 		bl	e_get_address
 3656              	.LVL287:
 3657 182a 0546     		mov	r5, r0
 3658 182c FFF7FEFF 		bl	e_get_data
 3659              	.LVL288:
 3660 1830 2B46     		mov	r3, r5
 3661 1832 0090     		str	r0, [sp]
 3662 1834 2246     		mov	r2, r4
 3663 1836 2C49     		ldr	r1, .L826+64
 3664 1838 1D48     		ldr	r0, .L826+8
 3665 183a FFF7FEFF 		bl	sprintf
 3666              	.LVL289:
 3667              		.loc 1 1170 0
 3668 183e BBF1000F 		cmp	fp, #0
 3669 1842 7EF427AC 		bne	.L5
 3670 1846 1A48     		ldr	r0, .L826+8
 3671 1848 FFF7FEFF 		bl	strlen
 3672              	.LVL290:
 3673              		.loc 1 1172 0
 3674 184c 079B     		ldr	r3, [sp, #28]
 3675 184e 0146     		mov	r1, r0
 3676              		.loc 1 1173 0
 3677 1850 1748     		ldr	r0, .L826+8
 3678              		.loc 1 1172 0
 3679 1852 002B     		cmp	r3, #0
 3680 1854 00F09386 		beq	.L293
 3681              		.loc 1 1173 0
 3682 1858 FFF7FEFF 		bl	e_send_uart1_char
 3683              	.LVL291:
 3684              	.L294:
 3685              		.loc 1 1173 0 is_stmt 0 discriminator 2
 3686 185c FFF7FEFF 		bl	e_uart1_sending
 3687              	.LVL292:
 3688 1860 0028     		cmp	r0, #0
 3689 1862 FBD1     		bne	.L294
 3690 1864 FEF719BC 		b	.L741
 3691              	.L260:
 3692              		.loc 1 1457 0 is_stmt 1
 3693 1868 FFF7FEFF 		bl	e_get_steps_left
 3694              	.LVL293:
 3695 186c 0446     		mov	r4, r0
 3696 186e FFF7FEFF 		bl	e_get_steps_right
 3697              	.LVL294:
 3698 1872 2246     		mov	r2, r4
 3699 1874 0346     		mov	r3, r0
 3700 1876 1D49     		ldr	r1, .L826+68
 3701 1878 0D48     		ldr	r0, .L826+8
 3702 187a FFF7FEFF 		bl	sprintf
 3703              	.LVL295:
 3704              		.loc 1 1458 0
 3705 187e BBF1000F 		cmp	fp, #0
ARM GAS  /tmp/ccZueut9.s 			page 66


 3706 1882 7EF407AC 		bne	.L5
 3707 1886 0A48     		ldr	r0, .L826+8
 3708 1888 FFF7FEFF 		bl	strlen
 3709              	.LVL296:
 3710              		.loc 1 1460 0
 3711 188c 079B     		ldr	r3, [sp, #28]
 3712 188e 0146     		mov	r1, r0
 3713              		.loc 1 1461 0
 3714 1890 0748     		ldr	r0, .L826+8
 3715              		.loc 1 1460 0
 3716 1892 002B     		cmp	r3, #0
 3717 1894 00F09386 		beq	.L400
 3718              		.loc 1 1461 0
 3719 1898 FFF7FEFF 		bl	e_send_uart1_char
 3720              	.LVL297:
 3721              	.L401:
 3722              		.loc 1 1461 0 is_stmt 0 discriminator 2
 3723 189c FFF7FEFF 		bl	e_uart1_sending
 3724              	.LVL298:
 3725 18a0 0028     		cmp	r0, #0
 3726 18a2 FBD1     		bne	.L401
 3727 18a4 FEF7F9BB 		b	.L741
 3728              	.L827:
 3729              		.align	2
 3730              	.L826:
 3731 18a8 00000000 		.word	.LANCHOR31
 3732 18ac A80A0000 		.word	.LC83
 3733 18b0 00000000 		.word	buffer
 3734 18b4 00000000 		.word	.LANCHOR8
 3735 18b8 00080240 		.word	1073874944
 3736 18bc 000C0240 		.word	1073875968
 3737 18c0 94000000 		.word	.LC6
 3738 18c4 00000000 		.word	selector
 3739 18c8 00000000 		.word	.LANCHOR27
 3740 18cc 88000000 		.word	.LC4
 3741 18d0 90000000 		.word	.LC5
 3742 18d4 EC090000 		.word	.LC73
 3743 18d8 640B0000 		.word	.LC97
 3744 18dc 5C000000 		.word	.LC1
 3745 18e0 6C0A0000 		.word	.LC78
 3746 18e4 500A0000 		.word	.LC77
 3747 18e8 C4000000 		.word	.LC12
 3748 18ec 980A0000 		.word	.LC81
 3749              	.L252:
 3750              		.loc 1 1314 0 is_stmt 1
 3751 18f0 BBF1000F 		cmp	fp, #0
 3752 18f4 7EF4CEAB 		bne	.L5
 3753              		.loc 1 1315 0
 3754 18f8 0E99     		ldr	r1, [sp, #56]
 3755 18fa 119C     		ldr	r4, [sp, #68]
 3756 18fc 0868     		ldr	r0, [r1]
 3757 18fe 1399     		ldr	r1, [sp, #76]
 3758 1900 109B     		ldr	r3, [sp, #64]
 3759 1902 0968     		ldr	r1, [r1]
 3760 1904 129A     		ldr	r2, [sp, #72]
 3761 1906 2468     		ldr	r4, [r4]
 3762 1908 1B68     		ldr	r3, [r3]
ARM GAS  /tmp/ccZueut9.s 			page 67


 3763 190a 1268     		ldr	r2, [r2]
 3764 190c 0094     		str	r4, [sp]
 3765 190e CDE90110 		strd	r1, r0, [sp, #4]
 3766 1912 A249     		ldr	r1, .L828
 3767 1914 A248     		ldr	r0, .L828+4
 3768 1916 FFF7FEFF 		bl	sprintf
 3769              	.LVL299:
 3770              		.loc 1 1316 0
 3771 191a 079B     		ldr	r3, [sp, #28]
 3772              		.loc 1 1317 0
 3773 191c A048     		ldr	r0, .L828+4
 3774              		.loc 1 1316 0
 3775 191e 002B     		cmp	r3, #0
 3776 1920 00F0A287 		beq	.L365
 3777              		.loc 1 1317 0
 3778 1924 FFF7FEFF 		bl	strlen
 3779              	.LVL300:
 3780 1928 0146     		mov	r1, r0
 3781 192a 9D48     		ldr	r0, .L828+4
 3782 192c FFF7FEFF 		bl	e_send_uart1_char
 3783              	.LVL301:
 3784              	.L366:
 3785              		.loc 1 1317 0 is_stmt 0 discriminator 2
 3786 1930 FFF7FEFF 		bl	e_uart1_sending
 3787              	.LVL302:
 3788 1934 0028     		cmp	r0, #0
 3789 1936 FBD1     		bne	.L366
 3790 1938 FEF7AFBB 		b	.L741
 3791              	.L256:
 3792              		.loc 1 1392 0 is_stmt 1
 3793 193c BBF1000F 		cmp	fp, #0
 3794 1940 7EF4A8AB 		bne	.L5
 3795              		.loc 1 1393 0
 3796 1944 5846     		mov	r0, fp
 3797 1946 FFF7FEFF 		bl	get_ground_prox
 3798              	.LVL303:
 3799 194a 0446     		mov	r4, r0
 3800 194c 0120     		movs	r0, #1
 3801 194e FFF7FEFF 		bl	get_ground_prox
 3802              	.LVL304:
 3803 1952 0546     		mov	r5, r0
 3804 1954 0220     		movs	r0, #2
 3805 1956 FFF7FEFF 		bl	get_ground_prox
 3806              	.LVL305:
 3807 195a 0890     		str	r0, [sp, #32]
 3808 195c 0320     		movs	r0, #3
 3809 195e FFF7FEFF 		bl	get_ground_prox
 3810              	.LVL306:
 3811 1962 0646     		mov	r6, r0
 3812 1964 0420     		movs	r0, #4
 3813 1966 FFF7FEFF 		bl	get_ground_prox
 3814              	.LVL307:
 3815 196a 089B     		ldr	r3, [sp, #32]
 3816 196c 0093     		str	r3, [sp]
 3817 196e CDE90160 		strd	r6, r0, [sp, #4]
 3818 1972 2B46     		mov	r3, r5
 3819 1974 2246     		mov	r2, r4
ARM GAS  /tmp/ccZueut9.s 			page 68


 3820 1976 8B49     		ldr	r1, .L828+8
 3821 1978 8948     		ldr	r0, .L828+4
 3822 197a FFF7FEFF 		bl	sprintf
 3823              	.LVL308:
 3824              		.loc 1 1394 0
 3825 197e 079B     		ldr	r3, [sp, #28]
 3826              		.loc 1 1395 0
 3827 1980 8748     		ldr	r0, .L828+4
 3828              		.loc 1 1394 0
 3829 1982 002B     		cmp	r3, #0
 3830 1984 00F05C87 		beq	.L388
 3831              		.loc 1 1395 0
 3832 1988 FFF7FEFF 		bl	strlen
 3833              	.LVL309:
 3834 198c 0146     		mov	r1, r0
 3835 198e 8448     		ldr	r0, .L828+4
 3836 1990 FFF7FEFF 		bl	e_send_uart1_char
 3837              	.LVL310:
 3838              	.L389:
 3839              		.loc 1 1395 0 is_stmt 0 discriminator 2
 3840 1994 FFF7FEFF 		bl	e_uart1_sending
 3841              	.LVL311:
 3842 1998 0028     		cmp	r0, #0
 3843 199a FBD1     		bne	.L389
 3844 199c FEF77DBB 		b	.L741
 3845              	.L248:
 3846              		.loc 1 1147 0 is_stmt 1
 3847 19a0 814B     		ldr	r3, .L828+12
 3848 19a2 824A     		ldr	r2, .L828+16
 3849 19a4 1B68     		ldr	r3, [r3]
 3850 19a6 1268     		ldr	r2, [r2]
 3851 19a8 8149     		ldr	r1, .L828+20
 3852 19aa 7D48     		ldr	r0, .L828+4
 3853 19ac FFF7FEFF 		bl	sprintf
 3854              	.LVL312:
 3855              		.loc 1 1148 0
 3856 19b0 BBF1000F 		cmp	fp, #0
 3857 19b4 7EF46EAB 		bne	.L5
 3858 19b8 7948     		ldr	r0, .L828+4
 3859 19ba FFF7FEFF 		bl	strlen
 3860              	.LVL313:
 3861              		.loc 1 1150 0
 3862 19be 079B     		ldr	r3, [sp, #28]
 3863 19c0 0146     		mov	r1, r0
 3864              		.loc 1 1151 0
 3865 19c2 7748     		ldr	r0, .L828+4
 3866              		.loc 1 1150 0
 3867 19c4 002B     		cmp	r3, #0
 3868 19c6 00F0D285 		beq	.L287
 3869              		.loc 1 1151 0
 3870 19ca FFF7FEFF 		bl	e_send_uart1_char
 3871              	.LVL314:
 3872              	.L288:
 3873              		.loc 1 1151 0 is_stmt 0 discriminator 2
 3874 19ce FFF7FEFF 		bl	e_uart1_sending
 3875              	.LVL315:
 3876 19d2 0028     		cmp	r0, #0
ARM GAS  /tmp/ccZueut9.s 			page 69


 3877 19d4 FBD1     		bne	.L288
 3878 19d6 FEF760BB 		b	.L741
 3879              	.L261:
 3880              		.loc 1 1475 0 is_stmt 1
 3881 19da 0020     		movs	r0, #0
 3882 19dc FFF7FEFF 		bl	e_set_speed_left
 3883              	.LVL316:
 3884              		.loc 1 1476 0
 3885 19e0 0020     		movs	r0, #0
 3886 19e2 FFF7FEFF 		bl	e_set_speed_right
 3887              	.LVL317:
 3888              		.loc 1 1477 0
 3889 19e6 0021     		movs	r1, #0
 3890 19e8 0820     		movs	r0, #8
 3891 19ea FFF7FEFF 		bl	e_set_led
 3892              	.LVL318:
 3893              		.loc 1 1478 0
 3894 19ee BBF1000F 		cmp	fp, #0
 3895 19f2 7EF44FAB 		bne	.L5
 3896              		.loc 1 1480 0
 3897 19f6 079B     		ldr	r3, [sp, #28]
 3898              		.loc 1 1481 0
 3899 19f8 6E48     		ldr	r0, .L828+24
 3900 19fa 0321     		movs	r1, #3
 3901              		.loc 1 1480 0
 3902 19fc 002B     		cmp	r3, #0
 3903 19fe 00F0D685 		beq	.L403
 3904              		.loc 1 1481 0
 3905 1a02 FFF7FEFF 		bl	e_send_uart1_char
 3906              	.LVL319:
 3907              	.L404:
 3908              		.loc 1 1481 0 is_stmt 0 discriminator 2
 3909 1a06 FFF7FEFF 		bl	e_uart1_sending
 3910              	.LVL320:
 3911 1a0a 0028     		cmp	r0, #0
 3912 1a0c FBD1     		bne	.L404
 3913 1a0e FEF744BB 		b	.L741
 3914              	.L253:
 3915              		.loc 1 1324 0 is_stmt 1
 3916 1a12 BBF1000F 		cmp	fp, #0
 3917 1a16 7EF43DAB 		bne	.L5
 3918              		.loc 1 1327 0
 3919 1a1a 139B     		ldr	r3, [sp, #76]
 3920 1a1c 664D     		ldr	r5, .L828+28
 3921 1a1e 674E     		ldr	r6, .L828+32
 3922 1a20 0193     		str	r3, [sp, #4]
 3923              		.loc 1 1325 0
 3924 1a22 4FF0FF34 		mov	r4, #-1
 3925              		.loc 1 1327 0
 3926 1a26 119B     		ldr	r3, [sp, #68]
 3927 1a28 0093     		str	r3, [sp]
 3928 1a2a 0395     		str	r5, [sp, #12]
 3929 1a2c 0296     		str	r6, [sp, #8]
 3930 1a2e 644B     		ldr	r3, .L828+36
 3931 1a30 644A     		ldr	r2, .L828+40
 3932 1a32 6549     		ldr	r1, .L828+44
 3933 1a34 5A48     		ldr	r0, .L828+4
ARM GAS  /tmp/ccZueut9.s 			page 70


 3934              		.loc 1 1325 0
 3935 1a36 3460     		str	r4, [r6]
 3936              		.loc 1 1326 0
 3937 1a38 2C60     		str	r4, [r5]
 3938              		.loc 1 1327 0
 3939 1a3a FFF7FEFF 		bl	sscanf
 3940              	.LVL321:
 3941              		.loc 1 1328 0
 3942 1a3e 129A     		ldr	r2, [sp, #72]
 3943 1a40 1368     		ldr	r3, [r2]
 3944 1a42 002B     		cmp	r3, #0
 3945 1a44 40F0F186 		bne	.L368
 3946              		.loc 1 1329 0
 3947 1a48 109A     		ldr	r2, [sp, #64]
 3948 1a4a 119B     		ldr	r3, [sp, #68]
 3949 1a4c 1268     		ldr	r2, [r2]
 3950 1a4e 1B68     		ldr	r3, [r3]
 3951 1a50 03FB02F3 		mul	r3, r3, r2
 3952 1a54 0E9A     		ldr	r2, [sp, #56]
 3953 1a56 1360     		str	r3, [r2]
 3954              	.L369:
 3955              		.loc 1 1332 0
 3956 1a58 41F22802 		movw	r2, #4136
 3957 1a5c 9342     		cmp	r3, r2
 3958 1a5e 0BDD     		ble	.L370
 3959              		.loc 1 1333 0
 3960 1a60 1299     		ldr	r1, [sp, #72]
 3961 1a62 0122     		movs	r2, #1
 3962 1a64 0A60     		str	r2, [r1]
 3963              		.loc 1 1334 0
 3964 1a66 1099     		ldr	r1, [sp, #64]
 3965 1a68 2823     		movs	r3, #40
 3966 1a6a 0B60     		str	r3, [r1]
 3967              		.loc 1 1335 0
 3968 1a6c 1199     		ldr	r1, [sp, #68]
 3969 1a6e 0B60     		str	r3, [r1]
 3970              		.loc 1 1336 0
 3971 1a70 0E9B     		ldr	r3, [sp, #56]
 3972 1a72 4FF44862 		mov	r2, #3200
 3973 1a76 1A60     		str	r2, [r3]
 3974              	.L370:
 3975              		.loc 1 1338 0
 3976 1a78 FFF7FEFF 		bl	e_poxxxx_init_cam
 3977              	.LVL322:
 3978              		.loc 1 1339 0
 3979 1a7c 4F4B     		ldr	r3, .L828+32
 3980 1a7e 1868     		ldr	r0, [r3]
 3981              		.loc 1 1340 0
 3982 1a80 139B     		ldr	r3, [sp, #76]
 3983 1a82 1D68     		ldr	r5, [r3]
 3984 1a84 109B     		ldr	r3, [sp, #64]
 3985 1a86 1A68     		ldr	r2, [r3]
 3986              		.loc 1 1339 0
 3987 1a88 461C     		adds	r6, r0, #1
 3988              		.loc 1 1340 0
 3989 1a8a 02FB05F2 		mul	r2, r2, r5
 3990              		.loc 1 1339 0
ARM GAS  /tmp/ccZueut9.s 			page 71


 3991 1a8e 06D1     		bne	.L372
 3992              		.loc 1 1340 0
 3993 1a90 C2F52070 		rsb	r0, r2, #640
 3994 1a94 00EBD070 		add	r0, r0, r0, lsr #31
 3995 1a98 484B     		ldr	r3, .L828+32
 3996 1a9a 4010     		asrs	r0, r0, #1
 3997 1a9c 1860     		str	r0, [r3]
 3998              	.L372:
 3999              		.loc 1 1342 0
 4000 1a9e 4649     		ldr	r1, .L828+28
 4001 1aa0 119B     		ldr	r3, [sp, #68]
 4002 1aa2 0968     		ldr	r1, [r1]
 4003 1aa4 1B68     		ldr	r3, [r3]
 4004 1aa6 4C1C     		adds	r4, r1, #1
 4005 1aa8 03FB05F3 		mul	r3, r3, r5
 4006 1aac 06D1     		bne	.L373
 4007              		.loc 1 1343 0
 4008 1aae C3F5F071 		rsb	r1, r3, #480
 4009 1ab2 01EBD171 		add	r1, r1, r1, lsr #31
 4010 1ab6 404C     		ldr	r4, .L828+28
 4011 1ab8 4910     		asrs	r1, r1, #1
 4012 1aba 2160     		str	r1, [r4]
 4013              	.L373:
 4014              		.loc 1 1345 0
 4015 1abc 129C     		ldr	r4, [sp, #72]
 4016 1abe 2468     		ldr	r4, [r4]
 4017 1ac0 0294     		str	r4, [sp, #8]
 4018 1ac2 CDE90055 		strd	r5, r5, [sp]
 4019 1ac6 FFF7FEFF 		bl	e_poxxxx_config_cam
 4020              	.LVL323:
 4021              		.loc 1 1346 0
 4022 1aca FFF7FEFF 		bl	e_poxxxx_write_cam_registers
 4023              	.LVL324:
 4024              		.loc 1 1347 0
 4025 1ace 079B     		ldr	r3, [sp, #28]
 4026              		.loc 1 1348 0
 4027 1ad0 3E48     		ldr	r0, .L828+48
 4028 1ad2 0321     		movs	r1, #3
 4029              		.loc 1 1347 0
 4030 1ad4 002B     		cmp	r3, #0
 4031 1ad6 00F0DC86 		beq	.L374
 4032              		.loc 1 1348 0
 4033 1ada FFF7FEFF 		bl	e_send_uart1_char
 4034              	.LVL325:
 4035              	.L375:
 4036              		.loc 1 1348 0 is_stmt 0 discriminator 2
 4037 1ade FFF7FEFF 		bl	e_uart1_sending
 4038              	.LVL326:
 4039 1ae2 0028     		cmp	r0, #0
 4040 1ae4 FBD1     		bne	.L375
 4041 1ae6 FEF7D8BA 		b	.L741
 4042              	.L255:
 4043              		.loc 1 1379 0 is_stmt 1
 4044 1aea 394B     		ldr	r3, .L828+52
 4045 1aec 3949     		ldr	r1, .L828+56
 4046 1aee 3A4A     		ldr	r2, .L828+60
 4047 1af0 2B48     		ldr	r0, .L828+4
ARM GAS  /tmp/ccZueut9.s 			page 72


 4048 1af2 FFF7FEFF 		bl	sscanf
 4049              	.LVL327:
 4050              		.loc 1 1380 0
 4051 1af6 364B     		ldr	r3, .L828+52
 4052 1af8 1968     		ldr	r1, [r3]
 4053 1afa 374B     		ldr	r3, .L828+60
 4054 1afc 1868     		ldr	r0, [r3]
 4055 1afe FFF7FEFF 		bl	e_set_led
 4056              	.LVL328:
 4057              		.loc 1 1381 0
 4058 1b02 BBF1000F 		cmp	fp, #0
 4059 1b06 7EF4C5AA 		bne	.L5
 4060              		.loc 1 1383 0
 4061 1b0a 079B     		ldr	r3, [sp, #28]
 4062              		.loc 1 1384 0
 4063 1b0c 3348     		ldr	r0, .L828+64
 4064 1b0e 0321     		movs	r1, #3
 4065              		.loc 1 1383 0
 4066 1b10 002B     		cmp	r3, #0
 4067 1b12 00F06C85 		beq	.L385
 4068              		.loc 1 1384 0
 4069 1b16 FFF7FEFF 		bl	e_send_uart1_char
 4070              	.LVL329:
 4071              	.L386:
 4072              		.loc 1 1384 0 is_stmt 0 discriminator 2
 4073 1b1a FFF7FEFF 		bl	e_uart1_sending
 4074              	.LVL330:
 4075 1b1e 0028     		cmp	r0, #0
 4076 1b20 FBD1     		bne	.L386
 4077 1b22 FEF7BABA 		b	.L741
 4078              	.L249:
 4079              		.loc 1 1157 0 is_stmt 1
 4080 1b26 2A4A     		ldr	r2, .L828+52
 4081 1b28 2D49     		ldr	r1, .L828+68
 4082 1b2a 1D48     		ldr	r0, .L828+4
 4083 1b2c FFF7FEFF 		bl	sscanf
 4084              	.LVL331:
 4085              		.loc 1 1158 0
 4086 1b30 274B     		ldr	r3, .L828+52
 4087 1b32 1868     		ldr	r0, [r3]
 4088 1b34 FFF7FEFF 		bl	e_set_front_led
 4089              	.LVL332:
 4090              		.loc 1 1159 0
 4091 1b38 BBF1000F 		cmp	fp, #0
 4092 1b3c 7EF4AAAA 		bne	.L5
 4093              		.loc 1 1161 0
 4094 1b40 079B     		ldr	r3, [sp, #28]
 4095              		.loc 1 1162 0
 4096 1b42 2848     		ldr	r0, .L828+72
 4097 1b44 0321     		movs	r1, #3
 4098              		.loc 1 1161 0
 4099 1b46 002B     		cmp	r3, #0
 4100 1b48 00F02185 		beq	.L290
 4101              		.loc 1 1162 0
 4102 1b4c FFF7FEFF 		bl	e_send_uart1_char
 4103              	.LVL333:
 4104              	.L291:
ARM GAS  /tmp/ccZueut9.s 			page 73


 4105              		.loc 1 1162 0 is_stmt 0 discriminator 2
 4106 1b50 FFF7FEFF 		bl	e_uart1_sending
 4107              	.LVL334:
 4108 1b54 0028     		cmp	r0, #0
 4109 1b56 FBD1     		bne	.L291
 4110 1b58 FEF79FBA 		b	.L741
 4111              	.L259:
 4112              		.loc 1 1445 0 is_stmt 1
 4113 1b5c 224B     		ldr	r3, .L828+76
 4114 1b5e 234A     		ldr	r2, .L828+80
 4115 1b60 2349     		ldr	r1, .L828+84
 4116 1b62 0F48     		ldr	r0, .L828+4
 4117 1b64 FFF7FEFF 		bl	sscanf
 4118              	.LVL335:
 4119              		.loc 1 1446 0
 4120 1b68 204B     		ldr	r3, .L828+80
 4121 1b6a 1868     		ldr	r0, [r3]
 4122 1b6c FFF7FEFF 		bl	e_set_steps_left
 4123              	.LVL336:
 4124              		.loc 1 1447 0
 4125 1b70 1D4B     		ldr	r3, .L828+76
 4126 1b72 1868     		ldr	r0, [r3]
 4127 1b74 FFF7FEFF 		bl	e_set_steps_right
 4128              	.LVL337:
 4129              		.loc 1 1448 0
 4130 1b78 BBF1000F 		cmp	fp, #0
 4131 1b7c 7EF48AAA 		bne	.L5
 4132              		.loc 1 1450 0
 4133 1b80 079B     		ldr	r3, [sp, #28]
 4134              		.loc 1 1451 0
 4135 1b82 1C48     		ldr	r0, .L828+88
 4136 1b84 0321     		movs	r1, #3
 4137              		.loc 1 1450 0
 4138 1b86 002B     		cmp	r3, #0
 4139 1b88 00F02185 		beq	.L397
 4140              		.loc 1 1451 0
 4141 1b8c FFF7FEFF 		bl	e_send_uart1_char
 4142              	.LVL338:
 4143              	.L398:
 4144              		.loc 1 1451 0 is_stmt 0 discriminator 2
 4145 1b90 FFF7FEFF 		bl	e_uart1_sending
 4146              	.LVL339:
 4147 1b94 0028     		cmp	r0, #0
 4148 1b96 FBD1     		bne	.L398
 4149 1b98 FEF77FBA 		b	.L741
 4150              	.L829:
 4151              		.align	2
 4152              	.L828:
 4153 1b9c BC090000 		.word	.LC70
 4154 1ba0 00000000 		.word	buffer
 4155 1ba4 3C0A0000 		.word	.LC76
 4156 1ba8 00000000 		.word	.LANCHOR6
 4157 1bac 00000000 		.word	.LANCHOR7
 4158 1bb0 AC000000 		.word	.LC9
 4159 1bb4 A40A0000 		.word	.LC82
 4160 1bb8 00000000 		.word	.LANCHOR29
 4161 1bbc 00000000 		.word	.LANCHOR28
ARM GAS  /tmp/ccZueut9.s 			page 74


 4162 1bc0 00000000 		.word	.LANCHOR2
 4163 1bc4 00000000 		.word	.LANCHOR1
 4164 1bc8 D0090000 		.word	.LC71
 4165 1bcc E8090000 		.word	.LC72
 4166 1bd0 00000000 		.word	.LANCHOR27
 4167 1bd4 2C0A0000 		.word	.LC74
 4168 1bd8 00000000 		.word	.LANCHOR30
 4169 1bdc 380A0000 		.word	.LC75
 4170 1be0 B8000000 		.word	.LC10
 4171 1be4 C0000000 		.word	.LC11
 4172 1be8 00000000 		.word	.LANCHOR23
 4173 1bec 00000000 		.word	.LANCHOR22
 4174 1bf0 880A0000 		.word	.LC79
 4175 1bf4 940A0000 		.word	.LC80
 4176              	.L251:
 4177              		.loc 1 1195 0 is_stmt 1
 4178 1bf8 BBF1000F 		cmp	fp, #0
 4179 1bfc 7EF44AAA 		bne	.L5
 4180              		.loc 1 1233 0
 4181 1c00 079B     		ldr	r3, [sp, #28]
 4182              		.loc 1 1234 0
 4183 1c02 BE48     		ldr	r0, .L830
 4184 1c04 0121     		movs	r1, #1
 4185              		.loc 1 1233 0
 4186 1c06 002B     		cmp	r3, #0
 4187 1c08 00F00C85 		beq	.L301
 4188              		.loc 1 1234 0
 4189 1c0c FFF7FEFF 		bl	e_send_uart1_char
 4190              	.LVL340:
 4191              	.L302:
 4192              		.loc 1 1234 0 is_stmt 0 discriminator 2
 4193 1c10 FFF7FEFF 		bl	e_uart1_sending
 4194              	.LVL341:
 4195 1c14 0028     		cmp	r0, #0
 4196 1c16 FBD1     		bne	.L302
 4197              		.loc 1 1235 0 is_stmt 1
 4198 1c18 2121     		movs	r1, #33
 4199 1c1a B948     		ldr	r0, .L830+4
 4200 1c1c FFF7FEFF 		bl	e_send_uart1_char
 4201              	.LVL342:
 4202              	.L303:
 4203              		.loc 1 1235 0 is_stmt 0 discriminator 2
 4204 1c20 FFF7FEFF 		bl	e_uart1_sending
 4205              	.LVL343:
 4206 1c24 0028     		cmp	r0, #0
 4207 1c26 FBD1     		bne	.L303
 4208              		.loc 1 1236 0 is_stmt 1
 4209 1c28 3121     		movs	r1, #49
 4210 1c2a B648     		ldr	r0, .L830+8
 4211 1c2c FFF7FEFF 		bl	e_send_uart1_char
 4212              	.LVL344:
 4213              	.L304:
 4214              		.loc 1 1236 0 is_stmt 0 discriminator 2
 4215 1c30 FFF7FEFF 		bl	e_uart1_sending
 4216              	.LVL345:
 4217 1c34 0028     		cmp	r0, #0
 4218 1c36 FBD1     		bne	.L304
ARM GAS  /tmp/ccZueut9.s 			page 75


 4219              		.loc 1 1237 0 is_stmt 1
 4220 1c38 FFF7FEFF 		bl	isEpuckVersion1_3
 4221              	.LVL346:
 4222 1c3c 0028     		cmp	r0, #0
 4223 1c3e 00F03086 		beq	.L305
 4224              		.loc 1 1238 0
 4225 1c42 2121     		movs	r1, #33
 4226 1c44 B048     		ldr	r0, .L830+12
 4227 1c46 FFF7FEFF 		bl	e_send_uart1_char
 4228              	.LVL347:
 4229              	.L306:
 4230              		.loc 1 1238 0 is_stmt 0 discriminator 2
 4231 1c4a FFF7FEFF 		bl	e_uart1_sending
 4232              	.LVL348:
 4233 1c4e 0028     		cmp	r0, #0
 4234 1c50 FBD1     		bne	.L306
 4235              	.L307:
 4236              		.loc 1 1242 0 is_stmt 1
 4237 1c52 2521     		movs	r1, #37
 4238 1c54 AD48     		ldr	r0, .L830+16
 4239 1c56 FFF7FEFF 		bl	e_send_uart1_char
 4240              	.LVL349:
 4241              	.L309:
 4242              		.loc 1 1242 0 is_stmt 0 discriminator 2
 4243 1c5a FFF7FEFF 		bl	e_uart1_sending
 4244              	.LVL350:
 4245 1c5e 0028     		cmp	r0, #0
 4246 1c60 FBD1     		bne	.L309
 4247              		.loc 1 1243 0 is_stmt 1
 4248 1c62 2E21     		movs	r1, #46
 4249 1c64 AA48     		ldr	r0, .L830+20
 4250 1c66 FFF7FEFF 		bl	e_send_uart1_char
 4251              	.LVL351:
 4252              	.L310:
 4253              		.loc 1 1243 0 is_stmt 0 discriminator 2
 4254 1c6a FFF7FEFF 		bl	e_uart1_sending
 4255              	.LVL352:
 4256 1c6e 0028     		cmp	r0, #0
 4257 1c70 FBD1     		bne	.L310
 4258              		.loc 1 1244 0 is_stmt 1
 4259 1c72 2E21     		movs	r1, #46
 4260 1c74 A748     		ldr	r0, .L830+24
 4261 1c76 FFF7FEFF 		bl	e_send_uart1_char
 4262              	.LVL353:
 4263              	.L311:
 4264              		.loc 1 1244 0 is_stmt 0 discriminator 2
 4265 1c7a FFF7FEFF 		bl	e_uart1_sending
 4266              	.LVL354:
 4267 1c7e 0028     		cmp	r0, #0
 4268 1c80 FBD1     		bne	.L311
 4269              		.loc 1 1245 0 is_stmt 1
 4270 1c82 3221     		movs	r1, #50
 4271 1c84 A448     		ldr	r0, .L830+28
 4272 1c86 FFF7FEFF 		bl	e_send_uart1_char
 4273              	.LVL355:
 4274              	.L312:
 4275              		.loc 1 1245 0 is_stmt 0 discriminator 2
ARM GAS  /tmp/ccZueut9.s 			page 76


 4276 1c8a FFF7FEFF 		bl	e_uart1_sending
 4277              	.LVL356:
 4278 1c8e 0028     		cmp	r0, #0
 4279 1c90 FBD1     		bne	.L312
 4280              		.loc 1 1247 0 is_stmt 1
 4281 1c92 1F21     		movs	r1, #31
 4282 1c94 A148     		ldr	r0, .L830+32
 4283 1c96 FFF7FEFF 		bl	e_send_uart1_char
 4284              	.LVL357:
 4285              	.L313:
 4286              		.loc 1 1247 0 is_stmt 0 discriminator 2
 4287 1c9a FFF7FEFF 		bl	e_uart1_sending
 4288              	.LVL358:
 4289 1c9e 0028     		cmp	r0, #0
 4290 1ca0 FBD1     		bne	.L313
 4291              		.loc 1 1249 0 is_stmt 1
 4292 1ca2 FFF7FEFF 		bl	isEpuckVersion1_3
 4293              	.LVL359:
 4294 1ca6 0028     		cmp	r0, #0
 4295 1ca8 40F02186 		bne	.L808
 4296              	.L314:
 4297              		.loc 1 1252 0
 4298 1cac 1821     		movs	r1, #24
 4299 1cae 9C48     		ldr	r0, .L830+36
 4300 1cb0 FFF7FEFF 		bl	e_send_uart1_char
 4301              	.LVL360:
 4302              	.L316:
 4303              		.loc 1 1252 0 is_stmt 0 discriminator 2
 4304 1cb4 FFF7FEFF 		bl	e_uart1_sending
 4305              	.LVL361:
 4306 1cb8 0028     		cmp	r0, #0
 4307 1cba FBD1     		bne	.L316
 4308              		.loc 1 1253 0 is_stmt 1
 4309 1cbc 2821     		movs	r1, #40
 4310 1cbe 9948     		ldr	r0, .L830+40
 4311 1cc0 FFF7FEFF 		bl	e_send_uart1_char
 4312              	.LVL362:
 4313              	.L317:
 4314              		.loc 1 1253 0 is_stmt 0 discriminator 2
 4315 1cc4 FFF7FEFF 		bl	e_uart1_sending
 4316              	.LVL363:
 4317 1cc8 0028     		cmp	r0, #0
 4318 1cca FBD1     		bne	.L317
 4319              		.loc 1 1254 0 is_stmt 1
 4320 1ccc 4F21     		movs	r1, #79
 4321 1cce 9648     		ldr	r0, .L830+44
 4322 1cd0 FFF7FEFF 		bl	e_send_uart1_char
 4323              	.LVL364:
 4324              	.L318:
 4325              		.loc 1 1254 0 is_stmt 0 discriminator 2
 4326 1cd4 FFF7FEFF 		bl	e_uart1_sending
 4327              	.LVL365:
 4328 1cd8 0028     		cmp	r0, #0
 4329 1cda FBD1     		bne	.L318
 4330              		.loc 1 1255 0 is_stmt 1
 4331 1cdc 2F21     		movs	r1, #47
 4332 1cde 9348     		ldr	r0, .L830+48
ARM GAS  /tmp/ccZueut9.s 			page 77


 4333 1ce0 FFF7FEFF 		bl	e_send_uart1_char
 4334              	.LVL366:
 4335              	.L319:
 4336              		.loc 1 1255 0 is_stmt 0 discriminator 2
 4337 1ce4 FFF7FEFF 		bl	e_uart1_sending
 4338              	.LVL367:
 4339 1ce8 0028     		cmp	r0, #0
 4340 1cea FBD1     		bne	.L319
 4341              		.loc 1 1256 0 is_stmt 1
 4342 1cec 3321     		movs	r1, #51
 4343 1cee 9048     		ldr	r0, .L830+52
 4344 1cf0 FFF7FEFF 		bl	e_send_uart1_char
 4345              	.LVL368:
 4346              	.L320:
 4347              		.loc 1 1256 0 is_stmt 0 discriminator 2
 4348 1cf4 FFF7FEFF 		bl	e_uart1_sending
 4349              	.LVL369:
 4350 1cf8 0028     		cmp	r0, #0
 4351 1cfa FBD1     		bne	.L320
 4352              		.loc 1 1258 0 is_stmt 1
 4353 1cfc 2121     		movs	r1, #33
 4354 1cfe 8D48     		ldr	r0, .L830+56
 4355 1d00 FFF7FEFF 		bl	e_send_uart1_char
 4356              	.LVL370:
 4357              	.L321:
 4358              		.loc 1 1258 0 is_stmt 0 discriminator 2
 4359 1d04 FFF7FEFF 		bl	e_uart1_sending
 4360              	.LVL371:
 4361 1d08 0028     		cmp	r0, #0
 4362 1d0a FBD1     		bne	.L321
 4363              		.loc 1 1260 0 is_stmt 1
 4364 1d0c 1D21     		movs	r1, #29
 4365 1d0e 8A48     		ldr	r0, .L830+60
 4366 1d10 FFF7FEFF 		bl	e_send_uart1_char
 4367              	.LVL372:
 4368              	.L322:
 4369              		.loc 1 1260 0 is_stmt 0 discriminator 2
 4370 1d14 FFF7FEFF 		bl	e_uart1_sending
 4371              	.LVL373:
 4372 1d18 0028     		cmp	r0, #0
 4373 1d1a FBD1     		bne	.L322
 4374              		.loc 1 1261 0 is_stmt 1
 4375 1d1c 2121     		movs	r1, #33
 4376 1d1e 8748     		ldr	r0, .L830+64
 4377 1d20 FFF7FEFF 		bl	e_send_uart1_char
 4378              	.LVL374:
 4379              	.L323:
 4380              		.loc 1 1261 0 is_stmt 0 discriminator 2
 4381 1d24 FFF7FEFF 		bl	e_uart1_sending
 4382              	.LVL375:
 4383 1d28 0028     		cmp	r0, #0
 4384 1d2a FBD1     		bne	.L323
 4385              		.loc 1 1262 0 is_stmt 1
 4386 1d2c 3121     		movs	r1, #49
 4387 1d2e 8448     		ldr	r0, .L830+68
 4388 1d30 FFF7FEFF 		bl	e_send_uart1_char
 4389              	.LVL376:
ARM GAS  /tmp/ccZueut9.s 			page 78


 4390              	.L324:
 4391              		.loc 1 1262 0 is_stmt 0 discriminator 2
 4392 1d34 FFF7FEFF 		bl	e_uart1_sending
 4393              	.LVL377:
 4394 1d38 0028     		cmp	r0, #0
 4395 1d3a FBD1     		bne	.L324
 4396              		.loc 1 1263 0 is_stmt 1
 4397 1d3c 3121     		movs	r1, #49
 4398 1d3e 8148     		ldr	r0, .L830+72
 4399 1d40 FFF7FEFF 		bl	e_send_uart1_char
 4400              	.LVL378:
 4401              	.L325:
 4402              		.loc 1 1263 0 is_stmt 0 discriminator 2
 4403 1d44 FFF7FEFF 		bl	e_uart1_sending
 4404              	.LVL379:
 4405 1d48 0028     		cmp	r0, #0
 4406 1d4a FBD1     		bne	.L325
 4407              		.loc 1 1264 0 is_stmt 1
 4408 1d4c 2021     		movs	r1, #32
 4409 1d4e 7E48     		ldr	r0, .L830+76
 4410 1d50 FFF7FEFF 		bl	e_send_uart1_char
 4411              	.LVL380:
 4412              	.L326:
 4413              		.loc 1 1264 0 is_stmt 0 discriminator 2
 4414 1d54 FFF7FEFF 		bl	e_uart1_sending
 4415              	.LVL381:
 4416 1d58 0028     		cmp	r0, #0
 4417 1d5a FBD1     		bne	.L326
 4418              		.loc 1 1265 0 is_stmt 1
 4419 1d5c 3121     		movs	r1, #49
 4420 1d5e 7B48     		ldr	r0, .L830+80
 4421 1d60 FFF7FEFF 		bl	e_send_uart1_char
 4422              	.LVL382:
 4423              	.L327:
 4424              		.loc 1 1265 0 is_stmt 0 discriminator 2
 4425 1d64 FFF7FEFF 		bl	e_uart1_sending
 4426              	.LVL383:
 4427 1d68 0028     		cmp	r0, #0
 4428 1d6a FBD1     		bne	.L327
 4429              		.loc 1 1266 0 is_stmt 1
 4430 1d6c 3221     		movs	r1, #50
 4431 1d6e 7848     		ldr	r0, .L830+84
 4432 1d70 FFF7FEFF 		bl	e_send_uart1_char
 4433              	.LVL384:
 4434              	.L328:
 4435              		.loc 1 1266 0 is_stmt 0 discriminator 2
 4436 1d74 FFF7FEFF 		bl	e_uart1_sending
 4437              	.LVL385:
 4438 1d78 0028     		cmp	r0, #0
 4439 1d7a FBD1     		bne	.L328
 4440              		.loc 1 1267 0 is_stmt 1
 4441 1d7c FFF7FEFF 		bl	isEpuckVersion1_3
 4442              	.LVL386:
 4443 1d80 0028     		cmp	r0, #0
 4444 1d82 40F0AA85 		bne	.L809
 4445              	.L329:
 4446              		.loc 1 1270 0
ARM GAS  /tmp/ccZueut9.s 			page 79


 4447 1d86 2C21     		movs	r1, #44
 4448 1d88 7248     		ldr	r0, .L830+88
 4449 1d8a FFF7FEFF 		bl	e_send_uart1_char
 4450              	.LVL387:
 4451              	.L331:
 4452              		.loc 1 1270 0 is_stmt 0 discriminator 2
 4453 1d8e FFF7FEFF 		bl	e_uart1_sending
 4454              	.LVL388:
 4455 1d92 0028     		cmp	r0, #0
 4456 1d94 FBD1     		bne	.L331
 4457              		.loc 1 1271 0 is_stmt 1
 4458 1d96 2521     		movs	r1, #37
 4459 1d98 6F48     		ldr	r0, .L830+92
 4460 1d9a FFF7FEFF 		bl	e_send_uart1_char
 4461              	.LVL389:
 4462              	.L332:
 4463              		.loc 1 1271 0 is_stmt 0 discriminator 2
 4464 1d9e FFF7FEFF 		bl	e_uart1_sending
 4465              	.LVL390:
 4466 1da2 0028     		cmp	r0, #0
 4467 1da4 FBD1     		bne	.L332
 4468              		.loc 1 1272 0 is_stmt 1
 4469 1da6 2B21     		movs	r1, #43
 4470 1da8 6C48     		ldr	r0, .L830+96
 4471 1daa FFF7FEFF 		bl	e_send_uart1_char
 4472              	.LVL391:
 4473              	.L333:
 4474              		.loc 1 1272 0 is_stmt 0 discriminator 2
 4475 1dae FFF7FEFF 		bl	e_uart1_sending
 4476              	.LVL392:
 4477 1db2 0028     		cmp	r0, #0
 4478 1db4 FBD1     		bne	.L333
 4479              		.loc 1 1273 0 is_stmt 1
 4480 1db6 2A21     		movs	r1, #42
 4481 1db8 6948     		ldr	r0, .L830+100
 4482 1dba FFF7FEFF 		bl	e_send_uart1_char
 4483              	.LVL393:
 4484              	.L334:
 4485              		.loc 1 1273 0 is_stmt 0 discriminator 2
 4486 1dbe FFF7FEFF 		bl	e_uart1_sending
 4487              	.LVL394:
 4488 1dc2 0028     		cmp	r0, #0
 4489 1dc4 FBD1     		bne	.L334
 4490 1dc6 FEF768B9 		b	.L741
 4491              	.L247:
 4492              		.loc 1 1135 0 is_stmt 1
 4493 1dca 664B     		ldr	r3, .L830+104
 4494 1dcc 664A     		ldr	r2, .L830+108
 4495 1dce 6749     		ldr	r1, .L830+112
 4496 1dd0 6748     		ldr	r0, .L830+116
 4497 1dd2 FFF7FEFF 		bl	sscanf
 4498              	.LVL395:
 4499              		.loc 1 1136 0
 4500 1dd6 644B     		ldr	r3, .L830+108
 4501 1dd8 1868     		ldr	r0, [r3]
 4502 1dda FFF7FEFF 		bl	e_set_speed_left
 4503              	.LVL396:
ARM GAS  /tmp/ccZueut9.s 			page 80


 4504              		.loc 1 1137 0
 4505 1dde 614B     		ldr	r3, .L830+104
 4506 1de0 1868     		ldr	r0, [r3]
 4507 1de2 FFF7FEFF 		bl	e_set_speed_right
 4508              	.LVL397:
 4509              		.loc 1 1138 0
 4510 1de6 BBF1000F 		cmp	fp, #0
 4511 1dea 7EF453A9 		bne	.L5
 4512              		.loc 1 1140 0
 4513 1dee 079B     		ldr	r3, [sp, #28]
 4514              		.loc 1 1141 0
 4515 1df0 6048     		ldr	r0, .L830+120
 4516 1df2 0321     		movs	r1, #3
 4517              		.loc 1 1140 0
 4518 1df4 002B     		cmp	r3, #0
 4519 1df6 00F06783 		beq	.L284
 4520              		.loc 1 1141 0
 4521 1dfa FFF7FEFF 		bl	e_send_uart1_char
 4522              	.LVL398:
 4523              	.L285:
 4524              		.loc 1 1141 0 is_stmt 0 discriminator 2
 4525 1dfe FFF7FEFF 		bl	e_uart1_sending
 4526              	.LVL399:
 4527 1e02 0028     		cmp	r0, #0
 4528 1e04 FBD1     		bne	.L285
 4529 1e06 FEF748B9 		b	.L741
 4530              	.L413:
 4531              		.loc 1 1501 0 is_stmt 1
 4532 1e0a 41F65071 		movw	r1, #8016
 4533 1e0e 42F61430 		movw	r0, #11028
 4534 1e12 FFF7FEFF 		bl	e_play_sound
 4535              	.LVL400:
 4536              	.L414:
 4537              		.loc 1 1509 0
 4538 1e16 BBF1000F 		cmp	fp, #0
 4539 1e1a 7EF43BA9 		bne	.L5
 4540              		.loc 1 1511 0
 4541 1e1e 079B     		ldr	r3, [sp, #28]
 4542              		.loc 1 1512 0
 4543 1e20 5548     		ldr	r0, .L830+124
 4544 1e22 0321     		movs	r1, #3
 4545              		.loc 1 1511 0
 4546 1e24 002B     		cmp	r3, #0
 4547 1e26 00F0CF84 		beq	.L415
 4548              		.loc 1 1512 0
 4549 1e2a FFF7FEFF 		bl	e_send_uart1_char
 4550              	.LVL401:
 4551              	.L416:
 4552              		.loc 1 1512 0 is_stmt 0 discriminator 2
 4553 1e2e FFF7FEFF 		bl	e_uart1_sending
 4554              	.LVL402:
 4555 1e32 0028     		cmp	r0, #0
 4556 1e34 FBD1     		bne	.L416
 4557 1e36 FEF730B9 		b	.L741
 4558              	.L412:
 4559              		.loc 1 1499 0 is_stmt 1
 4560 1e3a 40F69461 		movw	r1, #3732
ARM GAS  /tmp/ccZueut9.s 			page 81


 4561 1e3e 41F67E40 		movw	r0, #7294
 4562 1e42 FFF7FEFF 		bl	e_play_sound
 4563              	.LVL403:
 4564              		.loc 1 1500 0
 4565 1e46 E6E7     		b	.L414
 4566              	.L411:
 4567              		.loc 1 1497 0
 4568 1e48 0022     		movs	r2, #0
 4569 1e4a 0221     		movs	r1, #2
 4570 1e4c 0B20     		movs	r0, #11
 4571 1e4e FFF7FEFF 		bl	playMelody
 4572              	.LVL404:
 4573              		.loc 1 1498 0
 4574 1e52 E0E7     		b	.L414
 4575              	.L410:
 4576              		.loc 1 1495 0
 4577 1e54 0022     		movs	r2, #0
 4578 1e56 0221     		movs	r1, #2
 4579 1e58 0420     		movs	r0, #4
 4580 1e5a FFF7FEFF 		bl	playMelody
 4581              	.LVL405:
 4582              		.loc 1 1496 0
 4583 1e5e DAE7     		b	.L414
 4584              	.L408:
 4585              		.loc 1 1493 0
 4586 1e60 0022     		movs	r2, #0
 4587 1e62 0221     		movs	r1, #2
 4588 1e64 0320     		movs	r0, #3
 4589 1e66 FFF7FEFF 		bl	playMelody
 4590              	.LVL406:
 4591              		.loc 1 1494 0
 4592 1e6a D4E7     		b	.L414
 4593              	.L242:
 4594              		.loc 1 1611 0
 4595 1e6c BBF1000F 		cmp	fp, #0
 4596 1e70 7EF410A9 		bne	.L5
 4597              		.loc 1 1613 0
 4598 1e74 079B     		ldr	r3, [sp, #28]
 4599              		.loc 1 1614 0
 4600 1e76 4148     		ldr	r0, .L830+128
 4601 1e78 1521     		movs	r1, #21
 4602              		.loc 1 1613 0
 4603 1e7a 002B     		cmp	r3, #0
 4604 1e7c 00F05283 		beq	.L449
 4605              		.loc 1 1614 0
 4606 1e80 FFF7FEFF 		bl	e_send_uart1_char
 4607              	.LVL407:
 4608              	.L450:
 4609              		.loc 1 1614 0 is_stmt 0 discriminator 2
 4610 1e84 FFF7FEFF 		bl	e_uart1_sending
 4611              	.LVL408:
 4612 1e88 0028     		cmp	r0, #0
 4613 1e8a FBD1     		bne	.L450
 4614 1e8c FEF705B9 		b	.L741
 4615              	.L222:
 4616              	.LBE4:
 4617              		.loc 1 1084 0 is_stmt 1
ARM GAS  /tmp/ccZueut9.s 			page 82


 4618 1e90 1C46     		mov	r4, r3
 4619              		.loc 1 1082 0
 4620 1e92 0222     		movs	r2, #2
 4621              		.loc 1 1071 0
 4622 1e94 88F80030 		strb	r3, [r8]
 4623              		.loc 1 1084 0
 4624 1e98 622C     		cmp	r4, #98
 4625              		.loc 1 1082 0
 4626 1e9a 4FF00003 		mov	r3, #0
 4627 1e9e C9F80020 		str	r2, [r9]
 4628 1ea2 88F80130 		strb	r3, [r8, #1]
 4629              		.loc 1 1084 0
 4630 1ea6 7EF45CA9 		bne	.L456
 4631              	.LBB5:
 4632              		.loc 1 1103 0
 4633 1eaa FFF7FEFF 		bl	getBatteryValueRaw
 4634              	.LVL409:
 4635 1eae 0446     		mov	r4, r0
 4636 1eb0 FFF7FEFF 		bl	getBatteryValuePercentage
 4637              	.LVL410:
 4638 1eb4 2246     		mov	r2, r4
 4639 1eb6 0346     		mov	r3, r0
 4640 1eb8 3149     		ldr	r1, .L830+132
 4641 1eba 2D48     		ldr	r0, .L830+116
 4642 1ebc FFF7FEFF 		bl	sprintf
 4643              	.LVL411:
 4644 1ec0 FEF7E8B8 		b	.L5
 4645              	.L134:
 4646              	.LBE5:
 4647              		.loc 1 488 0
 4648 1ec4 FFF7FEFF 		bl	serial_clear_last_errors
 4649              	.LVL412:
 4650              		.loc 1 489 0
 4651 1ec8 FEF719BB 		b	.L47
 4652              	.LVL413:
 4653              	.L14:
 4654              		.loc 1 218 0
 4655 1ecc 264A     		ldr	r2, .L830+108
 4656 1ece 0023     		movs	r3, #0
 4657 1ed0 1360     		str	r3, [r2]
 4658 1ed2 244A     		ldr	r2, .L830+104
 4659 1ed4 1360     		str	r3, [r2]
 4660 1ed6 FEF7B7B9 		b	.L26
 4661              	.LVL414:
 4662              	.L30:
 4663              		.loc 1 280 0
 4664 1eda 234A     		ldr	r2, .L830+108
 4665 1edc 0023     		movs	r3, #0
 4666 1ede 1360     		str	r3, [r2]
 4667 1ee0 204A     		ldr	r2, .L830+104
 4668 1ee2 1360     		str	r3, [r2]
 4669 1ee4 FEF724BA 		b	.L42
 4670              	.LVL415:
 4671              	.L805:
 4672              		.loc 1 1058 0
 4673 1ee8 2148     		ldr	r0, .L830+116
 4674 1eea FFF7FEFF 		bl	e_send_uart2_char
ARM GAS  /tmp/ccZueut9.s 			page 83


 4675              	.LVL416:
 4676              	.L221:
 4677              		.loc 1 1059 0 discriminator 1
 4678 1eee FFF7FEFF 		bl	e_uart2_sending
 4679              	.LVL417:
 4680 1ef2 0028     		cmp	r0, #0
 4681 1ef4 FBD1     		bne	.L221
 4682 1ef6 FEF75DB9 		b	.L732
 4683              	.L831:
 4684 1efa 00BF     		.align	2
 4685              	.L830:
 4686 1efc 14010000 		.word	.LC15
 4687 1f00 18010000 		.word	.LC16
 4688 1f04 3C010000 		.word	.LC17
 4689 1f08 70010000 		.word	.LC18
 4690 1f0c C4010000 		.word	.LC20
 4691 1f10 EC010000 		.word	.LC21
 4692 1f14 1C020000 		.word	.LC22
 4693 1f18 4C020000 		.word	.LC23
 4694 1f1c 80020000 		.word	.LC24
 4695 1f20 BC020000 		.word	.LC26
 4696 1f24 D8020000 		.word	.LC27
 4697 1f28 04030000 		.word	.LC28
 4698 1f2c 54030000 		.word	.LC29
 4699 1f30 84030000 		.word	.LC30
 4700 1f34 B8030000 		.word	.LC31
 4701 1f38 DC030000 		.word	.LC32
 4702 1f3c FC030000 		.word	.LC33
 4703 1f40 20040000 		.word	.LC34
 4704 1f44 54040000 		.word	.LC35
 4705 1f48 88040000 		.word	.LC36
 4706 1f4c AC040000 		.word	.LC37
 4707 1f50 E0040000 		.word	.LC38
 4708 1f54 34050000 		.word	.LC40
 4709 1f58 64050000 		.word	.LC41
 4710 1f5c 8C050000 		.word	.LC42
 4711 1f60 B8050000 		.word	.LC43
 4712 1f64 00000000 		.word	.LANCHOR6
 4713 1f68 00000000 		.word	.LANCHOR7
 4714 1f6c 9C000000 		.word	.LC7
 4715 1f70 00000000 		.word	buffer
 4716 1f74 A8000000 		.word	.LC8
 4717 1f78 B00A0000 		.word	.LC84
 4718 1f7c 300B0000 		.word	.LC94
 4719 1f80 78000000 		.word	.LC3
 4720              	.L177:
 4721              		.loc 1 920 0
 4722 1f84 CD4B     		ldr	r3, .L832
 4723 1f86 1A78     		ldrb	r2, [r3]	@ zero_extendqisi2
 4724 1f88 CD4B     		ldr	r3, .L832+4
 4725 1f8a 1B78     		ldrb	r3, [r3]	@ zero_extendqisi2
 4726 1f8c 03EB0223 		add	r3, r3, r2, lsl #8
 4727 1f90 CC4A     		ldr	r2, .L832+8
 4728 1f92 1846     		mov	r0, r3
 4729 1f94 1360     		str	r3, [r2]
 4730 1f96 FEF754BB 		b	.L189
 4731              	.L150:
ARM GAS  /tmp/ccZueut9.s 			page 84


 4732              		.loc 1 801 0
 4733 1f9a C84B     		ldr	r3, .L832
 4734 1f9c 1A78     		ldrb	r2, [r3]	@ zero_extendqisi2
 4735 1f9e C84B     		ldr	r3, .L832+4
 4736 1fa0 1B78     		ldrb	r3, [r3]	@ zero_extendqisi2
 4737 1fa2 03EB0223 		add	r3, r3, r2, lsl #8
 4738 1fa6 C84A     		ldr	r2, .L832+12
 4739 1fa8 1846     		mov	r0, r3
 4740 1faa 1360     		str	r3, [r2]
 4741 1fac FEF70DBC 		b	.L162
 4742              	.LVL418:
 4743              	.L779:
 4744              		.loc 1 212 0
 4745 1fb0 FFF7FEFF 		bl	e_init_sound
 4746              	.LVL419:
 4747              		.loc 1 213 0
 4748 1fb4 C54A     		ldr	r2, .L832+16
 4749 1fb6 0123     		movs	r3, #1
 4750 1fb8 1370     		strb	r3, [r2]
 4751 1fba FEF7A9B9 		b	.L27
 4752              	.LVL420:
 4753              	.L780:
 4754              		.loc 1 274 0
 4755 1fbe FFF7FEFF 		bl	e_init_sound
 4756              	.LVL421:
 4757              		.loc 1 275 0
 4758 1fc2 C24A     		ldr	r2, .L832+16
 4759 1fc4 0123     		movs	r3, #1
 4760 1fc6 1370     		strb	r3, [r2]
 4761 1fc8 FEF7F3B9 		b	.L43
 4762              	.LVL422:
 4763              	.L804:
 4764              		.loc 1 1046 0
 4765 1fcc C04B     		ldr	r3, .L832+20
 4766 1fce 1D70     		strb	r5, [r3]
 4767              		.loc 1 1047 0
 4768 1fd0 FFF7FEFF 		bl	e_poxxxx_wait_img_ready
 4769              	.LVL423:
 4770              		.loc 1 1048 0
 4771 1fd4 FFF7FEFF 		bl	cam_get_last_image_ptr
 4772              	.LVL424:
 4773 1fd8 0E9B     		ldr	r3, [sp, #56]
 4774 1fda 1A68     		ldr	r2, [r3]
 4775 1fdc 0F9B     		ldr	r3, [sp, #60]
 4776 1fde 0146     		mov	r1, r0
 4777 1fe0 08EB0300 		add	r0, r8, r3
 4778 1fe4 FFF7FEFF 		bl	memcpy
 4779              	.LVL425:
 4780 1fe8 D9F80010 		ldr	r1, [r9]
 4781 1fec FFF72CB9 		b	.L219
 4782              	.L787:
 4783              		.loc 1 870 0
 4784 1ff0 0146     		mov	r1, r0
 4785 1ff2 1846     		mov	r0, r3
 4786 1ff4 FFF7FEFF 		bl	e_set_led
 4787              	.LVL426:
 4788              		.loc 1 871 0
ARM GAS  /tmp/ccZueut9.s 			page 85


 4789 1ff8 FEF781BA 		b	.L47
 4790              	.L170:
 4791              		.loc 1 864 0
 4792 1ffc FFF7FEFF 		bl	e_set_body_led
 4793              	.LVL427:
 4794              		.loc 1 865 0
 4795 2000 FEF77DBA 		b	.L47
 4796              	.L101:
 4797              		.loc 1 510 0
 4798 2004 FFF7FEFF 		bl	e_set_speed_left
 4799              	.LVL428:
 4800              		.loc 1 511 0
 4801 2008 B24B     		ldr	r3, .L832+24
 4802 200a 1868     		ldr	r0, [r3]
 4803 200c FFF7FEFF 		bl	e_set_speed_right
 4804              	.LVL429:
 4805 2010 FEF7F3BD 		b	.L102
 4806              	.L99:
 4807              		.loc 1 499 0
 4808 2014 FFF7FEFF 		bl	disable_obstacle_avoidance
 4809              	.LVL430:
 4810 2018 FEF7D5BD 		b	.L100
 4811              	.L144:
 4812              		.loc 1 720 0
 4813 201c FFF7FEFF 		bl	VL53L0X_start
 4814              	.LVL431:
 4815 2020 FEF765BA 		b	.L145
 4816              	.L783:
 4817              		.loc 1 750 0
 4818 2024 FFF7FEFF 		bl	e_read_acc_spheric
 4819              	.LVL432:
 4820 2028 AB4B     		ldr	r3, .L832+28
 4821 202a 83ED000A 		vstr.32	s0, [r3]
 4822 202e C3ED010A 		vstr.32	s1, [r3, #4]
 4823 2032 DA78     		ldrb	r2, [r3, #3]	@ zero_extendqisi2
 4824 2034 0892     		str	r2, [sp, #32]
 4825 2036 9A79     		ldrb	r2, [r3, #6]	@ zero_extendqisi2
 4826 2038 83ED021A 		vstr.32	s2, [r3, #8]
 4827 203c 0992     		str	r2, [sp, #36]
 4828 203e DA79     		ldrb	r2, [r3, #7]	@ zero_extendqisi2
 4829 2040 0A92     		str	r2, [sp, #40]
 4830 2042 1A7A     		ldrb	r2, [r3, #8]	@ zero_extendqisi2
 4831 2044 0B92     		str	r2, [sp, #44]
 4832 2046 5A7A     		ldrb	r2, [r3, #9]	@ zero_extendqisi2
 4833 2048 0C92     		str	r2, [sp, #48]
 4834 204a 9A7A     		ldrb	r2, [r3, #10]	@ zero_extendqisi2
 4835 204c 0D92     		str	r2, [sp, #52]
 4836 204e 93F800B0 		ldrb	fp, [r3]	@ zero_extendqisi2
 4837 2052 93F801E0 		ldrb	lr, [r3, #1]	@ zero_extendqisi2
 4838 2056 93F802C0 		ldrb	ip, [r3, #2]	@ zero_extendqisi2
 4839 205a 1C79     		ldrb	r4, [r3, #4]	@ zero_extendqisi2
 4840 205c 5879     		ldrb	r0, [r3, #5]	@ zero_extendqisi2
 4841 205e DA7A     		ldrb	r2, [r3, #11]	@ zero_extendqisi2
 4842 2060 FEF70BBC 		b	.L149
 4843              	.L796:
 4844              		.loc 1 315 0
 4845 2064 FFF7FEFF 		bl	e_read_acc_spheric
ARM GAS  /tmp/ccZueut9.s 			page 86


 4846              	.LVL433:
 4847 2068 9B4B     		ldr	r3, .L832+28
 4848 206a C3ED010A 		vstr.32	s1, [r3, #4]
 4849 206e 1A79     		ldrb	r2, [r3, #4]	@ zero_extendqisi2
 4850 2070 83ED021A 		vstr.32	s2, [r3, #8]
 4851 2074 1446     		mov	r4, r2
 4852 2076 5A79     		ldrb	r2, [r3, #5]	@ zero_extendqisi2
 4853 2078 0892     		str	r2, [sp, #32]
 4854 207a 9A79     		ldrb	r2, [r3, #6]	@ zero_extendqisi2
 4855 207c 0992     		str	r2, [sp, #36]
 4856 207e DA79     		ldrb	r2, [r3, #7]	@ zero_extendqisi2
 4857 2080 0A92     		str	r2, [sp, #40]
 4858 2082 1A7A     		ldrb	r2, [r3, #8]	@ zero_extendqisi2
 4859 2084 0B92     		str	r2, [sp, #44]
 4860 2086 5A7A     		ldrb	r2, [r3, #9]	@ zero_extendqisi2
 4861 2088 83ED000A 		vstr.32	s0, [r3]
 4862 208c 0C92     		str	r2, [sp, #48]
 4863 208e 9A7A     		ldrb	r2, [r3, #10]	@ zero_extendqisi2
 4864 2090 0D92     		str	r2, [sp, #52]
 4865 2092 1878     		ldrb	r0, [r3]	@ zero_extendqisi2
 4866 2094 93F801B0 		ldrb	fp, [r3, #1]	@ zero_extendqisi2
 4867 2098 93F802E0 		ldrb	lr, [r3, #2]	@ zero_extendqisi2
 4868 209c 93F803C0 		ldrb	ip, [r3, #3]	@ zero_extendqisi2
 4869 20a0 D97A     		ldrb	r1, [r3, #11]	@ zero_extendqisi2
 4870 20a2 D9F80020 		ldr	r2, [r9]
 4871 20a6 FEF7BFBE 		b	.L80
 4872              	.L795:
 4873              		.loc 1 299 0
 4874 20aa 2846     		mov	r0, r5
 4875 20ac FFF7FEFF 		bl	e_get_acc
 4876              	.LVL434:
 4877 20b0 8A4C     		ldr	r4, .L832+32
 4878 20b2 2060     		str	r0, [r4]
 4879              		.loc 1 300 0
 4880 20b4 0120     		movs	r0, #1
 4881 20b6 FFF7FEFF 		bl	e_get_acc
 4882              	.LVL435:
 4883 20ba 894B     		ldr	r3, .L832+36
 4884 20bc 1860     		str	r0, [r3]
 4885              		.loc 1 301 0
 4886 20be 0220     		movs	r0, #2
 4887 20c0 FFF7FEFF 		bl	e_get_acc
 4888              	.LVL436:
 4889 20c4 864B     		ldr	r3, .L832+36
 4890 20c6 2468     		ldr	r4, [r4]
 4891 20c8 1A68     		ldr	r2, [r3]
 4892 20ca 864B     		ldr	r3, .L832+40
 4893 20cc 5FFA80FB 		uxtb	fp, r0
 4894 20d0 1860     		str	r0, [r3]
 4895 20d2 5FFA84FE 		uxtb	lr, r4
 4896 20d6 C0F30723 		ubfx	r3, r0, #8, #8
 4897 20da C4F30724 		ubfx	r4, r4, #8, #8
 4898 20de 5FFA82FC 		uxtb	ip, r2
 4899 20e2 C2F30720 		ubfx	r0, r2, #8, #8
 4900 20e6 FEF779BE 		b	.L78
 4901              	.LVL437:
 4902              	.L800:
ARM GAS  /tmp/ccZueut9.s 			page 87


 4903              		.loc 1 436 0
 4904 20ea FFF7FEFF 		bl	sdio_connect
 4905              	.LVL438:
 4906              		.loc 1 437 0
 4907 20ee D9F80030 		ldr	r3, [r9]
 4908              		.loc 1 436 0
 4909 20f2 B0FA80F0 		clz	r0, r0
 4910 20f6 4009     		lsrs	r0, r0, #5
 4911              		.loc 1 437 0
 4912 20f8 5A1C     		adds	r2, r3, #1
 4913              		.loc 1 436 0
 4914 20fa 08F80300 		strb	r0, [r8, r3]
 4915              		.loc 1 437 0
 4916 20fe C9F80020 		str	r2, [r9]
 4917              		.loc 1 438 0
 4918 2102 FFF7FEFF 		bl	sdio_disconnect
 4919              	.LVL439:
 4920 2106 D9F80040 		ldr	r4, [r9]
 4921 210a FEF786BF 		b	.L91
 4922              	.L799:
 4923              		.loc 1 399 0
 4924 210e FFF7FEFF 		bl	VL53L0X_get_dist_mm
 4925              	.LVL440:
 4926              		.loc 1 400 0
 4927 2112 D9F80030 		ldr	r3, [r9]
 4928              		.loc 1 401 0
 4929 2116 08EB0302 		add	r2, r8, r3
 4930              		.loc 1 400 0
 4931 211a 08F80300 		strb	r0, [r8, r3]
 4932              		.loc 1 401 0
 4933 211e 0112     		asrs	r1, r0, #8
 4934 2120 0233     		adds	r3, r3, #2
 4935 2122 5170     		strb	r1, [r2, #1]
 4936 2124 C9F80030 		str	r3, [r9]
 4937 2128 FEF70EBF 		b	.L89
 4938              	.LVL441:
 4939              	.L798:
 4940              		.loc 1 378 0
 4941 212c FFF7FEFF 		bl	getTemperature
 4942              	.LVL442:
 4943 2130 D9F80030 		ldr	r3, [r9]
 4944 2134 5A1C     		adds	r2, r3, #1
 4945 2136 08F80300 		strb	r0, [r8, r3]
 4946 213a C9F80020 		str	r2, [r9]
 4947 213e FEF7CABE 		b	.L85
 4948              	.L797:
 4949              		.loc 1 350 0
 4950 2142 694A     		ldr	r2, .L832+44
 4951 2144 6949     		ldr	r1, .L832+48
 4952 2146 6A48     		ldr	r0, .L832+52
 4953 2148 FFF7FEFF 		bl	getAllAxesGyro
 4954              	.LVL443:
 4955              		.loc 1 351 0
 4956 214c 684B     		ldr	r3, .L832+52
 4957 214e D9F80020 		ldr	r2, [r9]
 4958 2152 1968     		ldr	r1, [r3]
 4959              		.loc 1 353 0
ARM GAS  /tmp/ccZueut9.s 			page 88


 4960 2154 654B     		ldr	r3, .L832+48
 4961              		.loc 1 351 0
 4962 2156 08F80210 		strb	r1, [r8, r2]
 4963              		.loc 1 353 0
 4964 215a 1C68     		ldr	r4, [r3]
 4965              		.loc 1 355 0
 4966 215c 624B     		ldr	r3, .L832+44
 4967 215e 1868     		ldr	r0, [r3]
 4968              		.loc 1 352 0
 4969 2160 08EB0203 		add	r3, r8, r2
 4970 2164 0912     		asrs	r1, r1, #8
 4971              		.loc 1 356 0
 4972 2166 0632     		adds	r2, r2, #6
 4973              		.loc 1 352 0
 4974 2168 5970     		strb	r1, [r3, #1]
 4975              		.loc 1 356 0
 4976 216a C9F80020 		str	r2, [r9]
 4977              		.loc 1 354 0
 4978 216e 2112     		asrs	r1, r4, #8
 4979              		.loc 1 356 0
 4980 2170 0212     		asrs	r2, r0, #8
 4981              		.loc 1 353 0
 4982 2172 9C70     		strb	r4, [r3, #2]
 4983              		.loc 1 354 0
 4984 2174 D970     		strb	r1, [r3, #3]
 4985              		.loc 1 355 0
 4986 2176 1871     		strb	r0, [r3, #4]
 4987              		.loc 1 356 0
 4988 2178 5A71     		strb	r2, [r3, #5]
 4989 217a FEF785BE 		b	.L82
 4990              	.LVL444:
 4991              	.L785:
 4992              		.loc 1 824 0
 4993 217e 5A4A     		ldr	r2, .L832+44
 4994 2180 5A49     		ldr	r1, .L832+48
 4995 2182 5B48     		ldr	r0, .L832+52
 4996 2184 FFF7FEFF 		bl	getAllAxesGyro
 4997              	.LVL445:
 4998              		.loc 1 825 0
 4999 2188 594B     		ldr	r3, .L832+52
 5000 218a D9F80020 		ldr	r2, [r9]
 5001 218e 1968     		ldr	r1, [r3]
 5002              		.loc 1 827 0
 5003 2190 564B     		ldr	r3, .L832+48
 5004              		.loc 1 825 0
 5005 2192 08F80210 		strb	r1, [r8, r2]
 5006              		.loc 1 827 0
 5007 2196 1C68     		ldr	r4, [r3]
 5008              		.loc 1 829 0
 5009 2198 534B     		ldr	r3, .L832+44
 5010 219a 1868     		ldr	r0, [r3]
 5011              		.loc 1 826 0
 5012 219c 08EB0203 		add	r3, r8, r2
 5013 21a0 0912     		asrs	r1, r1, #8
 5014              		.loc 1 830 0
 5015 21a2 0632     		adds	r2, r2, #6
 5016              		.loc 1 826 0
ARM GAS  /tmp/ccZueut9.s 			page 89


 5017 21a4 5970     		strb	r1, [r3, #1]
 5018              		.loc 1 830 0
 5019 21a6 C9F80020 		str	r2, [r9]
 5020              		.loc 1 828 0
 5021 21aa 2112     		asrs	r1, r4, #8
 5022              		.loc 1 830 0
 5023 21ac 0212     		asrs	r2, r0, #8
 5024              		.loc 1 827 0
 5025 21ae 9C70     		strb	r4, [r3, #2]
 5026              		.loc 1 828 0
 5027 21b0 D970     		strb	r1, [r3, #3]
 5028              		.loc 1 829 0
 5029 21b2 1871     		strb	r0, [r3, #4]
 5030              		.loc 1 830 0
 5031 21b4 5A71     		strb	r2, [r3, #5]
 5032 21b6 FEF7A3B9 		b	.L128
 5033              	.L786:
 5034              		.loc 1 729 0
 5035 21ba 0121     		movs	r1, #1
 5036 21bc 2846     		mov	r0, r5
 5037 21be FFF7FEFF 		bl	e_get_acc_filtered
 5038              	.LVL446:
 5039 21c2 464C     		ldr	r4, .L832+32
 5040              		.loc 1 730 0
 5041 21c4 0121     		movs	r1, #1
 5042              		.loc 1 729 0
 5043 21c6 2060     		str	r0, [r4]
 5044              		.loc 1 730 0
 5045 21c8 0846     		mov	r0, r1
 5046 21ca FFF7FEFF 		bl	e_get_acc_filtered
 5047              	.LVL447:
 5048 21ce 444B     		ldr	r3, .L832+36
 5049              		.loc 1 731 0
 5050 21d0 0121     		movs	r1, #1
 5051              		.loc 1 730 0
 5052 21d2 1860     		str	r0, [r3]
 5053              		.loc 1 731 0
 5054 21d4 0220     		movs	r0, #2
 5055 21d6 FFF7FEFF 		bl	e_get_acc_filtered
 5056              	.LVL448:
 5057 21da 414B     		ldr	r3, .L832+36
 5058 21dc 2468     		ldr	r4, [r4]
 5059 21de 1A68     		ldr	r2, [r3]
 5060 21e0 404B     		ldr	r3, .L832+40
 5061 21e2 5FFA80FB 		uxtb	fp, r0
 5062 21e6 1860     		str	r0, [r3]
 5063 21e8 5FFA84FE 		uxtb	lr, r4
 5064 21ec C0F30723 		ubfx	r3, r0, #8, #8
 5065 21f0 C4F30724 		ubfx	r4, r4, #8, #8
 5066 21f4 5FFA82FC 		uxtb	ip, r2
 5067 21f8 C2F30720 		ubfx	r0, r2, #8, #8
 5068 21fc FEF728BC 		b	.L147
 5069              	.L788:
 5070              		.loc 1 614 0
 5071 2200 FFF7FEFF 		bl	VL53L0X_get_dist_mm
 5072              	.LVL449:
 5073              		.loc 1 615 0
ARM GAS  /tmp/ccZueut9.s 			page 90


 5074 2204 D9F80030 		ldr	r3, [r9]
 5075              		.loc 1 616 0
 5076 2208 08EB0302 		add	r2, r8, r3
 5077              		.loc 1 615 0
 5078 220c 08F80300 		strb	r0, [r8, r3]
 5079              		.loc 1 616 0
 5080 2210 0112     		asrs	r1, r0, #8
 5081 2212 0233     		adds	r3, r3, #2
 5082 2214 5170     		strb	r1, [r2, #1]
 5083 2216 C9F80030 		str	r3, [r9]
 5084 221a FEF771B9 		b	.L128
 5085              	.L782:
 5086              		.loc 1 625 0
 5087 221e FFF7FEFF 		bl	sdio_connect
 5088              	.LVL450:
 5089              		.loc 1 626 0
 5090 2222 D9F80030 		ldr	r3, [r9]
 5091              		.loc 1 625 0
 5092 2226 B0FA80F0 		clz	r0, r0
 5093              		.loc 1 626 0
 5094 222a 5A1C     		adds	r2, r3, #1
 5095              		.loc 1 625 0
 5096 222c 4009     		lsrs	r0, r0, #5
 5097 222e 08F80300 		strb	r0, [r8, r3]
 5098              		.loc 1 626 0
 5099 2232 C9F80020 		str	r2, [r9]
 5100              		.loc 1 627 0
 5101 2236 FFF7FEFF 		bl	sdio_disconnect
 5102              	.LVL451:
 5103 223a FEF760B9 		b	.L47
 5104              	.L190:
 5105              		.loc 1 947 0
 5106 223e FFF7FEFF 		bl	getTemperature
 5107              	.LVL452:
 5108 2242 D9F80020 		ldr	r2, [r9]
 5109 2246 3B78     		ldrb	r3, [r7]	@ zero_extendqisi2
 5110 2248 08F80200 		strb	r0, [r8, r2]
 5111 224c 0132     		adds	r2, r2, #1
 5112 224e C9F80020 		str	r2, [r9]
 5113 2252 FEF75DB9 		b	.L191
 5114              	.L790:
 5115              		.loc 1 554 0
 5116 2256 0022     		movs	r2, #0
 5117 2258 0221     		movs	r1, #2
 5118 225a 0320     		movs	r0, #3
 5119 225c FFF7FEFF 		bl	playMelody
 5120              	.LVL453:
 5121 2260 9DF86230 		ldrb	r3, [sp, #98]	@ zero_extendqisi2
 5122              		.loc 1 556 0
 5123 2264 9C07     		lsls	r4, r3, #30
 5124 2266 7EF52AAD 		bpl	.L116
 5125              	.L791:
 5126              		.loc 1 557 0
 5127 226a 0420     		movs	r0, #4
 5128 226c 0022     		movs	r2, #0
 5129 226e 0221     		movs	r1, #2
 5130 2270 FFF7FEFF 		bl	playMelody
ARM GAS  /tmp/ccZueut9.s 			page 91


 5131              	.LVL454:
 5132 2274 9DF86230 		ldrb	r3, [sp, #98]	@ zero_extendqisi2
 5133              		.loc 1 559 0
 5134 2278 5807     		lsls	r0, r3, #29
 5135 227a 7EF523AD 		bpl	.L117
 5136              	.L792:
 5137              		.loc 1 560 0
 5138 227e 0221     		movs	r1, #2
 5139 2280 0022     		movs	r2, #0
 5140 2282 0B20     		movs	r0, #11
 5141 2284 FFF7FEFF 		bl	playMelody
 5142              	.LVL455:
 5143 2288 9DF86230 		ldrb	r3, [sp, #98]	@ zero_extendqisi2
 5144              		.loc 1 562 0
 5145 228c 1907     		lsls	r1, r3, #28
 5146 228e 7EF51CAD 		bpl	.L118
 5147              	.L793:
 5148              		.loc 1 563 0
 5149 2292 40F69461 		movw	r1, #3732
 5150 2296 41F67E40 		movw	r0, #7294
 5151 229a FFF7FEFF 		bl	e_play_sound
 5152              	.LVL456:
 5153 229e 9DF86230 		ldrb	r3, [sp, #98]	@ zero_extendqisi2
 5154              		.loc 1 565 0
 5155 22a2 DA06     		lsls	r2, r3, #27
 5156 22a4 7EF514AD 		bpl	.L119
 5157              	.L794:
 5158              		.loc 1 566 0
 5159 22a8 41F65071 		movw	r1, #8016
 5160 22ac 42F61430 		movw	r0, #11028
 5161 22b0 FFF7FEFF 		bl	e_play_sound
 5162              	.LVL457:
 5163 22b4 9DF86230 		ldrb	r3, [sp, #98]	@ zero_extendqisi2
 5164 22b8 FEF70ABD 		b	.L119
 5165              	.L833:
 5166              		.align	2
 5167              	.L832:
 5168 22bc 00000000 		.word	.LANCHOR20
 5169 22c0 00000000 		.word	.LANCHOR19
 5170 22c4 00000000 		.word	.LANCHOR22
 5171 22c8 00000000 		.word	.LANCHOR7
 5172 22cc 00000000 		.word	.LANCHOR8
 5173 22d0 00000000 		.word	.LANCHOR21
 5174 22d4 00000000 		.word	.LANCHOR6
 5175 22d8 00000000 		.word	.LANCHOR13
 5176 22dc 00000000 		.word	.LANCHOR10
 5177 22e0 00000000 		.word	.LANCHOR11
 5178 22e4 00000000 		.word	.LANCHOR12
 5179 22e8 00000000 		.word	.LANCHOR14
 5180 22ec 00000000 		.word	.LANCHOR15
 5181 22f0 00000000 		.word	.LANCHOR16
 5182              	.L789:
 5183              		.loc 1 494 0
 5184 22f4 FFF7FEFF 		bl	calibrate_ir
 5185              	.LVL458:
 5186 22f8 9DF85030 		ldrb	r3, [sp, #80]	@ zero_extendqisi2
 5187 22fc FEF75EBC 		b	.L98
ARM GAS  /tmp/ccZueut9.s 			page 92


 5188              	.L781:
 5189              		.loc 1 655 0
 5190 2300 FFF7FEFF 		bl	mpu9250_magnetometer_setup
 5191              	.LVL459:
 5192 2304 FEF7F3B8 		b	.L145
 5193              	.L426:
 5194              	.LBB6:
 5195              		.loc 1 1551 0
 5196 2308 BD4B     		ldr	r3, .L834
 5197 230a BE49     		ldr	r1, .L834+4
 5198 230c 1A68     		ldr	r2, [r3]
 5199 230e BE48     		ldr	r0, .L834+8
 5200 2310 FFF7FEFF 		bl	sprintf
 5201              	.LVL460:
 5202 2314 FDF7BEBE 		b	.L5
 5203              	.L418:
 5204              		.loc 1 1522 0
 5205 2318 BC4B     		ldr	r3, .L834+12
 5206 231a 1868     		ldr	r0, [r3]
 5207 231c 9B88     		ldrh	r3, [r3, #4]	@ unaligned
 5208 231e C8F80000 		str	r0, [r8]	@ unaligned
 5209 2322 A8F80430 		strh	r3, [r8, #4]	@ unaligned
 5210 2326 FDF7B5BE 		b	.L5
 5211              	.L774:
 5212              		.loc 1 1103 0
 5213 232a FFF7FEFF 		bl	getBatteryValueRaw
 5214              	.LVL461:
 5215 232e 0446     		mov	r4, r0
 5216 2330 FFF7FEFF 		bl	getBatteryValuePercentage
 5217              	.LVL462:
 5218 2334 2246     		mov	r2, r4
 5219 2336 0346     		mov	r3, r0
 5220 2338 B549     		ldr	r1, .L834+16
 5221 233a B348     		ldr	r0, .L834+8
 5222 233c FFF7FEFF 		bl	sprintf
 5223              	.LVL463:
 5224              	.L458:
 5225 2340 B148     		ldr	r0, .L834+8
 5226 2342 FFF7FEFF 		bl	strlen
 5227              	.LVL464:
 5228              		.loc 1 1106 0
 5229 2346 079B     		ldr	r3, [sp, #28]
 5230 2348 0146     		mov	r1, r0
 5231              		.loc 1 1107 0
 5232 234a AF48     		ldr	r0, .L834+8
 5233              		.loc 1 1106 0
 5234 234c 002B     		cmp	r3, #0
 5235 234e 00F0FE80 		beq	.L275
 5236              		.loc 1 1107 0
 5237 2352 FFF7FEFF 		bl	e_send_uart1_char
 5238              	.LVL465:
 5239              	.L276:
 5240              		.loc 1 1107 0 is_stmt 0 discriminator 2
 5241 2356 FFF7FEFF 		bl	e_uart1_sending
 5242              	.LVL466:
 5243 235a 0028     		cmp	r0, #0
 5244 235c FBD1     		bne	.L276
ARM GAS  /tmp/ccZueut9.s 			page 93


 5245 235e FDF79CBE 		b	.L741
 5246              	.L296:
 5247              		.loc 1 1183 0 is_stmt 1
 5248 2362 AC4B     		ldr	r3, .L834+20
 5249              	.L761:
 5250 2364 03CB     		ldmia	r3!, {r0, r1}
 5251 2366 1B88     		ldrh	r3, [r3]	@ unaligned
 5252 2368 A8F80830 		strh	r3, [r8, #8]	@ unaligned
 5253 236c C8F80000 		str	r0, [r8]	@ unaligned
 5254 2370 C8F80410 		str	r1, [r8, #4]	@ unaligned
 5255 2374 FDF78EBE 		b	.L5
 5256              	.L377:
 5257              		.loc 1 1363 0
 5258 2378 0121     		movs	r1, #1
 5259 237a 0820     		movs	r0, #8
 5260 237c FFF7FEFF 		bl	e_set_led
 5261              	.LVL467:
 5262              		.loc 1 1365 0
 5263 2380 4FF4C870 		mov	r0, #400
 5264 2384 FFF7FEFF 		bl	chThdSleep
 5265              	.LVL468:
 5266              		.loc 1 1366 0
 5267 2388 FFF7FEFF 		bl	e_led_clear
 5268              	.LVL469:
 5269              		.loc 1 1368 0
 5270 238c 6420     		movs	r0, #100
 5271 238e FFF7FEFF 		bl	chThdSleep
 5272              	.LVL470:
 5273              		.loc 1 1369 0
 5274 2392 FFF7FEFF 		bl	e_calibrate_ir
 5275              	.LVL471:
 5276 2396 FDF77DBE 		b	.L5
 5277              	.LVL472:
 5278              	.L270:
 5279              		.loc 1 1092 0
 5280 239a 9F4B     		ldr	r3, .L834+24
 5281 239c E2E7     		b	.L761
 5282              	.L445:
 5283              		.loc 1 1604 0
 5284 239e FFF7FEFF 		bl	strlen
 5285              	.LVL473:
 5286 23a2 0146     		mov	r1, r0
 5287 23a4 2046     		mov	r0, r4
 5288 23a6 FFF7FEFF 		bl	e_send_uart2_char
 5289              	.LVL474:
 5290              	.L447:
 5291              		.loc 1 1604 0 is_stmt 0 discriminator 2
 5292 23aa FFF7FEFF 		bl	e_uart2_sending
 5293              	.LVL475:
 5294 23ae 0028     		cmp	r0, #0
 5295 23b0 FBD1     		bne	.L447
 5296 23b2 FEF7FABF 		b	.L444
 5297              	.L784:
 5298              	.LBE6:
 5299              		.loc 1 687 0 is_stmt 1
 5300 23b6 2046     		mov	r0, r4
 5301 23b8 FFF7FEFF 		bl	proximity_start
ARM GAS  /tmp/ccZueut9.s 			page 94


 5302              	.LVL476:
 5303 23bc FEF797B8 		b	.L145
 5304              	.L95:
 5305              		.loc 1 477 0
 5306 23c0 964A     		ldr	r2, .L834+28
 5307 23c2 D2F85432 		ldr	r3, [r2, #596]
 5308 23c6 1B68     		ldr	r3, [r3]
 5309 23c8 1B78     		ldrb	r3, [r3]	@ zero_extendqisi2
 5310 23ca 042B     		cmp	r3, #4
 5311 23cc 05D1     		bne	.L96
 5312              		.loc 1 478 0
 5313 23ce 1368     		ldr	r3, [r2]
 5314 23d0 1046     		mov	r0, r2
 5315 23d2 5B68     		ldr	r3, [r3, #4]
 5316 23d4 1322     		movs	r2, #19
 5317 23d6 14A9     		add	r1, sp, #80
 5318 23d8 9847     		blx	r3
 5319              	.LVL477:
 5320              	.L96:
 5321              		.loc 1 481 0
 5322 23da 0A20     		movs	r0, #10
 5323 23dc FFF7FEFF 		bl	chThdSleep
 5324              	.LVL478:
 5325 23e0 FEF7E2BB 		b	.L94
 5326              	.L142:
 5327              		.loc 1 702 0
 5328 23e4 8D4A     		ldr	r2, .L834+28
 5329 23e6 D2F85432 		ldr	r3, [r2, #596]
 5330 23ea 1B68     		ldr	r3, [r3]
 5331 23ec 1B78     		ldrb	r3, [r3]	@ zero_extendqisi2
 5332 23ee 042B     		cmp	r3, #4
 5333 23f0 05D1     		bne	.L143
 5334              		.loc 1 703 0
 5335 23f2 1368     		ldr	r3, [r2]
 5336 23f4 1046     		mov	r0, r2
 5337 23f6 5B68     		ldr	r3, [r3, #4]
 5338 23f8 0122     		movs	r2, #1
 5339 23fa 14A9     		add	r1, sp, #80
 5340 23fc 9847     		blx	r3
 5341              	.LVL479:
 5342              	.L143:
 5343              		.loc 1 706 0
 5344 23fe 0A20     		movs	r0, #10
 5345 2400 FFF7FEFF 		bl	chThdSleep
 5346              	.LVL480:
 5347 2404 FEF716BA 		b	.L141
 5348              	.L132:
 5349              		.loc 1 639 0
 5350 2408 844A     		ldr	r2, .L834+28
 5351 240a D2F85432 		ldr	r3, [r2, #596]
 5352 240e 1B68     		ldr	r3, [r3]
 5353 2410 1B78     		ldrb	r3, [r3]	@ zero_extendqisi2
 5354 2412 042B     		cmp	r3, #4
 5355 2414 05D1     		bne	.L133
 5356              		.loc 1 640 0
 5357 2416 1368     		ldr	r3, [r2]
 5358 2418 1046     		mov	r0, r2
ARM GAS  /tmp/ccZueut9.s 			page 95


 5359 241a 5B68     		ldr	r3, [r3, #4]
 5360 241c 0122     		movs	r2, #1
 5361 241e 14A9     		add	r1, sp, #80
 5362 2420 9847     		blx	r3
 5363              	.LVL481:
 5364              	.L133:
 5365              		.loc 1 643 0
 5366 2422 0A20     		movs	r0, #10
 5367 2424 FFF7FEFF 		bl	chThdSleep
 5368              	.LVL482:
 5369 2428 FEF757B8 		b	.L131
 5370              	.L137:
 5371              		.loc 1 670 0
 5372 242c 7B4A     		ldr	r2, .L834+28
 5373 242e D2F85432 		ldr	r3, [r2, #596]
 5374 2432 1B68     		ldr	r3, [r3]
 5375 2434 1B78     		ldrb	r3, [r3]	@ zero_extendqisi2
 5376 2436 042B     		cmp	r3, #4
 5377 2438 05D1     		bne	.L138
 5378              		.loc 1 671 0
 5379 243a 1368     		ldr	r3, [r2]
 5380 243c 1046     		mov	r0, r2
 5381 243e 5B68     		ldr	r3, [r3, #4]
 5382 2440 0122     		movs	r2, #1
 5383 2442 14A9     		add	r1, sp, #80
 5384 2444 9847     		blx	r3
 5385              	.LVL483:
 5386              	.L138:
 5387              		.loc 1 674 0
 5388 2446 0A20     		movs	r0, #10
 5389 2448 FFF7FEFF 		bl	chThdSleep
 5390              	.LVL484:
 5391 244c FEF756BA 		b	.L136
 5392              	.L378:
 5393              	.LBB7:
 5394              		.loc 1 1360 0
 5395 2450 FFF7FEFF 		bl	e_send_uart2_char
 5396              	.LVL485:
 5397              	.L381:
 5398              		.loc 1 1360 0 is_stmt 0 discriminator 2
 5399 2454 FFF7FEFF 		bl	e_uart2_sending
 5400              	.LVL486:
 5401 2458 0028     		cmp	r0, #0
 5402 245a FBD1     		bne	.L381
 5403              		.loc 1 1363 0 is_stmt 1
 5404 245c 0121     		movs	r1, #1
 5405 245e 0820     		movs	r0, #8
 5406 2460 FFF7FEFF 		bl	e_set_led
 5407              	.LVL487:
 5408              		.loc 1 1365 0
 5409 2464 4FF4C870 		mov	r0, #400
 5410 2468 FFF7FEFF 		bl	chThdSleep
 5411              	.LVL488:
 5412              		.loc 1 1366 0
 5413 246c FFF7FEFF 		bl	e_led_clear
 5414              	.LVL489:
 5415              		.loc 1 1368 0
ARM GAS  /tmp/ccZueut9.s 			page 96


 5416 2470 6420     		movs	r0, #100
 5417 2472 FFF7FEFF 		bl	chThdSleep
 5418              	.LVL490:
 5419              		.loc 1 1369 0
 5420 2476 FFF7FEFF 		bl	e_calibrate_ir
 5421              	.LVL491:
 5422              		.loc 1 1375 0
 5423 247a 1921     		movs	r1, #25
 5424 247c 6848     		ldr	r0, .L834+32
 5425 247e FFF7FEFF 		bl	e_send_uart2_char
 5426              	.LVL492:
 5427              	.L384:
 5428              		.loc 1 1375 0 is_stmt 0 discriminator 2
 5429 2482 FFF7FEFF 		bl	e_uart2_sending
 5430              	.LVL493:
 5431 2486 0028     		cmp	r0, #0
 5432 2488 FBD1     		bne	.L384
 5433 248a FDF793BE 		b	.L732
 5434              	.LVL494:
 5435              	.L281:
 5436              		.loc 1 1131 0 is_stmt 1
 5437 248e FFF7FEFF 		bl	e_send_uart2_char
 5438              	.LVL495:
 5439              	.L283:
 5440              		.loc 1 1131 0 is_stmt 0 discriminator 2
 5441 2492 FFF7FEFF 		bl	e_uart2_sending
 5442              	.LVL496:
 5443 2496 0028     		cmp	r0, #0
 5444 2498 FBD1     		bne	.L283
 5445 249a FDF78BBE 		b	.L732
 5446              	.L807:
 5447              		.loc 1 1099 0 is_stmt 1
 5448 249e 5A48     		ldr	r0, .L834+8
 5449 24a0 FFF7FEFF 		bl	strlen
 5450              	.LVL497:
 5451 24a4 0146     		mov	r1, r0
 5452 24a6 5848     		ldr	r0, .L834+8
 5453 24a8 FFF7FEFF 		bl	e_send_uart2_char
 5454              	.LVL498:
 5455              	.L274:
 5456              		.loc 1 1099 0 is_stmt 0 discriminator 2
 5457 24ac FFF7FEFF 		bl	e_uart2_sending
 5458              	.LVL499:
 5459 24b0 0028     		cmp	r0, #0
 5460 24b2 FBD1     		bne	.L274
 5461 24b4 FDF77EBE 		b	.L732
 5462              	.L394:
 5463              		.loc 1 1441 0 is_stmt 1
 5464 24b8 FFF7FEFF 		bl	e_send_uart2_char
 5465              	.LVL500:
 5466              	.L396:
 5467              		.loc 1 1441 0 is_stmt 0 discriminator 2
 5468 24bc FFF7FEFF 		bl	e_uart2_sending
 5469              	.LVL501:
 5470 24c0 0028     		cmp	r0, #0
 5471 24c2 FBD1     		bne	.L396
 5472 24c4 FDF776BE 		b	.L732
ARM GAS  /tmp/ccZueut9.s 			page 97


 5473              	.L284:
 5474              		.loc 1 1143 0 is_stmt 1
 5475 24c8 FFF7FEFF 		bl	e_send_uart2_char
 5476              	.LVL502:
 5477              	.L286:
 5478              		.loc 1 1143 0 is_stmt 0 discriminator 2
 5479 24cc FFF7FEFF 		bl	e_uart2_sending
 5480              	.LVL503:
 5481 24d0 0028     		cmp	r0, #0
 5482 24d2 FBD1     		bne	.L286
 5483 24d4 FDF76EBE 		b	.L732
 5484              	.L427:
 5485              		.loc 1 1549 0 is_stmt 1
 5486 24d8 FFF7FEFF 		bl	e_send_uart2_char
 5487              	.LVL504:
 5488              	.L430:
 5489              		.loc 1 1549 0 is_stmt 0 discriminator 2
 5490 24dc FFF7FEFF 		bl	e_uart2_sending
 5491              	.LVL505:
 5492 24e0 0028     		cmp	r0, #0
 5493 24e2 FBD1     		bne	.L430
 5494              		.loc 1 1551 0 is_stmt 1
 5495 24e4 464B     		ldr	r3, .L834
 5496 24e6 4749     		ldr	r1, .L834+4
 5497 24e8 1A68     		ldr	r2, [r3]
 5498 24ea 4748     		ldr	r0, .L834+8
 5499 24ec FFF7FEFF 		bl	sprintf
 5500              	.LVL506:
 5501              		.loc 1 1557 0
 5502 24f0 4548     		ldr	r0, .L834+8
 5503 24f2 FFF7FEFF 		bl	strlen
 5504              	.LVL507:
 5505 24f6 0146     		mov	r1, r0
 5506 24f8 4348     		ldr	r0, .L834+8
 5507 24fa FFF7FEFF 		bl	e_send_uart2_char
 5508              	.LVL508:
 5509              	.L433:
 5510              		.loc 1 1557 0 is_stmt 0 discriminator 2
 5511 24fe FFF7FEFF 		bl	e_uart2_sending
 5512              	.LVL509:
 5513 2502 0028     		cmp	r0, #0
 5514 2504 FBD1     		bne	.L433
 5515 2506 FDF755BE 		b	.L732
 5516              	.L806:
 5517              		.loc 1 1529 0 is_stmt 1
 5518 250a 3F48     		ldr	r0, .L834+8
 5519 250c FFF7FEFF 		bl	strlen
 5520              	.LVL510:
 5521 2510 0146     		mov	r1, r0
 5522 2512 3D48     		ldr	r0, .L834+8
 5523 2514 FFF7FEFF 		bl	e_send_uart2_char
 5524              	.LVL511:
 5525              	.L422:
 5526              		.loc 1 1529 0 is_stmt 0 discriminator 2
 5527 2518 FFF7FEFF 		bl	e_uart2_sending
 5528              	.LVL512:
 5529 251c 0028     		cmp	r0, #0
ARM GAS  /tmp/ccZueut9.s 			page 98


 5530 251e FBD1     		bne	.L422
 5531 2520 FDF748BE 		b	.L732
 5532              	.L449:
 5533              		.loc 1 1616 0 is_stmt 1
 5534 2524 FFF7FEFF 		bl	e_send_uart2_char
 5535              	.LVL513:
 5536              	.L451:
 5537              		.loc 1 1616 0 is_stmt 0 discriminator 2
 5538 2528 FFF7FEFF 		bl	e_uart2_sending
 5539              	.LVL514:
 5540 252c 0028     		cmp	r0, #0
 5541 252e FBD1     		bne	.L451
 5542 2530 FDF740BE 		b	.L732
 5543              	.L776:
 5544              		.loc 1 1190 0 is_stmt 1
 5545 2534 3448     		ldr	r0, .L834+8
 5546 2536 FFF7FEFF 		bl	strlen
 5547              	.LVL515:
 5548 253a 0146     		mov	r1, r0
 5549 253c 3248     		ldr	r0, .L834+8
 5550 253e FFF7FEFF 		bl	e_send_uart2_char
 5551              	.LVL516:
 5552              	.L300:
 5553              		.loc 1 1190 0 is_stmt 0 discriminator 2
 5554 2542 FFF7FEFF 		bl	e_uart2_sending
 5555              	.LVL517:
 5556 2546 0028     		cmp	r0, #0
 5557 2548 FBD1     		bne	.L300
 5558 254a FDF733BE 		b	.L732
 5559              	.L275:
 5560              		.loc 1 1109 0 is_stmt 1
 5561 254e FFF7FEFF 		bl	e_send_uart2_char
 5562              	.LVL518:
 5563              	.L277:
 5564              		.loc 1 1109 0 is_stmt 0 discriminator 2
 5565 2552 FFF7FEFF 		bl	e_uart2_sending
 5566              	.LVL519:
 5567 2556 0028     		cmp	r0, #0
 5568 2558 FBD1     		bne	.L277
 5569 255a FDF72BBE 		b	.L732
 5570              	.L423:
 5571              		.loc 1 1540 0 is_stmt 1
 5572 255e FFF7FEFF 		bl	e_send_uart2_char
 5573              	.LVL520:
 5574              	.L425:
 5575              		.loc 1 1540 0 is_stmt 0 discriminator 2
 5576 2562 FFF7FEFF 		bl	e_uart2_sending
 5577              	.LVL521:
 5578 2566 0028     		cmp	r0, #0
 5579 2568 FBD1     		bne	.L425
 5580 256a FDF723BE 		b	.L732
 5581              	.L287:
 5582              		.loc 1 1153 0 is_stmt 1
 5583 256e FFF7FEFF 		bl	e_send_uart2_char
 5584              	.LVL522:
 5585              	.L289:
 5586              		.loc 1 1153 0 is_stmt 0 discriminator 2
ARM GAS  /tmp/ccZueut9.s 			page 99


 5587 2572 FFF7FEFF 		bl	e_uart2_sending
 5588              	.LVL523:
 5589 2576 0028     		cmp	r0, #0
 5590 2578 FBD1     		bne	.L289
 5591 257a FDF71BBE 		b	.L732
 5592              	.L293:
 5593              		.loc 1 1175 0 is_stmt 1
 5594 257e FFF7FEFF 		bl	e_send_uart2_char
 5595              	.LVL524:
 5596              	.L295:
 5597              		.loc 1 1175 0 is_stmt 0 discriminator 2
 5598 2582 FFF7FEFF 		bl	e_uart2_sending
 5599              	.LVL525:
 5600 2586 0028     		cmp	r0, #0
 5601 2588 FBD1     		bne	.L295
 5602 258a FDF713BE 		b	.L732
 5603              	.L290:
 5604              		.loc 1 1164 0 is_stmt 1
 5605 258e FFF7FEFF 		bl	e_send_uart2_char
 5606              	.LVL526:
 5607              	.L292:
 5608              		.loc 1 1164 0 is_stmt 0 discriminator 2
 5609 2592 FFF7FEFF 		bl	e_uart2_sending
 5610              	.LVL527:
 5611 2596 0028     		cmp	r0, #0
 5612 2598 FBD1     		bne	.L292
 5613 259a FDF70BBE 		b	.L732
 5614              	.L278:
 5615              		.loc 1 1120 0 is_stmt 1
 5616 259e FFF7FEFF 		bl	e_send_uart2_char
 5617              	.LVL528:
 5618              	.L280:
 5619              		.loc 1 1120 0 is_stmt 0 discriminator 2
 5620 25a2 FFF7FEFF 		bl	e_uart2_sending
 5621              	.LVL529:
 5622 25a6 0028     		cmp	r0, #0
 5623 25a8 FBD1     		bne	.L280
 5624 25aa FDF703BE 		b	.L732
 5625              	.L403:
 5626              		.loc 1 1483 0 is_stmt 1
 5627 25ae FFF7FEFF 		bl	e_send_uart2_char
 5628              	.LVL530:
 5629              	.L405:
 5630              		.loc 1 1483 0 is_stmt 0 discriminator 2
 5631 25b2 FFF7FEFF 		bl	e_uart2_sending
 5632              	.LVL531:
 5633 25b6 0028     		cmp	r0, #0
 5634 25b8 FBD1     		bne	.L405
 5635 25ba FDF7FBBD 		b	.L732
 5636              	.L400:
 5637              		.loc 1 1463 0 is_stmt 1
 5638 25be FFF7FEFF 		bl	e_send_uart2_char
 5639              	.LVL532:
 5640              	.L402:
 5641              		.loc 1 1463 0 is_stmt 0 discriminator 2
 5642 25c2 FFF7FEFF 		bl	e_uart2_sending
 5643              	.LVL533:
ARM GAS  /tmp/ccZueut9.s 			page 100


 5644 25c6 0028     		cmp	r0, #0
 5645 25c8 FBD1     		bne	.L402
 5646 25ca FDF7F3BD 		b	.L732
 5647              	.L397:
 5648              		.loc 1 1453 0 is_stmt 1
 5649 25ce FFF7FEFF 		bl	e_send_uart2_char
 5650              	.LVL534:
 5651              	.L399:
 5652              		.loc 1 1453 0 is_stmt 0 discriminator 2
 5653 25d2 FFF7FEFF 		bl	e_uart2_sending
 5654              	.LVL535:
 5655 25d6 0028     		cmp	r0, #0
 5656 25d8 FBD1     		bne	.L399
 5657 25da FDF7EBBD 		b	.L732
 5658              	.L391:
 5659              		.loc 1 1429 0 is_stmt 1
 5660 25de FFF7FEFF 		bl	e_send_uart2_char
 5661              	.LVL536:
 5662              	.L393:
 5663              		.loc 1 1429 0 is_stmt 0 discriminator 2
 5664 25e2 FFF7FEFF 		bl	e_uart2_sending
 5665              	.LVL537:
 5666 25e6 0028     		cmp	r0, #0
 5667 25e8 FBD1     		bne	.L393
 5668 25ea FDF7E3BD 		b	.L732
 5669              	.L385:
 5670              		.loc 1 1386 0 is_stmt 1
 5671 25ee FFF7FEFF 		bl	e_send_uart2_char
 5672              	.LVL538:
 5673              	.L387:
 5674              		.loc 1 1386 0 is_stmt 0 discriminator 2
 5675 25f2 FFF7FEFF 		bl	e_uart2_sending
 5676              	.LVL539:
 5677 25f6 0028     		cmp	r0, #0
 5678 25f8 FBD1     		bne	.L387
 5679 25fa FDF7DBBD 		b	.L732
 5680              	.L835:
 5681 25fe 00BF     		.align	2
 5682              	.L834:
 5683 2600 00000000 		.word	.LANCHOR0
 5684 2604 480B0000 		.word	.LC95
 5685 2608 00000000 		.word	buffer
 5686 260c BC0A0000 		.word	.LC86
 5687 2610 78000000 		.word	.LC3
 5688 2614 08010000 		.word	.LC14
 5689 2618 6C000000 		.word	.LC2
 5690 261c 00000000 		.word	SDU1
 5691 2620 640B0000 		.word	.LC97
 5692              	.L301:
 5693              		.loc 1 1275 0 is_stmt 1
 5694 2624 FFF7FEFF 		bl	e_send_uart2_char
 5695              	.LVL540:
 5696              	.L335:
 5697              		.loc 1 1275 0 is_stmt 0 discriminator 2
 5698 2628 FFF7FEFF 		bl	e_uart2_sending
 5699              	.LVL541:
 5700 262c 0028     		cmp	r0, #0
ARM GAS  /tmp/ccZueut9.s 			page 101


 5701 262e FBD1     		bne	.L335
 5702              		.loc 1 1276 0 is_stmt 1
 5703 2630 FFF7FEFF 		bl	isEpuckVersion1_3
 5704              	.LVL542:
 5705 2634 0028     		cmp	r0, #0
 5706 2636 00F04781 		beq	.L810
 5707              	.L336:
 5708              		.loc 1 1279 0
 5709 263a FFF7FEFF 		bl	isEpuckVersion1_3
 5710              	.LVL543:
 5711 263e 0028     		cmp	r0, #0
 5712 2640 00F03981 		beq	.L338
 5713              		.loc 1 1280 0
 5714 2644 1921     		movs	r1, #25
 5715 2646 B748     		ldr	r0, .L836
 5716 2648 FFF7FEFF 		bl	e_send_uart2_char
 5717              	.LVL544:
 5718              	.L339:
 5719              		.loc 1 1280 0 is_stmt 0 discriminator 2
 5720 264c FFF7FEFF 		bl	e_uart2_sending
 5721              	.LVL545:
 5722 2650 0028     		cmp	r0, #0
 5723 2652 FBD1     		bne	.L339
 5724              	.L340:
 5725              		.loc 1 1284 0 is_stmt 1
 5726 2654 2B21     		movs	r1, #43
 5727 2656 B448     		ldr	r0, .L836+4
 5728 2658 FFF7FEFF 		bl	e_send_uart2_char
 5729              	.LVL546:
 5730              	.L342:
 5731              		.loc 1 1284 0 is_stmt 0 discriminator 2
 5732 265c FFF7FEFF 		bl	e_uart2_sending
 5733              	.LVL547:
 5734 2660 0028     		cmp	r0, #0
 5735 2662 FBD1     		bne	.L342
 5736              		.loc 1 1285 0 is_stmt 1
 5737 2664 1D21     		movs	r1, #29
 5738 2666 B148     		ldr	r0, .L836+8
 5739 2668 FFF7FEFF 		bl	e_send_uart2_char
 5740              	.LVL548:
 5741              	.L343:
 5742              		.loc 1 1285 0 is_stmt 0 discriminator 2
 5743 266c FFF7FEFF 		bl	e_uart2_sending
 5744              	.LVL549:
 5745 2670 0028     		cmp	r0, #0
 5746 2672 FBD1     		bne	.L343
 5747              		.loc 1 1286 0 is_stmt 1
 5748 2674 2621     		movs	r1, #38
 5749 2676 AE48     		ldr	r0, .L836+12
 5750 2678 FFF7FEFF 		bl	e_send_uart2_char
 5751              	.LVL550:
 5752              	.L344:
 5753              		.loc 1 1286 0 is_stmt 0 discriminator 2
 5754 267c FFF7FEFF 		bl	e_uart2_sending
 5755              	.LVL551:
 5756 2680 0028     		cmp	r0, #0
 5757 2682 FBD1     		bne	.L344
ARM GAS  /tmp/ccZueut9.s 			page 102


 5758              		.loc 1 1287 0 is_stmt 1
 5759 2684 2621     		movs	r1, #38
 5760 2686 AB48     		ldr	r0, .L836+16
 5761 2688 FFF7FEFF 		bl	e_send_uart2_char
 5762              	.LVL552:
 5763              	.L345:
 5764              		.loc 1 1287 0 is_stmt 0 discriminator 2
 5765 268c FFF7FEFF 		bl	e_uart2_sending
 5766              	.LVL553:
 5767 2690 0028     		cmp	r0, #0
 5768 2692 FBD1     		bne	.L345
 5769              		.loc 1 1288 0 is_stmt 1
 5770 2694 2C21     		movs	r1, #44
 5771 2696 A848     		ldr	r0, .L836+20
 5772 2698 FFF7FEFF 		bl	e_send_uart2_char
 5773              	.LVL554:
 5774              	.L346:
 5775              		.loc 1 1288 0 is_stmt 0 discriminator 2
 5776 269c FFF7FEFF 		bl	e_uart2_sending
 5777              	.LVL555:
 5778 26a0 0028     		cmp	r0, #0
 5779 26a2 FBD1     		bne	.L346
 5780              		.loc 1 1290 0 is_stmt 1
 5781 26a4 1721     		movs	r1, #23
 5782 26a6 A548     		ldr	r0, .L836+24
 5783 26a8 FFF7FEFF 		bl	e_send_uart2_char
 5784              	.LVL556:
 5785              	.L347:
 5786              		.loc 1 1290 0 is_stmt 0 discriminator 2
 5787 26ac FFF7FEFF 		bl	e_uart2_sending
 5788              	.LVL557:
 5789 26b0 0028     		cmp	r0, #0
 5790 26b2 FBD1     		bne	.L347
 5791              		.loc 1 1292 0 is_stmt 1
 5792 26b4 1021     		movs	r1, #16
 5793 26b6 A248     		ldr	r0, .L836+28
 5794 26b8 FFF7FEFF 		bl	e_send_uart2_char
 5795              	.LVL558:
 5796              	.L348:
 5797              		.loc 1 1292 0 is_stmt 0 discriminator 2
 5798 26bc FFF7FEFF 		bl	e_uart2_sending
 5799              	.LVL559:
 5800 26c0 0028     		cmp	r0, #0
 5801 26c2 FBD1     		bne	.L348
 5802              		.loc 1 1293 0 is_stmt 1
 5803 26c4 2221     		movs	r1, #34
 5804 26c6 9F48     		ldr	r0, .L836+32
 5805 26c8 FFF7FEFF 		bl	e_send_uart2_char
 5806              	.LVL560:
 5807              	.L349:
 5808              		.loc 1 1293 0 is_stmt 0 discriminator 2
 5809 26cc FFF7FEFF 		bl	e_uart2_sending
 5810              	.LVL561:
 5811 26d0 0028     		cmp	r0, #0
 5812 26d2 FBD1     		bne	.L349
 5813              		.loc 1 1294 0 is_stmt 1
 5814 26d4 4D21     		movs	r1, #77
ARM GAS  /tmp/ccZueut9.s 			page 103


 5815 26d6 9C48     		ldr	r0, .L836+36
 5816 26d8 FFF7FEFF 		bl	e_send_uart2_char
 5817              	.LVL562:
 5818              	.L350:
 5819              		.loc 1 1294 0 is_stmt 0 discriminator 2
 5820 26dc FFF7FEFF 		bl	e_uart2_sending
 5821              	.LVL563:
 5822 26e0 0028     		cmp	r0, #0
 5823 26e2 FBD1     		bne	.L350
 5824              		.loc 1 1295 0 is_stmt 1
 5825 26e4 2721     		movs	r1, #39
 5826 26e6 9948     		ldr	r0, .L836+40
 5827 26e8 FFF7FEFF 		bl	e_send_uart2_char
 5828              	.LVL564:
 5829              	.L351:
 5830              		.loc 1 1295 0 is_stmt 0 discriminator 2
 5831 26ec FFF7FEFF 		bl	e_uart2_sending
 5832              	.LVL565:
 5833 26f0 0028     		cmp	r0, #0
 5834 26f2 FBD1     		bne	.L351
 5835              		.loc 1 1296 0 is_stmt 1
 5836 26f4 2B21     		movs	r1, #43
 5837 26f6 9648     		ldr	r0, .L836+44
 5838 26f8 FFF7FEFF 		bl	e_send_uart2_char
 5839              	.LVL566:
 5840              	.L352:
 5841              		.loc 1 1296 0 is_stmt 0 discriminator 2
 5842 26fc FFF7FEFF 		bl	e_uart2_sending
 5843              	.LVL567:
 5844 2700 0028     		cmp	r0, #0
 5845 2702 FBD1     		bne	.L352
 5846              		.loc 1 1298 0 is_stmt 1
 5847 2704 1921     		movs	r1, #25
 5848 2706 9348     		ldr	r0, .L836+48
 5849 2708 FFF7FEFF 		bl	e_send_uart2_char
 5850              	.LVL568:
 5851              	.L353:
 5852              		.loc 1 1298 0 is_stmt 0 discriminator 2
 5853 270c FFF7FEFF 		bl	e_uart2_sending
 5854              	.LVL569:
 5855 2710 0028     		cmp	r0, #0
 5856 2712 FBD1     		bne	.L353
 5857              		.loc 1 1300 0 is_stmt 1
 5858 2714 1521     		movs	r1, #21
 5859 2716 9048     		ldr	r0, .L836+52
 5860 2718 FFF7FEFF 		bl	e_send_uart2_char
 5861              	.LVL570:
 5862              	.L354:
 5863              		.loc 1 1300 0 is_stmt 0 discriminator 2
 5864 271c FFF7FEFF 		bl	e_uart2_sending
 5865              	.LVL571:
 5866 2720 0028     		cmp	r0, #0
 5867 2722 FBD1     		bne	.L354
 5868              		.loc 1 1301 0 is_stmt 1
 5869 2724 1921     		movs	r1, #25
 5870 2726 8D48     		ldr	r0, .L836+56
 5871 2728 FFF7FEFF 		bl	e_send_uart2_char
ARM GAS  /tmp/ccZueut9.s 			page 104


 5872              	.LVL572:
 5873              	.L355:
 5874              		.loc 1 1301 0 is_stmt 0 discriminator 2
 5875 272c FFF7FEFF 		bl	e_uart2_sending
 5876              	.LVL573:
 5877 2730 0028     		cmp	r0, #0
 5878 2732 FBD1     		bne	.L355
 5879              		.loc 1 1302 0 is_stmt 1
 5880 2734 2921     		movs	r1, #41
 5881 2736 8A48     		ldr	r0, .L836+60
 5882 2738 FFF7FEFF 		bl	e_send_uart2_char
 5883              	.LVL574:
 5884              	.L356:
 5885              		.loc 1 1302 0 is_stmt 0 discriminator 2
 5886 273c FFF7FEFF 		bl	e_uart2_sending
 5887              	.LVL575:
 5888 2740 0028     		cmp	r0, #0
 5889 2742 FBD1     		bne	.L356
 5890              		.loc 1 1303 0 is_stmt 1
 5891 2744 2921     		movs	r1, #41
 5892 2746 8748     		ldr	r0, .L836+64
 5893 2748 FFF7FEFF 		bl	e_send_uart2_char
 5894              	.LVL576:
 5895              	.L357:
 5896              		.loc 1 1303 0 is_stmt 0 discriminator 2
 5897 274c FFF7FEFF 		bl	e_uart2_sending
 5898              	.LVL577:
 5899 2750 0028     		cmp	r0, #0
 5900 2752 FBD1     		bne	.L357
 5901              		.loc 1 1304 0 is_stmt 1
 5902 2754 1821     		movs	r1, #24
 5903 2756 8448     		ldr	r0, .L836+68
 5904 2758 FFF7FEFF 		bl	e_send_uart2_char
 5905              	.LVL578:
 5906              	.L358:
 5907              		.loc 1 1304 0 is_stmt 0 discriminator 2
 5908 275c FFF7FEFF 		bl	e_uart2_sending
 5909              	.LVL579:
 5910 2760 0028     		cmp	r0, #0
 5911 2762 FBD1     		bne	.L358
 5912              		.loc 1 1305 0 is_stmt 1
 5913 2764 2921     		movs	r1, #41
 5914 2766 8148     		ldr	r0, .L836+72
 5915 2768 FFF7FEFF 		bl	e_send_uart2_char
 5916              	.LVL580:
 5917              	.L359:
 5918              		.loc 1 1305 0 is_stmt 0 discriminator 2
 5919 276c FFF7FEFF 		bl	e_uart2_sending
 5920              	.LVL581:
 5921 2770 0028     		cmp	r0, #0
 5922 2772 FBD1     		bne	.L359
 5923              		.loc 1 1306 0 is_stmt 1
 5924 2774 2C21     		movs	r1, #44
 5925 2776 7E48     		ldr	r0, .L836+76
 5926 2778 FFF7FEFF 		bl	e_send_uart2_char
 5927              	.LVL582:
 5928              	.L360:
ARM GAS  /tmp/ccZueut9.s 			page 105


 5929              		.loc 1 1306 0 is_stmt 0 discriminator 2
 5930 277c FFF7FEFF 		bl	e_uart2_sending
 5931              	.LVL583:
 5932 2780 0028     		cmp	r0, #0
 5933 2782 FBD1     		bne	.L360
 5934              		.loc 1 1307 0 is_stmt 1
 5935 2784 2421     		movs	r1, #36
 5936 2786 7B48     		ldr	r0, .L836+80
 5937 2788 FFF7FEFF 		bl	e_send_uart2_char
 5938              	.LVL584:
 5939              	.L361:
 5940              		.loc 1 1307 0 is_stmt 0 discriminator 2
 5941 278c FFF7FEFF 		bl	e_uart2_sending
 5942              	.LVL585:
 5943 2790 0028     		cmp	r0, #0
 5944 2792 FBD1     		bne	.L361
 5945              		.loc 1 1308 0 is_stmt 1
 5946 2794 1D21     		movs	r1, #29
 5947 2796 7848     		ldr	r0, .L836+84
 5948 2798 FFF7FEFF 		bl	e_send_uart2_char
 5949              	.LVL586:
 5950              	.L362:
 5951              		.loc 1 1308 0 is_stmt 0 discriminator 2
 5952 279c FFF7FEFF 		bl	e_uart2_sending
 5953              	.LVL587:
 5954 27a0 0028     		cmp	r0, #0
 5955 27a2 FBD1     		bne	.L362
 5956              		.loc 1 1309 0 is_stmt 1
 5957 27a4 2521     		movs	r1, #37
 5958 27a6 7548     		ldr	r0, .L836+88
 5959 27a8 FFF7FEFF 		bl	e_send_uart2_char
 5960              	.LVL588:
 5961              	.L363:
 5962              		.loc 1 1309 0 is_stmt 0 discriminator 2
 5963 27ac FFF7FEFF 		bl	e_uart2_sending
 5964              	.LVL589:
 5965 27b0 0028     		cmp	r0, #0
 5966 27b2 FBD1     		bne	.L363
 5967              		.loc 1 1310 0 is_stmt 1
 5968 27b4 2421     		movs	r1, #36
 5969 27b6 7248     		ldr	r0, .L836+92
 5970 27b8 FFF7FEFF 		bl	e_send_uart2_char
 5971              	.LVL590:
 5972              	.L364:
 5973              		.loc 1 1310 0 is_stmt 0 discriminator 2
 5974 27bc FFF7FEFF 		bl	e_uart2_sending
 5975              	.LVL591:
 5976 27c0 0028     		cmp	r0, #0
 5977 27c2 FBD1     		bne	.L364
 5978 27c4 FDF7F6BC 		b	.L732
 5979              	.L415:
 5980              		.loc 1 1514 0 is_stmt 1
 5981 27c8 FFF7FEFF 		bl	e_send_uart2_char
 5982              	.LVL592:
 5983              	.L417:
 5984              		.loc 1 1514 0 is_stmt 0 discriminator 2
 5985 27cc FFF7FEFF 		bl	e_uart2_sending
ARM GAS  /tmp/ccZueut9.s 			page 106


 5986              	.LVL593:
 5987 27d0 0028     		cmp	r0, #0
 5988 27d2 FBD1     		bne	.L417
 5989 27d4 FDF7EEBC 		b	.L732
 5990              	.L437:
 5991              		.loc 1 1580 0 is_stmt 1
 5992 27d8 FFF7FEFF 		bl	strlen
 5993              	.LVL594:
 5994 27dc 0146     		mov	r1, r0
 5995 27de 6948     		ldr	r0, .L836+96
 5996 27e0 FFF7FEFF 		bl	e_send_uart2_char
 5997              	.LVL595:
 5998              	.L440:
 5999              		.loc 1 1580 0 is_stmt 0 discriminator 2
 6000 27e4 FFF7FEFF 		bl	e_uart2_sending
 6001              	.LVL596:
 6002 27e8 0028     		cmp	r0, #0
 6003 27ea FBD1     		bne	.L440
 6004              		.loc 1 1582 0 is_stmt 1
 6005 27ec FFF7FEFF 		bl	e_i2cp_enable
 6006              	.LVL597:
 6007              		.loc 1 1583 0
 6008 27f0 654B     		ldr	r3, .L836+100
 6009 27f2 1978     		ldrb	r1, [r3]	@ zero_extendqisi2
 6010 27f4 654B     		ldr	r3, .L836+104
 6011 27f6 1878     		ldrb	r0, [r3]	@ zero_extendqisi2
 6012 27f8 FFF7FEFF 		bl	e_i2cp_read
 6013              	.LVL598:
 6014 27fc 644B     		ldr	r3, .L836+108
 6015 27fe 1C46     		mov	r4, r3
 6016 2800 1860     		str	r0, [r3]
 6017              		.loc 1 1584 0
 6018 2802 FFF7FEFF 		bl	e_i2cp_disable
 6019              	.LVL599:
 6020              		.loc 1 1585 0
 6021 2806 6349     		ldr	r1, .L836+112
 6022 2808 2268     		ldr	r2, [r4]
 6023 280a 5E48     		ldr	r0, .L836+96
 6024 280c FFF7FEFF 		bl	sprintf
 6025              	.LVL600:
 6026              		.loc 1 1589 0
 6027 2810 5C48     		ldr	r0, .L836+96
 6028 2812 FFF7FEFF 		bl	strlen
 6029              	.LVL601:
 6030 2816 0146     		mov	r1, r0
 6031 2818 5A48     		ldr	r0, .L836+96
 6032 281a FFF7FEFF 		bl	e_send_uart2_char
 6033              	.LVL602:
 6034              	.L443:
 6035              		.loc 1 1589 0 is_stmt 0 discriminator 2
 6036 281e FFF7FEFF 		bl	e_uart2_sending
 6037              	.LVL603:
 6038 2822 0028     		cmp	r0, #0
 6039 2824 FBD1     		bne	.L443
 6040 2826 FDF7C5BC 		b	.L732
 6041              	.L368:
 6042              		.loc 1 1331 0 is_stmt 1
ARM GAS  /tmp/ccZueut9.s 			page 107


 6043 282a 109B     		ldr	r3, [sp, #64]
 6044 282c 1A68     		ldr	r2, [r3]
 6045 282e 119B     		ldr	r3, [sp, #68]
 6046 2830 1B68     		ldr	r3, [r3]
 6047 2832 03FB02F3 		mul	r3, r3, r2
 6048 2836 0E9A     		ldr	r2, [sp, #56]
 6049 2838 5B00     		lsls	r3, r3, #1
 6050 283a 1360     		str	r3, [r2]
 6051 283c FFF70CB9 		b	.L369
 6052              	.L388:
 6053              		.loc 1 1397 0
 6054 2840 FFF7FEFF 		bl	strlen
 6055              	.LVL604:
 6056 2844 0146     		mov	r1, r0
 6057 2846 4F48     		ldr	r0, .L836+96
 6058 2848 FFF7FEFF 		bl	e_send_uart2_char
 6059              	.LVL605:
 6060              	.L390:
 6061              		.loc 1 1397 0 is_stmt 0 discriminator 2
 6062 284c FFF7FEFF 		bl	e_uart2_sending
 6063              	.LVL606:
 6064 2850 0028     		cmp	r0, #0
 6065 2852 FBD1     		bne	.L390
 6066 2854 FDF7AEBC 		b	.L732
 6067              	.L434:
 6068              		.loc 1 1569 0 is_stmt 1
 6069 2858 FFF7FEFF 		bl	e_send_uart2_char
 6070              	.LVL607:
 6071              	.L436:
 6072              		.loc 1 1569 0 is_stmt 0 discriminator 2
 6073 285c FFF7FEFF 		bl	e_uart2_sending
 6074              	.LVL608:
 6075 2860 0028     		cmp	r0, #0
 6076 2862 FBD1     		bne	.L436
 6077 2864 FDF7A6BC 		b	.L732
 6078              	.L365:
 6079              		.loc 1 1319 0 is_stmt 1
 6080 2868 FFF7FEFF 		bl	strlen
 6081              	.LVL609:
 6082 286c 0146     		mov	r1, r0
 6083 286e 4548     		ldr	r0, .L836+96
 6084 2870 FFF7FEFF 		bl	e_send_uart2_char
 6085              	.LVL610:
 6086              	.L367:
 6087              		.loc 1 1319 0 is_stmt 0 discriminator 2
 6088 2874 FFF7FEFF 		bl	e_uart2_sending
 6089              	.LVL611:
 6090 2878 0028     		cmp	r0, #0
 6091 287a FBD1     		bne	.L367
 6092 287c FDF79ABC 		b	.L732
 6093              	.L407:
 6094              		.loc 1 1504 0 is_stmt 1
 6095 2880 FFF7FEFF 		bl	e_close_sound
 6096              	.LVL612:
 6097              		.loc 1 1505 0
 6098 2884 FFF7FEFF 		bl	stopCurrentMelody
 6099              	.LVL613:
ARM GAS  /tmp/ccZueut9.s 			page 108


 6100              		.loc 1 1506 0
 6101 2888 434A     		ldr	r2, .L836+116
 6102 288a 0023     		movs	r3, #0
 6103 288c 1370     		strb	r3, [r2]
 6104              		.loc 1 1507 0
 6105 288e FFF7C2BA 		b	.L414
 6106              	.L374:
 6107              		.loc 1 1350 0
 6108 2892 FFF7FEFF 		bl	e_send_uart2_char
 6109              	.LVL614:
 6110              	.L376:
 6111              		.loc 1 1350 0 is_stmt 0 discriminator 2
 6112 2896 FFF7FEFF 		bl	e_uart2_sending
 6113              	.LVL615:
 6114 289a 0028     		cmp	r0, #0
 6115 289c FBD1     		bne	.L376
 6116 289e FDF789BC 		b	.L732
 6117              	.L305:
 6118              		.loc 1 1240 0 is_stmt 1
 6119 28a2 2F21     		movs	r1, #47
 6120 28a4 3D48     		ldr	r0, .L836+120
 6121 28a6 FFF7FEFF 		bl	e_send_uart1_char
 6122              	.LVL616:
 6123              	.L308:
 6124              		.loc 1 1240 0 is_stmt 0 discriminator 2
 6125 28aa FFF7FEFF 		bl	e_uart1_sending
 6126              	.LVL617:
 6127 28ae 0028     		cmp	r0, #0
 6128 28b0 FBD1     		bne	.L308
 6129 28b2 FFF7CEB9 		b	.L307
 6130              	.L338:
 6131              		.loc 1 1282 0 is_stmt 1
 6132 28b6 2721     		movs	r1, #39
 6133 28b8 3948     		ldr	r0, .L836+124
 6134 28ba FFF7FEFF 		bl	e_send_uart2_char
 6135              	.LVL618:
 6136              	.L341:
 6137              		.loc 1 1282 0 is_stmt 0 discriminator 2
 6138 28be FFF7FEFF 		bl	e_uart2_sending
 6139              	.LVL619:
 6140 28c2 0028     		cmp	r0, #0
 6141 28c4 FBD1     		bne	.L341
 6142 28c6 C5E6     		b	.L340
 6143              	.L810:
 6144              		.loc 1 1277 0 is_stmt 1
 6145 28c8 1921     		movs	r1, #25
 6146 28ca 3648     		ldr	r0, .L836+128
 6147 28cc FFF7FEFF 		bl	e_send_uart2_char
 6148              	.LVL620:
 6149              	.L337:
 6150              		.loc 1 1277 0 is_stmt 0 discriminator 2
 6151 28d0 FFF7FEFF 		bl	e_uart2_sending
 6152              	.LVL621:
 6153 28d4 0028     		cmp	r0, #0
 6154 28d6 FBD1     		bne	.L337
 6155 28d8 AFE6     		b	.L336
 6156              	.L809:
ARM GAS  /tmp/ccZueut9.s 			page 109


 6157              		.loc 1 1268 0 is_stmt 1
 6158 28da 1F21     		movs	r1, #31
 6159 28dc 3248     		ldr	r0, .L836+132
 6160 28de FFF7FEFF 		bl	e_send_uart1_char
 6161              	.LVL622:
 6162              	.L330:
 6163              		.loc 1 1268 0 is_stmt 0 discriminator 2
 6164 28e2 FFF7FEFF 		bl	e_uart1_sending
 6165              	.LVL623:
 6166 28e6 0028     		cmp	r0, #0
 6167 28e8 FBD1     		bne	.L330
 6168 28ea FFF74CBA 		b	.L329
 6169              	.L808:
 6170              		.loc 1 1250 0 is_stmt 1
 6171 28ee 1821     		movs	r1, #24
 6172 28f0 2E48     		ldr	r0, .L836+136
 6173 28f2 FFF7FEFF 		bl	e_send_uart1_char
 6174              	.LVL624:
 6175              	.L315:
 6176              		.loc 1 1250 0 is_stmt 0 discriminator 2
 6177 28f6 FFF7FEFF 		bl	e_uart1_sending
 6178              	.LVL625:
 6179 28fa 0028     		cmp	r0, #0
 6180 28fc FBD1     		bne	.L315
 6181 28fe FFF7D5B9 		b	.L314
 6182              	.L268:
 6183              		.loc 1 1103 0 is_stmt 1
 6184 2902 FFF7FEFF 		bl	getBatteryValueRaw
 6185              	.LVL626:
 6186 2906 0446     		mov	r4, r0
 6187 2908 FFF7FEFF 		bl	getBatteryValuePercentage
 6188              	.LVL627:
 6189 290c 2246     		mov	r2, r4
 6190 290e 0346     		mov	r3, r0
 6191 2910 2749     		ldr	r1, .L836+140
 6192 2912 1C48     		ldr	r0, .L836+96
 6193 2914 FFF7FEFF 		bl	sprintf
 6194              	.LVL628:
 6195              		.loc 1 1104 0
 6196 2918 BBF1000F 		cmp	fp, #0
 6197 291c 3FF410AD 		beq	.L458
 6198 2920 FDF7B8BB 		b	.L5
 6199              	.L837:
 6200              		.align	2
 6201              	.L836:
 6202 2924 00060000 		.word	.LC45
 6203 2928 44060000 		.word	.LC47
 6204 292c 70060000 		.word	.LC48
 6205 2930 90060000 		.word	.LC49
 6206 2934 B8060000 		.word	.LC50
 6207 2938 E0060000 		.word	.LC51
 6208 293c 10070000 		.word	.LC52
 6209 2940 28070000 		.word	.LC53
 6210 2944 3C070000 		.word	.LC54
 6211 2948 60070000 		.word	.LC55
 6212 294c B0070000 		.word	.LC56
 6213 2950 D8070000 		.word	.LC57
ARM GAS  /tmp/ccZueut9.s 			page 110


 6214 2954 04080000 		.word	.LC58
 6215 2958 20080000 		.word	.LC59
 6216 295c 38080000 		.word	.LC60
 6217 2960 54080000 		.word	.LC61
 6218 2964 80080000 		.word	.LC62
 6219 2968 AC080000 		.word	.LC63
 6220 296c C8080000 		.word	.LC64
 6221 2970 F4080000 		.word	.LC65
 6222 2974 24090000 		.word	.LC66
 6223 2978 4C090000 		.word	.LC67
 6224 297c 6C090000 		.word	.LC68
 6225 2980 94090000 		.word	.LC69
 6226 2984 00000000 		.word	buffer
 6227 2988 00000000 		.word	.LANCHOR25
 6228 298c 00000000 		.word	.LANCHOR24
 6229 2990 00000000 		.word	.LANCHOR26
 6230 2994 5C0B0000 		.word	.LC96
 6231 2998 00000000 		.word	.LANCHOR8
 6232 299c 94010000 		.word	.LC19
 6233 29a0 1C060000 		.word	.LC46
 6234 29a4 E4050000 		.word	.LC44
 6235 29a8 14050000 		.word	.LC39
 6236 29ac A0020000 		.word	.LC25
 6237 29b0 78000000 		.word	.LC3
 6238              	.LVL629:
 6239              	.L461:
 6240              	.LBE7:
 6241              		.loc 1 105 0
 6242 29b4 0123     		movs	r3, #1
 6243 29b6 0793     		str	r3, [sp, #28]
 6244              	.LVL630:
 6245              	.L2:
 6246              		.loc 1 117 0
 6247 29b8 FFF7FEFF 		bl	e_i2cp_init
 6248              	.LVL631:
 6249              		.loc 1 133 0
 6250 29bc 2D4C     		ldr	r4, .L838
 6251              		.loc 1 135 0
 6252 29be 2E4E     		ldr	r6, .L838+4
 6253              		.loc 1 136 0
 6254 29c0 2E4F     		ldr	r7, .L838+8
 6255              		.loc 1 122 0
 6256 29c2 FFF7FEFF 		bl	e_init_remote_control
 6257              	.LVL632:
 6258              		.loc 1 130 0
 6259 29c6 0123     		movs	r3, #1
 6260 29c8 2D4A     		ldr	r2, .L838+12
 6261              		.loc 1 133 0
 6262 29ca 1294     		str	r4, [sp, #72]
 6263              		.loc 1 130 0
 6264 29cc 4FF6FE71 		movw	r1, #65534
 6265 29d0 7F20     		movs	r0, #127
 6266              		.loc 1 135 0
 6267 29d2 1096     		str	r6, [sp, #64]
 6268              		.loc 1 136 0
 6269 29d4 1197     		str	r7, [sp, #68]
 6270              		.loc 1 130 0
ARM GAS  /tmp/ccZueut9.s 			page 111


 6271 29d6 FFF7FEFF 		bl	ReadEE
 6272              	.LVL633:
 6273              		.loc 1 138 0
 6274 29da 2A4B     		ldr	r3, .L838+16
 6275              		.loc 1 140 0
 6276 29dc 2A4A     		ldr	r2, .L838+20
 6277              		.loc 1 138 0
 6278 29de 0E93     		str	r3, [sp, #56]
 6279              		.loc 1 133 0
 6280 29e0 0123     		movs	r3, #1
 6281              		.loc 1 137 0
 6282 29e2 2A48     		ldr	r0, .L838+24
 6283              		.loc 1 140 0
 6284 29e4 1268     		ldr	r2, [r2]
 6285              		.loc 1 133 0
 6286 29e6 2360     		str	r3, [r4]
 6287              		.loc 1 135 0
 6288 29e8 2823     		movs	r3, #40
 6289 29ea 3360     		str	r3, [r6]
 6290              		.loc 1 136 0
 6291 29ec 3B60     		str	r3, [r7]
 6292              		.loc 1 138 0
 6293 29ee 2549     		ldr	r1, .L838+16
 6294              		.loc 1 137 0
 6295 29f0 1390     		str	r0, [sp, #76]
 6296 29f2 0823     		movs	r3, #8
 6297 29f4 0360     		str	r3, [r0]
 6298              		.loc 1 140 0
 6299 29f6 0F2A     		cmp	r2, #15
 6300              		.loc 1 138 0
 6301 29f8 4FF44863 		mov	r3, #3200
 6302              		.loc 1 137 0
 6303 29fc 0546     		mov	r5, r0
 6304              		.loc 1 138 0
 6305 29fe 0B60     		str	r3, [r1]
 6306              		.loc 1 140 0
 6307 2a00 1AD0     		beq	.L4
 6308              		.loc 1 141 0
 6309 2a02 FFF7FEFF 		bl	e_poxxxx_init_cam
 6310              	.LVL634:
 6311              		.loc 1 142 0
 6312 2a06 2D68     		ldr	r5, [r5]
 6313 2a08 3268     		ldr	r2, [r6]
 6314 2a0a 3B68     		ldr	r3, [r7]
 6315 2a0c 2468     		ldr	r4, [r4]
 6316 2a0e 0294     		str	r4, [sp, #8]
 6317 2a10 02FB05F2 		mul	r2, r2, r5
 6318 2a14 03FB05F3 		mul	r3, r3, r5
 6319 2a18 C3F5F071 		rsb	r1, r3, #480
 6320 2a1c C2F52070 		rsb	r0, r2, #640
 6321 2a20 01EBD171 		add	r1, r1, r1, lsr #31
 6322 2a24 00EBD070 		add	r0, r0, r0, lsr #31
 6323 2a28 4910     		asrs	r1, r1, #1
 6324 2a2a 0195     		str	r5, [sp, #4]
 6325 2a2c 0095     		str	r5, [sp]
 6326 2a2e 4010     		asrs	r0, r0, #1
 6327 2a30 FFF7FEFF 		bl	e_poxxxx_config_cam
ARM GAS  /tmp/ccZueut9.s 			page 112


 6328              	.LVL635:
 6329              		.loc 1 143 0
 6330 2a34 FFF7FEFF 		bl	e_poxxxx_write_cam_registers
 6331              	.LVL636:
 6332              	.L4:
 6333              		.loc 1 151 0
 6334 2a38 079B     		ldr	r3, [sp, #28]
 6335 2a3a 63B1     		cbz	r3, .L811
 6336              		.loc 1 152 0
 6337 2a3c FFF7FEFF 		bl	e_acc_calibr
 6338              	.LVL637:
 6339              		.loc 1 153 0
 6340 2a40 5821     		movs	r1, #88
 6341 2a42 1348     		ldr	r0, .L838+28
 6342 2a44 FFF7FEFF 		bl	e_send_uart1_char
 6343              	.LVL638:
 6344              	.L6:
 6345              		.loc 1 153 0 is_stmt 0 discriminator 2
 6346 2a48 FFF7FEFF 		bl	e_uart1_sending
 6347              	.LVL639:
 6348 2a4c 0028     		cmp	r0, #0
 6349 2a4e FBD1     		bne	.L6
 6350              		.loc 1 112 0 is_stmt 1
 6351 2a50 8346     		mov	fp, r0
 6352 2a52 FDF715BB 		b	.L7
 6353              	.L811:
 6354              		.loc 1 157 0
 6355 2a56 FFF7FEFF 		bl	e_acc_calibr
 6356              	.LVL640:
 6357              		.loc 1 158 0
 6358 2a5a 5821     		movs	r1, #88
 6359 2a5c 0C48     		ldr	r0, .L838+28
 6360 2a5e FFF7FEFF 		bl	e_send_uart2_char
 6361              	.LVL641:
 6362              	.L8:
 6363              		.loc 1 158 0 is_stmt 0 discriminator 2
 6364 2a62 FFF7FEFF 		bl	e_uart2_sending
 6365              	.LVL642:
 6366 2a66 0790     		str	r0, [sp, #28]
 6367 2a68 0028     		cmp	r0, #0
 6368 2a6a FAD1     		bne	.L8
 6369              		.loc 1 112 0 is_stmt 1
 6370 2a6c 8346     		mov	fp, r0
 6371 2a6e FDF707BB 		b	.L7
 6372              	.L839:
 6373 2a72 00BF     		.align	2
 6374              	.L838:
 6375 2a74 00000000 		.word	.LANCHOR1
 6376 2a78 00000000 		.word	.LANCHOR2
 6377 2a7c 00000000 		.word	.LANCHOR3
 6378 2a80 00000000 		.word	.LANCHOR0
 6379 2a84 00000000 		.word	.LANCHOR5
 6380 2a88 00000000 		.word	selector
 6381 2a8c 00000000 		.word	.LANCHOR4
 6382 2a90 00000000 		.word	.LC0
 6383              		.cfi_endproc
 6384              	.LFE259:
ARM GAS  /tmp/ccZueut9.s 			page 113


 6385              		.size	run_asercom2, .-run_asercom2
 6386              		.section	.bss.LED_action.13457,"aw",%nobits
 6387              		.align	2
 6388              		.set	.LANCHOR27,. + 0
 6389              		.type	LED_action.13457, %object
 6390              		.size	LED_action.13457, 4
 6391              	LED_action.13457:
 6392 0000 00000000 		.space	4
 6393              		.section	.bss.LED_nbr.13456,"aw",%nobits
 6394              		.align	2
 6395              		.set	.LANCHOR30,. + 0
 6396              		.type	LED_nbr.13456, %object
 6397              		.size	LED_nbr.13456, 4
 6398              	LED_nbr.13456:
 6399 0000 00000000 		.space	4
 6400              		.section	.bss.accelero.13481,"aw",%nobits
 6401              		.align	2
 6402              		.set	.LANCHOR13,. + 0
 6403              		.type	accelero.13481, %object
 6404              		.size	accelero.13481, 12
 6405              	accelero.13481:
 6406 0000 00000000 		.space	12
 6406      00000000 
 6406      00000000 
 6407              		.section	.bss.accx.13458,"aw",%nobits
 6408              		.align	2
 6409              		.set	.LANCHOR10,. + 0
 6410              		.type	accx.13458, %object
 6411              		.size	accx.13458, 4
 6412              	accx.13458:
 6413 0000 00000000 		.space	4
 6414              		.section	.bss.accy.13459,"aw",%nobits
 6415              		.align	2
 6416              		.set	.LANCHOR11,. + 0
 6417              		.type	accy.13459, %object
 6418              		.size	accy.13459, 4
 6419              	accy.13459:
 6420 0000 00000000 		.space	4
 6421              		.section	.bss.accz.13460,"aw",%nobits
 6422              		.align	2
 6423              		.set	.LANCHOR12,. + 0
 6424              		.type	accz.13460, %object
 6425              		.size	accz.13460, 4
 6426              	accz.13460:
 6427 0000 00000000 		.space	4
 6428              		.section	.bss.c1.13446,"aw",%nobits
 6429              		.set	.LANCHOR19,. + 0
 6430              		.type	c1.13446, %object
 6431              		.size	c1.13446, 1
 6432              	c1.13446:
 6433 0000 00       		.space	1
 6434              		.section	.bss.c2.13447,"aw",%nobits
 6435              		.set	.LANCHOR20,. + 0
 6436              		.type	c2.13447, %object
 6437              		.size	c2.13447, 1
 6438              	c2.13447:
 6439 0000 00       		.space	1
ARM GAS  /tmp/ccZueut9.s 			page 114


 6440              		.section	.bss.cam_heigth.13467,"aw",%nobits
 6441              		.align	2
 6442              		.set	.LANCHOR3,. + 0
 6443              		.type	cam_heigth.13467, %object
 6444              		.size	cam_heigth.13467, 4
 6445              	cam_heigth.13467:
 6446 0000 00000000 		.space	4
 6447              		.section	.bss.cam_mode.13465,"aw",%nobits
 6448              		.align	2
 6449              		.set	.LANCHOR1,. + 0
 6450              		.type	cam_mode.13465, %object
 6451              		.size	cam_mode.13465, 4
 6452              	cam_mode.13465:
 6453 0000 00000000 		.space	4
 6454              		.section	.bss.cam_size.13469,"aw",%nobits
 6455              		.align	2
 6456              		.set	.LANCHOR5,. + 0
 6457              		.type	cam_size.13469, %object
 6458              		.size	cam_size.13469, 4
 6459              	cam_size.13469:
 6460 0000 00000000 		.space	4
 6461              		.section	.bss.cam_width.13466,"aw",%nobits
 6462              		.align	2
 6463              		.set	.LANCHOR2,. + 0
 6464              		.type	cam_width.13466, %object
 6465              		.size	cam_width.13466, 4
 6466              	cam_width.13466:
 6467 0000 00000000 		.space	4
 6468              		.section	.bss.cam_x1.13470,"aw",%nobits
 6469              		.align	2
 6470              		.set	.LANCHOR28,. + 0
 6471              		.type	cam_x1.13470, %object
 6472              		.size	cam_x1.13470, 4
 6473              	cam_x1.13470:
 6474 0000 00000000 		.space	4
 6475              		.section	.bss.cam_y1.13471,"aw",%nobits
 6476              		.align	2
 6477              		.set	.LANCHOR29,. + 0
 6478              		.type	cam_y1.13471, %object
 6479              		.size	cam_y1.13471, 4
 6480              	cam_y1.13471:
 6481 0000 00000000 		.space	4
 6482              		.section	.bss.cam_zoom.13468,"aw",%nobits
 6483              		.align	2
 6484              		.set	.LANCHOR4,. + 0
 6485              		.type	cam_zoom.13468, %object
 6486              		.size	cam_zoom.13468, 4
 6487              	cam_zoom.13468:
 6488 0000 00000000 		.space	4
 6489              		.section	.bss.first.13472,"aw",%nobits
 6490              		.set	.LANCHOR8,. + 0
 6491              		.type	first.13472, %object
 6492              		.size	first.13472, 1
 6493              	first.13472:
 6494 0000 00       		.space	1
 6495              		.section	.bss.gyrox.13462,"aw",%nobits
 6496              		.align	2
ARM GAS  /tmp/ccZueut9.s 			page 115


 6497              		.set	.LANCHOR16,. + 0
 6498              		.type	gyrox.13462, %object
 6499              		.size	gyrox.13462, 4
 6500              	gyrox.13462:
 6501 0000 00000000 		.space	4
 6502              		.section	.bss.gyroy.13463,"aw",%nobits
 6503              		.align	2
 6504              		.set	.LANCHOR15,. + 0
 6505              		.type	gyroy.13463, %object
 6506              		.size	gyroy.13463, 4
 6507              	gyroy.13463:
 6508 0000 00000000 		.space	4
 6509              		.section	.bss.gyroz.13464,"aw",%nobits
 6510              		.align	2
 6511              		.set	.LANCHOR14,. + 0
 6512              		.type	gyroz.13464, %object
 6513              		.size	gyroz.13464, 4
 6514              	gyroz.13464:
 6515 0000 00000000 		.space	4
 6516              		.section	.bss.i.13449,"aw",%nobits
 6517              		.align	2
 6518              		.set	.LANCHOR9,. + 0
 6519              		.type	i.13449, %object
 6520              		.size	i.13449, 4
 6521              	i.13449:
 6522 0000 00000000 		.space	4
 6523              		.section	.bss.j.13450,"aw",%nobits
 6524              		.align	2
 6525              		.set	.LANCHOR17,. + 0
 6526              		.type	j.13450, %object
 6527              		.size	j.13450, 4
 6528              	j.13450:
 6529 0000 00000000 		.space	4
 6530              		.section	.bss.mod.13475,"aw",%nobits
 6531              		.align	2
 6532              		.set	.LANCHOR24,. + 0
 6533              		.type	mod.13475, %object
 6534              		.size	mod.13475, 4
 6535              	mod.13475:
 6536 0000 00000000 		.space	4
 6537              		.section	.bss.positionl.13455,"aw",%nobits
 6538              		.align	2
 6539              		.set	.LANCHOR22,. + 0
 6540              		.type	positionl.13455, %object
 6541              		.size	positionl.13455, 4
 6542              	positionl.13455:
 6543 0000 00000000 		.space	4
 6544              		.section	.bss.positionr.13454,"aw",%nobits
 6545              		.align	2
 6546              		.set	.LANCHOR23,. + 0
 6547              		.type	positionr.13454, %object
 6548              		.size	positionr.13454, 4
 6549              	positionr.13454:
 6550 0000 00000000 		.space	4
 6551              		.section	.bss.reg.13476,"aw",%nobits
 6552              		.align	2
 6553              		.set	.LANCHOR25,. + 0
ARM GAS  /tmp/ccZueut9.s 			page 116


 6554              		.type	reg.13476, %object
 6555              		.size	reg.13476, 4
 6556              	reg.13476:
 6557 0000 00000000 		.space	4
 6558              		.section	.bss.rgb_value.13473,"aw",%nobits
 6559              		.align	2
 6560              		.set	.LANCHOR18,. + 0
 6561              		.type	rgb_value.13473, %object
 6562              		.size	rgb_value.13473, 12
 6563              	rgb_value.13473:
 6564 0000 00000000 		.space	12
 6564      00000000 
 6564      00000000 
 6565              		.section	.bss.sound.13461,"aw",%nobits
 6566              		.align	2
 6567              		.set	.LANCHOR31,. + 0
 6568              		.type	sound.13461, %object
 6569              		.size	sound.13461, 4
 6570              	sound.13461:
 6571 0000 00000000 		.space	4
 6572              		.section	.bss.speedl.13453,"aw",%nobits
 6573              		.align	2
 6574              		.set	.LANCHOR7,. + 0
 6575              		.type	speedl.13453, %object
 6576              		.size	speedl.13453, 4
 6577              	speedl.13453:
 6578 0000 00000000 		.space	4
 6579              		.section	.bss.speedr.13452,"aw",%nobits
 6580              		.align	2
 6581              		.set	.LANCHOR6,. + 0
 6582              		.type	speedr.13452, %object
 6583              		.size	speedr.13452, 4
 6584              	speedr.13452:
 6585 0000 00000000 		.space	4
 6586              		.section	.bss.val.13477,"aw",%nobits
 6587              		.align	2
 6588              		.set	.LANCHOR26,. + 0
 6589              		.type	val.13477, %object
 6590              		.size	val.13477, 4
 6591              	val.13477:
 6592 0000 00000000 		.space	4
 6593              		.section	.bss.wait_cam.13448,"aw",%nobits
 6594              		.set	.LANCHOR21,. + 0
 6595              		.type	wait_cam.13448, %object
 6596              		.size	wait_cam.13448, 1
 6597              	wait_cam.13448:
 6598 0000 00       		.space	1
 6599              		.section	.data.HWversion.13489,"aw",%progbits
 6600              		.align	2
 6601              		.set	.LANCHOR0,. + 0
 6602              		.type	HWversion.13489, %object
 6603              		.size	HWversion.13489, 4
 6604              	HWversion.13489:
 6605 0000 FFFF0000 		.word	65535
 6606              		.section	.rodata.run_asercom2.str1.4,"aMS",%progbits,1
 6607              		.align	2
 6608              	.LC0:
ARM GAS  /tmp/ccZueut9.s 			page 117


 6609 0000 0C075745 		.ascii	"\014\007WELCOME to the SerCom protocol on e-Puck\015"
 6609      4C434F4D 
 6609      4520746F 
 6609      20746865 
 6609      20536572 
 6610 002b 0A746865 		.ascii	"\012the EPFL education robot type \"H\" for help\015"
 6610      20455046 
 6610      4C206564 
 6610      75636174 
 6610      696F6E20 
 6611 0057 0A00     		.ascii	"\012\000"
 6612 0059 000000   		.space	3
 6613              	.LC1:
 6614 005c 612C2564 		.ascii	"a,%d,%d,%d\015\012\000"
 6614      2C25642C 
 6614      25640D0A 
 6614      00
 6615 0069 000000   		.space	3
 6616              	.LC2:
 6617 006c 612C302C 		.ascii	"a,0,0,0\015\012\000"
 6617      302C300D 
 6617      0A00
 6618 0076 0000     		.space	2
 6619              	.LC3:
 6620 0078 622C2564 		.ascii	"b,%d (%d%%)\015\012\000"
 6620      20282564 
 6620      2525290D 
 6620      0A00
 6621 0086 0000     		.space	2
 6622              	.LC4:
 6623 0088 422C2564 		.ascii	"B,%d\015\000"
 6623      0D00
 6624 008e 0000     		.space	2
 6625              	.LC5:
 6626 0090 620D0A00 		.ascii	"b\015\012\000"
 6627              	.LC6:
 6628 0094 632C2564 		.ascii	"c,%d\015\012\000"
 6628      0D0A00
 6629 009b 00       		.space	1
 6630              	.LC7:
 6631 009c 442C2564 		.ascii	"D,%d,%d\015\000"
 6631      2C25640D 
 6631      00
 6632 00a5 000000   		.space	3
 6633              	.LC8:
 6634 00a8 640D0A00 		.ascii	"d\015\012\000"
 6635              	.LC9:
 6636 00ac 652C2564 		.ascii	"e,%d,%d\015\012\000"
 6636      2C25640D 
 6636      0A00
 6637 00b6 0000     		.space	2
 6638              	.LC10:
 6639 00b8 462C2564 		.ascii	"F,%d\015\000"
 6639      0D00
 6640 00be 0000     		.space	2
 6641              	.LC11:
 6642 00c0 660D0A00 		.ascii	"f\015\012\000"
ARM GAS  /tmp/ccZueut9.s 			page 118


 6643              	.LC12:
 6644 00c4 67204952 		.ascii	"g IR check : 0x%x, address : 0x%x, data : 0x%x\015\012"
 6644      20636865 
 6644      636B203A 
 6644      20307825 
 6644      782C2061 
 6645 00f4 00       		.ascii	"\000"
 6646 00f5 000000   		.space	3
 6647              	.LC13:
 6648 00f8 672C2564 		.ascii	"g,%d,%d,%d\015\012\000"
 6648      2C25642C 
 6648      25640D0A 
 6648      00
 6649 0105 000000   		.space	3
 6650              	.LC14:
 6651 0108 672C302C 		.ascii	"g,0,0,0\015\012\000"
 6651      302C300D 
 6651      0A00
 6652 0112 0000     		.space	2
 6653              	.LC15:
 6654 0114 0A00     		.ascii	"\012\000"
 6655 0116 0000     		.space	2
 6656              	.LC16:
 6657 0118 22412220 		.ascii	"\"A\"               Accelerometer\015\012\000"
 6657      20202020 
 6657      20202020 
 6657      20202020 
 6657      20204163 
 6658 013a 0000     		.space	2
 6659              	.LC17:
 6660 013c 22422C23 		.ascii	"\"B,#\"             Body led 0=off 1=on 2=inverse\015"
 6660      22202020 
 6660      20202020 
 6660      20202020 
 6660      2020426F 
 6661 016c 0A00     		.ascii	"\012\000"
 6662 016e 0000     		.space	2
 6663              	.LC18:
 6664 0170 22622220 		.ascii	"\"b\"               Battery value\015\012\000"
 6664      20202020 
 6664      20202020 
 6664      20202020 
 6664      20204261 
 6665 0192 0000     		.space	2
 6666              	.LC19:
 6667 0194 22622220 		.ascii	"\"b\"               Battery state (1=ok, 0=low)\015"
 6667      20202020 
 6667      20202020 
 6667      20202020 
 6667      20204261 
 6668 01c2 0A00     		.ascii	"\012\000"
 6669              	.LC20:
 6670 01c4 22432220 		.ascii	"\"C\"               Selector position\015\012\000"
 6670      20202020 
 6670      20202020 
 6670      20202020 
 6670      20205365 
ARM GAS  /tmp/ccZueut9.s 			page 119


 6671 01ea 0000     		.space	2
 6672              	.LC21:
 6673 01ec 22442C23 		.ascii	"\"D,#,#\"           Set motor speed left,right\015\012"
 6673      2C232220 
 6673      20202020 
 6673      20202020 
 6673      20205365 
 6674 021a 00       		.ascii	"\000"
 6675 021b 00       		.space	1
 6676              	.LC22:
 6677 021c 22452220 		.ascii	"\"E\"               Get motor speed left,right\015\012"
 6677      20202020 
 6677      20202020 
 6677      20202020 
 6677      20204765 
 6678 024a 00       		.ascii	"\000"
 6679 024b 00       		.space	1
 6680              	.LC23:
 6681 024c 22462C23 		.ascii	"\"F,#\"             Front led 0=off 1=on 2=inverse\015"
 6681      22202020 
 6681      20202020 
 6681      20202020 
 6681      20204672 
 6682 027d 0A00     		.ascii	"\012\000"
 6683 027f 00       		.space	1
 6684              	.LC24:
 6685 0280 22472220 		.ascii	"\"G\"               IR receiver\015\012\000"
 6685      20202020 
 6685      20202020 
 6685      20202020 
 6685      20204952 
 6686              	.LC25:
 6687 02a0 22672220 		.ascii	"\"g\"               Gyro\015\012\000"
 6687      20202020 
 6687      20202020 
 6687      20202020 
 6687      20204779 
 6688 02b9 000000   		.space	3
 6689              	.LC26:
 6690 02bc 22482220 		.ascii	"\"H\"               Help\015\012\000"
 6690      20202020 
 6690      20202020 
 6690      20202020 
 6690      20204865 
 6691 02d5 000000   		.space	3
 6692              	.LC27:
 6693 02d8 22492220 		.ascii	"\"I\"               Get camera parameter\015\012\000"
 6693      20202020 
 6693      20202020 
 6693      20202020 
 6693      20204765 
 6694 0301 000000   		.space	3
 6695              	.LC28:
 6696 0304 224A2C23 		.ascii	"\"J,#,#,#,#,#,#\"   Set camera parameter mode,width"
 6696      2C232C23 
 6696      2C232C23 
 6696      2C232220 
ARM GAS  /tmp/ccZueut9.s 			page 120


 6696      20205365 
 6697 0335 2C686569 		.ascii	",heigth,zoom(1,4 or 8),x1,y1\015\012\000"
 6697      6774682C 
 6697      7A6F6F6D 
 6697      28312C34 
 6697      206F7220 
 6698              	.LC29:
 6699 0354 224B2220 		.ascii	"\"K\"               Calibrate proximity sensors\015"
 6699      20202020 
 6699      20202020 
 6699      20202020 
 6699      20204361 
 6700 0382 0A00     		.ascii	"\012\000"
 6701              	.LC30:
 6702 0384 224C2C23 		.ascii	"\"L,#,#\"           Led number,0=off 1=on 2=inverse"
 6702      2C232220 
 6702      20202020 
 6702      20202020 
 6702      20204C65 
 6703 03b5 0D0A00   		.ascii	"\015\012\000"
 6704              	.LC31:
 6705 03b8 224D2220 		.ascii	"\"M\"               Floor sensors\015\012\000"
 6705      20202020 
 6705      20202020 
 6705      20202020 
 6705      2020466C 
 6706 03da 0000     		.space	2
 6707              	.LC32:
 6708 03dc 224E2220 		.ascii	"\"N\"               Proximity\015\012\000"
 6708      20202020 
 6708      20202020 
 6708      20202020 
 6708      20205072 
 6709 03fa 0000     		.space	2
 6710              	.LC33:
 6711 03fc 224F2220 		.ascii	"\"O\"               Light sensors\015\012\000"
 6711      20202020 
 6711      20202020 
 6711      20202020 
 6711      20204C69 
 6712 041e 0000     		.space	2
 6713              	.LC34:
 6714 0420 22502C23 		.ascii	"\"P,#,#\"           Set motor position left,right\015"
 6714      2C232220 
 6714      20202020 
 6714      20202020 
 6714      20205365 
 6715 0450 0A00     		.ascii	"\012\000"
 6716 0452 0000     		.space	2
 6717              	.LC35:
 6718 0454 22512220 		.ascii	"\"Q\"               Get motor position left,right\015"
 6718      20202020 
 6718      20202020 
 6718      20202020 
 6718      20204765 
 6719 0484 0A00     		.ascii	"\012\000"
 6720 0486 0000     		.space	2
ARM GAS  /tmp/ccZueut9.s 			page 121


 6721              	.LC36:
 6722 0488 22522220 		.ascii	"\"R\"               Reset e-puck\015\012\000"
 6722      20202020 
 6722      20202020 
 6722      20202020 
 6722      20205265 
 6723 04a9 000000   		.space	3
 6724              	.LC37:
 6725 04ac 22532220 		.ascii	"\"S\"               Stop e-puck and turn off leds\015"
 6725      20202020 
 6725      20202020 
 6725      20202020 
 6725      20205374 
 6726 04dc 0A00     		.ascii	"\012\000"
 6727 04de 0000     		.space	2
 6728              	.LC38:
 6729 04e0 22542C23 		.ascii	"\"T,#\"             Play sound 1-5 else stop sound\015"
 6729      22202020 
 6729      20202020 
 6729      20202020 
 6729      2020506C 
 6730 0511 0A00     		.ascii	"\012\000"
 6731 0513 00       		.space	1
 6732              	.LC39:
 6733 0514 22742220 		.ascii	"\"t\"               Temperature\015\012\000"
 6733      20202020 
 6733      20202020 
 6733      20202020 
 6733      20205465 
 6734              	.LC40:
 6735 0534 22552220 		.ascii	"\"U\"               Get microphone amplitude\015\012"
 6735      20202020 
 6735      20202020 
 6735      20202020 
 6735      20204765 
 6736 0560 00       		.ascii	"\000"
 6737 0561 000000   		.space	3
 6738              	.LC41:
 6739 0564 22562220 		.ascii	"\"V\"               Version of SerCom\015\012\000"
 6739      20202020 
 6739      20202020 
 6739      20202020 
 6739      20205665 
 6740 058a 0000     		.space	2
 6741              	.LC42:
 6742 058c 22572220 		.ascii	"\"W\"               Write I2C (mod,reg,val)\015\012"
 6742      20202020 
 6742      20202020 
 6742      20202020 
 6742      20205772 
 6743 05b7 00       		.ascii	"\000"
 6744              	.LC43:
 6745 05b8 22592220 		.ascii	"\"Y\"               Read I2C val=(mod,reg)\015\012\000"
 6745      20202020 
 6745      20202020 
 6745      20202020 
 6745      20205265 
ARM GAS  /tmp/ccZueut9.s 			page 122


 6746 05e3 00       		.space	1
 6747              	.LC44:
 6748 05e4 22412220 		.ascii	"\"A\"       Accelerometer\015\012\000"
 6748      20202020 
 6748      20204163 
 6748      63656C65 
 6748      726F6D65 
 6749 05fe 0000     		.space	2
 6750              	.LC45:
 6751 0600 22622220 		.ascii	"\"b\"       Battery value\015\012\000"
 6751      20202020 
 6751      20204261 
 6751      74746572 
 6751      79207661 
 6752 061a 0000     		.space	2
 6753              	.LC46:
 6754 061c 22622220 		.ascii	"\"b\"       Battery state (1=ok, 0=low)\015\012\000"
 6754      20202020 
 6754      20204261 
 6754      74746572 
 6754      79207374 
 6755              	.LC47:
 6756 0644 22422C23 		.ascii	"\"B,#\"       Body led 0=off 1=on 2=inverse\015\012"
 6756      22202020 
 6756      20202020 
 6756      426F6479 
 6756      206C6564 
 6757 066f 00       		.ascii	"\000"
 6758              	.LC48:
 6759 0670 22432220 		.ascii	"\"C\"       Selector position\015\012\000"
 6759      20202020 
 6759      20205365 
 6759      6C656374 
 6759      6F722070 
 6760 068e 0000     		.space	2
 6761              	.LC49:
 6762 0690 22442C23 		.ascii	"\"D,#,#\"   Set motor speed left,right\015\012\000"
 6762      2C232220 
 6762      20205365 
 6762      74206D6F 
 6762      746F7220 
 6763 06b7 00       		.space	1
 6764              	.LC50:
 6765 06b8 22452220 		.ascii	"\"E\"       Get motor speed left,right\015\012\000"
 6765      20202020 
 6765      20204765 
 6765      74206D6F 
 6765      746F7220 
 6766 06df 00       		.space	1
 6767              	.LC51:
 6768 06e0 22462C23 		.ascii	"\"F,#\"       Front led 0=off 1=on 2=inverse\015\012"
 6768      22202020 
 6768      20202020 
 6768      46726F6E 
 6768      74206C65 
 6769 070c 00       		.ascii	"\000"
 6770 070d 000000   		.space	3
ARM GAS  /tmp/ccZueut9.s 			page 123


 6771              	.LC52:
 6772 0710 22472220 		.ascii	"\"G\"       IR receiver\015\012\000"
 6772      20202020 
 6772      20204952 
 6772      20726563 
 6772      65697665 
 6773              	.LC53:
 6774 0728 22482220 		.ascii	"\"H\"       Help\015\012\000"
 6774      20202020 
 6774      20204865 
 6774      6C700D0A 
 6774      00
 6775 0739 000000   		.space	3
 6776              	.LC54:
 6777 073c 22492220 		.ascii	"\"I\"         Get camera parameter\015\012\000"
 6777      20202020 
 6777      20202020 
 6777      47657420 
 6777      63616D65 
 6778 075f 00       		.space	1
 6779              	.LC55:
 6780 0760 224A2C23 		.ascii	"\"J,#,#,#,#,#,#\" Set camera parameter mode,width,h"
 6780      2C232C23 
 6780      2C232C23 
 6780      2C232220 
 6780      53657420 
 6781 0791 65696774 		.ascii	"eigth,zoom(1,4 or 8),x1,y1\015\012\000"
 6781      682C7A6F 
 6781      6F6D2831 
 6781      2C34206F 
 6781      72203829 
 6782 07ae 0000     		.space	2
 6783              	.LC56:
 6784 07b0 224B2220 		.ascii	"\"K\"       Calibrate proximity sensors\015\012\000"
 6784      20202020 
 6784      20204361 
 6784      6C696272 
 6784      61746520 
 6785              	.LC57:
 6786 07d8 224C2C23 		.ascii	"\"L,#,#\"   Led number,0=off 1=on 2=inverse\015\012"
 6786      2C232220 
 6786      20204C65 
 6786      64206E75 
 6786      6D626572 
 6787 0803 00       		.ascii	"\000"
 6788              	.LC58:
 6789 0804 224D2220 		.ascii	"\"M\"       Floor sensors\015\012\000"
 6789      20202020 
 6789      2020466C 
 6789      6F6F7220 
 6789      73656E73 
 6790 081e 0000     		.space	2
 6791              	.LC59:
 6792 0820 224E2220 		.ascii	"\"N\"       Proximity\015\012\000"
 6792      20202020 
 6792      20205072 
 6792      6F78696D 
ARM GAS  /tmp/ccZueut9.s 			page 124


 6792      6974790D 
 6793 0836 0000     		.space	2
 6794              	.LC60:
 6795 0838 224F2220 		.ascii	"\"O\"       Light sensors\015\012\000"
 6795      20202020 
 6795      20204C69 
 6795      67687420 
 6795      73656E73 
 6796 0852 0000     		.space	2
 6797              	.LC61:
 6798 0854 22502C23 		.ascii	"\"P,#,#\"   Set motor position left,right\015\012\000"
 6798      2C232220 
 6798      20205365 
 6798      74206D6F 
 6798      746F7220 
 6799 087e 0000     		.space	2
 6800              	.LC62:
 6801 0880 22512220 		.ascii	"\"Q\"       Get motor position left,right\015\012\000"
 6801      20202020 
 6801      20204765 
 6801      74206D6F 
 6801      746F7220 
 6802 08aa 0000     		.space	2
 6803              	.LC63:
 6804 08ac 22522220 		.ascii	"\"R\"       Reset e-puck\015\012\000"
 6804      20202020 
 6804      20205265 
 6804      73657420 
 6804      652D7075 
 6805 08c5 000000   		.space	3
 6806              	.LC64:
 6807 08c8 22532220 		.ascii	"\"S\"       Stop e-puck and turn off leds\015\012\000"
 6807      20202020 
 6807      20205374 
 6807      6F702065 
 6807      2D707563 
 6808 08f2 0000     		.space	2
 6809              	.LC65:
 6810 08f4 22542C23 		.ascii	"\"T,#\"       Play sound 1-5 else stop sound\015\012"
 6810      22202020 
 6810      20202020 
 6810      506C6179 
 6810      20736F75 
 6811 0920 00       		.ascii	"\000"
 6812 0921 000000   		.space	3
 6813              	.LC66:
 6814 0924 22552220 		.ascii	"\"U\"       Get microphone amplitude\015\012\000"
 6814      20202020 
 6814      20204765 
 6814      74206D69 
 6814      63726F70 
 6815 0949 000000   		.space	3
 6816              	.LC67:
 6817 094c 22562220 		.ascii	"\"V\"       Version of SerCom\015\012\000"
 6817      20202020 
 6817      20205665 
 6817      7273696F 
ARM GAS  /tmp/ccZueut9.s 			page 125


 6817      6E206F66 
 6818 096a 0000     		.space	2
 6819              	.LC68:
 6820 096c 22572220 		.ascii	"\"W\"         Write I2C (mod,reg,val)\015\012\000"
 6820      20202020 
 6820      20202020 
 6820      57726974 
 6820      65204932 
 6821 0992 0000     		.space	2
 6822              	.LC69:
 6823 0994 22592220 		.ascii	"\"Y\"         Read I2C val=(mod,reg)\015\012\000"
 6823      20202020 
 6823      20202020 
 6823      52656164 
 6823      20493243 
 6824 09b9 000000   		.space	3
 6825              	.LC70:
 6826 09bc 692C2564 		.ascii	"i,%d,%d,%d,%d,%d\015\012\000"
 6826      2C25642C 
 6826      25642C25 
 6826      642C2564 
 6826      0D0A00
 6827 09cf 00       		.space	1
 6828              	.LC71:
 6829 09d0 4A2C2564 		.ascii	"J,%d,%d,%d,%d,%d,%d\015\000"
 6829      2C25642C 
 6829      25642C25 
 6829      642C2564 
 6829      2C25640D 
 6830 09e5 000000   		.space	3
 6831              	.LC72:
 6832 09e8 6A0D0A00 		.ascii	"j\015\012\000"
 6833              	.LC73:
 6834 09ec 6B2C2053 		.ascii	"k, Starting calibration - Remove any object in sens"
 6834      74617274 
 6834      696E6720 
 6834      63616C69 
 6834      62726174 
 6835 0a1f 6F727320 		.ascii	"ors range\015\012\000"
 6835      72616E67 
 6835      650D0A00 
 6836 0a2b 00       		.space	1
 6837              	.LC74:
 6838 0a2c 4C2C2564 		.ascii	"L,%d,%d\015\000"
 6838      2C25640D 
 6838      00
 6839 0a35 000000   		.space	3
 6840              	.LC75:
 6841 0a38 6C0D0A00 		.ascii	"l\015\012\000"
 6842              	.LC76:
 6843 0a3c 6D2C2564 		.ascii	"m,%d,%d,%d,%d,%d\015\012\000"
 6843      2C25642C 
 6843      25642C25 
 6843      642C2564 
 6843      0D0A00
 6844 0a4f 00       		.space	1
 6845              	.LC77:
ARM GAS  /tmp/ccZueut9.s 			page 126


 6846 0a50 6E2C2564 		.ascii	"n,%d,%d,%d,%d,%d,%d,%d,%d\015\012\000"
 6846      2C25642C 
 6846      25642C25 
 6846      642C2564 
 6846      2C25642C 
 6847              	.LC78:
 6848 0a6c 6F2C2564 		.ascii	"o,%d,%d,%d,%d,%d,%d,%d,%d\015\012\000"
 6848      2C25642C 
 6848      25642C25 
 6848      642C2564 
 6848      2C25642C 
 6849              	.LC79:
 6850 0a88 502C2564 		.ascii	"P,%d,%d\015\000"
 6850      2C25640D 
 6850      00
 6851 0a91 000000   		.space	3
 6852              	.LC80:
 6853 0a94 700D0A00 		.ascii	"p\015\012\000"
 6854              	.LC81:
 6855 0a98 712C2564 		.ascii	"q,%d,%d\015\012\000"
 6855      2C25640D 
 6855      0A00
 6856 0aa2 0000     		.space	2
 6857              	.LC82:
 6858 0aa4 730D0A00 		.ascii	"s\015\012\000"
 6859              	.LC83:
 6860 0aa8 542C2564 		.ascii	"T,%d\000"
 6860      00
 6861 0aad 000000   		.space	3
 6862              	.LC84:
 6863 0ab0 740D0A00 		.ascii	"t\015\012\000"
 6864              	.LC85:
 6865 0ab4 742C2564 		.ascii	"t,%d\015\012\000"
 6865      0D0A00
 6866 0abb 00       		.space	1
 6867              	.LC86:
 6868 0abc 742C300D 		.ascii	"t,0\015\012\000"
 6868      0A00
 6869 0ac2 0000     		.space	2
 6870              	.LC87:
 6871 0ac4 752C2564 		.ascii	"u,%d,%d,%d\015\012\000"
 6871      2C25642C 
 6871      25640D0A 
 6871      00
 6872 0ad1 000000   		.space	3
 6873              	.LC88:
 6874 0ad4 762C5665 		.ascii	"v,Version 2.0 January 2018 GCtronic\015\012\000"
 6874      7273696F 
 6874      6E20322E 
 6874      30204A61 
 6874      6E756172 
 6875 0afa 0000     		.space	2
 6876              	.LC89:
 6877 0afc 572C2564 		.ascii	"W,%d,%d,%d\015\000"
 6877      2C25642C 
 6877      25640D00 
 6878              	.LC90:
ARM GAS  /tmp/ccZueut9.s 			page 127


 6879 0b08 770D0A00 		.ascii	"w\015\012\000"
 6880              	.LC91:
 6881 0b0c 592C2564 		.ascii	"Y,%d,%d\015\000"
 6881      2C25640D 
 6881      00
 6882 0b15 000000   		.space	3
 6883              	.LC92:
 6884 0b18 792C2564 		.ascii	"y,%d,%d\015\012\000"
 6884      2C25640D 
 6884      0A00
 6885 0b22 0000     		.space	2
 6886              	.LC93:
 6887 0b24 25643A20 		.ascii	"%d: %d\015\012\000"
 6887      25640D0A 
 6887      00
 6888 0b2d 000000   		.space	3
 6889              	.LC94:
 6890 0b30 7A2C436F 		.ascii	"z,Command not found\015\012\000"
 6890      6D6D616E 
 6890      64206E6F 
 6890      7420666F 
 6890      756E640D 
 6891 0b46 0000     		.space	2
 6892              	.LC95:
 6893 0b48 48572076 		.ascii	"HW version: %X\015\012\000"
 6893      65727369 
 6893      6F6E3A20 
 6893      25580D0A 
 6893      00
 6894 0b59 000000   		.space	3
 6895              	.LC96:
 6896 0b5c 792C2564 		.ascii	"y,%d\015\012\000"
 6896      0D0A00
 6897 0b63 00       		.space	1
 6898              	.LC97:
 6899 0b64 6B2C2043 		.ascii	"k, Calibration finished\015\012\000"
 6899      616C6962 
 6899      72617469 
 6899      6F6E2066 
 6899      696E6973 
 6900              		.text
 6901              	.Letext0:
 6902              		.file 2 "/home/leander/uos_codes/epuck2_lab/Eclipse_e-puck2/Tools/gcc-arm-none-eabi-7-2017-q4-majo
 6903              		.file 3 "/home/leander/uos_codes/epuck2_lab/Eclipse_e-puck2/Tools/gcc-arm-none-eabi-7-2017-q4-majo
 6904              		.file 4 "/home/leander/uos_codes/epuck2_lab/Eclipse_e-puck2/Tools/gcc-arm-none-eabi-7-2017-q4-majo
 6905              		.file 5 "../e-puck2_main-processor/ChibiOS//os/rt/ports/ARMCMx/compilers/GCC/chtypes.h"
 6906              		.file 6 "../e-puck2_main-processor/ChibiOS//os/rt/include/chsystypes.h"
 6907              		.file 7 "../e-puck2_main-processor/ChibiOS//os/rt/include/chschd.h"
 6908              		.file 8 "../e-puck2_main-processor/ChibiOS//os/ext/CMSIS/include/core_cm4.h"
 6909              		.file 9 "../e-puck2_main-processor/ChibiOS//os/ext/CMSIS/ST/system_stm32f4xx.h"
 6910              		.file 10 "../e-puck2_main-processor/ChibiOS//os/ext/CMSIS/ST/stm32f407xx.h"
 6911              		.file 11 "../e-puck2_main-processor/ChibiOS//os/rt/ports/ARMCMx/chcore.h"
 6912              		.file 12 "../e-puck2_main-processor/ChibiOS//os/rt/ports/ARMCMx/chcore_v7m.h"
 6913              		.file 13 "../e-puck2_main-processor/ChibiOS//os/rt/include/chdebug.h"
 6914              		.file 14 "../e-puck2_main-processor/ChibiOS//os/rt/include/chtm.h"
 6915              		.file 15 "../e-puck2_main-processor/ChibiOS//os/rt/include/chstats.h"
 6916              		.file 16 "../e-puck2_main-processor/ChibiOS//os/rt/include/chsem.h"
ARM GAS  /tmp/ccZueut9.s 			page 128


 6917              		.file 17 "../e-puck2_main-processor/ChibiOS//os/rt/include/chmtx.h"
 6918              		.file 18 "../e-puck2_main-processor/ChibiOS//os/rt/include/chregistry.h"
 6919              		.file 19 "../e-puck2_main-processor/ChibiOS//os/rt/include/chevents.h"
 6920              		.file 20 "../e-puck2_main-processor/ChibiOS//os/rt/include/chqueues.h"
 6921              		.file 21 "../e-puck2_main-processor/ChibiOS//os/hal/ports/STM32/STM32F4xx/stm32_dma.h"
 6922              		.file 22 "../e-puck2_main-processor/ChibiOS//os/hal/include/hal_ioblock.h"
 6923              		.file 23 "../e-puck2_main-processor/ChibiOS//os/hal/ports/STM32/LLD/GPIOv2/pal_lld.h"
 6924              		.file 24 "../e-puck2_main-processor/ChibiOS//os/hal/include/adc.h"
 6925              		.file 25 "../e-puck2_main-processor/ChibiOS//os/hal/ports/STM32/STM32F4xx/adc_lld.h"
 6926              		.file 26 "../e-puck2_main-processor/ChibiOS//os/hal/include/can.h"
 6927              		.file 27 "../e-puck2_main-processor/ChibiOS//os/hal/ports/STM32/LLD/can_lld.h"
 6928              		.file 28 "../e-puck2_main-processor/ChibiOS//os/hal/include/dac.h"
 6929              		.file 29 "../e-puck2_main-processor/ChibiOS//os/hal/ports/STM32/LLD/DACv1/dac_lld.h"
 6930              		.file 30 "../e-puck2_main-processor/ChibiOS//os/hal/include/ext.h"
 6931              		.file 31 "../e-puck2_main-processor/ChibiOS//os/hal/ports/STM32/LLD/ext_lld.h"
 6932              		.file 32 "../e-puck2_main-processor/ChibiOS//os/hal/include/gpt.h"
 6933              		.file 33 "../e-puck2_main-processor/ChibiOS//os/hal/ports/STM32/LLD/TIMv1/gpt_lld.h"
 6934              		.file 34 "../e-puck2_main-processor/ChibiOS//os/hal/ports/STM32/LLD/TIMv1/stm32_tim.h"
 6935              		.file 35 "../e-puck2_main-processor/ChibiOS//os/hal/include/i2c.h"
 6936              		.file 36 "../e-puck2_main-processor/ChibiOS//os/hal/ports/STM32/LLD/I2Cv1/i2c_lld.h"
 6937              		.file 37 "../e-puck2_main-processor/ChibiOS//os/hal/include/i2s.h"
 6938              		.file 38 "../e-puck2_main-processor/ChibiOS//os/hal/ports/STM32/LLD/SPIv1/i2s_lld.h"
 6939              		.file 39 "../e-puck2_main-processor/ChibiOS//os/hal/include/pwm.h"
 6940              		.file 40 "../e-puck2_main-processor/ChibiOS//os/hal/ports/STM32/LLD/TIMv1/pwm_lld.h"
 6941              		.file 41 "../e-puck2_main-processor/ChibiOS//os/hal/include/serial.h"
 6942              		.file 42 "../e-puck2_main-processor/ChibiOS//os/hal/ports/STM32/LLD/USARTv1/serial_lld.h"
 6943              		.file 43 "../e-puck2_main-processor/ChibiOS//os/hal/include/sdc.h"
 6944              		.file 44 "../e-puck2_main-processor/ChibiOS//os/hal/ports/STM32/LLD/sdc_lld.h"
 6945              		.file 45 "../e-puck2_main-processor/ChibiOS//os/hal/include/spi.h"
 6946              		.file 46 "../e-puck2_main-processor/ChibiOS//os/hal/ports/STM32/LLD/SPIv1/spi_lld.h"
 6947              		.file 47 "../e-puck2_main-processor/ChibiOS//os/hal/include/usb.h"
 6948              		.file 48 "../e-puck2_main-processor/ChibiOS//os/hal/ports/STM32/LLD/OTGv1/usb_lld.h"
 6949              		.file 49 "../e-puck2_main-processor/ChibiOS//os/hal/ports/STM32/LLD/OTGv1/stm32_otg.h"
 6950              		.file 50 "../e-puck2_main-processor/ChibiOS//os/hal/include/serial_usb.h"
 6951              		.file 51 "../e-puck2_main-processor/src/epuck1x/../usbcfg.h"
 6952              		.file 52 "/home/leander/uos_codes/epuck2_lab/Eclipse_e-puck2/Tools/gcc-arm-none-eabi-7-2017-q4-maj
 6953              		.file 53 "/home/leander/uos_codes/epuck2_lab/Eclipse_e-puck2/Tools/gcc-arm-none-eabi-7-2017-q4-maj
 6954              		.file 54 "/home/leander/uos_codes/epuck2_lab/Eclipse_e-puck2/Tools/gcc-arm-none-eabi-7-2017-q4-maj
 6955              		.file 55 "../e-puck2_main-processor/src/msgbus/messagebus.h"
 6956              		.file 56 "/home/leander/uos_codes/epuck2_lab/Eclipse_e-puck2/Tools/gcc-arm-none-eabi-7-2017-q4-maj
 6957              		.file 57 "/home/leander/uos_codes/epuck2_lab/Eclipse_e-puck2/Tools/gcc-arm-none-eabi-7-2017-q4-maj
 6958              		.file 58 "../e-puck2_main-processor/src/parameter/parameter.h"
 6959              		.file 59 "./main.h"
 6960              		.file 60 "../e-puck2_main-processor/ChibiOS_ext/os/hal/include/../ports/STM32/STM32F4xx/dcmi_lld.h
 6961              		.file 61 "../e-puck2_main-processor/src/audio/play_melody.h"
 6962              		.file 62 "../e-puck2_main-processor/src/leds.h"
 6963              		.file 63 "/home/leander/uos_codes/epuck2_lab/Eclipse_e-puck2/Tools/gcc-arm-none-eabi-7-2017-q4-maj
 6964              		.file 64 "../e-puck2_main-processor/src/epuck1x/a_d/advance_ad_scan/e_acc.h"
 6965              		.file 65 "../e-puck2_main-processor/src/epuck1x/acc_gyro/e_lsm330.h"
 6966              		.file 66 "/home/leander/uos_codes/epuck2_lab/Eclipse_e-puck2/Tools/gcc-arm-none-eabi-7-2017-q4-maj
 6967              		.file 67 "/home/leander/uos_codes/epuck2_lab/Eclipse_e-puck2/Tools/gcc-arm-none-eabi-7-2017-q4-maj
 6968              		.file 68 "../e-puck2_main-processor/src/epuck1x/uart/e_uart_char.h"
 6969              		.file 69 "../e-puck2_main-processor/src/epuck1x/I2C/e_I2C_protocol.h"
 6970              		.file 70 "../e-puck2_main-processor/src/epuck1x/a_d/advance_ad_scan/e_micro.h"
 6971              		.file 71 "../e-puck2_main-processor/src/epuck1x/codec/e_sound.h"
 6972              		.file 72 "../e-puck2_main-processor/src/epuck1x/motor_led/advance_one_timer/e_led.h"
 6973              		.file 73 "../e-puck2_main-processor/ChibiOS//os/rt/include/chthreads.h"
ARM GAS  /tmp/ccZueut9.s 			page 129


 6974              		.file 74 "../e-puck2_main-processor/src/epuck1x/a_d/advance_ad_scan/e_prox.h"
 6975              		.file 75 "../e-puck2_main-processor/src/epuck1x/motor_led/advance_one_timer/e_remote_control.h"
 6976              		.file 76 "../e-puck2_main-processor/src/epuck1x/motor_led/advance_one_timer/e_motors.h"
 6977              		.file 77 "../e-puck2_main-processor/src/sensors/ground.h"
 6978              		.file 78 "../e-puck2_main-processor/src/epuck1x/camera/fast_2_timer/e_poxxxx.h"
 6979              		.file 79 "../e-puck2_main-processor/src/epuck1x/motor_led/e_init_port.h"
 6980              		.file 80 "../e-puck2_main-processor/src/epuck1x/utility/utility.h"
 6981              		.file 81 "../e-puck2_main-processor/src/epuck1x/DataEEPROM.h"
 6982              		.file 82 "../e-puck2_main-processor/src/serial_comm.h"
 6983              		.file 83 "../e-puck2_main-processor/src/sdio.h"
 6984              		.file 84 "../e-puck2_main-processor/src/sensors/VL53L0X/VL53L0X.h"
 6985              		.file 85 "../e-puck2_main-processor/src/sensors/proximity.h"
 6986              		.file 86 "../e-puck2_main-processor/src/button.h"
 6987              		.file 87 "../e-puck2_main-processor/src/behaviors.h"
 6988              		.file 88 "../e-puck2_main-processor/src/sensors/imu.h"
 6989              		.file 89 "../e-puck2_main-processor/src/camera/camera.h"
 6990              		.file 90 "../e-puck2_main-processor/src/sensors/mpu9250.h"
 6991              		.file 91 "<built-in>"
 6992              		.section	.debug_info,"",%progbits
 6993              	.Ldebug_info0:
 6994 0000 2A730000 		.4byte	0x732a
 6995 0004 0400     		.2byte	0x4
 6996 0006 00000000 		.4byte	.Ldebug_abbrev0
 6997 000a 04       		.byte	0x4
 6998 000b 01       		.uleb128 0x1
 6999 000c D6110000 		.4byte	.LASF1055
 7000 0010 0C       		.byte	0xc
 7001 0011 70140000 		.4byte	.LASF1056
 7002 0015 35210000 		.4byte	.LASF1057
 7003 0019 30000000 		.4byte	.Ldebug_ranges0+0x30
 7004 001d 00000000 		.4byte	0
 7005 0021 00000000 		.4byte	.Ldebug_line0
 7006 0025 02       		.uleb128 0x2
 7007 0026 04       		.byte	0x4
 7008 0027 05       		.byte	0x5
 7009 0028 696E7400 		.ascii	"int\000"
 7010 002c 03       		.uleb128 0x3
 7011 002d 670F0000 		.4byte	.LASF3
 7012 0031 02       		.byte	0x2
 7013 0032 D8       		.byte	0xd8
 7014 0033 37000000 		.4byte	0x37
 7015 0037 04       		.uleb128 0x4
 7016 0038 04       		.byte	0x4
 7017 0039 07       		.byte	0x7
 7018 003a 022B0000 		.4byte	.LASF0
 7019 003e 04       		.uleb128 0x4
 7020 003f 08       		.byte	0x8
 7021 0040 05       		.byte	0x5
 7022 0041 81280000 		.4byte	.LASF1
 7023 0045 04       		.uleb128 0x4
 7024 0046 08       		.byte	0x8
 7025 0047 04       		.byte	0x4
 7026 0048 3B1D0000 		.4byte	.LASF2
 7027 004c 03       		.uleb128 0x3
 7028 004d 852A0000 		.4byte	.LASF4
 7029 0051 03       		.byte	0x3
 7030 0052 29       		.byte	0x29
ARM GAS  /tmp/ccZueut9.s 			page 130


 7031 0053 57000000 		.4byte	0x57
 7032 0057 04       		.uleb128 0x4
 7033 0058 01       		.byte	0x1
 7034 0059 06       		.byte	0x6
 7035 005a E7180000 		.4byte	.LASF5
 7036 005e 03       		.uleb128 0x3
 7037 005f 3F010000 		.4byte	.LASF6
 7038 0063 03       		.byte	0x3
 7039 0064 2B       		.byte	0x2b
 7040 0065 69000000 		.4byte	0x69
 7041 0069 04       		.uleb128 0x4
 7042 006a 01       		.byte	0x1
 7043 006b 08       		.byte	0x8
 7044 006c 280B0000 		.4byte	.LASF7
 7045 0070 03       		.uleb128 0x3
 7046 0071 58090000 		.4byte	.LASF8
 7047 0075 03       		.byte	0x3
 7048 0076 37       		.byte	0x37
 7049 0077 7B000000 		.4byte	0x7b
 7050 007b 04       		.uleb128 0x4
 7051 007c 02       		.byte	0x2
 7052 007d 05       		.byte	0x5
 7053 007e 742B0000 		.4byte	.LASF9
 7054 0082 03       		.uleb128 0x3
 7055 0083 62090000 		.4byte	.LASF10
 7056 0087 03       		.byte	0x3
 7057 0088 39       		.byte	0x39
 7058 0089 8D000000 		.4byte	0x8d
 7059 008d 04       		.uleb128 0x4
 7060 008e 02       		.byte	0x2
 7061 008f 07       		.byte	0x7
 7062 0090 CC180000 		.4byte	.LASF11
 7063 0094 03       		.uleb128 0x3
 7064 0095 BB230000 		.4byte	.LASF12
 7065 0099 03       		.byte	0x3
 7066 009a 4D       		.byte	0x4d
 7067 009b 9F000000 		.4byte	0x9f
 7068 009f 04       		.uleb128 0x4
 7069 00a0 04       		.byte	0x4
 7070 00a1 05       		.byte	0x5
 7071 00a2 BF1B0000 		.4byte	.LASF13
 7072 00a6 03       		.uleb128 0x3
 7073 00a7 D5230000 		.4byte	.LASF14
 7074 00ab 03       		.byte	0x3
 7075 00ac 4F       		.byte	0x4f
 7076 00ad B1000000 		.4byte	0xb1
 7077 00b1 04       		.uleb128 0x4
 7078 00b2 04       		.byte	0x4
 7079 00b3 07       		.byte	0x7
 7080 00b4 8F1D0000 		.4byte	.LASF15
 7081 00b8 03       		.uleb128 0x3
 7082 00b9 2B140000 		.4byte	.LASF16
 7083 00bd 03       		.byte	0x3
 7084 00be 69       		.byte	0x69
 7085 00bf C3000000 		.4byte	0xc3
 7086 00c3 04       		.uleb128 0x4
 7087 00c4 08       		.byte	0x8
ARM GAS  /tmp/ccZueut9.s 			page 131


 7088 00c5 07       		.byte	0x7
 7089 00c6 18260000 		.4byte	.LASF17
 7090 00ca 03       		.uleb128 0x3
 7091 00cb 91170000 		.4byte	.LASF18
 7092 00cf 04       		.byte	0x4
 7093 00d0 14       		.byte	0x14
 7094 00d1 4C000000 		.4byte	0x4c
 7095 00d5 03       		.uleb128 0x3
 7096 00d6 A30F0000 		.4byte	.LASF19
 7097 00da 04       		.byte	0x4
 7098 00db 18       		.byte	0x18
 7099 00dc 5E000000 		.4byte	0x5e
 7100 00e0 05       		.uleb128 0x5
 7101 00e1 D5000000 		.4byte	0xd5
 7102 00e5 03       		.uleb128 0x3
 7103 00e6 AF180000 		.4byte	.LASF20
 7104 00ea 04       		.byte	0x4
 7105 00eb 20       		.byte	0x20
 7106 00ec 70000000 		.4byte	0x70
 7107 00f0 03       		.uleb128 0x3
 7108 00f1 D5020000 		.4byte	.LASF21
 7109 00f5 04       		.byte	0x4
 7110 00f6 24       		.byte	0x24
 7111 00f7 82000000 		.4byte	0x82
 7112 00fb 03       		.uleb128 0x3
 7113 00fc D4040000 		.4byte	.LASF22
 7114 0100 04       		.byte	0x4
 7115 0101 2C       		.byte	0x2c
 7116 0102 94000000 		.4byte	0x94
 7117 0106 06       		.uleb128 0x6
 7118 0107 FB000000 		.4byte	0xfb
 7119 010b 03       		.uleb128 0x3
 7120 010c F71C0000 		.4byte	.LASF23
 7121 0110 04       		.byte	0x4
 7122 0111 30       		.byte	0x30
 7123 0112 A6000000 		.4byte	0xa6
 7124 0116 06       		.uleb128 0x6
 7125 0117 0B010000 		.4byte	0x10b
 7126 011b 05       		.uleb128 0x5
 7127 011c 16010000 		.4byte	0x116
 7128 0120 03       		.uleb128 0x3
 7129 0121 A30C0000 		.4byte	.LASF24
 7130 0125 04       		.byte	0x4
 7131 0126 3C       		.byte	0x3c
 7132 0127 B8000000 		.4byte	0xb8
 7133 012b 03       		.uleb128 0x3
 7134 012c D90E0000 		.4byte	.LASF25
 7135 0130 05       		.byte	0x5
 7136 0131 45       		.byte	0x45
 7137 0132 0B010000 		.4byte	0x10b
 7138 0136 03       		.uleb128 0x3
 7139 0137 68070000 		.4byte	.LASF26
 7140 013b 05       		.byte	0x5
 7141 013c 46       		.byte	0x46
 7142 013d 20010000 		.4byte	0x120
 7143 0141 03       		.uleb128 0x3
 7144 0142 3D160000 		.4byte	.LASF27
ARM GAS  /tmp/ccZueut9.s 			page 132


 7145 0146 05       		.byte	0x5
 7146 0147 48       		.byte	0x48
 7147 0148 D5000000 		.4byte	0xd5
 7148 014c 03       		.uleb128 0x3
 7149 014d 11270000 		.4byte	.LASF28
 7150 0151 05       		.byte	0x5
 7151 0152 49       		.byte	0x49
 7152 0153 D5000000 		.4byte	0xd5
 7153 0157 03       		.uleb128 0x3
 7154 0158 C4150000 		.4byte	.LASF29
 7155 015c 05       		.byte	0x5
 7156 015d 4A       		.byte	0x4a
 7157 015e D5000000 		.4byte	0xd5
 7158 0162 03       		.uleb128 0x3
 7159 0163 2E180000 		.4byte	.LASF30
 7160 0167 05       		.byte	0x5
 7161 0168 4B       		.byte	0x4b
 7162 0169 D5000000 		.4byte	0xd5
 7163 016d 03       		.uleb128 0x3
 7164 016e 20080000 		.4byte	.LASF31
 7165 0172 05       		.byte	0x5
 7166 0173 4C       		.byte	0x4c
 7167 0174 0B010000 		.4byte	0x10b
 7168 0178 03       		.uleb128 0x3
 7169 0179 B1000000 		.4byte	.LASF32
 7170 017d 05       		.byte	0x5
 7171 017e 4D       		.byte	0x4d
 7172 017f FB000000 		.4byte	0xfb
 7173 0183 03       		.uleb128 0x3
 7174 0184 501D0000 		.4byte	.LASF33
 7175 0188 05       		.byte	0x5
 7176 0189 4F       		.byte	0x4f
 7177 018a 0B010000 		.4byte	0x10b
 7178 018e 03       		.uleb128 0x3
 7179 018f 2B290000 		.4byte	.LASF34
 7180 0193 05       		.byte	0x5
 7181 0194 50       		.byte	0x50
 7182 0195 0B010000 		.4byte	0x10b
 7183 0199 03       		.uleb128 0x3
 7184 019a D5200000 		.4byte	.LASF35
 7185 019e 05       		.byte	0x5
 7186 019f 51       		.byte	0x51
 7187 01a0 FB000000 		.4byte	0xfb
 7188 01a4 03       		.uleb128 0x3
 7189 01a5 12190000 		.4byte	.LASF36
 7190 01a9 05       		.byte	0x5
 7191 01aa 52       		.byte	0x52
 7192 01ab 0B010000 		.4byte	0x10b
 7193 01af 03       		.uleb128 0x3
 7194 01b0 00050000 		.4byte	.LASF37
 7195 01b4 06       		.byte	0x6
 7196 01b5 33       		.byte	0x33
 7197 01b6 0B010000 		.4byte	0x10b
 7198 01ba 06       		.uleb128 0x6
 7199 01bb AF010000 		.4byte	0x1af
 7200 01bf 03       		.uleb128 0x3
 7201 01c0 8C040000 		.4byte	.LASF38
ARM GAS  /tmp/ccZueut9.s 			page 133


 7202 01c4 06       		.byte	0x6
 7203 01c5 3F       		.byte	0x3f
 7204 01c6 CA010000 		.4byte	0x1ca
 7205 01ca 07       		.uleb128 0x7
 7206 01cb 6D0B0000 		.4byte	.LASF62
 7207 01cf 68       		.byte	0x68
 7208 01d0 07       		.byte	0x7
 7209 01d1 C2       		.byte	0xc2
 7210 01d2 E8020000 		.4byte	0x2e8
 7211 01d6 08       		.uleb128 0x8
 7212 01d7 60150000 		.4byte	.LASF39
 7213 01db 07       		.byte	0x7
 7214 01dc C3       		.byte	0xc3
 7215 01dd F3020000 		.4byte	0x2f3
 7216 01e1 00       		.byte	0
 7217 01e2 08       		.uleb128 0x8
 7218 01e3 C90F0000 		.4byte	.LASF40
 7219 01e7 07       		.byte	0x7
 7220 01e8 C5       		.byte	0xc5
 7221 01e9 F3020000 		.4byte	0x2f3
 7222 01ed 04       		.byte	0x4
 7223 01ee 08       		.uleb128 0x8
 7224 01ef 04140000 		.4byte	.LASF41
 7225 01f3 07       		.byte	0x7
 7226 01f4 C7       		.byte	0xc7
 7227 01f5 6D010000 		.4byte	0x16d
 7228 01f9 08       		.byte	0x8
 7229 01fa 08       		.uleb128 0x8
 7230 01fb 2B0C0000 		.4byte	.LASF42
 7231 01ff 07       		.byte	0x7
 7232 0200 C8       		.byte	0xc8
 7233 0201 9F0D0000 		.4byte	0xd9f
 7234 0205 0C       		.byte	0xc
 7235 0206 08       		.uleb128 0x8
 7236 0207 8C030000 		.4byte	.LASF43
 7237 020b 07       		.byte	0x7
 7238 020c CA       		.byte	0xca
 7239 020d F3020000 		.4byte	0x2f3
 7240 0211 10       		.byte	0x10
 7241 0212 08       		.uleb128 0x8
 7242 0213 C2290000 		.4byte	.LASF44
 7243 0217 07       		.byte	0x7
 7244 0218 CB       		.byte	0xcb
 7245 0219 F3020000 		.4byte	0x2f3
 7246 021d 14       		.byte	0x14
 7247 021e 08       		.uleb128 0x8
 7248 021f 9D270000 		.4byte	.LASF45
 7249 0223 07       		.byte	0x7
 7250 0224 D2       		.byte	0xd2
 7251 0225 15110000 		.4byte	0x1115
 7252 0229 18       		.byte	0x18
 7253 022a 08       		.uleb128 0x8
 7254 022b CA200000 		.4byte	.LASF46
 7255 022f 07       		.byte	0x7
 7256 0230 D8       		.byte	0xd8
 7257 0231 2C110000 		.4byte	0x112c
 7258 0235 1C       		.byte	0x1c
ARM GAS  /tmp/ccZueut9.s 			page 134


 7259 0236 08       		.uleb128 0x8
 7260 0237 382C0000 		.4byte	.LASF47
 7261 023b 07       		.byte	0x7
 7262 023c DD       		.byte	0xdd
 7263 023d 4C010000 		.4byte	0x14c
 7264 0241 20       		.byte	0x20
 7265 0242 08       		.uleb128 0x8
 7266 0243 B7260000 		.4byte	.LASF48
 7267 0247 07       		.byte	0x7
 7268 0248 E1       		.byte	0xe1
 7269 0249 41010000 		.4byte	0x141
 7270 024d 21       		.byte	0x21
 7271 024e 08       		.uleb128 0x8
 7272 024f 9E1B0000 		.4byte	.LASF49
 7273 0253 07       		.byte	0x7
 7274 0254 E6       		.byte	0xe6
 7275 0255 57010000 		.4byte	0x157
 7276 0259 22       		.byte	0x22
 7277 025a 08       		.uleb128 0x8
 7278 025b 08190000 		.4byte	.LASF50
 7279 025f 07       		.byte	0x7
 7280 0260 EC       		.byte	0xec
 7281 0261 62010000 		.4byte	0x162
 7282 0265 23       		.byte	0x23
 7283 0266 08       		.uleb128 0x8
 7284 0267 971B0000 		.4byte	.LASF51
 7285 026b 07       		.byte	0x7
 7286 026c F3       		.byte	0xf3
 7287 026d BA010000 		.4byte	0x1ba
 7288 0271 24       		.byte	0x24
 7289 0272 09       		.uleb128 0x9
 7290 0273 705F7500 		.ascii	"p_u\000"
 7291 0277 07       		.byte	0x7
 7292 0278 3101     		.2byte	0x131
 7293 027a 44100000 		.4byte	0x1044
 7294 027e 28       		.byte	0x28
 7295 027f 0A       		.uleb128 0xa
 7296 0280 9C060000 		.4byte	.LASF52
 7297 0284 07       		.byte	0x7
 7298 0285 3601     		.2byte	0x136
 7299 0287 F9020000 		.4byte	0x2f9
 7300 028b 2C       		.byte	0x2c
 7301 028c 0A       		.uleb128 0xa
 7302 028d A9190000 		.4byte	.LASF53
 7303 0291 07       		.byte	0x7
 7304 0292 3C01     		.2byte	0x13c
 7305 0294 1D030000 		.4byte	0x31d
 7306 0298 30       		.byte	0x30
 7307 0299 0A       		.uleb128 0xa
 7308 029a 85090000 		.4byte	.LASF54
 7309 029e 07       		.byte	0x7
 7310 029f 4001     		.2byte	0x140
 7311 02a1 78010000 		.4byte	0x178
 7312 02a5 38       		.byte	0x38
 7313 02a6 0A       		.uleb128 0xa
 7314 02a7 96240000 		.4byte	.LASF55
 7315 02ab 07       		.byte	0x7
ARM GAS  /tmp/ccZueut9.s 			page 135


 7316 02ac 4601     		.2byte	0x146
 7317 02ae 83010000 		.4byte	0x183
 7318 02b2 3C       		.byte	0x3c
 7319 02b3 0A       		.uleb128 0xa
 7320 02b4 FC260000 		.4byte	.LASF56
 7321 02b8 07       		.byte	0x7
 7322 02b9 4D01     		.2byte	0x14d
 7323 02bb 0F110000 		.4byte	0x110f
 7324 02bf 40       		.byte	0x40
 7325 02c0 0A       		.uleb128 0xa
 7326 02c1 CF220000 		.4byte	.LASF57
 7327 02c5 07       		.byte	0x7
 7328 02c6 5101     		.2byte	0x151
 7329 02c8 6D010000 		.4byte	0x16d
 7330 02cc 44       		.byte	0x44
 7331 02cd 0A       		.uleb128 0xa
 7332 02ce CC150000 		.4byte	.LASF58
 7333 02d2 07       		.byte	0x7
 7334 02d3 5801     		.2byte	0x158
 7335 02d5 D0030000 		.4byte	0x3d0
 7336 02d9 48       		.byte	0x48
 7337 02da 0A       		.uleb128 0xa
 7338 02db 792C0000 		.4byte	.LASF59
 7339 02df 07       		.byte	0x7
 7340 02e0 5E01     		.2byte	0x15e
 7341 02e2 F50F0000 		.4byte	0xff5
 7342 02e6 50       		.byte	0x50
 7343 02e7 00       		.byte	0
 7344 02e8 03       		.uleb128 0x3
 7345 02e9 1E2A0000 		.4byte	.LASF60
 7346 02ed 06       		.byte	0x6
 7347 02ee 44       		.byte	0x44
 7348 02ef F3020000 		.4byte	0x2f3
 7349 02f3 0B       		.uleb128 0xb
 7350 02f4 04       		.byte	0x4
 7351 02f5 BF010000 		.4byte	0x1bf
 7352 02f9 03       		.uleb128 0x3
 7353 02fa E6060000 		.4byte	.LASF61
 7354 02fe 06       		.byte	0x6
 7355 02ff 49       		.byte	0x49
 7356 0300 04030000 		.4byte	0x304
 7357 0304 07       		.uleb128 0x7
 7358 0305 522C0000 		.4byte	.LASF63
 7359 0309 04       		.byte	0x4
 7360 030a 07       		.byte	0x7
 7361 030b B0       		.byte	0xb0
 7362 030c 1D030000 		.4byte	0x31d
 7363 0310 08       		.uleb128 0x8
 7364 0311 60150000 		.4byte	.LASF39
 7365 0315 07       		.byte	0x7
 7366 0316 B1       		.byte	0xb1
 7367 0317 F3020000 		.4byte	0x2f3
 7368 031b 00       		.byte	0
 7369 031c 00       		.byte	0
 7370 031d 03       		.uleb128 0x3
 7371 031e 7C1B0000 		.4byte	.LASF64
 7372 0322 06       		.byte	0x6
ARM GAS  /tmp/ccZueut9.s 			page 136


 7373 0323 50       		.byte	0x50
 7374 0324 28030000 		.4byte	0x328
 7375 0328 07       		.uleb128 0x7
 7376 0329 71030000 		.4byte	.LASF65
 7377 032d 08       		.byte	0x8
 7378 032e 07       		.byte	0x7
 7379 032f B7       		.byte	0xb7
 7380 0330 4D030000 		.4byte	0x34d
 7381 0334 08       		.uleb128 0x8
 7382 0335 60150000 		.4byte	.LASF39
 7383 0339 07       		.byte	0x7
 7384 033a B8       		.byte	0xb8
 7385 033b F3020000 		.4byte	0x2f3
 7386 033f 00       		.byte	0
 7387 0340 08       		.uleb128 0x8
 7388 0341 C90F0000 		.4byte	.LASF40
 7389 0345 07       		.byte	0x7
 7390 0346 B9       		.byte	0xb9
 7391 0347 F3020000 		.4byte	0x2f3
 7392 034b 04       		.byte	0x4
 7393 034c 00       		.byte	0
 7394 034d 03       		.uleb128 0x3
 7395 034e 600B0000 		.4byte	.LASF66
 7396 0352 06       		.byte	0x6
 7397 0353 57       		.byte	0x57
 7398 0354 58030000 		.4byte	0x358
 7399 0358 0C       		.uleb128 0xc
 7400 0359 A1230000 		.4byte	.LASF67
 7401 035d 1C       		.byte	0x1c
 7402 035e 07       		.byte	0x7
 7403 035f 9001     		.2byte	0x190
 7404 0361 B4030000 		.4byte	0x3b4
 7405 0365 0A       		.uleb128 0xa
 7406 0366 721E0000 		.4byte	.LASF68
 7407 036a 07       		.byte	0x7
 7408 036b 9101     		.2byte	0x191
 7409 036d 1D030000 		.4byte	0x31d
 7410 0371 00       		.byte	0
 7411 0372 0A       		.uleb128 0xa
 7412 0373 DF250000 		.4byte	.LASF69
 7413 0377 07       		.byte	0x7
 7414 0378 9201     		.2byte	0x192
 7415 037a 6D010000 		.4byte	0x16d
 7416 037e 08       		.byte	0x8
 7417 037f 0A       		.uleb128 0xa
 7418 0380 B90E0000 		.4byte	.LASF70
 7419 0384 07       		.byte	0x7
 7420 0385 9401     		.2byte	0x194
 7421 0387 9F0D0000 		.4byte	0xd9f
 7422 038b 0C       		.byte	0xc
 7423 038c 0A       		.uleb128 0xa
 7424 038d BE170000 		.4byte	.LASF71
 7425 0391 07       		.byte	0x7
 7426 0392 9701     		.2byte	0x197
 7427 0394 F3020000 		.4byte	0x2f3
 7428 0398 10       		.byte	0x10
 7429 0399 0A       		.uleb128 0xa
ARM GAS  /tmp/ccZueut9.s 			page 137


 7430 039a C10F0000 		.4byte	.LASF72
 7431 039e 07       		.byte	0x7
 7432 039f 9801     		.2byte	0x198
 7433 03a1 F3020000 		.4byte	0x2f3
 7434 03a5 14       		.byte	0x14
 7435 03a6 0A       		.uleb128 0xa
 7436 03a7 570C0000 		.4byte	.LASF73
 7437 03ab 07       		.byte	0x7
 7438 03ac 9B01     		.2byte	0x19b
 7439 03ae F3020000 		.4byte	0x2f3
 7440 03b2 18       		.byte	0x18
 7441 03b3 00       		.byte	0
 7442 03b4 03       		.uleb128 0x3
 7443 03b5 4E220000 		.4byte	.LASF74
 7444 03b9 06       		.byte	0x6
 7445 03ba 5C       		.byte	0x5c
 7446 03bb BF030000 		.4byte	0x3bf
 7447 03bf 0B       		.uleb128 0xb
 7448 03c0 04       		.byte	0x4
 7449 03c1 C5030000 		.4byte	0x3c5
 7450 03c5 0D       		.uleb128 0xd
 7451 03c6 D0030000 		.4byte	0x3d0
 7452 03ca 0E       		.uleb128 0xe
 7453 03cb D0030000 		.4byte	0x3d0
 7454 03cf 00       		.byte	0
 7455 03d0 0F       		.uleb128 0xf
 7456 03d1 04       		.byte	0x4
 7457 03d2 03       		.uleb128 0x3
 7458 03d3 910E0000 		.4byte	.LASF75
 7459 03d7 06       		.byte	0x6
 7460 03d8 61       		.byte	0x61
 7461 03d9 DD030000 		.4byte	0x3dd
 7462 03dd 0C       		.uleb128 0xc
 7463 03de A6260000 		.4byte	.LASF76
 7464 03e2 14       		.byte	0x14
 7465 03e3 07       		.byte	0x7
 7466 03e4 6B01     		.2byte	0x16b
 7467 03e6 2C040000 		.4byte	0x42c
 7468 03ea 0A       		.uleb128 0xa
 7469 03eb BF0E0000 		.4byte	.LASF77
 7470 03ef 07       		.byte	0x7
 7471 03f0 6C01     		.2byte	0x16c
 7472 03f2 32110000 		.4byte	0x1132
 7473 03f6 00       		.byte	0
 7474 03f7 0A       		.uleb128 0xa
 7475 03f8 100B0000 		.4byte	.LASF78
 7476 03fc 07       		.byte	0x7
 7477 03fd 6D01     		.2byte	0x16d
 7478 03ff 32110000 		.4byte	0x1132
 7479 0403 04       		.byte	0x4
 7480 0404 0A       		.uleb128 0xa
 7481 0405 79180000 		.4byte	.LASF79
 7482 0409 07       		.byte	0x7
 7483 040a 6E01     		.2byte	0x16e
 7484 040c AF010000 		.4byte	0x1af
 7485 0410 08       		.byte	0x8
 7486 0411 0A       		.uleb128 0xa
ARM GAS  /tmp/ccZueut9.s 			page 138


 7487 0412 91260000 		.4byte	.LASF80
 7488 0416 07       		.byte	0x7
 7489 0417 6F01     		.2byte	0x16f
 7490 0419 B4030000 		.4byte	0x3b4
 7491 041d 0C       		.byte	0xc
 7492 041e 0A       		.uleb128 0xa
 7493 041f 310C0000 		.4byte	.LASF81
 7494 0423 07       		.byte	0x7
 7495 0424 7101     		.2byte	0x171
 7496 0426 D0030000 		.4byte	0x3d0
 7497 042a 10       		.byte	0x10
 7498 042b 00       		.byte	0
 7499 042c 03       		.uleb128 0x3
 7500 042d F1270000 		.4byte	.LASF82
 7501 0431 06       		.byte	0x6
 7502 0432 66       		.byte	0x66
 7503 0433 37040000 		.4byte	0x437
 7504 0437 0C       		.uleb128 0xc
 7505 0438 B6040000 		.4byte	.LASF83
 7506 043c 10       		.byte	0x10
 7507 043d 07       		.byte	0x7
 7508 043e 7B01     		.2byte	0x17b
 7509 0440 79040000 		.4byte	0x479
 7510 0444 0A       		.uleb128 0xa
 7511 0445 BF0E0000 		.4byte	.LASF77
 7512 0449 07       		.byte	0x7
 7513 044a 7C01     		.2byte	0x17c
 7514 044c 32110000 		.4byte	0x1132
 7515 0450 00       		.byte	0
 7516 0451 0A       		.uleb128 0xa
 7517 0452 100B0000 		.4byte	.LASF78
 7518 0456 07       		.byte	0x7
 7519 0457 7E01     		.2byte	0x17e
 7520 0459 32110000 		.4byte	0x1132
 7521 045d 04       		.byte	0x4
 7522 045e 0A       		.uleb128 0xa
 7523 045f 79180000 		.4byte	.LASF79
 7524 0463 07       		.byte	0x7
 7525 0464 8001     		.2byte	0x180
 7526 0466 AF010000 		.4byte	0x1af
 7527 046a 08       		.byte	0x8
 7528 046b 0A       		.uleb128 0xa
 7529 046c 31020000 		.4byte	.LASF84
 7530 0470 07       		.byte	0x7
 7531 0471 8201     		.2byte	0x182
 7532 0473 BA010000 		.4byte	0x1ba
 7533 0477 0C       		.byte	0xc
 7534 0478 00       		.byte	0
 7535 0479 03       		.uleb128 0x3
 7536 047a FA0B0000 		.4byte	.LASF85
 7537 047e 06       		.byte	0x6
 7538 047f 6B       		.byte	0x6b
 7539 0480 84040000 		.4byte	0x484
 7540 0484 10       		.uleb128 0x10
 7541 0485 EB230000 		.4byte	.LASF86
 7542 0489 1404     		.2byte	0x414
 7543 048b 07       		.byte	0x7
ARM GAS  /tmp/ccZueut9.s 			page 139


 7544 048c A201     		.2byte	0x1a2
 7545 048e C7040000 		.4byte	0x4c7
 7546 0492 0A       		.uleb128 0xa
 7547 0493 A0170000 		.4byte	.LASF87
 7548 0497 07       		.byte	0x7
 7549 0498 AA01     		.2byte	0x1aa
 7550 049a 1B110000 		.4byte	0x111b
 7551 049e 00       		.byte	0
 7552 049f 0A       		.uleb128 0xa
 7553 04a0 24170000 		.4byte	.LASF88
 7554 04a4 07       		.byte	0x7
 7555 04a5 AF01     		.2byte	0x1af
 7556 04a7 99010000 		.4byte	0x199
 7557 04ab 04       		.byte	0x4
 7558 04ac 0A       		.uleb128 0xa
 7559 04ad 68030000 		.4byte	.LASF89
 7560 04b1 07       		.byte	0x7
 7561 04b2 B301     		.2byte	0x1b3
 7562 04b4 99010000 		.4byte	0x199
 7563 04b8 08       		.byte	0x8
 7564 04b9 0A       		.uleb128 0xa
 7565 04ba C01A0000 		.4byte	.LASF90
 7566 04be 07       		.byte	0x7
 7567 04bf B901     		.2byte	0x1b9
 7568 04c1 870F0000 		.4byte	0xf87
 7569 04c5 0C       		.byte	0xc
 7570 04c6 00       		.byte	0
 7571 04c7 03       		.uleb128 0x3
 7572 04c8 33010000 		.4byte	.LASF91
 7573 04cc 06       		.byte	0x6
 7574 04cd 70       		.byte	0x70
 7575 04ce D2040000 		.4byte	0x4d2
 7576 04d2 10       		.uleb128 0x10
 7577 04d3 A91A0000 		.4byte	.LASF92
 7578 04d7 7006     		.2byte	0x670
 7579 04d9 07       		.byte	0x7
 7580 04da C201     		.2byte	0x1c2
 7581 04dc 3F050000 		.4byte	0x53f
 7582 04e0 0A       		.uleb128 0xa
 7583 04e1 E0060000 		.4byte	.LASF93
 7584 04e5 07       		.byte	0x7
 7585 04e6 C601     		.2byte	0x1c6
 7586 04e8 4D030000 		.4byte	0x34d
 7587 04ec 00       		.byte	0
 7588 04ed 0A       		.uleb128 0xa
 7589 04ee 86060000 		.4byte	.LASF94
 7590 04f2 07       		.byte	0x7
 7591 04f3 CA01     		.2byte	0x1ca
 7592 04f5 2C040000 		.4byte	0x42c
 7593 04f9 1C       		.byte	0x1c
 7594 04fa 09       		.uleb128 0x9
 7595 04fb 64626700 		.ascii	"dbg\000"
 7596 04ff 07       		.byte	0x7
 7597 0500 CE01     		.2byte	0x1ce
 7598 0502 79040000 		.4byte	0x479
 7599 0506 2C       		.byte	0x2c
 7600 0507 11       		.uleb128 0x11
ARM GAS  /tmp/ccZueut9.s 			page 140


 7601 0508 C81B0000 		.4byte	.LASF95
 7602 050c 07       		.byte	0x7
 7603 050d D201     		.2byte	0x1d2
 7604 050f BF010000 		.4byte	0x1bf
 7605 0513 4004     		.2byte	0x440
 7606 0515 12       		.uleb128 0x12
 7607 0516 746D00   		.ascii	"tm\000"
 7608 0519 07       		.byte	0x7
 7609 051a D701     		.2byte	0x1d7
 7610 051c A70F0000 		.4byte	0xfa7
 7611 0520 A804     		.2byte	0x4a8
 7612 0522 11       		.uleb128 0x11
 7613 0523 6E0F0000 		.4byte	.LASF96
 7614 0527 07       		.byte	0x7
 7615 0528 DD01     		.2byte	0x1dd
 7616 052a 39100000 		.4byte	0x1039
 7617 052e B004     		.2byte	0x4b0
 7618 0530 11       		.uleb128 0x11
 7619 0531 6E260000 		.4byte	.LASF97
 7620 0535 07       		.byte	0x7
 7621 0536 E301     		.2byte	0x1e3
 7622 0538 38110000 		.4byte	0x1138
 7623 053c E804     		.2byte	0x4e8
 7624 053e 00       		.byte	0
 7625 053f 13       		.uleb128 0x13
 7626 0540 0B010000 		.4byte	0x10b
 7627 0544 4F050000 		.4byte	0x54f
 7628 0548 14       		.uleb128 0x14
 7629 0549 37000000 		.4byte	0x37
 7630 054d 01       		.byte	0x1
 7631 054e 00       		.byte	0
 7632 054f 13       		.uleb128 0x13
 7633 0550 0B010000 		.4byte	0x10b
 7634 0554 5F050000 		.4byte	0x55f
 7635 0558 14       		.uleb128 0x14
 7636 0559 37000000 		.4byte	0x37
 7637 055d 07       		.byte	0x7
 7638 055e 00       		.byte	0
 7639 055f 15       		.uleb128 0x15
 7640 0560 EB250000 		.4byte	.LASF98
 7641 0564 08       		.byte	0x8
 7642 0565 A706     		.2byte	0x6a7
 7643 0567 06010000 		.4byte	0x106
 7644 056b 16       		.uleb128 0x16
 7645 056c EE190000 		.4byte	.LASF99
 7646 0570 09       		.byte	0x9
 7647 0571 4C       		.byte	0x4c
 7648 0572 0B010000 		.4byte	0x10b
 7649 0576 17       		.uleb128 0x17
 7650 0577 50       		.byte	0x50
 7651 0578 0A       		.byte	0xa
 7652 0579 C4       		.byte	0xc4
 7653 057a 6D060000 		.4byte	0x66d
 7654 057e 18       		.uleb128 0x18
 7655 057f 535200   		.ascii	"SR\000"
 7656 0582 0A       		.byte	0xa
 7657 0583 C6       		.byte	0xc6
ARM GAS  /tmp/ccZueut9.s 			page 141


 7658 0584 16010000 		.4byte	0x116
 7659 0588 00       		.byte	0
 7660 0589 18       		.uleb128 0x18
 7661 058a 43523100 		.ascii	"CR1\000"
 7662 058e 0A       		.byte	0xa
 7663 058f C7       		.byte	0xc7
 7664 0590 16010000 		.4byte	0x116
 7665 0594 04       		.byte	0x4
 7666 0595 18       		.uleb128 0x18
 7667 0596 43523200 		.ascii	"CR2\000"
 7668 059a 0A       		.byte	0xa
 7669 059b C8       		.byte	0xc8
 7670 059c 16010000 		.4byte	0x116
 7671 05a0 08       		.byte	0x8
 7672 05a1 08       		.uleb128 0x8
 7673 05a2 C6030000 		.4byte	.LASF100
 7674 05a6 0A       		.byte	0xa
 7675 05a7 C9       		.byte	0xc9
 7676 05a8 16010000 		.4byte	0x116
 7677 05ac 0C       		.byte	0xc
 7678 05ad 08       		.uleb128 0x8
 7679 05ae CC030000 		.4byte	.LASF101
 7680 05b2 0A       		.byte	0xa
 7681 05b3 CA       		.byte	0xca
 7682 05b4 16010000 		.4byte	0x116
 7683 05b8 10       		.byte	0x10
 7684 05b9 08       		.uleb128 0x8
 7685 05ba 380C0000 		.4byte	.LASF102
 7686 05be 0A       		.byte	0xa
 7687 05bf CB       		.byte	0xcb
 7688 05c0 16010000 		.4byte	0x116
 7689 05c4 14       		.byte	0x14
 7690 05c5 08       		.uleb128 0x8
 7691 05c6 3E0C0000 		.4byte	.LASF103
 7692 05ca 0A       		.byte	0xa
 7693 05cb CC       		.byte	0xcc
 7694 05cc 16010000 		.4byte	0x116
 7695 05d0 18       		.byte	0x18
 7696 05d1 08       		.uleb128 0x8
 7697 05d2 440C0000 		.4byte	.LASF104
 7698 05d6 0A       		.byte	0xa
 7699 05d7 CD       		.byte	0xcd
 7700 05d8 16010000 		.4byte	0x116
 7701 05dc 1C       		.byte	0x1c
 7702 05dd 08       		.uleb128 0x8
 7703 05de 4A0C0000 		.4byte	.LASF105
 7704 05e2 0A       		.byte	0xa
 7705 05e3 CE       		.byte	0xce
 7706 05e4 16010000 		.4byte	0x116
 7707 05e8 20       		.byte	0x20
 7708 05e9 18       		.uleb128 0x18
 7709 05ea 48545200 		.ascii	"HTR\000"
 7710 05ee 0A       		.byte	0xa
 7711 05ef CF       		.byte	0xcf
 7712 05f0 16010000 		.4byte	0x116
 7713 05f4 24       		.byte	0x24
 7714 05f5 18       		.uleb128 0x18
ARM GAS  /tmp/ccZueut9.s 			page 142


 7715 05f6 4C545200 		.ascii	"LTR\000"
 7716 05fa 0A       		.byte	0xa
 7717 05fb D0       		.byte	0xd0
 7718 05fc 16010000 		.4byte	0x116
 7719 0600 28       		.byte	0x28
 7720 0601 08       		.uleb128 0x8
 7721 0602 6B160000 		.4byte	.LASF106
 7722 0606 0A       		.byte	0xa
 7723 0607 D1       		.byte	0xd1
 7724 0608 16010000 		.4byte	0x116
 7725 060c 2C       		.byte	0x2c
 7726 060d 08       		.uleb128 0x8
 7727 060e 70160000 		.4byte	.LASF107
 7728 0612 0A       		.byte	0xa
 7729 0613 D2       		.byte	0xd2
 7730 0614 16010000 		.4byte	0x116
 7731 0618 30       		.byte	0x30
 7732 0619 08       		.uleb128 0x8
 7733 061a 75160000 		.4byte	.LASF108
 7734 061e 0A       		.byte	0xa
 7735 061f D3       		.byte	0xd3
 7736 0620 16010000 		.4byte	0x116
 7737 0624 34       		.byte	0x34
 7738 0625 08       		.uleb128 0x8
 7739 0626 600E0000 		.4byte	.LASF109
 7740 062a 0A       		.byte	0xa
 7741 062b D4       		.byte	0xd4
 7742 062c 16010000 		.4byte	0x116
 7743 0630 38       		.byte	0x38
 7744 0631 08       		.uleb128 0x8
 7745 0632 BC270000 		.4byte	.LASF110
 7746 0636 0A       		.byte	0xa
 7747 0637 D5       		.byte	0xd5
 7748 0638 16010000 		.4byte	0x116
 7749 063c 3C       		.byte	0x3c
 7750 063d 08       		.uleb128 0x8
 7751 063e C1270000 		.4byte	.LASF111
 7752 0642 0A       		.byte	0xa
 7753 0643 D6       		.byte	0xd6
 7754 0644 16010000 		.4byte	0x116
 7755 0648 40       		.byte	0x40
 7756 0649 08       		.uleb128 0x8
 7757 064a C6270000 		.4byte	.LASF112
 7758 064e 0A       		.byte	0xa
 7759 064f D7       		.byte	0xd7
 7760 0650 16010000 		.4byte	0x116
 7761 0654 44       		.byte	0x44
 7762 0655 08       		.uleb128 0x8
 7763 0656 CB270000 		.4byte	.LASF113
 7764 065a 0A       		.byte	0xa
 7765 065b D8       		.byte	0xd8
 7766 065c 16010000 		.4byte	0x116
 7767 0660 48       		.byte	0x48
 7768 0661 18       		.uleb128 0x18
 7769 0662 445200   		.ascii	"DR\000"
 7770 0665 0A       		.byte	0xa
 7771 0666 D9       		.byte	0xd9
ARM GAS  /tmp/ccZueut9.s 			page 143


 7772 0667 16010000 		.4byte	0x116
 7773 066b 4C       		.byte	0x4c
 7774 066c 00       		.byte	0
 7775 066d 03       		.uleb128 0x3
 7776 066e C0180000 		.4byte	.LASF114
 7777 0672 0A       		.byte	0xa
 7778 0673 DA       		.byte	0xda
 7779 0674 76050000 		.4byte	0x576
 7780 0678 17       		.uleb128 0x17
 7781 0679 10       		.byte	0x10
 7782 067a 0A       		.byte	0xa
 7783 067b E9       		.byte	0xe9
 7784 067c B1060000 		.4byte	0x6b1
 7785 0680 18       		.uleb128 0x18
 7786 0681 54495200 		.ascii	"TIR\000"
 7787 0685 0A       		.byte	0xa
 7788 0686 EB       		.byte	0xeb
 7789 0687 16010000 		.4byte	0x116
 7790 068b 00       		.byte	0
 7791 068c 08       		.uleb128 0x8
 7792 068d B0130000 		.4byte	.LASF115
 7793 0691 0A       		.byte	0xa
 7794 0692 EC       		.byte	0xec
 7795 0693 16010000 		.4byte	0x116
 7796 0697 04       		.byte	0x4
 7797 0698 08       		.uleb128 0x8
 7798 0699 BA1B0000 		.4byte	.LASF116
 7799 069d 0A       		.byte	0xa
 7800 069e ED       		.byte	0xed
 7801 069f 16010000 		.4byte	0x116
 7802 06a3 08       		.byte	0x8
 7803 06a4 08       		.uleb128 0x8
 7804 06a5 19190000 		.4byte	.LASF117
 7805 06a9 0A       		.byte	0xa
 7806 06aa EE       		.byte	0xee
 7807 06ab 16010000 		.4byte	0x116
 7808 06af 0C       		.byte	0xc
 7809 06b0 00       		.byte	0
 7810 06b1 03       		.uleb128 0x3
 7811 06b2 CA060000 		.4byte	.LASF118
 7812 06b6 0A       		.byte	0xa
 7813 06b7 EF       		.byte	0xef
 7814 06b8 78060000 		.4byte	0x678
 7815 06bc 17       		.uleb128 0x17
 7816 06bd 10       		.byte	0x10
 7817 06be 0A       		.byte	0xa
 7818 06bf F5       		.byte	0xf5
 7819 06c0 F5060000 		.4byte	0x6f5
 7820 06c4 18       		.uleb128 0x18
 7821 06c5 52495200 		.ascii	"RIR\000"
 7822 06c9 0A       		.byte	0xa
 7823 06ca F7       		.byte	0xf7
 7824 06cb 16010000 		.4byte	0x116
 7825 06cf 00       		.byte	0
 7826 06d0 08       		.uleb128 0x8
 7827 06d1 84230000 		.4byte	.LASF119
 7828 06d5 0A       		.byte	0xa
ARM GAS  /tmp/ccZueut9.s 			page 144


 7829 06d6 F8       		.byte	0xf8
 7830 06d7 16010000 		.4byte	0x116
 7831 06db 04       		.byte	0x4
 7832 06dc 08       		.uleb128 0x8
 7833 06dd 1F1D0000 		.4byte	.LASF120
 7834 06e1 0A       		.byte	0xa
 7835 06e2 F9       		.byte	0xf9
 7836 06e3 16010000 		.4byte	0x116
 7837 06e7 08       		.byte	0x8
 7838 06e8 08       		.uleb128 0x8
 7839 06e9 8A1A0000 		.4byte	.LASF121
 7840 06ed 0A       		.byte	0xa
 7841 06ee FA       		.byte	0xfa
 7842 06ef 16010000 		.4byte	0x116
 7843 06f3 0C       		.byte	0xc
 7844 06f4 00       		.byte	0
 7845 06f5 03       		.uleb128 0x3
 7846 06f6 57220000 		.4byte	.LASF122
 7847 06fa 0A       		.byte	0xa
 7848 06fb FB       		.byte	0xfb
 7849 06fc BC060000 		.4byte	0x6bc
 7850 0700 19       		.uleb128 0x19
 7851 0701 08       		.byte	0x8
 7852 0702 0A       		.byte	0xa
 7853 0703 0101     		.2byte	0x101
 7854 0705 24070000 		.4byte	0x724
 7855 0709 09       		.uleb128 0x9
 7856 070a 46523100 		.ascii	"FR1\000"
 7857 070e 0A       		.byte	0xa
 7858 070f 0301     		.2byte	0x103
 7859 0711 16010000 		.4byte	0x116
 7860 0715 00       		.byte	0
 7861 0716 09       		.uleb128 0x9
 7862 0717 46523200 		.ascii	"FR2\000"
 7863 071b 0A       		.byte	0xa
 7864 071c 0401     		.2byte	0x104
 7865 071e 16010000 		.4byte	0x116
 7866 0722 04       		.byte	0x4
 7867 0723 00       		.byte	0
 7868 0724 1A       		.uleb128 0x1a
 7869 0725 B5130000 		.4byte	.LASF123
 7870 0729 0A       		.byte	0xa
 7871 072a 0501     		.2byte	0x105
 7872 072c 00070000 		.4byte	0x700
 7873 0730 1B       		.uleb128 0x1b
 7874 0731 2003     		.2byte	0x320
 7875 0733 0A       		.byte	0xa
 7876 0734 0B01     		.2byte	0x10b
 7877 0736 66080000 		.4byte	0x866
 7878 073a 09       		.uleb128 0x9
 7879 073b 4D435200 		.ascii	"MCR\000"
 7880 073f 0A       		.byte	0xa
 7881 0740 0D01     		.2byte	0x10d
 7882 0742 16010000 		.4byte	0x116
 7883 0746 00       		.byte	0
 7884 0747 09       		.uleb128 0x9
 7885 0748 4D535200 		.ascii	"MSR\000"
ARM GAS  /tmp/ccZueut9.s 			page 145


 7886 074c 0A       		.byte	0xa
 7887 074d 0E01     		.2byte	0x10e
 7888 074f 16010000 		.4byte	0x116
 7889 0753 04       		.byte	0x4
 7890 0754 09       		.uleb128 0x9
 7891 0755 54535200 		.ascii	"TSR\000"
 7892 0759 0A       		.byte	0xa
 7893 075a 0F01     		.2byte	0x10f
 7894 075c 16010000 		.4byte	0x116
 7895 0760 08       		.byte	0x8
 7896 0761 0A       		.uleb128 0xa
 7897 0762 BA100000 		.4byte	.LASF124
 7898 0766 0A       		.byte	0xa
 7899 0767 1001     		.2byte	0x110
 7900 0769 16010000 		.4byte	0x116
 7901 076d 0C       		.byte	0xc
 7902 076e 0A       		.uleb128 0xa
 7903 076f 70110000 		.4byte	.LASF125
 7904 0773 0A       		.byte	0xa
 7905 0774 1101     		.2byte	0x111
 7906 0776 16010000 		.4byte	0x116
 7907 077a 10       		.byte	0x10
 7908 077b 09       		.uleb128 0x9
 7909 077c 49455200 		.ascii	"IER\000"
 7910 0780 0A       		.byte	0xa
 7911 0781 1201     		.2byte	0x112
 7912 0783 16010000 		.4byte	0x116
 7913 0787 14       		.byte	0x14
 7914 0788 09       		.uleb128 0x9
 7915 0789 45535200 		.ascii	"ESR\000"
 7916 078d 0A       		.byte	0xa
 7917 078e 1301     		.2byte	0x113
 7918 0790 16010000 		.4byte	0x116
 7919 0794 18       		.byte	0x18
 7920 0795 09       		.uleb128 0x9
 7921 0796 42545200 		.ascii	"BTR\000"
 7922 079a 0A       		.byte	0xa
 7923 079b 1401     		.2byte	0x114
 7924 079d 16010000 		.4byte	0x116
 7925 07a1 1C       		.byte	0x1c
 7926 07a2 0A       		.uleb128 0xa
 7927 07a3 DE240000 		.4byte	.LASF126
 7928 07a7 0A       		.byte	0xa
 7929 07a8 1501     		.2byte	0x115
 7930 07aa 66080000 		.4byte	0x866
 7931 07ae 20       		.byte	0x20
 7932 07af 11       		.uleb128 0x11
 7933 07b0 32150000 		.4byte	.LASF127
 7934 07b4 0A       		.byte	0xa
 7935 07b5 1601     		.2byte	0x116
 7936 07b7 76080000 		.4byte	0x876
 7937 07bb 8001     		.2byte	0x180
 7938 07bd 11       		.uleb128 0x11
 7939 07be 42290000 		.4byte	.LASF128
 7940 07c2 0A       		.byte	0xa
 7941 07c3 1701     		.2byte	0x117
 7942 07c5 86080000 		.4byte	0x886
ARM GAS  /tmp/ccZueut9.s 			page 146


 7943 07c9 B001     		.2byte	0x1b0
 7944 07cb 11       		.uleb128 0x11
 7945 07cc E8240000 		.4byte	.LASF129
 7946 07d0 0A       		.byte	0xa
 7947 07d1 1801     		.2byte	0x118
 7948 07d3 96080000 		.4byte	0x896
 7949 07d7 D001     		.2byte	0x1d0
 7950 07d9 12       		.uleb128 0x12
 7951 07da 464D5200 		.ascii	"FMR\000"
 7952 07de 0A       		.byte	0xa
 7953 07df 1901     		.2byte	0x119
 7954 07e1 16010000 		.4byte	0x116
 7955 07e5 0002     		.2byte	0x200
 7956 07e7 11       		.uleb128 0x11
 7957 07e8 CC0C0000 		.4byte	.LASF130
 7958 07ec 0A       		.byte	0xa
 7959 07ed 1A01     		.2byte	0x11a
 7960 07ef 16010000 		.4byte	0x116
 7961 07f3 0402     		.2byte	0x204
 7962 07f5 11       		.uleb128 0x11
 7963 07f6 F2240000 		.4byte	.LASF131
 7964 07fa 0A       		.byte	0xa
 7965 07fb 1B01     		.2byte	0x11b
 7966 07fd 0B010000 		.4byte	0x10b
 7967 0801 0802     		.2byte	0x208
 7968 0803 11       		.uleb128 0x11
 7969 0804 0C270000 		.4byte	.LASF132
 7970 0808 0A       		.byte	0xa
 7971 0809 1C01     		.2byte	0x11c
 7972 080b 16010000 		.4byte	0x116
 7973 080f 0C02     		.2byte	0x20c
 7974 0811 11       		.uleb128 0x11
 7975 0812 FC240000 		.4byte	.LASF133
 7976 0816 0A       		.byte	0xa
 7977 0817 1D01     		.2byte	0x11d
 7978 0819 0B010000 		.4byte	0x10b
 7979 081d 1002     		.2byte	0x210
 7980 081f 11       		.uleb128 0x11
 7981 0820 6B1D0000 		.4byte	.LASF134
 7982 0824 0A       		.byte	0xa
 7983 0825 1E01     		.2byte	0x11e
 7984 0827 16010000 		.4byte	0x116
 7985 082b 1402     		.2byte	0x214
 7986 082d 11       		.uleb128 0x11
 7987 082e 06250000 		.4byte	.LASF135
 7988 0832 0A       		.byte	0xa
 7989 0833 1F01     		.2byte	0x11f
 7990 0835 0B010000 		.4byte	0x10b
 7991 0839 1802     		.2byte	0x218
 7992 083b 11       		.uleb128 0x11
 7993 083c 6D050000 		.4byte	.LASF136
 7994 0840 0A       		.byte	0xa
 7995 0841 2001     		.2byte	0x120
 7996 0843 16010000 		.4byte	0x116
 7997 0847 1C02     		.2byte	0x21c
 7998 0849 11       		.uleb128 0x11
 7999 084a 10250000 		.4byte	.LASF137
ARM GAS  /tmp/ccZueut9.s 			page 147


 8000 084e 0A       		.byte	0xa
 8001 084f 2101     		.2byte	0x121
 8002 0851 4F050000 		.4byte	0x54f
 8003 0855 2002     		.2byte	0x220
 8004 0857 11       		.uleb128 0x11
 8005 0858 8B070000 		.4byte	.LASF138
 8006 085c 0A       		.byte	0xa
 8007 085d 2201     		.2byte	0x122
 8008 085f A6080000 		.4byte	0x8a6
 8009 0863 4002     		.2byte	0x240
 8010 0865 00       		.byte	0
 8011 0866 13       		.uleb128 0x13
 8012 0867 0B010000 		.4byte	0x10b
 8013 086b 76080000 		.4byte	0x876
 8014 086f 14       		.uleb128 0x14
 8015 0870 37000000 		.4byte	0x37
 8016 0874 57       		.byte	0x57
 8017 0875 00       		.byte	0
 8018 0876 13       		.uleb128 0x13
 8019 0877 B1060000 		.4byte	0x6b1
 8020 087b 86080000 		.4byte	0x886
 8021 087f 14       		.uleb128 0x14
 8022 0880 37000000 		.4byte	0x37
 8023 0884 02       		.byte	0x2
 8024 0885 00       		.byte	0
 8025 0886 13       		.uleb128 0x13
 8026 0887 F5060000 		.4byte	0x6f5
 8027 088b 96080000 		.4byte	0x896
 8028 088f 14       		.uleb128 0x14
 8029 0890 37000000 		.4byte	0x37
 8030 0894 01       		.byte	0x1
 8031 0895 00       		.byte	0
 8032 0896 13       		.uleb128 0x13
 8033 0897 0B010000 		.4byte	0x10b
 8034 089b A6080000 		.4byte	0x8a6
 8035 089f 14       		.uleb128 0x14
 8036 08a0 37000000 		.4byte	0x37
 8037 08a4 0B       		.byte	0xb
 8038 08a5 00       		.byte	0
 8039 08a6 13       		.uleb128 0x13
 8040 08a7 24070000 		.4byte	0x724
 8041 08ab B6080000 		.4byte	0x8b6
 8042 08af 14       		.uleb128 0x14
 8043 08b0 37000000 		.4byte	0x37
 8044 08b4 1B       		.byte	0x1b
 8045 08b5 00       		.byte	0
 8046 08b6 1A       		.uleb128 0x1a
 8047 08b7 360F0000 		.4byte	.LASF139
 8048 08bb 0A       		.byte	0xa
 8049 08bc 2301     		.2byte	0x123
 8050 08be 30070000 		.4byte	0x730
 8051 08c2 19       		.uleb128 0x19
 8052 08c3 38       		.byte	0x38
 8053 08c4 0A       		.byte	0xa
 8054 08c5 3601     		.2byte	0x136
 8055 08c7 80090000 		.4byte	0x980
 8056 08cb 09       		.uleb128 0x9
ARM GAS  /tmp/ccZueut9.s 			page 148


 8057 08cc 435200   		.ascii	"CR\000"
 8058 08cf 0A       		.byte	0xa
 8059 08d0 3801     		.2byte	0x138
 8060 08d2 16010000 		.4byte	0x116
 8061 08d6 00       		.byte	0
 8062 08d7 0A       		.uleb128 0xa
 8063 08d8 621A0000 		.4byte	.LASF140
 8064 08dc 0A       		.byte	0xa
 8065 08dd 3901     		.2byte	0x139
 8066 08df 16010000 		.4byte	0x116
 8067 08e3 04       		.byte	0x4
 8068 08e4 0A       		.uleb128 0xa
 8069 08e5 2C250000 		.4byte	.LASF141
 8070 08e9 0A       		.byte	0xa
 8071 08ea 3A01     		.2byte	0x13a
 8072 08ec 16010000 		.4byte	0x116
 8073 08f0 08       		.byte	0x8
 8074 08f1 0A       		.uleb128 0xa
 8075 08f2 42200000 		.4byte	.LASF142
 8076 08f6 0A       		.byte	0xa
 8077 08f7 3B01     		.2byte	0x13b
 8078 08f9 16010000 		.4byte	0x116
 8079 08fd 0C       		.byte	0xc
 8080 08fe 0A       		.uleb128 0xa
 8081 08ff 090C0000 		.4byte	.LASF143
 8082 0903 0A       		.byte	0xa
 8083 0904 3C01     		.2byte	0x13c
 8084 0906 16010000 		.4byte	0x116
 8085 090a 10       		.byte	0x10
 8086 090b 0A       		.uleb128 0xa
 8087 090c 34250000 		.4byte	.LASF144
 8088 0910 0A       		.byte	0xa
 8089 0911 3D01     		.2byte	0x13d
 8090 0913 16010000 		.4byte	0x116
 8091 0917 14       		.byte	0x14
 8092 0918 0A       		.uleb128 0xa
 8093 0919 4A200000 		.4byte	.LASF145
 8094 091d 0A       		.byte	0xa
 8095 091e 3E01     		.2byte	0x13e
 8096 0920 16010000 		.4byte	0x116
 8097 0924 18       		.byte	0x18
 8098 0925 0A       		.uleb128 0xa
 8099 0926 100C0000 		.4byte	.LASF146
 8100 092a 0A       		.byte	0xa
 8101 092b 3F01     		.2byte	0x13f
 8102 092d 16010000 		.4byte	0x116
 8103 0931 1C       		.byte	0x1c
 8104 0932 0A       		.uleb128 0xa
 8105 0933 A2250000 		.4byte	.LASF147
 8106 0937 0A       		.byte	0xa
 8107 0938 4001     		.2byte	0x140
 8108 093a 16010000 		.4byte	0x116
 8109 093e 20       		.byte	0x20
 8110 093f 0A       		.uleb128 0xa
 8111 0940 9C200000 		.4byte	.LASF148
 8112 0944 0A       		.byte	0xa
 8113 0945 4101     		.2byte	0x141
ARM GAS  /tmp/ccZueut9.s 			page 149


 8114 0947 16010000 		.4byte	0x116
 8115 094b 24       		.byte	0x24
 8116 094c 0A       		.uleb128 0xa
 8117 094d 7E290000 		.4byte	.LASF149
 8118 0951 0A       		.byte	0xa
 8119 0952 4201     		.2byte	0x142
 8120 0954 16010000 		.4byte	0x116
 8121 0958 28       		.byte	0x28
 8122 0959 0A       		.uleb128 0xa
 8123 095a 3C020000 		.4byte	.LASF150
 8124 095e 0A       		.byte	0xa
 8125 095f 4301     		.2byte	0x143
 8126 0961 16010000 		.4byte	0x116
 8127 0965 2C       		.byte	0x2c
 8128 0966 0A       		.uleb128 0xa
 8129 0967 41020000 		.4byte	.LASF151
 8130 096b 0A       		.byte	0xa
 8131 096c 4401     		.2byte	0x144
 8132 096e 16010000 		.4byte	0x116
 8133 0972 30       		.byte	0x30
 8134 0973 09       		.uleb128 0x9
 8135 0974 535200   		.ascii	"SR\000"
 8136 0977 0A       		.byte	0xa
 8137 0978 4501     		.2byte	0x145
 8138 097a 16010000 		.4byte	0x116
 8139 097e 34       		.byte	0x34
 8140 097f 00       		.byte	0
 8141 0980 1A       		.uleb128 0x1a
 8142 0981 6F220000 		.4byte	.LASF152
 8143 0985 0A       		.byte	0xa
 8144 0986 4601     		.2byte	0x146
 8145 0988 C2080000 		.4byte	0x8c2
 8146 098c 19       		.uleb128 0x19
 8147 098d 2C       		.byte	0x2c
 8148 098e 0A       		.byte	0xa
 8149 098f 5801     		.2byte	0x158
 8150 0991 220A0000 		.4byte	0xa22
 8151 0995 09       		.uleb128 0x9
 8152 0996 435200   		.ascii	"CR\000"
 8153 0999 0A       		.byte	0xa
 8154 099a 5A01     		.2byte	0x15a
 8155 099c 16010000 		.4byte	0x116
 8156 09a0 00       		.byte	0
 8157 09a1 09       		.uleb128 0x9
 8158 09a2 535200   		.ascii	"SR\000"
 8159 09a5 0A       		.byte	0xa
 8160 09a6 5B01     		.2byte	0x15b
 8161 09a8 16010000 		.4byte	0x116
 8162 09ac 04       		.byte	0x4
 8163 09ad 0A       		.uleb128 0xa
 8164 09ae 550B0000 		.4byte	.LASF153
 8165 09b2 0A       		.byte	0xa
 8166 09b3 5C01     		.2byte	0x15c
 8167 09b5 16010000 		.4byte	0x116
 8168 09b9 08       		.byte	0x8
 8169 09ba 09       		.uleb128 0x9
 8170 09bb 49455200 		.ascii	"IER\000"
ARM GAS  /tmp/ccZueut9.s 			page 150


 8171 09bf 0A       		.byte	0xa
 8172 09c0 5D01     		.2byte	0x15d
 8173 09c2 16010000 		.4byte	0x116
 8174 09c6 0C       		.byte	0xc
 8175 09c7 0A       		.uleb128 0xa
 8176 09c8 E6250000 		.4byte	.LASF154
 8177 09cc 0A       		.byte	0xa
 8178 09cd 5E01     		.2byte	0x15e
 8179 09cf 16010000 		.4byte	0x116
 8180 09d3 10       		.byte	0x10
 8181 09d4 09       		.uleb128 0x9
 8182 09d5 49435200 		.ascii	"ICR\000"
 8183 09d9 0A       		.byte	0xa
 8184 09da 5F01     		.2byte	0x15f
 8185 09dc 16010000 		.4byte	0x116
 8186 09e0 14       		.byte	0x14
 8187 09e1 0A       		.uleb128 0xa
 8188 09e2 5C1E0000 		.4byte	.LASF155
 8189 09e6 0A       		.byte	0xa
 8190 09e7 6001     		.2byte	0x160
 8191 09e9 16010000 		.4byte	0x116
 8192 09ed 18       		.byte	0x18
 8193 09ee 0A       		.uleb128 0xa
 8194 09ef 5A2B0000 		.4byte	.LASF156
 8195 09f3 0A       		.byte	0xa
 8196 09f4 6101     		.2byte	0x161
 8197 09f6 16010000 		.4byte	0x116
 8198 09fa 1C       		.byte	0x1c
 8199 09fb 0A       		.uleb128 0xa
 8200 09fc F7150000 		.4byte	.LASF157
 8201 0a00 0A       		.byte	0xa
 8202 0a01 6201     		.2byte	0x162
 8203 0a03 16010000 		.4byte	0x116
 8204 0a07 20       		.byte	0x20
 8205 0a08 0A       		.uleb128 0xa
 8206 0a09 211F0000 		.4byte	.LASF158
 8207 0a0d 0A       		.byte	0xa
 8208 0a0e 6301     		.2byte	0x163
 8209 0a10 16010000 		.4byte	0x116
 8210 0a14 24       		.byte	0x24
 8211 0a15 09       		.uleb128 0x9
 8212 0a16 445200   		.ascii	"DR\000"
 8213 0a19 0A       		.byte	0xa
 8214 0a1a 6401     		.2byte	0x164
 8215 0a1c 16010000 		.4byte	0x116
 8216 0a20 28       		.byte	0x28
 8217 0a21 00       		.byte	0
 8218 0a22 1A       		.uleb128 0x1a
 8219 0a23 79050000 		.4byte	.LASF159
 8220 0a27 0A       		.byte	0xa
 8221 0a28 6501     		.2byte	0x165
 8222 0a2a 8C090000 		.4byte	0x98c
 8223 0a2e 19       		.uleb128 0x19
 8224 0a2f 18       		.byte	0x18
 8225 0a30 0A       		.byte	0xa
 8226 0a31 6B01     		.2byte	0x16b
 8227 0a33 850A0000 		.4byte	0xa85
ARM GAS  /tmp/ccZueut9.s 			page 151


 8228 0a37 09       		.uleb128 0x9
 8229 0a38 435200   		.ascii	"CR\000"
 8230 0a3b 0A       		.byte	0xa
 8231 0a3c 6D01     		.2byte	0x16d
 8232 0a3e 16010000 		.4byte	0x116
 8233 0a42 00       		.byte	0
 8234 0a43 0A       		.uleb128 0xa
 8235 0a44 4A260000 		.4byte	.LASF160
 8236 0a48 0A       		.byte	0xa
 8237 0a49 6E01     		.2byte	0x16e
 8238 0a4b 16010000 		.4byte	0x116
 8239 0a4f 04       		.byte	0x4
 8240 0a50 09       		.uleb128 0x9
 8241 0a51 50415200 		.ascii	"PAR\000"
 8242 0a55 0A       		.byte	0xa
 8243 0a56 6F01     		.2byte	0x16f
 8244 0a58 16010000 		.4byte	0x116
 8245 0a5c 08       		.byte	0x8
 8246 0a5d 0A       		.uleb128 0xa
 8247 0a5e 44050000 		.4byte	.LASF161
 8248 0a62 0A       		.byte	0xa
 8249 0a63 7001     		.2byte	0x170
 8250 0a65 16010000 		.4byte	0x116
 8251 0a69 0C       		.byte	0xc
 8252 0a6a 0A       		.uleb128 0xa
 8253 0a6b CC090000 		.4byte	.LASF162
 8254 0a6f 0A       		.byte	0xa
 8255 0a70 7101     		.2byte	0x171
 8256 0a72 16010000 		.4byte	0x116
 8257 0a76 10       		.byte	0x10
 8258 0a77 09       		.uleb128 0x9
 8259 0a78 46435200 		.ascii	"FCR\000"
 8260 0a7c 0A       		.byte	0xa
 8261 0a7d 7201     		.2byte	0x172
 8262 0a7f 16010000 		.4byte	0x116
 8263 0a83 14       		.byte	0x14
 8264 0a84 00       		.byte	0
 8265 0a85 1A       		.uleb128 0x1a
 8266 0a86 D6090000 		.4byte	.LASF163
 8267 0a8a 0A       		.byte	0xa
 8268 0a8b 7301     		.2byte	0x173
 8269 0a8d 2E0A0000 		.4byte	0xa2e
 8270 0a91 13       		.uleb128 0x13
 8271 0a92 16010000 		.4byte	0x116
 8272 0a96 A10A0000 		.4byte	0xaa1
 8273 0a9a 14       		.uleb128 0x14
 8274 0a9b 37000000 		.4byte	0x37
 8275 0a9f 01       		.byte	0x1
 8276 0aa0 00       		.byte	0
 8277 0aa1 06       		.uleb128 0x6
 8278 0aa2 910A0000 		.4byte	0xa91
 8279 0aa6 13       		.uleb128 0x13
 8280 0aa7 16010000 		.4byte	0x116
 8281 0aab B60A0000 		.4byte	0xab6
 8282 0aaf 14       		.uleb128 0x14
 8283 0ab0 37000000 		.4byte	0x37
 8284 0ab4 03       		.byte	0x3
ARM GAS  /tmp/ccZueut9.s 			page 152


 8285 0ab5 00       		.byte	0
 8286 0ab6 06       		.uleb128 0x6
 8287 0ab7 A60A0000 		.4byte	0xaa6
 8288 0abb 19       		.uleb128 0x19
 8289 0abc 28       		.byte	0x28
 8290 0abd 0A       		.byte	0xa
 8291 0abe 3F02     		.2byte	0x23f
 8292 0ac0 460B0000 		.4byte	0xb46
 8293 0ac4 09       		.uleb128 0x9
 8294 0ac5 43523100 		.ascii	"CR1\000"
 8295 0ac9 0A       		.byte	0xa
 8296 0aca 4102     		.2byte	0x241
 8297 0acc 16010000 		.4byte	0x116
 8298 0ad0 00       		.byte	0
 8299 0ad1 09       		.uleb128 0x9
 8300 0ad2 43523200 		.ascii	"CR2\000"
 8301 0ad6 0A       		.byte	0xa
 8302 0ad7 4202     		.2byte	0x242
 8303 0ad9 16010000 		.4byte	0x116
 8304 0add 04       		.byte	0x4
 8305 0ade 0A       		.uleb128 0xa
 8306 0adf 6F2C0000 		.4byte	.LASF164
 8307 0ae3 0A       		.byte	0xa
 8308 0ae4 4302     		.2byte	0x243
 8309 0ae6 16010000 		.4byte	0x116
 8310 0aea 08       		.byte	0x8
 8311 0aeb 0A       		.uleb128 0xa
 8312 0aec 742C0000 		.4byte	.LASF165
 8313 0af0 0A       		.byte	0xa
 8314 0af1 4402     		.2byte	0x244
 8315 0af3 16010000 		.4byte	0x116
 8316 0af7 0C       		.byte	0xc
 8317 0af8 09       		.uleb128 0x9
 8318 0af9 445200   		.ascii	"DR\000"
 8319 0afc 0A       		.byte	0xa
 8320 0afd 4502     		.2byte	0x245
 8321 0aff 16010000 		.4byte	0x116
 8322 0b03 10       		.byte	0x10
 8323 0b04 09       		.uleb128 0x9
 8324 0b05 53523100 		.ascii	"SR1\000"
 8325 0b09 0A       		.byte	0xa
 8326 0b0a 4602     		.2byte	0x246
 8327 0b0c 16010000 		.4byte	0x116
 8328 0b10 14       		.byte	0x14
 8329 0b11 09       		.uleb128 0x9
 8330 0b12 53523200 		.ascii	"SR2\000"
 8331 0b16 0A       		.byte	0xa
 8332 0b17 4702     		.2byte	0x247
 8333 0b19 16010000 		.4byte	0x116
 8334 0b1d 18       		.byte	0x18
 8335 0b1e 09       		.uleb128 0x9
 8336 0b1f 43435200 		.ascii	"CCR\000"
 8337 0b23 0A       		.byte	0xa
 8338 0b24 4802     		.2byte	0x248
 8339 0b26 16010000 		.4byte	0x116
 8340 0b2a 1C       		.byte	0x1c
 8341 0b2b 0A       		.uleb128 0xa
ARM GAS  /tmp/ccZueut9.s 			page 153


 8342 0b2c 8D060000 		.4byte	.LASF166
 8343 0b30 0A       		.byte	0xa
 8344 0b31 4902     		.2byte	0x249
 8345 0b33 16010000 		.4byte	0x116
 8346 0b37 20       		.byte	0x20
 8347 0b38 0A       		.uleb128 0xa
 8348 0b39 EB2A0000 		.4byte	.LASF167
 8349 0b3d 0A       		.byte	0xa
 8350 0b3e 4A02     		.2byte	0x24a
 8351 0b40 16010000 		.4byte	0x116
 8352 0b44 24       		.byte	0x24
 8353 0b45 00       		.byte	0
 8354 0b46 1A       		.uleb128 0x1a
 8355 0b47 7E1A0000 		.4byte	.LASF168
 8356 0b4b 0A       		.byte	0xa
 8357 0b4c 4B02     		.2byte	0x24b
 8358 0b4e BB0A0000 		.4byte	0xabb
 8359 0b52 19       		.uleb128 0x19
 8360 0b53 84       		.byte	0x84
 8361 0b54 0A       		.byte	0xa
 8362 0b55 BF02     		.2byte	0x2bf
 8363 0b57 600C0000 		.4byte	0xc60
 8364 0b5b 0A       		.uleb128 0xa
 8365 0b5c B31A0000 		.4byte	.LASF169
 8366 0b60 0A       		.byte	0xa
 8367 0b61 C102     		.2byte	0x2c1
 8368 0b63 16010000 		.4byte	0x116
 8369 0b67 00       		.byte	0
 8370 0b68 0A       		.uleb128 0xa
 8371 0b69 8D270000 		.4byte	.LASF170
 8372 0b6d 0A       		.byte	0xa
 8373 0b6e C202     		.2byte	0x2c2
 8374 0b70 16010000 		.4byte	0x116
 8375 0b74 04       		.byte	0x4
 8376 0b75 09       		.uleb128 0x9
 8377 0b76 41524700 		.ascii	"ARG\000"
 8378 0b7a 0A       		.byte	0xa
 8379 0b7b C302     		.2byte	0x2c3
 8380 0b7d 16010000 		.4byte	0x116
 8381 0b81 08       		.byte	0x8
 8382 0b82 09       		.uleb128 0x9
 8383 0b83 434D4400 		.ascii	"CMD\000"
 8384 0b87 0A       		.byte	0xa
 8385 0b88 C402     		.2byte	0x2c4
 8386 0b8a 16010000 		.4byte	0x116
 8387 0b8e 0C       		.byte	0xc
 8388 0b8f 0A       		.uleb128 0xa
 8389 0b90 1E1E0000 		.4byte	.LASF171
 8390 0b94 0A       		.byte	0xa
 8391 0b95 C502     		.2byte	0x2c5
 8392 0b97 1B010000 		.4byte	0x11b
 8393 0b9b 10       		.byte	0x10
 8394 0b9c 0A       		.uleb128 0xa
 8395 0b9d B2070000 		.4byte	.LASF172
 8396 0ba1 0A       		.byte	0xa
 8397 0ba2 C602     		.2byte	0x2c6
 8398 0ba4 1B010000 		.4byte	0x11b
ARM GAS  /tmp/ccZueut9.s 			page 154


 8399 0ba8 14       		.byte	0x14
 8400 0ba9 0A       		.uleb128 0xa
 8401 0baa B8070000 		.4byte	.LASF173
 8402 0bae 0A       		.byte	0xa
 8403 0baf C702     		.2byte	0x2c7
 8404 0bb1 1B010000 		.4byte	0x11b
 8405 0bb5 18       		.byte	0x18
 8406 0bb6 0A       		.uleb128 0xa
 8407 0bb7 BE070000 		.4byte	.LASF174
 8408 0bbb 0A       		.byte	0xa
 8409 0bbc C802     		.2byte	0x2c8
 8410 0bbe 1B010000 		.4byte	0x11b
 8411 0bc2 1C       		.byte	0x1c
 8412 0bc3 0A       		.uleb128 0xa
 8413 0bc4 C4070000 		.4byte	.LASF175
 8414 0bc8 0A       		.byte	0xa
 8415 0bc9 C902     		.2byte	0x2c9
 8416 0bcb 1B010000 		.4byte	0x11b
 8417 0bcf 20       		.byte	0x20
 8418 0bd0 0A       		.uleb128 0xa
 8419 0bd1 B7170000 		.4byte	.LASF176
 8420 0bd5 0A       		.byte	0xa
 8421 0bd6 CA02     		.2byte	0x2ca
 8422 0bd8 16010000 		.4byte	0x116
 8423 0bdc 24       		.byte	0x24
 8424 0bdd 0A       		.uleb128 0xa
 8425 0bde 43190000 		.4byte	.LASF177
 8426 0be2 0A       		.byte	0xa
 8427 0be3 CB02     		.2byte	0x2cb
 8428 0be5 16010000 		.4byte	0x116
 8429 0be9 28       		.byte	0x28
 8430 0bea 0A       		.uleb128 0xa
 8431 0beb D72A0000 		.4byte	.LASF178
 8432 0bef 0A       		.byte	0xa
 8433 0bf0 CC02     		.2byte	0x2cc
 8434 0bf2 16010000 		.4byte	0x116
 8435 0bf6 2C       		.byte	0x2c
 8436 0bf7 0A       		.uleb128 0xa
 8437 0bf8 682C0000 		.4byte	.LASF179
 8438 0bfc 0A       		.byte	0xa
 8439 0bfd CD02     		.2byte	0x2cd
 8440 0bff 1B010000 		.4byte	0x11b
 8441 0c03 30       		.byte	0x30
 8442 0c04 09       		.uleb128 0x9
 8443 0c05 53544100 		.ascii	"STA\000"
 8444 0c09 0A       		.byte	0xa
 8445 0c0a CE02     		.2byte	0x2ce
 8446 0c0c 1B010000 		.4byte	0x11b
 8447 0c10 34       		.byte	0x34
 8448 0c11 09       		.uleb128 0x9
 8449 0c12 49435200 		.ascii	"ICR\000"
 8450 0c16 0A       		.byte	0xa
 8451 0c17 CF02     		.2byte	0x2cf
 8452 0c19 16010000 		.4byte	0x116
 8453 0c1d 38       		.byte	0x38
 8454 0c1e 0A       		.uleb128 0xa
 8455 0c1f 8D020000 		.4byte	.LASF180
ARM GAS  /tmp/ccZueut9.s 			page 155


 8456 0c23 0A       		.byte	0xa
 8457 0c24 D002     		.2byte	0x2d0
 8458 0c26 16010000 		.4byte	0x116
 8459 0c2a 3C       		.byte	0x3c
 8460 0c2b 0A       		.uleb128 0xa
 8461 0c2c DE240000 		.4byte	.LASF126
 8462 0c30 0A       		.byte	0xa
 8463 0c31 D102     		.2byte	0x2d1
 8464 0c33 3F050000 		.4byte	0x53f
 8465 0c37 40       		.byte	0x40
 8466 0c38 0A       		.uleb128 0xa
 8467 0c39 59180000 		.4byte	.LASF181
 8468 0c3d 0A       		.byte	0xa
 8469 0c3e D202     		.2byte	0x2d2
 8470 0c40 1B010000 		.4byte	0x11b
 8471 0c44 48       		.byte	0x48
 8472 0c45 0A       		.uleb128 0xa
 8473 0c46 E8240000 		.4byte	.LASF129
 8474 0c4a 0A       		.byte	0xa
 8475 0c4b D302     		.2byte	0x2d3
 8476 0c4d 600C0000 		.4byte	0xc60
 8477 0c51 4C       		.byte	0x4c
 8478 0c52 0A       		.uleb128 0xa
 8479 0c53 3E0B0000 		.4byte	.LASF182
 8480 0c57 0A       		.byte	0xa
 8481 0c58 D402     		.2byte	0x2d4
 8482 0c5a 16010000 		.4byte	0x116
 8483 0c5e 80       		.byte	0x80
 8484 0c5f 00       		.byte	0
 8485 0c60 13       		.uleb128 0x13
 8486 0c61 0B010000 		.4byte	0x10b
 8487 0c65 700C0000 		.4byte	0xc70
 8488 0c69 14       		.uleb128 0x14
 8489 0c6a 37000000 		.4byte	0x37
 8490 0c6e 0C       		.byte	0xc
 8491 0c6f 00       		.byte	0
 8492 0c70 1A       		.uleb128 0x1a
 8493 0c71 2F260000 		.4byte	.LASF183
 8494 0c75 0A       		.byte	0xa
 8495 0c76 D502     		.2byte	0x2d5
 8496 0c78 520B0000 		.4byte	0xb52
 8497 0c7c 19       		.uleb128 0x19
 8498 0c7d 24       		.byte	0x24
 8499 0c7e 0A       		.byte	0xa
 8500 0c7f DB02     		.2byte	0x2db
 8501 0c81 F90C0000 		.4byte	0xcf9
 8502 0c85 09       		.uleb128 0x9
 8503 0c86 43523100 		.ascii	"CR1\000"
 8504 0c8a 0A       		.byte	0xa
 8505 0c8b DD02     		.2byte	0x2dd
 8506 0c8d 16010000 		.4byte	0x116
 8507 0c91 00       		.byte	0
 8508 0c92 09       		.uleb128 0x9
 8509 0c93 43523200 		.ascii	"CR2\000"
 8510 0c97 0A       		.byte	0xa
 8511 0c98 DE02     		.2byte	0x2de
 8512 0c9a 16010000 		.4byte	0x116
ARM GAS  /tmp/ccZueut9.s 			page 156


 8513 0c9e 04       		.byte	0x4
 8514 0c9f 09       		.uleb128 0x9
 8515 0ca0 535200   		.ascii	"SR\000"
 8516 0ca3 0A       		.byte	0xa
 8517 0ca4 DF02     		.2byte	0x2df
 8518 0ca6 16010000 		.4byte	0x116
 8519 0caa 08       		.byte	0x8
 8520 0cab 09       		.uleb128 0x9
 8521 0cac 445200   		.ascii	"DR\000"
 8522 0caf 0A       		.byte	0xa
 8523 0cb0 E002     		.2byte	0x2e0
 8524 0cb2 16010000 		.4byte	0x116
 8525 0cb6 0C       		.byte	0xc
 8526 0cb7 0A       		.uleb128 0xa
 8527 0cb8 48090000 		.4byte	.LASF184
 8528 0cbc 0A       		.byte	0xa
 8529 0cbd E102     		.2byte	0x2e1
 8530 0cbf 16010000 		.4byte	0x116
 8531 0cc3 10       		.byte	0x10
 8532 0cc4 0A       		.uleb128 0xa
 8533 0cc5 900D0000 		.4byte	.LASF185
 8534 0cc9 0A       		.byte	0xa
 8535 0cca E202     		.2byte	0x2e2
 8536 0ccc 16010000 		.4byte	0x116
 8537 0cd0 14       		.byte	0x14
 8538 0cd1 0A       		.uleb128 0xa
 8539 0cd2 6E0C0000 		.4byte	.LASF186
 8540 0cd6 0A       		.byte	0xa
 8541 0cd7 E302     		.2byte	0x2e3
 8542 0cd9 16010000 		.4byte	0x116
 8543 0cdd 18       		.byte	0x18
 8544 0cde 0A       		.uleb128 0xa
 8545 0cdf 4F280000 		.4byte	.LASF187
 8546 0ce3 0A       		.byte	0xa
 8547 0ce4 E402     		.2byte	0x2e4
 8548 0ce6 16010000 		.4byte	0x116
 8549 0cea 1C       		.byte	0x1c
 8550 0ceb 0A       		.uleb128 0xa
 8551 0cec E1080000 		.4byte	.LASF188
 8552 0cf0 0A       		.byte	0xa
 8553 0cf1 E502     		.2byte	0x2e5
 8554 0cf3 16010000 		.4byte	0x116
 8555 0cf7 20       		.byte	0x20
 8556 0cf8 00       		.byte	0
 8557 0cf9 1A       		.uleb128 0x1a
 8558 0cfa 85260000 		.4byte	.LASF189
 8559 0cfe 0A       		.byte	0xa
 8560 0cff E602     		.2byte	0x2e6
 8561 0d01 7C0C0000 		.4byte	0xc7c
 8562 0d05 19       		.uleb128 0x19
 8563 0d06 1C       		.byte	0x1c
 8564 0d07 0A       		.byte	0xa
 8565 0d08 0903     		.2byte	0x309
 8566 0d0a 680D0000 		.4byte	0xd68
 8567 0d0e 09       		.uleb128 0x9
 8568 0d0f 535200   		.ascii	"SR\000"
 8569 0d12 0A       		.byte	0xa
ARM GAS  /tmp/ccZueut9.s 			page 157


 8570 0d13 0B03     		.2byte	0x30b
 8571 0d15 16010000 		.4byte	0x116
 8572 0d19 00       		.byte	0
 8573 0d1a 09       		.uleb128 0x9
 8574 0d1b 445200   		.ascii	"DR\000"
 8575 0d1e 0A       		.byte	0xa
 8576 0d1f 0C03     		.2byte	0x30c
 8577 0d21 16010000 		.4byte	0x116
 8578 0d25 04       		.byte	0x4
 8579 0d26 09       		.uleb128 0x9
 8580 0d27 42525200 		.ascii	"BRR\000"
 8581 0d2b 0A       		.byte	0xa
 8582 0d2c 0D03     		.2byte	0x30d
 8583 0d2e 16010000 		.4byte	0x116
 8584 0d32 08       		.byte	0x8
 8585 0d33 09       		.uleb128 0x9
 8586 0d34 43523100 		.ascii	"CR1\000"
 8587 0d38 0A       		.byte	0xa
 8588 0d39 0E03     		.2byte	0x30e
 8589 0d3b 16010000 		.4byte	0x116
 8590 0d3f 0C       		.byte	0xc
 8591 0d40 09       		.uleb128 0x9
 8592 0d41 43523200 		.ascii	"CR2\000"
 8593 0d45 0A       		.byte	0xa
 8594 0d46 0F03     		.2byte	0x30f
 8595 0d48 16010000 		.4byte	0x116
 8596 0d4c 10       		.byte	0x10
 8597 0d4d 09       		.uleb128 0x9
 8598 0d4e 43523300 		.ascii	"CR3\000"
 8599 0d52 0A       		.byte	0xa
 8600 0d53 1003     		.2byte	0x310
 8601 0d55 16010000 		.4byte	0x116
 8602 0d59 14       		.byte	0x14
 8603 0d5a 0A       		.uleb128 0xa
 8604 0d5b 972A0000 		.4byte	.LASF190
 8605 0d5f 0A       		.byte	0xa
 8606 0d60 1103     		.2byte	0x311
 8607 0d62 16010000 		.4byte	0x116
 8608 0d66 18       		.byte	0x18
 8609 0d67 00       		.byte	0
 8610 0d68 1A       		.uleb128 0x1a
 8611 0d69 9A2B0000 		.4byte	.LASF191
 8612 0d6d 0A       		.byte	0xa
 8613 0d6e 1203     		.2byte	0x312
 8614 0d70 050D0000 		.4byte	0xd05
 8615 0d74 13       		.uleb128 0x13
 8616 0d75 16010000 		.4byte	0x116
 8617 0d79 840D0000 		.4byte	0xd84
 8618 0d7d 14       		.uleb128 0x14
 8619 0d7e 37000000 		.4byte	0x37
 8620 0d82 0E       		.byte	0xe
 8621 0d83 00       		.byte	0
 8622 0d84 06       		.uleb128 0x6
 8623 0d85 740D0000 		.4byte	0xd74
 8624 0d89 03       		.uleb128 0x3
 8625 0d8a 471D0000 		.4byte	.LASF192
 8626 0d8e 0B       		.byte	0xb
ARM GAS  /tmp/ccZueut9.s 			page 158


 8627 0d8f 65       		.byte	0x65
 8628 0d90 D0030000 		.4byte	0x3d0
 8629 0d94 03       		.uleb128 0x3
 8630 0d95 D60A0000 		.4byte	.LASF193
 8631 0d99 0B       		.byte	0xb
 8632 0d9a 6D       		.byte	0x6d
 8633 0d9b 20010000 		.4byte	0x120
 8634 0d9f 07       		.uleb128 0x7
 8635 0da0 A91C0000 		.4byte	.LASF194
 8636 0da4 04       		.byte	0x4
 8637 0da5 0B       		.byte	0xb
 8638 0da6 89       		.byte	0x89
 8639 0da7 B80D0000 		.4byte	0xdb8
 8640 0dab 18       		.uleb128 0x18
 8641 0dac 72313300 		.ascii	"r13\000"
 8642 0db0 0B       		.byte	0xb
 8643 0db1 8A       		.byte	0x8a
 8644 0db2 F90E0000 		.4byte	0xef9
 8645 0db6 00       		.byte	0
 8646 0db7 00       		.byte	0
 8647 0db8 07       		.uleb128 0x7
 8648 0db9 09000000 		.4byte	.LASF195
 8649 0dbd 64       		.byte	0x64
 8650 0dbe 0C       		.byte	0xc
 8651 0dbf F4       		.byte	0xf4
 8652 0dc0 F90E0000 		.4byte	0xef9
 8653 0dc4 18       		.uleb128 0x18
 8654 0dc5 73313600 		.ascii	"s16\000"
 8655 0dc9 0C       		.byte	0xc
 8656 0dca F6       		.byte	0xf6
 8657 0dcb 890D0000 		.4byte	0xd89
 8658 0dcf 00       		.byte	0
 8659 0dd0 18       		.uleb128 0x18
 8660 0dd1 73313700 		.ascii	"s17\000"
 8661 0dd5 0C       		.byte	0xc
 8662 0dd6 F7       		.byte	0xf7
 8663 0dd7 890D0000 		.4byte	0xd89
 8664 0ddb 04       		.byte	0x4
 8665 0ddc 18       		.uleb128 0x18
 8666 0ddd 73313800 		.ascii	"s18\000"
 8667 0de1 0C       		.byte	0xc
 8668 0de2 F8       		.byte	0xf8
 8669 0de3 890D0000 		.4byte	0xd89
 8670 0de7 08       		.byte	0x8
 8671 0de8 18       		.uleb128 0x18
 8672 0de9 73313900 		.ascii	"s19\000"
 8673 0ded 0C       		.byte	0xc
 8674 0dee F9       		.byte	0xf9
 8675 0def 890D0000 		.4byte	0xd89
 8676 0df3 0C       		.byte	0xc
 8677 0df4 18       		.uleb128 0x18
 8678 0df5 73323000 		.ascii	"s20\000"
 8679 0df9 0C       		.byte	0xc
 8680 0dfa FA       		.byte	0xfa
 8681 0dfb 890D0000 		.4byte	0xd89
 8682 0dff 10       		.byte	0x10
 8683 0e00 18       		.uleb128 0x18
ARM GAS  /tmp/ccZueut9.s 			page 159


 8684 0e01 73323100 		.ascii	"s21\000"
 8685 0e05 0C       		.byte	0xc
 8686 0e06 FB       		.byte	0xfb
 8687 0e07 890D0000 		.4byte	0xd89
 8688 0e0b 14       		.byte	0x14
 8689 0e0c 18       		.uleb128 0x18
 8690 0e0d 73323200 		.ascii	"s22\000"
 8691 0e11 0C       		.byte	0xc
 8692 0e12 FC       		.byte	0xfc
 8693 0e13 890D0000 		.4byte	0xd89
 8694 0e17 18       		.byte	0x18
 8695 0e18 18       		.uleb128 0x18
 8696 0e19 73323300 		.ascii	"s23\000"
 8697 0e1d 0C       		.byte	0xc
 8698 0e1e FD       		.byte	0xfd
 8699 0e1f 890D0000 		.4byte	0xd89
 8700 0e23 1C       		.byte	0x1c
 8701 0e24 18       		.uleb128 0x18
 8702 0e25 73323400 		.ascii	"s24\000"
 8703 0e29 0C       		.byte	0xc
 8704 0e2a FE       		.byte	0xfe
 8705 0e2b 890D0000 		.4byte	0xd89
 8706 0e2f 20       		.byte	0x20
 8707 0e30 18       		.uleb128 0x18
 8708 0e31 73323500 		.ascii	"s25\000"
 8709 0e35 0C       		.byte	0xc
 8710 0e36 FF       		.byte	0xff
 8711 0e37 890D0000 		.4byte	0xd89
 8712 0e3b 24       		.byte	0x24
 8713 0e3c 09       		.uleb128 0x9
 8714 0e3d 73323600 		.ascii	"s26\000"
 8715 0e41 0C       		.byte	0xc
 8716 0e42 0001     		.2byte	0x100
 8717 0e44 890D0000 		.4byte	0xd89
 8718 0e48 28       		.byte	0x28
 8719 0e49 09       		.uleb128 0x9
 8720 0e4a 73323700 		.ascii	"s27\000"
 8721 0e4e 0C       		.byte	0xc
 8722 0e4f 0101     		.2byte	0x101
 8723 0e51 890D0000 		.4byte	0xd89
 8724 0e55 2C       		.byte	0x2c
 8725 0e56 09       		.uleb128 0x9
 8726 0e57 73323800 		.ascii	"s28\000"
 8727 0e5b 0C       		.byte	0xc
 8728 0e5c 0201     		.2byte	0x102
 8729 0e5e 890D0000 		.4byte	0xd89
 8730 0e62 30       		.byte	0x30
 8731 0e63 09       		.uleb128 0x9
 8732 0e64 73323900 		.ascii	"s29\000"
 8733 0e68 0C       		.byte	0xc
 8734 0e69 0301     		.2byte	0x103
 8735 0e6b 890D0000 		.4byte	0xd89
 8736 0e6f 34       		.byte	0x34
 8737 0e70 09       		.uleb128 0x9
 8738 0e71 73333000 		.ascii	"s30\000"
 8739 0e75 0C       		.byte	0xc
 8740 0e76 0401     		.2byte	0x104
ARM GAS  /tmp/ccZueut9.s 			page 160


 8741 0e78 890D0000 		.4byte	0xd89
 8742 0e7c 38       		.byte	0x38
 8743 0e7d 09       		.uleb128 0x9
 8744 0e7e 73333100 		.ascii	"s31\000"
 8745 0e82 0C       		.byte	0xc
 8746 0e83 0501     		.2byte	0x105
 8747 0e85 890D0000 		.4byte	0xd89
 8748 0e89 3C       		.byte	0x3c
 8749 0e8a 09       		.uleb128 0x9
 8750 0e8b 723400   		.ascii	"r4\000"
 8751 0e8e 0C       		.byte	0xc
 8752 0e8f 0701     		.2byte	0x107
 8753 0e91 890D0000 		.4byte	0xd89
 8754 0e95 40       		.byte	0x40
 8755 0e96 09       		.uleb128 0x9
 8756 0e97 723500   		.ascii	"r5\000"
 8757 0e9a 0C       		.byte	0xc
 8758 0e9b 0801     		.2byte	0x108
 8759 0e9d 890D0000 		.4byte	0xd89
 8760 0ea1 44       		.byte	0x44
 8761 0ea2 09       		.uleb128 0x9
 8762 0ea3 723600   		.ascii	"r6\000"
 8763 0ea6 0C       		.byte	0xc
 8764 0ea7 0901     		.2byte	0x109
 8765 0ea9 890D0000 		.4byte	0xd89
 8766 0ead 48       		.byte	0x48
 8767 0eae 09       		.uleb128 0x9
 8768 0eaf 723700   		.ascii	"r7\000"
 8769 0eb2 0C       		.byte	0xc
 8770 0eb3 0A01     		.2byte	0x10a
 8771 0eb5 890D0000 		.4byte	0xd89
 8772 0eb9 4C       		.byte	0x4c
 8773 0eba 09       		.uleb128 0x9
 8774 0ebb 723800   		.ascii	"r8\000"
 8775 0ebe 0C       		.byte	0xc
 8776 0ebf 0B01     		.2byte	0x10b
 8777 0ec1 890D0000 		.4byte	0xd89
 8778 0ec5 50       		.byte	0x50
 8779 0ec6 09       		.uleb128 0x9
 8780 0ec7 723900   		.ascii	"r9\000"
 8781 0eca 0C       		.byte	0xc
 8782 0ecb 0C01     		.2byte	0x10c
 8783 0ecd 890D0000 		.4byte	0xd89
 8784 0ed1 54       		.byte	0x54
 8785 0ed2 09       		.uleb128 0x9
 8786 0ed3 72313000 		.ascii	"r10\000"
 8787 0ed7 0C       		.byte	0xc
 8788 0ed8 0D01     		.2byte	0x10d
 8789 0eda 890D0000 		.4byte	0xd89
 8790 0ede 58       		.byte	0x58
 8791 0edf 09       		.uleb128 0x9
 8792 0ee0 72313100 		.ascii	"r11\000"
 8793 0ee4 0C       		.byte	0xc
 8794 0ee5 0E01     		.2byte	0x10e
 8795 0ee7 890D0000 		.4byte	0xd89
 8796 0eeb 5C       		.byte	0x5c
 8797 0eec 09       		.uleb128 0x9
ARM GAS  /tmp/ccZueut9.s 			page 161


 8798 0eed 6C7200   		.ascii	"lr\000"
 8799 0ef0 0C       		.byte	0xc
 8800 0ef1 0F01     		.2byte	0x10f
 8801 0ef3 890D0000 		.4byte	0xd89
 8802 0ef7 60       		.byte	0x60
 8803 0ef8 00       		.byte	0
 8804 0ef9 0B       		.uleb128 0xb
 8805 0efa 04       		.byte	0x4
 8806 0efb B80D0000 		.4byte	0xdb8
 8807 0eff 17       		.uleb128 0x17
 8808 0f00 10       		.byte	0x10
 8809 0f01 0D       		.byte	0xd
 8810 0f02 51       		.byte	0x51
 8811 0f03 380F0000 		.4byte	0xf38
 8812 0f07 08       		.uleb128 0x8
 8813 0f08 52250000 		.4byte	.LASF196
 8814 0f0c 0D       		.byte	0xd
 8815 0f0d 55       		.byte	0x55
 8816 0f0e AF010000 		.4byte	0x1af
 8817 0f12 00       		.byte	0
 8818 0f13 08       		.uleb128 0x8
 8819 0f14 E11D0000 		.4byte	.LASF197
 8820 0f18 0D       		.byte	0xd
 8821 0f19 59       		.byte	0x59
 8822 0f1a F3020000 		.4byte	0x2f3
 8823 0f1e 04       		.byte	0x4
 8824 0f1f 08       		.uleb128 0x8
 8825 0f20 560E0000 		.4byte	.LASF198
 8826 0f24 0D       		.byte	0xd
 8827 0f25 5D       		.byte	0x5d
 8828 0f26 D0030000 		.4byte	0x3d0
 8829 0f2a 08       		.byte	0x8
 8830 0f2b 08       		.uleb128 0x8
 8831 0f2c E00B0000 		.4byte	.LASF199
 8832 0f30 0D       		.byte	0xd
 8833 0f31 61       		.byte	0x61
 8834 0f32 D5000000 		.4byte	0xd5
 8835 0f36 0C       		.byte	0xc
 8836 0f37 00       		.byte	0
 8837 0f38 03       		.uleb128 0x3
 8838 0f39 490F0000 		.4byte	.LASF200
 8839 0f3d 0D       		.byte	0xd
 8840 0f3e 62       		.byte	0x62
 8841 0f3f FF0E0000 		.4byte	0xeff
 8842 0f43 1C       		.uleb128 0x1c
 8843 0f44 0804     		.2byte	0x408
 8844 0f46 0D       		.byte	0xd
 8845 0f47 67       		.byte	0x67
 8846 0f48 710F0000 		.4byte	0xf71
 8847 0f4c 08       		.uleb128 0x8
 8848 0f4d 2C100000 		.4byte	.LASF201
 8849 0f51 0D       		.byte	0xd
 8850 0f52 6B       		.byte	0x6b
 8851 0f53 37000000 		.4byte	0x37
 8852 0f57 00       		.byte	0
 8853 0f58 08       		.uleb128 0x8
 8854 0f59 88180000 		.4byte	.LASF202
ARM GAS  /tmp/ccZueut9.s 			page 162


 8855 0f5d 0D       		.byte	0xd
 8856 0f5e 6F       		.byte	0x6f
 8857 0f5f 710F0000 		.4byte	0xf71
 8858 0f63 04       		.byte	0x4
 8859 0f64 08       		.uleb128 0x8
 8860 0f65 430B0000 		.4byte	.LASF203
 8861 0f69 0D       		.byte	0xd
 8862 0f6a 73       		.byte	0x73
 8863 0f6b 770F0000 		.4byte	0xf77
 8864 0f6f 08       		.byte	0x8
 8865 0f70 00       		.byte	0
 8866 0f71 0B       		.uleb128 0xb
 8867 0f72 04       		.byte	0x4
 8868 0f73 380F0000 		.4byte	0xf38
 8869 0f77 13       		.uleb128 0x13
 8870 0f78 380F0000 		.4byte	0xf38
 8871 0f7c 870F0000 		.4byte	0xf87
 8872 0f80 14       		.uleb128 0x14
 8873 0f81 37000000 		.4byte	0x37
 8874 0f85 3F       		.byte	0x3f
 8875 0f86 00       		.byte	0
 8876 0f87 03       		.uleb128 0x3
 8877 0f88 15000000 		.4byte	.LASF204
 8878 0f8c 0D       		.byte	0xd
 8879 0f8d 74       		.byte	0x74
 8880 0f8e 430F0000 		.4byte	0xf43
 8881 0f92 17       		.uleb128 0x17
 8882 0f93 04       		.byte	0x4
 8883 0f94 0E       		.byte	0xe
 8884 0f95 38       		.byte	0x38
 8885 0f96 A70F0000 		.4byte	0xfa7
 8886 0f9a 08       		.uleb128 0x8
 8887 0f9b 3C260000 		.4byte	.LASF205
 8888 0f9f 0E       		.byte	0xe
 8889 0fa0 3C       		.byte	0x3c
 8890 0fa1 2B010000 		.4byte	0x12b
 8891 0fa5 00       		.byte	0
 8892 0fa6 00       		.byte	0
 8893 0fa7 03       		.uleb128 0x3
 8894 0fa8 742A0000 		.4byte	.LASF206
 8895 0fac 0E       		.byte	0xe
 8896 0fad 3D       		.byte	0x3d
 8897 0fae 920F0000 		.4byte	0xf92
 8898 0fb2 17       		.uleb128 0x17
 8899 0fb3 18       		.byte	0x18
 8900 0fb4 0E       		.byte	0xe
 8901 0fb5 48       		.byte	0x48
 8902 0fb6 F50F0000 		.4byte	0xff5
 8903 0fba 08       		.uleb128 0x8
 8904 0fbb F2080000 		.4byte	.LASF207
 8905 0fbf 0E       		.byte	0xe
 8906 0fc0 49       		.byte	0x49
 8907 0fc1 2B010000 		.4byte	0x12b
 8908 0fc5 00       		.byte	0
 8909 0fc6 08       		.uleb128 0x8
 8910 0fc7 2B020000 		.4byte	.LASF208
 8911 0fcb 0E       		.byte	0xe
ARM GAS  /tmp/ccZueut9.s 			page 163


 8912 0fcc 4A       		.byte	0x4a
 8913 0fcd 2B010000 		.4byte	0x12b
 8914 0fd1 04       		.byte	0x4
 8915 0fd2 08       		.uleb128 0x8
 8916 0fd3 D71C0000 		.4byte	.LASF209
 8917 0fd7 0E       		.byte	0xe
 8918 0fd8 4B       		.byte	0x4b
 8919 0fd9 2B010000 		.4byte	0x12b
 8920 0fdd 08       		.byte	0x8
 8921 0fde 18       		.uleb128 0x18
 8922 0fdf 6E00     		.ascii	"n\000"
 8923 0fe1 0E       		.byte	0xe
 8924 0fe2 4C       		.byte	0x4c
 8925 0fe3 A4010000 		.4byte	0x1a4
 8926 0fe7 0C       		.byte	0xc
 8927 0fe8 08       		.uleb128 0x8
 8928 0fe9 711C0000 		.4byte	.LASF210
 8929 0fed 0E       		.byte	0xe
 8930 0fee 4D       		.byte	0x4d
 8931 0fef 36010000 		.4byte	0x136
 8932 0ff3 10       		.byte	0x10
 8933 0ff4 00       		.byte	0
 8934 0ff5 03       		.uleb128 0x3
 8935 0ff6 EA280000 		.4byte	.LASF211
 8936 0ffa 0E       		.byte	0xe
 8937 0ffb 4E       		.byte	0x4e
 8938 0ffc B20F0000 		.4byte	0xfb2
 8939 1000 17       		.uleb128 0x17
 8940 1001 38       		.byte	0x38
 8941 1002 0F       		.byte	0xf
 8942 1003 38       		.byte	0x38
 8943 1004 39100000 		.4byte	0x1039
 8944 1008 08       		.uleb128 0x8
 8945 1009 28080000 		.4byte	.LASF212
 8946 100d 0F       		.byte	0xf
 8947 100e 39       		.byte	0x39
 8948 100f A4010000 		.4byte	0x1a4
 8949 1013 00       		.byte	0
 8950 1014 08       		.uleb128 0x8
 8951 1015 AC0C0000 		.4byte	.LASF213
 8952 1019 0F       		.byte	0xf
 8953 101a 3A       		.byte	0x3a
 8954 101b A4010000 		.4byte	0x1a4
 8955 101f 04       		.byte	0x4
 8956 1020 08       		.uleb128 0x8
 8957 1021 32280000 		.4byte	.LASF214
 8958 1025 0F       		.byte	0xf
 8959 1026 3B       		.byte	0x3b
 8960 1027 F50F0000 		.4byte	0xff5
 8961 102b 08       		.byte	0x8
 8962 102c 08       		.uleb128 0x8
 8963 102d D0000000 		.4byte	.LASF215
 8964 1031 0F       		.byte	0xf
 8965 1032 3D       		.byte	0x3d
 8966 1033 F50F0000 		.4byte	0xff5
 8967 1037 20       		.byte	0x20
 8968 1038 00       		.byte	0
ARM GAS  /tmp/ccZueut9.s 			page 164


 8969 1039 03       		.uleb128 0x3
 8970 103a A6060000 		.4byte	.LASF216
 8971 103e 0F       		.byte	0xf
 8972 103f 3F       		.byte	0x3f
 8973 1040 00100000 		.4byte	0x1000
 8974 1044 1D       		.uleb128 0x1d
 8975 1045 04       		.byte	0x4
 8976 1046 07       		.byte	0x7
 8977 1047 FA       		.byte	0xfa
 8978 1048 A1100000 		.4byte	0x10a1
 8979 104c 1E       		.uleb128 0x1e
 8980 104d 97130000 		.4byte	.LASF217
 8981 1051 07       		.byte	0x7
 8982 1052 0101     		.2byte	0x101
 8983 1054 78010000 		.4byte	0x178
 8984 1058 1E       		.uleb128 0x1e
 8985 1059 C3090000 		.4byte	.LASF218
 8986 105d 07       		.byte	0x7
 8987 105e 0801     		.2byte	0x108
 8988 1060 78010000 		.4byte	0x178
 8989 1064 1E       		.uleb128 0x1e
 8990 1065 7B220000 		.4byte	.LASF219
 8991 1069 07       		.byte	0x7
 8992 106a 0F01     		.2byte	0x10f
 8993 106c D0030000 		.4byte	0x3d0
 8994 1070 1E       		.uleb128 0x1e
 8995 1071 9B1C0000 		.4byte	.LASF220
 8996 1075 07       		.byte	0x7
 8997 1076 1601     		.2byte	0x116
 8998 1078 A1100000 		.4byte	0x10a1
 8999 107c 1E       		.uleb128 0x1e
 9000 107d 49010000 		.4byte	.LASF221
 9001 1081 07       		.byte	0x7
 9002 1082 1E01     		.2byte	0x11e
 9003 1084 CC100000 		.4byte	0x10cc
 9004 1088 1E       		.uleb128 0x1e
 9005 1089 FC220000 		.4byte	.LASF222
 9006 108d 07       		.byte	0x7
 9007 108e 2701     		.2byte	0x127
 9008 1090 0F110000 		.4byte	0x110f
 9009 1094 1E       		.uleb128 0x1e
 9010 1095 D9260000 		.4byte	.LASF223
 9011 1099 07       		.byte	0x7
 9012 109a 2F01     		.2byte	0x12f
 9013 109c 83010000 		.4byte	0x183
 9014 10a0 00       		.byte	0
 9015 10a1 0B       		.uleb128 0xb
 9016 10a2 04       		.byte	0x4
 9017 10a3 E8020000 		.4byte	0x2e8
 9018 10a7 07       		.uleb128 0x7
 9019 10a8 111B0000 		.4byte	.LASF224
 9020 10ac 0C       		.byte	0xc
 9021 10ad 10       		.byte	0x10
 9022 10ae 34       		.byte	0x34
 9023 10af CC100000 		.4byte	0x10cc
 9024 10b3 08       		.uleb128 0x8
 9025 10b4 2A280000 		.4byte	.LASF225
ARM GAS  /tmp/ccZueut9.s 			page 165


 9026 10b8 10       		.byte	0x10
 9027 10b9 35       		.byte	0x35
 9028 10ba 1D030000 		.4byte	0x31d
 9029 10be 00       		.byte	0
 9030 10bf 08       		.uleb128 0x8
 9031 10c0 5A0B0000 		.4byte	.LASF226
 9032 10c4 10       		.byte	0x10
 9033 10c5 37       		.byte	0x37
 9034 10c6 99010000 		.4byte	0x199
 9035 10ca 08       		.byte	0x8
 9036 10cb 00       		.byte	0
 9037 10cc 0B       		.uleb128 0xb
 9038 10cd 04       		.byte	0x4
 9039 10ce A7100000 		.4byte	0x10a7
 9040 10d2 07       		.uleb128 0x7
 9041 10d3 BE0D0000 		.4byte	.LASF227
 9042 10d7 14       		.byte	0x14
 9043 10d8 11       		.byte	0x11
 9044 10d9 39       		.byte	0x39
 9045 10da 0F110000 		.4byte	0x110f
 9046 10de 08       		.uleb128 0x8
 9047 10df E81B0000 		.4byte	.LASF228
 9048 10e3 11       		.byte	0x11
 9049 10e4 3A       		.byte	0x3a
 9050 10e5 1D030000 		.4byte	0x31d
 9051 10e9 00       		.byte	0
 9052 10ea 08       		.uleb128 0x8
 9053 10eb CA190000 		.4byte	.LASF229
 9054 10ef 11       		.byte	0x11
 9055 10f0 3C       		.byte	0x3c
 9056 10f1 F3020000 		.4byte	0x2f3
 9057 10f5 08       		.byte	0x8
 9058 10f6 08       		.uleb128 0x8
 9059 10f7 75020000 		.4byte	.LASF230
 9060 10fb 11       		.byte	0x11
 9061 10fc 3E       		.byte	0x3e
 9062 10fd 6A120000 		.4byte	0x126a
 9063 1101 0C       		.byte	0xc
 9064 1102 08       		.uleb128 0x8
 9065 1103 490A0000 		.4byte	.LASF231
 9066 1107 11       		.byte	0x11
 9067 1108 41       		.byte	0x41
 9068 1109 99010000 		.4byte	0x199
 9069 110d 10       		.byte	0x10
 9070 110e 00       		.byte	0
 9071 110f 0B       		.uleb128 0xb
 9072 1110 04       		.byte	0x4
 9073 1111 D2100000 		.4byte	0x10d2
 9074 1115 0B       		.uleb128 0xb
 9075 1116 04       		.byte	0x4
 9076 1117 27110000 		.4byte	0x1127
 9077 111b 06       		.uleb128 0x6
 9078 111c 15110000 		.4byte	0x1115
 9079 1120 04       		.uleb128 0x4
 9080 1121 01       		.byte	0x1
 9081 1122 08       		.byte	0x8
 9082 1123 451E0000 		.4byte	.LASF232
ARM GAS  /tmp/ccZueut9.s 			page 166


 9083 1127 05       		.uleb128 0x5
 9084 1128 20110000 		.4byte	0x1120
 9085 112c 0B       		.uleb128 0xb
 9086 112d 04       		.byte	0x4
 9087 112e 940D0000 		.4byte	0xd94
 9088 1132 0B       		.uleb128 0xb
 9089 1133 04       		.byte	0x4
 9090 1134 D2030000 		.4byte	0x3d2
 9091 1138 13       		.uleb128 0x13
 9092 1139 940D0000 		.4byte	0xd94
 9093 113d 48110000 		.4byte	0x1148
 9094 1141 14       		.uleb128 0x14
 9095 1142 37000000 		.4byte	0x37
 9096 1146 30       		.byte	0x30
 9097 1147 00       		.byte	0
 9098 1148 1F       		.uleb128 0x1f
 9099 1149 636800   		.ascii	"ch\000"
 9100 114c 07       		.byte	0x7
 9101 114d 0902     		.2byte	0x209
 9102 114f C7040000 		.4byte	0x4c7
 9103 1153 17       		.uleb128 0x17
 9104 1154 16       		.byte	0x16
 9105 1155 12       		.byte	0x12
 9106 1156 34       		.byte	0x34
 9107 1157 34120000 		.4byte	0x1234
 9108 115b 08       		.uleb128 0x8
 9109 115c 63280000 		.4byte	.LASF233
 9110 1160 12       		.byte	0x12
 9111 1161 35       		.byte	0x35
 9112 1162 34120000 		.4byte	0x1234
 9113 1166 00       		.byte	0
 9114 1167 08       		.uleb128 0x8
 9115 1168 BD2A0000 		.4byte	.LASF234
 9116 116c 12       		.byte	0x12
 9117 116d 36       		.byte	0x36
 9118 116e D5000000 		.4byte	0xd5
 9119 1172 04       		.byte	0x4
 9120 1173 08       		.uleb128 0x8
 9121 1174 1A040000 		.4byte	.LASF235
 9122 1178 12       		.byte	0x12
 9123 1179 37       		.byte	0x37
 9124 117a D5000000 		.4byte	0xd5
 9125 117e 05       		.byte	0x5
 9126 117f 08       		.uleb128 0x8
 9127 1180 351A0000 		.4byte	.LASF236
 9128 1184 12       		.byte	0x12
 9129 1185 38       		.byte	0x38
 9130 1186 F0000000 		.4byte	0xf0
 9131 118a 06       		.byte	0x6
 9132 118b 08       		.uleb128 0x8
 9133 118c 27000000 		.4byte	.LASF237
 9134 1190 12       		.byte	0x12
 9135 1191 39       		.byte	0x39
 9136 1192 D5000000 		.4byte	0xd5
 9137 1196 08       		.byte	0x8
 9138 1197 08       		.uleb128 0x8
 9139 1198 45180000 		.4byte	.LASF238
ARM GAS  /tmp/ccZueut9.s 			page 167


 9140 119c 12       		.byte	0x12
 9141 119d 3A       		.byte	0x3a
 9142 119e D5000000 		.4byte	0xd5
 9143 11a2 09       		.byte	0x9
 9144 11a3 08       		.uleb128 0x8
 9145 11a4 DD2A0000 		.4byte	.LASF239
 9146 11a8 12       		.byte	0x12
 9147 11a9 3B       		.byte	0x3b
 9148 11aa D5000000 		.4byte	0xd5
 9149 11ae 0A       		.byte	0xa
 9150 11af 08       		.uleb128 0x8
 9151 11b0 BC280000 		.4byte	.LASF240
 9152 11b4 12       		.byte	0x12
 9153 11b5 3C       		.byte	0x3c
 9154 11b6 D5000000 		.4byte	0xd5
 9155 11ba 0B       		.byte	0xb
 9156 11bb 08       		.uleb128 0x8
 9157 11bc F5060000 		.4byte	.LASF241
 9158 11c0 12       		.byte	0x12
 9159 11c1 3D       		.byte	0x3d
 9160 11c2 D5000000 		.4byte	0xd5
 9161 11c6 0C       		.byte	0xc
 9162 11c7 08       		.uleb128 0x8
 9163 11c8 190E0000 		.4byte	.LASF242
 9164 11cc 12       		.byte	0x12
 9165 11cd 3E       		.byte	0x3e
 9166 11ce D5000000 		.4byte	0xd5
 9167 11d2 0D       		.byte	0xd
 9168 11d3 08       		.uleb128 0x8
 9169 11d4 5B070000 		.4byte	.LASF243
 9170 11d8 12       		.byte	0x12
 9171 11d9 3F       		.byte	0x3f
 9172 11da D5000000 		.4byte	0xd5
 9173 11de 0E       		.byte	0xe
 9174 11df 08       		.uleb128 0x8
 9175 11e0 D00F0000 		.4byte	.LASF244
 9176 11e4 12       		.byte	0x12
 9177 11e5 40       		.byte	0x40
 9178 11e6 D5000000 		.4byte	0xd5
 9179 11ea 0F       		.byte	0xf
 9180 11eb 08       		.uleb128 0x8
 9181 11ec 34050000 		.4byte	.LASF245
 9182 11f0 12       		.byte	0x12
 9183 11f1 41       		.byte	0x41
 9184 11f2 D5000000 		.4byte	0xd5
 9185 11f6 10       		.byte	0x10
 9186 11f7 08       		.uleb128 0x8
 9187 11f8 590A0000 		.4byte	.LASF246
 9188 11fc 12       		.byte	0x12
 9189 11fd 43       		.byte	0x43
 9190 11fe D5000000 		.4byte	0xd5
 9191 1202 11       		.byte	0x11
 9192 1203 08       		.uleb128 0x8
 9193 1204 D2030000 		.4byte	.LASF247
 9194 1208 12       		.byte	0x12
 9195 1209 44       		.byte	0x44
 9196 120a D5000000 		.4byte	0xd5
ARM GAS  /tmp/ccZueut9.s 			page 168


 9197 120e 12       		.byte	0x12
 9198 120f 08       		.uleb128 0x8
 9199 1210 B4190000 		.4byte	.LASF248
 9200 1214 12       		.byte	0x12
 9201 1215 45       		.byte	0x45
 9202 1216 D5000000 		.4byte	0xd5
 9203 121a 13       		.byte	0x13
 9204 121b 08       		.uleb128 0x8
 9205 121c 6B210000 		.4byte	.LASF249
 9206 1220 12       		.byte	0x12
 9207 1221 46       		.byte	0x46
 9208 1222 D5000000 		.4byte	0xd5
 9209 1226 14       		.byte	0x14
 9210 1227 08       		.uleb128 0x8
 9211 1228 27010000 		.4byte	.LASF250
 9212 122c 12       		.byte	0x12
 9213 122d 48       		.byte	0x48
 9214 122e D5000000 		.4byte	0xd5
 9215 1232 15       		.byte	0x15
 9216 1233 00       		.byte	0
 9217 1234 13       		.uleb128 0x13
 9218 1235 20110000 		.4byte	0x1120
 9219 1239 44120000 		.4byte	0x1244
 9220 123d 14       		.uleb128 0x14
 9221 123e 37000000 		.4byte	0x37
 9222 1242 03       		.byte	0x3
 9223 1243 00       		.byte	0
 9224 1244 03       		.uleb128 0x3
 9225 1245 D8170000 		.4byte	.LASF251
 9226 1249 12       		.byte	0x12
 9227 124a 49       		.byte	0x49
 9228 124b 53110000 		.4byte	0x1153
 9229 124f 05       		.uleb128 0x5
 9230 1250 44120000 		.4byte	0x1244
 9231 1254 16       		.uleb128 0x16
 9232 1255 BE0C0000 		.4byte	.LASF252
 9233 1259 12       		.byte	0x12
 9234 125a 6E       		.byte	0x6e
 9235 125b 4F120000 		.4byte	0x124f
 9236 125f 03       		.uleb128 0x3
 9237 1260 89240000 		.4byte	.LASF253
 9238 1264 11       		.byte	0x11
 9239 1265 34       		.byte	0x34
 9240 1266 D2100000 		.4byte	0x10d2
 9241 126a 0B       		.uleb128 0xb
 9242 126b 04       		.byte	0x4
 9243 126c 5F120000 		.4byte	0x125f
 9244 1270 03       		.uleb128 0x3
 9245 1271 160D0000 		.4byte	.LASF254
 9246 1275 13       		.byte	0x13
 9247 1276 34       		.byte	0x34
 9248 1277 7B120000 		.4byte	0x127b
 9249 127b 07       		.uleb128 0x7
 9250 127c 5F2B0000 		.4byte	.LASF255
 9251 1280 14       		.byte	0x14
 9252 1281 13       		.byte	0x13
 9253 1282 39       		.byte	0x39
ARM GAS  /tmp/ccZueut9.s 			page 169


 9254 1283 C4120000 		.4byte	0x12c4
 9255 1287 08       		.uleb128 0x8
 9256 1288 1F030000 		.4byte	.LASF256
 9257 128c 13       		.byte	0x13
 9258 128d 3A       		.byte	0x3a
 9259 128e C4120000 		.4byte	0x12c4
 9260 1292 00       		.byte	0
 9261 1293 08       		.uleb128 0x8
 9262 1294 AA250000 		.4byte	.LASF257
 9263 1298 13       		.byte	0x13
 9264 1299 3D       		.byte	0x3d
 9265 129a F3020000 		.4byte	0x2f3
 9266 129e 04       		.byte	0x4
 9267 129f 08       		.uleb128 0x8
 9268 12a0 95040000 		.4byte	.LASF258
 9269 12a4 13       		.byte	0x13
 9270 12a5 3F       		.byte	0x3f
 9271 12a6 83010000 		.4byte	0x183
 9272 12aa 08       		.byte	0x8
 9273 12ab 08       		.uleb128 0x8
 9274 12ac E0260000 		.4byte	.LASF259
 9275 12b0 13       		.byte	0x13
 9276 12b1 41       		.byte	0x41
 9277 12b2 8E010000 		.4byte	0x18e
 9278 12b6 0C       		.byte	0xc
 9279 12b7 08       		.uleb128 0x8
 9280 12b8 18100000 		.4byte	.LASF260
 9281 12bc 13       		.byte	0x13
 9282 12bd 43       		.byte	0x43
 9283 12be 8E010000 		.4byte	0x18e
 9284 12c2 10       		.byte	0x10
 9285 12c3 00       		.byte	0
 9286 12c4 0B       		.uleb128 0xb
 9287 12c5 04       		.byte	0x4
 9288 12c6 70120000 		.4byte	0x1270
 9289 12ca 07       		.uleb128 0x7
 9290 12cb EF260000 		.4byte	.LASF261
 9291 12cf 04       		.byte	0x4
 9292 12d0 13       		.byte	0x13
 9293 12d1 4A       		.byte	0x4a
 9294 12d2 E3120000 		.4byte	0x12e3
 9295 12d6 08       		.uleb128 0x8
 9296 12d7 4F260000 		.4byte	.LASF262
 9297 12db 13       		.byte	0x13
 9298 12dc 4B       		.byte	0x4b
 9299 12dd C4120000 		.4byte	0x12c4
 9300 12e1 00       		.byte	0
 9301 12e2 00       		.byte	0
 9302 12e3 03       		.uleb128 0x3
 9303 12e4 61180000 		.4byte	.LASF263
 9304 12e8 13       		.byte	0x13
 9305 12e9 4E       		.byte	0x4e
 9306 12ea CA120000 		.4byte	0x12ca
 9307 12ee 03       		.uleb128 0x3
 9308 12ef 70100000 		.4byte	.LASF264
 9309 12f3 14       		.byte	0x14
 9310 12f4 3F       		.byte	0x3f
ARM GAS  /tmp/ccZueut9.s 			page 170


 9311 12f5 F9120000 		.4byte	0x12f9
 9312 12f9 07       		.uleb128 0x7
 9313 12fa 13140000 		.4byte	.LASF265
 9314 12fe 24       		.byte	0x24
 9315 12ff 14       		.byte	0x14
 9316 1300 4D       		.byte	0x4d
 9317 1301 66130000 		.4byte	0x1366
 9318 1305 08       		.uleb128 0x8
 9319 1306 C0060000 		.4byte	.LASF266
 9320 130a 14       		.byte	0x14
 9321 130b 4E       		.byte	0x4e
 9322 130c 1D030000 		.4byte	0x31d
 9323 1310 00       		.byte	0
 9324 1311 08       		.uleb128 0x8
 9325 1312 37240000 		.4byte	.LASF267
 9326 1316 14       		.byte	0x14
 9327 1317 4F       		.byte	0x4f
 9328 1318 2C000000 		.4byte	0x2c
 9329 131c 08       		.byte	0x8
 9330 131d 08       		.uleb128 0x8
 9331 131e 57150000 		.4byte	.LASF268
 9332 1322 14       		.byte	0x14
 9333 1323 50       		.byte	0x50
 9334 1324 88130000 		.4byte	0x1388
 9335 1328 0C       		.byte	0xc
 9336 1329 08       		.uleb128 0x8
 9337 132a FB050000 		.4byte	.LASF269
 9338 132e 14       		.byte	0x14
 9339 132f 51       		.byte	0x51
 9340 1330 88130000 		.4byte	0x1388
 9341 1334 10       		.byte	0x10
 9342 1335 08       		.uleb128 0x8
 9343 1336 E71D0000 		.4byte	.LASF270
 9344 133a 14       		.byte	0x14
 9345 133b 53       		.byte	0x53
 9346 133c 88130000 		.4byte	0x1388
 9347 1340 14       		.byte	0x14
 9348 1341 08       		.uleb128 0x8
 9349 1342 A11C0000 		.4byte	.LASF271
 9350 1346 14       		.byte	0x14
 9351 1347 54       		.byte	0x54
 9352 1348 88130000 		.4byte	0x1388
 9353 134c 18       		.byte	0x18
 9354 134d 08       		.uleb128 0x8
 9355 134e F3220000 		.4byte	.LASF272
 9356 1352 14       		.byte	0x14
 9357 1353 55       		.byte	0x55
 9358 1354 66130000 		.4byte	0x1366
 9359 1358 1C       		.byte	0x1c
 9360 1359 08       		.uleb128 0x8
 9361 135a 331F0000 		.4byte	.LASF273
 9362 135e 14       		.byte	0x14
 9363 135f 56       		.byte	0x56
 9364 1360 D0030000 		.4byte	0x3d0
 9365 1364 20       		.byte	0x20
 9366 1365 00       		.byte	0
 9367 1366 03       		.uleb128 0x3
ARM GAS  /tmp/ccZueut9.s 			page 171


 9368 1367 B0050000 		.4byte	.LASF274
 9369 136b 14       		.byte	0x14
 9370 136c 42       		.byte	0x42
 9371 136d 71130000 		.4byte	0x1371
 9372 1371 0B       		.uleb128 0xb
 9373 1372 04       		.byte	0x4
 9374 1373 77130000 		.4byte	0x1377
 9375 1377 0D       		.uleb128 0xd
 9376 1378 82130000 		.4byte	0x1382
 9377 137c 0E       		.uleb128 0xe
 9378 137d 82130000 		.4byte	0x1382
 9379 1381 00       		.byte	0
 9380 1382 0B       		.uleb128 0xb
 9381 1383 04       		.byte	0x4
 9382 1384 EE120000 		.4byte	0x12ee
 9383 1388 0B       		.uleb128 0xb
 9384 1389 04       		.byte	0x4
 9385 138a D5000000 		.4byte	0xd5
 9386 138e 03       		.uleb128 0x3
 9387 138f 00070000 		.4byte	.LASF275
 9388 1393 14       		.byte	0x14
 9389 1394 64       		.byte	0x64
 9390 1395 EE120000 		.4byte	0x12ee
 9391 1399 03       		.uleb128 0x3
 9392 139a A82B0000 		.4byte	.LASF276
 9393 139e 14       		.byte	0x14
 9394 139f 71       		.byte	0x71
 9395 13a0 EE120000 		.4byte	0x12ee
 9396 13a4 20       		.uleb128 0x20
 9397 13a5 2C000000 		.4byte	0x2c
 9398 13a9 BD130000 		.4byte	0x13bd
 9399 13ad 0E       		.uleb128 0xe
 9400 13ae D0030000 		.4byte	0x3d0
 9401 13b2 0E       		.uleb128 0xe
 9402 13b3 BD130000 		.4byte	0x13bd
 9403 13b7 0E       		.uleb128 0xe
 9404 13b8 2C000000 		.4byte	0x2c
 9405 13bc 00       		.byte	0
 9406 13bd 0B       		.uleb128 0xb
 9407 13be 04       		.byte	0x4
 9408 13bf E0000000 		.4byte	0xe0
 9409 13c3 0B       		.uleb128 0xb
 9410 13c4 04       		.byte	0x4
 9411 13c5 A4130000 		.4byte	0x13a4
 9412 13c9 20       		.uleb128 0x20
 9413 13ca 2C000000 		.4byte	0x2c
 9414 13ce E2130000 		.4byte	0x13e2
 9415 13d2 0E       		.uleb128 0xe
 9416 13d3 D0030000 		.4byte	0x3d0
 9417 13d7 0E       		.uleb128 0xe
 9418 13d8 88130000 		.4byte	0x1388
 9419 13dc 0E       		.uleb128 0xe
 9420 13dd 2C000000 		.4byte	0x2c
 9421 13e1 00       		.byte	0
 9422 13e2 0B       		.uleb128 0xb
 9423 13e3 04       		.byte	0x4
 9424 13e4 C9130000 		.4byte	0x13c9
ARM GAS  /tmp/ccZueut9.s 			page 172


 9425 13e8 20       		.uleb128 0x20
 9426 13e9 78010000 		.4byte	0x178
 9427 13ed FC130000 		.4byte	0x13fc
 9428 13f1 0E       		.uleb128 0xe
 9429 13f2 D0030000 		.4byte	0x3d0
 9430 13f6 0E       		.uleb128 0xe
 9431 13f7 D5000000 		.4byte	0xd5
 9432 13fb 00       		.byte	0
 9433 13fc 0B       		.uleb128 0xb
 9434 13fd 04       		.byte	0x4
 9435 13fe E8130000 		.4byte	0x13e8
 9436 1402 20       		.uleb128 0x20
 9437 1403 78010000 		.4byte	0x178
 9438 1407 11140000 		.4byte	0x1411
 9439 140b 0E       		.uleb128 0xe
 9440 140c D0030000 		.4byte	0x3d0
 9441 1410 00       		.byte	0
 9442 1411 0B       		.uleb128 0xb
 9443 1412 04       		.byte	0x4
 9444 1413 02140000 		.4byte	0x1402
 9445 1417 17       		.uleb128 0x17
 9446 1418 0C       		.byte	0xc
 9447 1419 15       		.byte	0x15
 9448 141a DA       		.byte	0xda
 9449 141b 5C140000 		.4byte	0x145c
 9450 141f 08       		.uleb128 0x8
 9451 1420 392B0000 		.4byte	.LASF277
 9452 1424 15       		.byte	0x15
 9453 1425 DB       		.byte	0xdb
 9454 1426 5C140000 		.4byte	0x145c
 9455 142a 00       		.byte	0
 9456 142b 08       		.uleb128 0x8
 9457 142c 60130000 		.4byte	.LASF278
 9458 1430 15       		.byte	0x15
 9459 1431 DC       		.byte	0xdc
 9460 1432 62140000 		.4byte	0x1462
 9461 1436 04       		.byte	0x4
 9462 1437 08       		.uleb128 0x8
 9463 1438 DB050000 		.4byte	.LASF279
 9464 143c 15       		.byte	0x15
 9465 143d DD       		.byte	0xdd
 9466 143e D5000000 		.4byte	0xd5
 9467 1442 08       		.byte	0x8
 9468 1443 08       		.uleb128 0x8
 9469 1444 7F240000 		.4byte	.LASF280
 9470 1448 15       		.byte	0x15
 9471 1449 DF       		.byte	0xdf
 9472 144a D5000000 		.4byte	0xd5
 9473 144e 09       		.byte	0x9
 9474 144f 08       		.uleb128 0x8
 9475 1450 CD040000 		.4byte	.LASF281
 9476 1454 15       		.byte	0x15
 9477 1455 E0       		.byte	0xe0
 9478 1456 D5000000 		.4byte	0xd5
 9479 145a 0A       		.byte	0xa
 9480 145b 00       		.byte	0
 9481 145c 0B       		.uleb128 0xb
ARM GAS  /tmp/ccZueut9.s 			page 173


 9482 145d 04       		.byte	0x4
 9483 145e 850A0000 		.4byte	0xa85
 9484 1462 0B       		.uleb128 0xb
 9485 1463 04       		.byte	0x4
 9486 1464 16010000 		.4byte	0x116
 9487 1468 03       		.uleb128 0x3
 9488 1469 8F160000 		.4byte	.LASF282
 9489 146d 15       		.byte	0x15
 9490 146e E1       		.byte	0xe1
 9491 146f 17140000 		.4byte	0x1417
 9492 1473 05       		.uleb128 0x5
 9493 1474 68140000 		.4byte	0x1468
 9494 1478 13       		.uleb128 0x13
 9495 1479 73140000 		.4byte	0x1473
 9496 147d 88140000 		.4byte	0x1488
 9497 1481 14       		.uleb128 0x14
 9498 1482 37000000 		.4byte	0x37
 9499 1486 0F       		.byte	0xf
 9500 1487 00       		.byte	0
 9501 1488 05       		.uleb128 0x5
 9502 1489 78140000 		.4byte	0x1478
 9503 148d 15       		.uleb128 0x15
 9504 148e 2F200000 		.4byte	.LASF283
 9505 1492 15       		.byte	0x15
 9506 1493 BB01     		.2byte	0x1bb
 9507 1495 88140000 		.4byte	0x1488
 9508 1499 20       		.uleb128 0x20
 9509 149a 78010000 		.4byte	0x178
 9510 149e B2140000 		.4byte	0x14b2
 9511 14a2 0E       		.uleb128 0xe
 9512 14a3 D0030000 		.4byte	0x3d0
 9513 14a7 0E       		.uleb128 0xe
 9514 14a8 D5000000 		.4byte	0xd5
 9515 14ac 0E       		.uleb128 0xe
 9516 14ad AF010000 		.4byte	0x1af
 9517 14b1 00       		.byte	0
 9518 14b2 0B       		.uleb128 0xb
 9519 14b3 04       		.byte	0x4
 9520 14b4 99140000 		.4byte	0x1499
 9521 14b8 20       		.uleb128 0x20
 9522 14b9 78010000 		.4byte	0x178
 9523 14bd CC140000 		.4byte	0x14cc
 9524 14c1 0E       		.uleb128 0xe
 9525 14c2 D0030000 		.4byte	0x3d0
 9526 14c6 0E       		.uleb128 0xe
 9527 14c7 AF010000 		.4byte	0x1af
 9528 14cb 00       		.byte	0
 9529 14cc 0B       		.uleb128 0xb
 9530 14cd 04       		.byte	0x4
 9531 14ce B8140000 		.4byte	0x14b8
 9532 14d2 20       		.uleb128 0x20
 9533 14d3 2C000000 		.4byte	0x2c
 9534 14d7 F0140000 		.4byte	0x14f0
 9535 14db 0E       		.uleb128 0xe
 9536 14dc D0030000 		.4byte	0x3d0
 9537 14e0 0E       		.uleb128 0xe
 9538 14e1 BD130000 		.4byte	0x13bd
ARM GAS  /tmp/ccZueut9.s 			page 174


 9539 14e5 0E       		.uleb128 0xe
 9540 14e6 2C000000 		.4byte	0x2c
 9541 14ea 0E       		.uleb128 0xe
 9542 14eb AF010000 		.4byte	0x1af
 9543 14ef 00       		.byte	0
 9544 14f0 0B       		.uleb128 0xb
 9545 14f1 04       		.byte	0x4
 9546 14f2 D2140000 		.4byte	0x14d2
 9547 14f6 20       		.uleb128 0x20
 9548 14f7 2C000000 		.4byte	0x2c
 9549 14fb 14150000 		.4byte	0x1514
 9550 14ff 0E       		.uleb128 0xe
 9551 1500 D0030000 		.4byte	0x3d0
 9552 1504 0E       		.uleb128 0xe
 9553 1505 88130000 		.4byte	0x1388
 9554 1509 0E       		.uleb128 0xe
 9555 150a 2C000000 		.4byte	0x2c
 9556 150e 0E       		.uleb128 0xe
 9557 150f AF010000 		.4byte	0x1af
 9558 1513 00       		.byte	0
 9559 1514 0B       		.uleb128 0xb
 9560 1515 04       		.byte	0x4
 9561 1516 F6140000 		.4byte	0x14f6
 9562 151a 21       		.uleb128 0x21
 9563 151b 07       		.byte	0x7
 9564 151c 01       		.byte	0x1
 9565 151d 69000000 		.4byte	0x69
 9566 1521 16       		.byte	0x16
 9567 1522 28       		.byte	0x28
 9568 1523 5E150000 		.4byte	0x155e
 9569 1527 22       		.uleb128 0x22
 9570 1528 E2010000 		.4byte	.LASF284
 9571 152c 00       		.byte	0
 9572 152d 22       		.uleb128 0x22
 9573 152e 3A110000 		.4byte	.LASF285
 9574 1532 01       		.byte	0x1
 9575 1533 22       		.uleb128 0x22
 9576 1534 010D0000 		.4byte	.LASF286
 9577 1538 02       		.byte	0x2
 9578 1539 22       		.uleb128 0x22
 9579 153a F7210000 		.4byte	.LASF287
 9580 153e 03       		.byte	0x3
 9581 153f 22       		.uleb128 0x22
 9582 1540 FD290000 		.4byte	.LASF288
 9583 1544 04       		.byte	0x4
 9584 1545 22       		.uleb128 0x22
 9585 1546 4E090000 		.4byte	.LASF289
 9586 154a 05       		.byte	0x5
 9587 154b 22       		.uleb128 0x22
 9588 154c 5F240000 		.4byte	.LASF290
 9589 1550 06       		.byte	0x6
 9590 1551 22       		.uleb128 0x22
 9591 1552 131D0000 		.4byte	.LASF291
 9592 1556 07       		.byte	0x7
 9593 1557 22       		.uleb128 0x22
 9594 1558 CA290000 		.4byte	.LASF292
 9595 155c 08       		.byte	0x8
ARM GAS  /tmp/ccZueut9.s 			page 175


 9596 155d 00       		.byte	0
 9597 155e 03       		.uleb128 0x3
 9598 155f 8C1B0000 		.4byte	.LASF293
 9599 1563 16       		.byte	0x16
 9600 1564 32       		.byte	0x32
 9601 1565 1A150000 		.4byte	0x151a
 9602 1569 17       		.uleb128 0x17
 9603 156a 08       		.byte	0x8
 9604 156b 16       		.byte	0x16
 9605 156c 37       		.byte	0x37
 9606 156d 8A150000 		.4byte	0x158a
 9607 1571 08       		.uleb128 0x8
 9608 1572 BF080000 		.4byte	.LASF294
 9609 1576 16       		.byte	0x16
 9610 1577 38       		.byte	0x38
 9611 1578 0B010000 		.4byte	0x10b
 9612 157c 00       		.byte	0
 9613 157d 08       		.uleb128 0x8
 9614 157e 89230000 		.4byte	.LASF295
 9615 1582 16       		.byte	0x16
 9616 1583 39       		.byte	0x39
 9617 1584 0B010000 		.4byte	0x10b
 9618 1588 04       		.byte	0x4
 9619 1589 00       		.byte	0
 9620 158a 03       		.uleb128 0x3
 9621 158b 08260000 		.4byte	.LASF296
 9622 158f 16       		.byte	0x16
 9623 1590 3A       		.byte	0x3a
 9624 1591 69150000 		.4byte	0x1569
 9625 1595 20       		.uleb128 0x20
 9626 1596 A4150000 		.4byte	0x15a4
 9627 159a A4150000 		.4byte	0x15a4
 9628 159e 0E       		.uleb128 0xe
 9629 159f D0030000 		.4byte	0x3d0
 9630 15a3 00       		.byte	0
 9631 15a4 04       		.uleb128 0x4
 9632 15a5 01       		.byte	0x1
 9633 15a6 02       		.byte	0x2
 9634 15a7 5F010000 		.4byte	.LASF297
 9635 15ab 0B       		.uleb128 0xb
 9636 15ac 04       		.byte	0x4
 9637 15ad 95150000 		.4byte	0x1595
 9638 15b1 20       		.uleb128 0x20
 9639 15b2 A4150000 		.4byte	0x15a4
 9640 15b6 CF150000 		.4byte	0x15cf
 9641 15ba 0E       		.uleb128 0xe
 9642 15bb D0030000 		.4byte	0x3d0
 9643 15bf 0E       		.uleb128 0xe
 9644 15c0 0B010000 		.4byte	0x10b
 9645 15c4 0E       		.uleb128 0xe
 9646 15c5 88130000 		.4byte	0x1388
 9647 15c9 0E       		.uleb128 0xe
 9648 15ca 0B010000 		.4byte	0x10b
 9649 15ce 00       		.byte	0
 9650 15cf 0B       		.uleb128 0xb
 9651 15d0 04       		.byte	0x4
 9652 15d1 B1150000 		.4byte	0x15b1
ARM GAS  /tmp/ccZueut9.s 			page 176


 9653 15d5 20       		.uleb128 0x20
 9654 15d6 A4150000 		.4byte	0x15a4
 9655 15da F3150000 		.4byte	0x15f3
 9656 15de 0E       		.uleb128 0xe
 9657 15df D0030000 		.4byte	0x3d0
 9658 15e3 0E       		.uleb128 0xe
 9659 15e4 0B010000 		.4byte	0x10b
 9660 15e8 0E       		.uleb128 0xe
 9661 15e9 BD130000 		.4byte	0x13bd
 9662 15ed 0E       		.uleb128 0xe
 9663 15ee 0B010000 		.4byte	0x10b
 9664 15f2 00       		.byte	0
 9665 15f3 0B       		.uleb128 0xb
 9666 15f4 04       		.byte	0x4
 9667 15f5 D5150000 		.4byte	0x15d5
 9668 15f9 20       		.uleb128 0x20
 9669 15fa A4150000 		.4byte	0x15a4
 9670 15fe 0D160000 		.4byte	0x160d
 9671 1602 0E       		.uleb128 0xe
 9672 1603 D0030000 		.4byte	0x3d0
 9673 1607 0E       		.uleb128 0xe
 9674 1608 0D160000 		.4byte	0x160d
 9675 160c 00       		.byte	0
 9676 160d 0B       		.uleb128 0xb
 9677 160e 04       		.byte	0x4
 9678 160f 8A150000 		.4byte	0x158a
 9679 1613 0B       		.uleb128 0xb
 9680 1614 04       		.byte	0x4
 9681 1615 F9150000 		.4byte	0x15f9
 9682 1619 13       		.uleb128 0x13
 9683 161a 0B010000 		.4byte	0x10b
 9684 161e 29160000 		.4byte	0x1629
 9685 1622 14       		.uleb128 0x14
 9686 1623 37000000 		.4byte	0x37
 9687 1627 03       		.byte	0x3
 9688 1628 00       		.byte	0
 9689 1629 17       		.uleb128 0x17
 9690 162a 04       		.byte	0x4
 9691 162b 17       		.byte	0x17
 9692 162c B3       		.byte	0xb3
 9693 162d 4A160000 		.4byte	0x164a
 9694 1631 18       		.uleb128 0x18
 9695 1632 73657400 		.ascii	"set\000"
 9696 1636 17       		.byte	0x17
 9697 1637 B4       		.byte	0xb4
 9698 1638 F0000000 		.4byte	0xf0
 9699 163c 00       		.byte	0
 9700 163d 08       		.uleb128 0x8
 9701 163e 2B0F0000 		.4byte	.LASF298
 9702 1642 17       		.byte	0x17
 9703 1643 B5       		.byte	0xb5
 9704 1644 F0000000 		.4byte	0xf0
 9705 1648 02       		.byte	0x2
 9706 1649 00       		.byte	0
 9707 164a 1D       		.uleb128 0x1d
 9708 164b 04       		.byte	0x4
 9709 164c 17       		.byte	0x17
ARM GAS  /tmp/ccZueut9.s 			page 177


 9710 164d B1       		.byte	0xb1
 9711 164e 65160000 		.4byte	0x1665
 9712 1652 23       		.uleb128 0x23
 9713 1653 5700     		.ascii	"W\000"
 9714 1655 17       		.byte	0x17
 9715 1656 B2       		.byte	0xb2
 9716 1657 0B010000 		.4byte	0x10b
 9717 165b 23       		.uleb128 0x23
 9718 165c 4800     		.ascii	"H\000"
 9719 165e 17       		.byte	0x17
 9720 165f B6       		.byte	0xb6
 9721 1660 29160000 		.4byte	0x1629
 9722 1664 00       		.byte	0
 9723 1665 06       		.uleb128 0x6
 9724 1666 4A160000 		.4byte	0x164a
 9725 166a 17       		.uleb128 0x17
 9726 166b 2C       		.byte	0x2c
 9727 166c 17       		.byte	0x17
 9728 166d A9       		.byte	0xa9
 9729 166e F7160000 		.4byte	0x16f7
 9730 1672 08       		.uleb128 0x8
 9731 1673 B0240000 		.4byte	.LASF299
 9732 1677 17       		.byte	0x17
 9733 1678 AB       		.byte	0xab
 9734 1679 16010000 		.4byte	0x116
 9735 167d 00       		.byte	0
 9736 167e 08       		.uleb128 0x8
 9737 167f 3B040000 		.4byte	.LASF300
 9738 1683 17       		.byte	0x17
 9739 1684 AC       		.byte	0xac
 9740 1685 16010000 		.4byte	0x116
 9741 1689 04       		.byte	0x4
 9742 168a 08       		.uleb128 0x8
 9743 168b F6100000 		.4byte	.LASF301
 9744 168f 17       		.byte	0x17
 9745 1690 AD       		.byte	0xad
 9746 1691 16010000 		.4byte	0x116
 9747 1695 08       		.byte	0x8
 9748 1696 08       		.uleb128 0x8
 9749 1697 B5230000 		.4byte	.LASF302
 9750 169b 17       		.byte	0x17
 9751 169c AE       		.byte	0xae
 9752 169d 16010000 		.4byte	0x116
 9753 16a1 0C       		.byte	0xc
 9754 16a2 18       		.uleb128 0x18
 9755 16a3 49445200 		.ascii	"IDR\000"
 9756 16a7 17       		.byte	0x17
 9757 16a8 AF       		.byte	0xaf
 9758 16a9 16010000 		.4byte	0x116
 9759 16ad 10       		.byte	0x10
 9760 16ae 18       		.uleb128 0x18
 9761 16af 4F445200 		.ascii	"ODR\000"
 9762 16b3 17       		.byte	0x17
 9763 16b4 B0       		.byte	0xb0
 9764 16b5 16010000 		.4byte	0x116
 9765 16b9 14       		.byte	0x14
 9766 16ba 08       		.uleb128 0x8
ARM GAS  /tmp/ccZueut9.s 			page 178


 9767 16bb 7A160000 		.4byte	.LASF303
 9768 16bf 17       		.byte	0x17
 9769 16c0 B7       		.byte	0xb7
 9770 16c1 65160000 		.4byte	0x1665
 9771 16c5 18       		.byte	0x18
 9772 16c6 08       		.uleb128 0x8
 9773 16c7 E81C0000 		.4byte	.LASF304
 9774 16cb 17       		.byte	0x17
 9775 16cc B8       		.byte	0xb8
 9776 16cd 16010000 		.4byte	0x116
 9777 16d1 1C       		.byte	0x1c
 9778 16d2 08       		.uleb128 0x8
 9779 16d3 30210000 		.4byte	.LASF305
 9780 16d7 17       		.byte	0x17
 9781 16d8 B9       		.byte	0xb9
 9782 16d9 16010000 		.4byte	0x116
 9783 16dd 20       		.byte	0x20
 9784 16de 08       		.uleb128 0x8
 9785 16df 24210000 		.4byte	.LASF306
 9786 16e3 17       		.byte	0x17
 9787 16e4 BA       		.byte	0xba
 9788 16e5 16010000 		.4byte	0x116
 9789 16e9 24       		.byte	0x24
 9790 16ea 18       		.uleb128 0x18
 9791 16eb 42525200 		.ascii	"BRR\000"
 9792 16ef 17       		.byte	0x17
 9793 16f0 BB       		.byte	0xbb
 9794 16f1 16010000 		.4byte	0x116
 9795 16f5 28       		.byte	0x28
 9796 16f6 00       		.byte	0
 9797 16f7 03       		.uleb128 0x3
 9798 16f8 8A130000 		.4byte	.LASF307
 9799 16fc 17       		.byte	0x17
 9800 16fd BC       		.byte	0xbc
 9801 16fe 6A160000 		.4byte	0x166a
 9802 1702 17       		.uleb128 0x17
 9803 1703 1C       		.byte	0x1c
 9804 1704 17       		.byte	0x17
 9805 1705 C1       		.byte	0xc1
 9806 1706 5F170000 		.4byte	0x175f
 9807 170a 08       		.uleb128 0x8
 9808 170b 24280000 		.4byte	.LASF308
 9809 170f 17       		.byte	0x17
 9810 1710 C3       		.byte	0xc3
 9811 1711 0B010000 		.4byte	0x10b
 9812 1715 00       		.byte	0
 9813 1716 08       		.uleb128 0x8
 9814 1717 34040000 		.4byte	.LASF309
 9815 171b 17       		.byte	0x17
 9816 171c C5       		.byte	0xc5
 9817 171d 0B010000 		.4byte	0x10b
 9818 1721 04       		.byte	0x4
 9819 1722 08       		.uleb128 0x8
 9820 1723 02030000 		.4byte	.LASF310
 9821 1727 17       		.byte	0x17
 9822 1728 C7       		.byte	0xc7
 9823 1729 0B010000 		.4byte	0x10b
ARM GAS  /tmp/ccZueut9.s 			page 179


 9824 172d 08       		.byte	0x8
 9825 172e 08       		.uleb128 0x8
 9826 172f 4D270000 		.4byte	.LASF311
 9827 1733 17       		.byte	0x17
 9828 1734 C9       		.byte	0xc9
 9829 1735 0B010000 		.4byte	0x10b
 9830 1739 0C       		.byte	0xc
 9831 173a 18       		.uleb128 0x18
 9832 173b 6F647200 		.ascii	"odr\000"
 9833 173f 17       		.byte	0x17
 9834 1740 CB       		.byte	0xcb
 9835 1741 0B010000 		.4byte	0x10b
 9836 1745 10       		.byte	0x10
 9837 1746 08       		.uleb128 0x8
 9838 1747 6B240000 		.4byte	.LASF312
 9839 174b 17       		.byte	0x17
 9840 174c CD       		.byte	0xcd
 9841 174d 0B010000 		.4byte	0x10b
 9842 1751 14       		.byte	0x14
 9843 1752 08       		.uleb128 0x8
 9844 1753 B7000000 		.4byte	.LASF313
 9845 1757 17       		.byte	0x17
 9846 1758 CF       		.byte	0xcf
 9847 1759 0B010000 		.4byte	0x10b
 9848 175d 18       		.byte	0x18
 9849 175e 00       		.byte	0
 9850 175f 03       		.uleb128 0x3
 9851 1760 EA1F0000 		.4byte	.LASF314
 9852 1764 17       		.byte	0x17
 9853 1765 D0       		.byte	0xd0
 9854 1766 02170000 		.4byte	0x1702
 9855 176a 17       		.uleb128 0x17
 9856 176b FC       		.byte	0xfc
 9857 176c 17       		.byte	0x17
 9858 176d D9       		.byte	0xd9
 9859 176e DF170000 		.4byte	0x17df
 9860 1772 08       		.uleb128 0x8
 9861 1773 24140000 		.4byte	.LASF315
 9862 1777 17       		.byte	0x17
 9863 1778 DC       		.byte	0xdc
 9864 1779 5F170000 		.4byte	0x175f
 9865 177d 00       		.byte	0
 9866 177e 08       		.uleb128 0x8
 9867 177f 13040000 		.4byte	.LASF316
 9868 1783 17       		.byte	0x17
 9869 1784 E0       		.byte	0xe0
 9870 1785 5F170000 		.4byte	0x175f
 9871 1789 1C       		.byte	0x1c
 9872 178a 08       		.uleb128 0x8
 9873 178b 7C020000 		.4byte	.LASF317
 9874 178f 17       		.byte	0x17
 9875 1790 E4       		.byte	0xe4
 9876 1791 5F170000 		.4byte	0x175f
 9877 1795 38       		.byte	0x38
 9878 1796 08       		.uleb128 0x8
 9879 1797 34100000 		.4byte	.LASF318
 9880 179b 17       		.byte	0x17
ARM GAS  /tmp/ccZueut9.s 			page 180


 9881 179c E8       		.byte	0xe8
 9882 179d 5F170000 		.4byte	0x175f
 9883 17a1 54       		.byte	0x54
 9884 17a2 08       		.uleb128 0x8
 9885 17a3 6B1E0000 		.4byte	.LASF319
 9886 17a7 17       		.byte	0x17
 9887 17a8 EC       		.byte	0xec
 9888 17a9 5F170000 		.4byte	0x175f
 9889 17ad 70       		.byte	0x70
 9890 17ae 08       		.uleb128 0x8
 9891 17af 172C0000 		.4byte	.LASF320
 9892 17b3 17       		.byte	0x17
 9893 17b4 F0       		.byte	0xf0
 9894 17b5 5F170000 		.4byte	0x175f
 9895 17b9 8C       		.byte	0x8c
 9896 17ba 08       		.uleb128 0x8
 9897 17bb EA0D0000 		.4byte	.LASF321
 9898 17bf 17       		.byte	0x17
 9899 17c0 F4       		.byte	0xf4
 9900 17c1 5F170000 		.4byte	0x175f
 9901 17c5 A8       		.byte	0xa8
 9902 17c6 08       		.uleb128 0x8
 9903 17c7 1D1C0000 		.4byte	.LASF322
 9904 17cb 17       		.byte	0x17
 9905 17cc F8       		.byte	0xf8
 9906 17cd 5F170000 		.4byte	0x175f
 9907 17d1 C4       		.byte	0xc4
 9908 17d2 08       		.uleb128 0x8
 9909 17d3 D6290000 		.4byte	.LASF323
 9910 17d7 17       		.byte	0x17
 9911 17d8 FC       		.byte	0xfc
 9912 17d9 5F170000 		.4byte	0x175f
 9913 17dd E0       		.byte	0xe0
 9914 17de 00       		.byte	0
 9915 17df 03       		.uleb128 0x3
 9916 17e0 DA0C0000 		.4byte	.LASF324
 9917 17e4 17       		.byte	0x17
 9918 17e5 FE       		.byte	0xfe
 9919 17e6 6A170000 		.4byte	0x176a
 9920 17ea 05       		.uleb128 0x5
 9921 17eb DF170000 		.4byte	0x17df
 9922 17ef 1A       		.uleb128 0x1a
 9923 17f0 241C0000 		.4byte	.LASF325
 9924 17f4 17       		.byte	0x17
 9925 17f5 1B01     		.2byte	0x11b
 9926 17f7 FB170000 		.4byte	0x17fb
 9927 17fb 0B       		.uleb128 0xb
 9928 17fc 04       		.byte	0x4
 9929 17fd F7160000 		.4byte	0x16f7
 9930 1801 15       		.uleb128 0x15
 9931 1802 77250000 		.4byte	.LASF326
 9932 1806 17       		.byte	0x17
 9933 1807 DA01     		.2byte	0x1da
 9934 1809 EA170000 		.4byte	0x17ea
 9935 180d 21       		.uleb128 0x21
 9936 180e 07       		.byte	0x7
 9937 180f 01       		.byte	0x1
ARM GAS  /tmp/ccZueut9.s 			page 181


 9938 1810 69000000 		.4byte	0x69
 9939 1814 18       		.byte	0x18
 9940 1815 46       		.byte	0x46
 9941 1816 3F180000 		.4byte	0x183f
 9942 181a 22       		.uleb128 0x22
 9943 181b 150A0000 		.4byte	.LASF327
 9944 181f 00       		.byte	0
 9945 1820 22       		.uleb128 0x22
 9946 1821 1E190000 		.4byte	.LASF328
 9947 1825 01       		.byte	0x1
 9948 1826 22       		.uleb128 0x22
 9949 1827 D9270000 		.4byte	.LASF329
 9950 182b 02       		.byte	0x2
 9951 182c 22       		.uleb128 0x22
 9952 182d 5A160000 		.4byte	.LASF330
 9953 1831 03       		.byte	0x3
 9954 1832 22       		.uleb128 0x22
 9955 1833 F3070000 		.4byte	.LASF331
 9956 1837 04       		.byte	0x4
 9957 1838 22       		.uleb128 0x22
 9958 1839 16160000 		.4byte	.LASF332
 9959 183d 05       		.byte	0x5
 9960 183e 00       		.byte	0
 9961 183f 03       		.uleb128 0x3
 9962 1840 BA050000 		.4byte	.LASF333
 9963 1844 18       		.byte	0x18
 9964 1845 4D       		.byte	0x4d
 9965 1846 0D180000 		.4byte	0x180d
 9966 184a 1A       		.uleb128 0x1a
 9967 184b 3D150000 		.4byte	.LASF334
 9968 184f 19       		.byte	0x19
 9969 1850 2701     		.2byte	0x127
 9970 1852 F0000000 		.4byte	0xf0
 9971 1856 1A       		.uleb128 0x1a
 9972 1857 3B220000 		.4byte	.LASF335
 9973 185b 19       		.byte	0x19
 9974 185c 2C01     		.2byte	0x12c
 9975 185e F0000000 		.4byte	0xf0
 9976 1862 24       		.uleb128 0x24
 9977 1863 07       		.byte	0x7
 9978 1864 01       		.byte	0x1
 9979 1865 69000000 		.4byte	0x69
 9980 1869 19       		.byte	0x19
 9981 186a 3301     		.2byte	0x133
 9982 186c 7D180000 		.4byte	0x187d
 9983 1870 22       		.uleb128 0x22
 9984 1871 BF100000 		.4byte	.LASF336
 9985 1875 00       		.byte	0
 9986 1876 22       		.uleb128 0x22
 9987 1877 33030000 		.4byte	.LASF337
 9988 187b 01       		.byte	0x1
 9989 187c 00       		.byte	0
 9990 187d 1A       		.uleb128 0x1a
 9991 187e 06290000 		.4byte	.LASF338
 9992 1882 19       		.byte	0x19
 9993 1883 3601     		.2byte	0x136
 9994 1885 62180000 		.4byte	0x1862
ARM GAS  /tmp/ccZueut9.s 			page 182


 9995 1889 1A       		.uleb128 0x1a
 9996 188a 75110000 		.4byte	.LASF339
 9997 188e 19       		.byte	0x19
 9998 188f 3B01     		.2byte	0x13b
 9999 1891 95180000 		.4byte	0x1895
 10000 1895 0C       		.uleb128 0xc
 10001 1896 75110000 		.4byte	.LASF339
 10002 189a 38       		.byte	0x38
 10003 189b 19       		.byte	0x19
 10004 189c 9F01     		.2byte	0x19f
 10005 189e 25190000 		.4byte	0x1925
 10006 18a2 0A       		.uleb128 0xa
 10007 18a3 231A0000 		.4byte	.LASF340
 10008 18a7 19       		.byte	0x19
 10009 18a8 A301     		.2byte	0x1a3
 10010 18aa 3F180000 		.4byte	0x183f
 10011 18ae 00       		.byte	0
 10012 18af 0A       		.uleb128 0xa
 10013 18b0 BE210000 		.4byte	.LASF341
 10014 18b4 19       		.byte	0x19
 10015 18b5 A701     		.2byte	0x1a7
 10016 18b7 4C1A0000 		.4byte	0x1a4c
 10017 18bb 04       		.byte	0x4
 10018 18bc 0A       		.uleb128 0xa
 10019 18bd 92020000 		.4byte	.LASF342
 10020 18c1 19       		.byte	0x19
 10021 18c2 AB01     		.2byte	0x1ab
 10022 18c4 52190000 		.4byte	0x1952
 10023 18c8 08       		.byte	0x8
 10024 18c9 0A       		.uleb128 0xa
 10025 18ca 651D0000 		.4byte	.LASF343
 10026 18ce 19       		.byte	0x19
 10027 18cf AF01     		.2byte	0x1af
 10028 18d1 2C000000 		.4byte	0x2c
 10029 18d5 0C       		.byte	0xc
 10030 18d6 0A       		.uleb128 0xa
 10031 18d7 9D250000 		.4byte	.LASF344
 10032 18db 19       		.byte	0x19
 10033 18dc B301     		.2byte	0x1b3
 10034 18de 521A0000 		.4byte	0x1a52
 10035 18e2 10       		.byte	0x10
 10036 18e3 0A       		.uleb128 0xa
 10037 18e4 96080000 		.4byte	.LASF345
 10038 18e8 19       		.byte	0x19
 10039 18e9 B801     		.2byte	0x1b8
 10040 18eb E8020000 		.4byte	0x2e8
 10041 18ef 14       		.byte	0x14
 10042 18f0 0A       		.uleb128 0xa
 10043 18f1 E10E0000 		.4byte	.LASF346
 10044 18f5 19       		.byte	0x19
 10045 18f6 BE01     		.2byte	0x1be
 10046 18f8 5F120000 		.4byte	0x125f
 10047 18fc 18       		.byte	0x18
 10048 18fd 09       		.uleb128 0x9
 10049 18fe 61646300 		.ascii	"adc\000"
 10050 1902 19       		.byte	0x19
 10051 1903 C701     		.2byte	0x1c7
ARM GAS  /tmp/ccZueut9.s 			page 183


 10052 1905 581A0000 		.4byte	0x1a58
 10053 1909 2C       		.byte	0x2c
 10054 190a 0A       		.uleb128 0xa
 10055 190b 820C0000 		.4byte	.LASF347
 10056 190f 19       		.byte	0x19
 10057 1910 CB01     		.2byte	0x1cb
 10058 1912 5E1A0000 		.4byte	0x1a5e
 10059 1916 30       		.byte	0x30
 10060 1917 0A       		.uleb128 0xa
 10061 1918 691C0000 		.4byte	.LASF348
 10062 191c 19       		.byte	0x19
 10063 191d CF01     		.2byte	0x1cf
 10064 191f 0B010000 		.4byte	0x10b
 10065 1923 34       		.byte	0x34
 10066 1924 00       		.byte	0
 10067 1925 1A       		.uleb128 0x1a
 10068 1926 A4200000 		.4byte	.LASF349
 10069 192a 19       		.byte	0x19
 10070 192b 4501     		.2byte	0x145
 10071 192d 31190000 		.4byte	0x1931
 10072 1931 0B       		.uleb128 0xb
 10073 1932 04       		.byte	0x4
 10074 1933 37190000 		.4byte	0x1937
 10075 1937 0D       		.uleb128 0xd
 10076 1938 4C190000 		.4byte	0x194c
 10077 193c 0E       		.uleb128 0xe
 10078 193d 4C190000 		.4byte	0x194c
 10079 1941 0E       		.uleb128 0xe
 10080 1942 52190000 		.4byte	0x1952
 10081 1946 0E       		.uleb128 0xe
 10082 1947 2C000000 		.4byte	0x2c
 10083 194b 00       		.byte	0
 10084 194c 0B       		.uleb128 0xb
 10085 194d 04       		.byte	0x4
 10086 194e 89180000 		.4byte	0x1889
 10087 1952 0B       		.uleb128 0xb
 10088 1953 04       		.byte	0x4
 10089 1954 4A180000 		.4byte	0x184a
 10090 1958 1A       		.uleb128 0x1a
 10091 1959 FE190000 		.4byte	.LASF350
 10092 195d 19       		.byte	0x19
 10093 195e 4E01     		.2byte	0x14e
 10094 1960 64190000 		.4byte	0x1964
 10095 1964 0B       		.uleb128 0xb
 10096 1965 04       		.byte	0x4
 10097 1966 6A190000 		.4byte	0x196a
 10098 196a 0D       		.uleb128 0xd
 10099 196b 7A190000 		.4byte	0x197a
 10100 196f 0E       		.uleb128 0xe
 10101 1970 4C190000 		.4byte	0x194c
 10102 1974 0E       		.uleb128 0xe
 10103 1975 7D180000 		.4byte	0x187d
 10104 1979 00       		.byte	0
 10105 197a 19       		.uleb128 0x19
 10106 197b 28       		.byte	0x28
 10107 197c 19       		.byte	0x19
 10108 197d 5801     		.2byte	0x158
ARM GAS  /tmp/ccZueut9.s 			page 184


 10109 197f 131A0000 		.4byte	0x1a13
 10110 1983 0A       		.uleb128 0xa
 10111 1984 10280000 		.4byte	.LASF351
 10112 1988 19       		.byte	0x19
 10113 1989 5C01     		.2byte	0x15c
 10114 198b A4150000 		.4byte	0x15a4
 10115 198f 00       		.byte	0
 10116 1990 0A       		.uleb128 0xa
 10117 1991 DC130000 		.4byte	.LASF352
 10118 1995 19       		.byte	0x19
 10119 1996 6001     		.2byte	0x160
 10120 1998 56180000 		.4byte	0x1856
 10121 199c 02       		.byte	0x2
 10122 199d 0A       		.uleb128 0xa
 10123 199e 180B0000 		.4byte	.LASF353
 10124 19a2 19       		.byte	0x19
 10125 19a3 6401     		.2byte	0x164
 10126 19a5 25190000 		.4byte	0x1925
 10127 19a9 04       		.byte	0x4
 10128 19aa 0A       		.uleb128 0xa
 10129 19ab F4290000 		.4byte	.LASF354
 10130 19af 19       		.byte	0x19
 10131 19b0 6801     		.2byte	0x168
 10132 19b2 58190000 		.4byte	0x1958
 10133 19b6 08       		.byte	0x8
 10134 19b7 09       		.uleb128 0x9
 10135 19b8 63723100 		.ascii	"cr1\000"
 10136 19bc 19       		.byte	0x19
 10137 19bd 6F01     		.2byte	0x16f
 10138 19bf 0B010000 		.4byte	0x10b
 10139 19c3 0C       		.byte	0xc
 10140 19c4 09       		.uleb128 0x9
 10141 19c5 63723200 		.ascii	"cr2\000"
 10142 19c9 19       		.byte	0x19
 10143 19ca 7601     		.2byte	0x176
 10144 19cc 0B010000 		.4byte	0x10b
 10145 19d0 10       		.byte	0x10
 10146 19d1 0A       		.uleb128 0xa
 10147 19d2 701B0000 		.4byte	.LASF355
 10148 19d6 19       		.byte	0x19
 10149 19d7 7C01     		.2byte	0x17c
 10150 19d9 0B010000 		.4byte	0x10b
 10151 19dd 14       		.byte	0x14
 10152 19de 0A       		.uleb128 0xa
 10153 19df 761B0000 		.4byte	.LASF356
 10154 19e3 19       		.byte	0x19
 10155 19e4 8201     		.2byte	0x182
 10156 19e6 0B010000 		.4byte	0x10b
 10157 19ea 18       		.byte	0x18
 10158 19eb 0A       		.uleb128 0xa
 10159 19ec D3010000 		.4byte	.LASF357
 10160 19f0 19       		.byte	0x19
 10161 19f1 8701     		.2byte	0x187
 10162 19f3 0B010000 		.4byte	0x10b
 10163 19f7 1C       		.byte	0x1c
 10164 19f8 0A       		.uleb128 0xa
 10165 19f9 0F2B0000 		.4byte	.LASF358
ARM GAS  /tmp/ccZueut9.s 			page 185


 10166 19fd 19       		.byte	0x19
 10167 19fe 8C01     		.2byte	0x18c
 10168 1a00 0B010000 		.4byte	0x10b
 10169 1a04 20       		.byte	0x20
 10170 1a05 0A       		.uleb128 0xa
 10171 1a06 142B0000 		.4byte	.LASF359
 10172 1a0a 19       		.byte	0x19
 10173 1a0b 9101     		.2byte	0x191
 10174 1a0d 0B010000 		.4byte	0x10b
 10175 1a11 24       		.byte	0x24
 10176 1a12 00       		.byte	0
 10177 1a13 1A       		.uleb128 0x1a
 10178 1a14 0E070000 		.4byte	.LASF360
 10179 1a18 19       		.byte	0x19
 10180 1a19 9201     		.2byte	0x192
 10181 1a1b 7A190000 		.4byte	0x197a
 10182 1a1f 05       		.uleb128 0x5
 10183 1a20 131A0000 		.4byte	0x1a13
 10184 1a24 19       		.uleb128 0x19
 10185 1a25 04       		.byte	0x4
 10186 1a26 19       		.byte	0x19
 10187 1a27 9801     		.2byte	0x198
 10188 1a29 3B1A0000 		.4byte	0x1a3b
 10189 1a2d 0A       		.uleb128 0xa
 10190 1a2e 402B0000 		.4byte	.LASF361
 10191 1a32 19       		.byte	0x19
 10192 1a33 9901     		.2byte	0x199
 10193 1a35 0B010000 		.4byte	0x10b
 10194 1a39 00       		.byte	0
 10195 1a3a 00       		.byte	0
 10196 1a3b 1A       		.uleb128 0x1a
 10197 1a3c 8D110000 		.4byte	.LASF362
 10198 1a40 19       		.byte	0x19
 10199 1a41 9A01     		.2byte	0x19a
 10200 1a43 241A0000 		.4byte	0x1a24
 10201 1a47 05       		.uleb128 0x5
 10202 1a48 3B1A0000 		.4byte	0x1a3b
 10203 1a4c 0B       		.uleb128 0xb
 10204 1a4d 04       		.byte	0x4
 10205 1a4e 471A0000 		.4byte	0x1a47
 10206 1a52 0B       		.uleb128 0xb
 10207 1a53 04       		.byte	0x4
 10208 1a54 1F1A0000 		.4byte	0x1a1f
 10209 1a58 0B       		.uleb128 0xb
 10210 1a59 04       		.byte	0x4
 10211 1a5a 6D060000 		.4byte	0x66d
 10212 1a5e 0B       		.uleb128 0xb
 10213 1a5f 04       		.byte	0x4
 10214 1a60 73140000 		.4byte	0x1473
 10215 1a64 15       		.uleb128 0x15
 10216 1a65 421C0000 		.4byte	.LASF363
 10217 1a69 19       		.byte	0x19
 10218 1a6a 1402     		.2byte	0x214
 10219 1a6c 89180000 		.4byte	0x1889
 10220 1a70 15       		.uleb128 0x15
 10221 1a71 481C0000 		.4byte	.LASF364
 10222 1a75 19       		.byte	0x19
ARM GAS  /tmp/ccZueut9.s 			page 186


 10223 1a76 1802     		.2byte	0x218
 10224 1a78 89180000 		.4byte	0x1889
 10225 1a7c 15       		.uleb128 0x15
 10226 1a7d 4E1C0000 		.4byte	.LASF365
 10227 1a81 19       		.byte	0x19
 10228 1a82 1C02     		.2byte	0x21c
 10229 1a84 89180000 		.4byte	0x1889
 10230 1a88 21       		.uleb128 0x21
 10231 1a89 07       		.byte	0x7
 10232 1a8a 01       		.byte	0x1
 10233 1a8b 69000000 		.4byte	0x69
 10234 1a8f 1A       		.byte	0x1a
 10235 1a90 5F       		.byte	0x5f
 10236 1a91 B41A0000 		.4byte	0x1ab4
 10237 1a95 22       		.uleb128 0x22
 10238 1a96 E90B0000 		.4byte	.LASF366
 10239 1a9a 00       		.byte	0
 10240 1a9b 22       		.uleb128 0x22
 10241 1a9c 1E010000 		.4byte	.LASF367
 10242 1aa0 01       		.byte	0x1
 10243 1aa1 22       		.uleb128 0x22
 10244 1aa2 67000000 		.4byte	.LASF368
 10245 1aa6 02       		.byte	0x2
 10246 1aa7 22       		.uleb128 0x22
 10247 1aa8 44070000 		.4byte	.LASF369
 10248 1aac 03       		.byte	0x3
 10249 1aad 22       		.uleb128 0x22
 10250 1aae D60B0000 		.4byte	.LASF370
 10251 1ab2 04       		.byte	0x4
 10252 1ab3 00       		.byte	0
 10253 1ab4 03       		.uleb128 0x3
 10254 1ab5 80070000 		.4byte	.LASF371
 10255 1ab9 1A       		.byte	0x1a
 10256 1aba 65       		.byte	0x65
 10257 1abb 881A0000 		.4byte	0x1a88
 10258 1abf 13       		.uleb128 0x13
 10259 1ac0 D5000000 		.4byte	0xd5
 10260 1ac4 CF1A0000 		.4byte	0x1acf
 10261 1ac8 14       		.uleb128 0x14
 10262 1ac9 37000000 		.4byte	0x37
 10263 1acd 07       		.byte	0x7
 10264 1ace 00       		.byte	0
 10265 1acf 17       		.uleb128 0x17
 10266 1ad0 08       		.byte	0x8
 10267 1ad1 1B       		.byte	0x1b
 10268 1ad2 F4       		.byte	0xf4
 10269 1ad3 F11A0000 		.4byte	0x1af1
 10270 1ad7 18       		.uleb128 0x18
 10271 1ad8 6D637200 		.ascii	"mcr\000"
 10272 1adc 1B       		.byte	0x1b
 10273 1add FA       		.byte	0xfa
 10274 1ade 0B010000 		.4byte	0x10b
 10275 1ae2 00       		.byte	0
 10276 1ae3 09       		.uleb128 0x9
 10277 1ae4 62747200 		.ascii	"btr\000"
 10278 1ae8 1B       		.byte	0x1b
 10279 1ae9 0001     		.2byte	0x100
ARM GAS  /tmp/ccZueut9.s 			page 187


 10280 1aeb 0B010000 		.4byte	0x10b
 10281 1aef 04       		.byte	0x4
 10282 1af0 00       		.byte	0
 10283 1af1 1A       		.uleb128 0x1a
 10284 1af2 611E0000 		.4byte	.LASF372
 10285 1af6 1B       		.byte	0x1b
 10286 1af7 0101     		.2byte	0x101
 10287 1af9 CF1A0000 		.4byte	0x1acf
 10288 1afd 05       		.uleb128 0x5
 10289 1afe F11A0000 		.4byte	0x1af1
 10290 1b02 19       		.uleb128 0x19
 10291 1b03 30       		.byte	0x30
 10292 1b04 1B       		.byte	0x1b
 10293 1b05 0601     		.2byte	0x106
 10294 1b07 8E1B0000 		.4byte	0x1b8e
 10295 1b0b 0A       		.uleb128 0xa
 10296 1b0c 231A0000 		.4byte	.LASF340
 10297 1b10 1B       		.byte	0x1b
 10298 1b11 0A01     		.2byte	0x10a
 10299 1b13 B41A0000 		.4byte	0x1ab4
 10300 1b17 00       		.byte	0
 10301 1b18 0A       		.uleb128 0xa
 10302 1b19 BE210000 		.4byte	.LASF341
 10303 1b1d 1B       		.byte	0x1b
 10304 1b1e 0E01     		.2byte	0x10e
 10305 1b20 8E1B0000 		.4byte	0x1b8e
 10306 1b24 04       		.byte	0x4
 10307 1b25 0A       		.uleb128 0xa
 10308 1b26 4D0B0000 		.4byte	.LASF373
 10309 1b2a 1B       		.byte	0x1b
 10310 1b2b 1201     		.2byte	0x112
 10311 1b2d 1D030000 		.4byte	0x31d
 10312 1b31 08       		.byte	0x8
 10313 1b32 0A       		.uleb128 0xa
 10314 1b33 4A250000 		.4byte	.LASF374
 10315 1b37 1B       		.byte	0x1b
 10316 1b38 1601     		.2byte	0x116
 10317 1b3a 1D030000 		.4byte	0x31d
 10318 1b3e 10       		.byte	0x10
 10319 1b3f 0A       		.uleb128 0xa
 10320 1b40 261E0000 		.4byte	.LASF375
 10321 1b44 1B       		.byte	0x1b
 10322 1b45 2301     		.2byte	0x123
 10323 1b47 E3120000 		.4byte	0x12e3
 10324 1b4b 18       		.byte	0x18
 10325 1b4c 0A       		.uleb128 0xa
 10326 1b4d C70D0000 		.4byte	.LASF376
 10327 1b51 1B       		.byte	0x1b
 10328 1b52 2A01     		.2byte	0x12a
 10329 1b54 E3120000 		.4byte	0x12e3
 10330 1b58 1C       		.byte	0x1c
 10331 1b59 0A       		.uleb128 0xa
 10332 1b5a D0130000 		.4byte	.LASF377
 10333 1b5e 1B       		.byte	0x1b
 10334 1b5f 3001     		.2byte	0x130
 10335 1b61 E3120000 		.4byte	0x12e3
 10336 1b65 20       		.byte	0x20
ARM GAS  /tmp/ccZueut9.s 			page 188


 10337 1b66 0A       		.uleb128 0xa
 10338 1b67 AA040000 		.4byte	.LASF378
 10339 1b6b 1B       		.byte	0x1b
 10340 1b6c 3501     		.2byte	0x135
 10341 1b6e E3120000 		.4byte	0x12e3
 10342 1b72 24       		.byte	0x24
 10343 1b73 0A       		.uleb128 0xa
 10344 1b74 030B0000 		.4byte	.LASF379
 10345 1b78 1B       		.byte	0x1b
 10346 1b79 3901     		.2byte	0x139
 10347 1b7b E3120000 		.4byte	0x12e3
 10348 1b7f 28       		.byte	0x28
 10349 1b80 09       		.uleb128 0x9
 10350 1b81 63616E00 		.ascii	"can\000"
 10351 1b85 1B       		.byte	0x1b
 10352 1b86 3F01     		.2byte	0x13f
 10353 1b88 941B0000 		.4byte	0x1b94
 10354 1b8c 2C       		.byte	0x2c
 10355 1b8d 00       		.byte	0
 10356 1b8e 0B       		.uleb128 0xb
 10357 1b8f 04       		.byte	0x4
 10358 1b90 FD1A0000 		.4byte	0x1afd
 10359 1b94 0B       		.uleb128 0xb
 10360 1b95 04       		.byte	0x4
 10361 1b96 B6080000 		.4byte	0x8b6
 10362 1b9a 1A       		.uleb128 0x1a
 10363 1b9b 10050000 		.4byte	.LASF380
 10364 1b9f 1B       		.byte	0x1b
 10365 1ba0 4001     		.2byte	0x140
 10366 1ba2 021B0000 		.4byte	0x1b02
 10367 1ba6 15       		.uleb128 0x15
 10368 1ba7 06270000 		.4byte	.LASF381
 10369 1bab 1B       		.byte	0x1b
 10370 1bac 4B01     		.2byte	0x14b
 10371 1bae 9A1B0000 		.4byte	0x1b9a
 10372 1bb2 21       		.uleb128 0x21
 10373 1bb3 07       		.byte	0x7
 10374 1bb4 01       		.byte	0x1
 10375 1bb5 69000000 		.4byte	0x69
 10376 1bb9 1C       		.byte	0x1c
 10377 1bba 46       		.byte	0x46
 10378 1bbb E41B0000 		.4byte	0x1be4
 10379 1bbf 22       		.uleb128 0x22
 10380 1bc0 30220000 		.4byte	.LASF382
 10381 1bc4 00       		.byte	0
 10382 1bc5 22       		.uleb128 0x22
 10383 1bc6 3D280000 		.4byte	.LASF383
 10384 1bca 01       		.byte	0x1
 10385 1bcb 22       		.uleb128 0x22
 10386 1bcc FE100000 		.4byte	.LASF384
 10387 1bd0 02       		.byte	0x2
 10388 1bd1 22       		.uleb128 0x22
 10389 1bd2 111A0000 		.4byte	.LASF385
 10390 1bd6 03       		.byte	0x3
 10391 1bd7 22       		.uleb128 0x22
 10392 1bd8 8D210000 		.4byte	.LASF386
 10393 1bdc 04       		.byte	0x4
ARM GAS  /tmp/ccZueut9.s 			page 189


 10394 1bdd 22       		.uleb128 0x22
 10395 1bde 1A130000 		.4byte	.LASF387
 10396 1be2 05       		.byte	0x5
 10397 1be3 00       		.byte	0
 10398 1be4 03       		.uleb128 0x3
 10399 1be5 C91D0000 		.4byte	.LASF388
 10400 1be9 1C       		.byte	0x1c
 10401 1bea 4D       		.byte	0x4d
 10402 1beb B21B0000 		.4byte	0x1bb2
 10403 1bef 17       		.uleb128 0x17
 10404 1bf0 1C       		.byte	0x1c
 10405 1bf1 1D       		.byte	0x1d
 10406 1bf2 F9       		.byte	0xf9
 10407 1bf3 521C0000 		.4byte	0x1c52
 10408 1bf7 18       		.uleb128 0x18
 10409 1bf8 64616300 		.ascii	"dac\000"
 10410 1bfc 1D       		.byte	0x1d
 10411 1bfd FD       		.byte	0xfd
 10412 1bfe 521C0000 		.4byte	0x1c52
 10413 1c02 00       		.byte	0
 10414 1c03 0A       		.uleb128 0xa
 10415 1c04 001D0000 		.4byte	.LASF389
 10416 1c08 1D       		.byte	0x1d
 10417 1c09 0101     		.2byte	0x101
 10418 1c0b 0B010000 		.4byte	0x10b
 10419 1c0f 04       		.byte	0x4
 10420 1c10 0A       		.uleb128 0xa
 10421 1c11 9D080000 		.4byte	.LASF390
 10422 1c15 1D       		.byte	0x1d
 10423 1c16 0501     		.2byte	0x105
 10424 1c18 0B010000 		.4byte	0x10b
 10425 1c1c 08       		.byte	0x8
 10426 1c1d 0A       		.uleb128 0xa
 10427 1c1e BA020000 		.4byte	.LASF391
 10428 1c22 1D       		.byte	0x1d
 10429 1c23 0901     		.2byte	0x109
 10430 1c25 0B010000 		.4byte	0x10b
 10431 1c29 0C       		.byte	0xc
 10432 1c2a 09       		.uleb128 0x9
 10433 1c2b 646D6100 		.ascii	"dma\000"
 10434 1c2f 1D       		.byte	0x1d
 10435 1c30 0D01     		.2byte	0x10d
 10436 1c32 5E1A0000 		.4byte	0x1a5e
 10437 1c36 10       		.byte	0x10
 10438 1c37 0A       		.uleb128 0xa
 10439 1c38 691C0000 		.4byte	.LASF348
 10440 1c3c 1D       		.byte	0x1d
 10441 1c3d 1101     		.2byte	0x111
 10442 1c3f 0B010000 		.4byte	0x10b
 10443 1c43 14       		.byte	0x14
 10444 1c44 0A       		.uleb128 0xa
 10445 1c45 F01B0000 		.4byte	.LASF392
 10446 1c49 1D       		.byte	0x1d
 10447 1c4a 1501     		.2byte	0x115
 10448 1c4c 0B010000 		.4byte	0x10b
 10449 1c50 18       		.byte	0x18
 10450 1c51 00       		.byte	0
ARM GAS  /tmp/ccZueut9.s 			page 190


 10451 1c52 0B       		.uleb128 0xb
 10452 1c53 04       		.byte	0x4
 10453 1c54 80090000 		.4byte	0x980
 10454 1c58 1A       		.uleb128 0x1a
 10455 1c59 42040000 		.4byte	.LASF393
 10456 1c5d 1D       		.byte	0x1d
 10457 1c5e 1601     		.2byte	0x116
 10458 1c60 EF1B0000 		.4byte	0x1bef
 10459 1c64 05       		.uleb128 0x5
 10460 1c65 581C0000 		.4byte	0x1c58
 10461 1c69 1A       		.uleb128 0x1a
 10462 1c6a EC0E0000 		.4byte	.LASF394
 10463 1c6e 1D       		.byte	0x1d
 10464 1c6f 1B01     		.2byte	0x11b
 10465 1c71 751C0000 		.4byte	0x1c75
 10466 1c75 0C       		.uleb128 0xc
 10467 1c76 EC0E0000 		.4byte	.LASF394
 10468 1c7a 30       		.byte	0x30
 10469 1c7b 1D       		.byte	0x1d
 10470 1c7c 7B01     		.2byte	0x17b
 10471 1c7e EB1C0000 		.4byte	0x1ceb
 10472 1c82 0A       		.uleb128 0xa
 10473 1c83 231A0000 		.4byte	.LASF340
 10474 1c87 1D       		.byte	0x1d
 10475 1c88 7F01     		.2byte	0x17f
 10476 1c8a E41B0000 		.4byte	0x1be4
 10477 1c8e 00       		.byte	0
 10478 1c8f 0A       		.uleb128 0xa
 10479 1c90 9D250000 		.4byte	.LASF344
 10480 1c94 1D       		.byte	0x1d
 10481 1c95 8301     		.2byte	0x183
 10482 1c97 291E0000 		.4byte	0x1e29
 10483 1c9b 04       		.byte	0x4
 10484 1c9c 0A       		.uleb128 0xa
 10485 1c9d 92020000 		.4byte	.LASF342
 10486 1ca1 1D       		.byte	0x1d
 10487 1ca2 8701     		.2byte	0x187
 10488 1ca4 501D0000 		.4byte	0x1d50
 10489 1ca8 08       		.byte	0x8
 10490 1ca9 0A       		.uleb128 0xa
 10491 1caa 651D0000 		.4byte	.LASF343
 10492 1cae 1D       		.byte	0x1d
 10493 1caf 8B01     		.2byte	0x18b
 10494 1cb1 F0000000 		.4byte	0xf0
 10495 1cb5 0C       		.byte	0xc
 10496 1cb6 0A       		.uleb128 0xa
 10497 1cb7 BE210000 		.4byte	.LASF341
 10498 1cbb 1D       		.byte	0x1d
 10499 1cbc 8F01     		.2byte	0x18f
 10500 1cbe 2F1E0000 		.4byte	0x1e2f
 10501 1cc2 10       		.byte	0x10
 10502 1cc3 0A       		.uleb128 0xa
 10503 1cc4 96080000 		.4byte	.LASF345
 10504 1cc8 1D       		.byte	0x1d
 10505 1cc9 9401     		.2byte	0x194
 10506 1ccb E8020000 		.4byte	0x2e8
 10507 1ccf 14       		.byte	0x14
ARM GAS  /tmp/ccZueut9.s 			page 191


 10508 1cd0 0A       		.uleb128 0xa
 10509 1cd1 E10E0000 		.4byte	.LASF346
 10510 1cd5 1D       		.byte	0x1d
 10511 1cd6 9A01     		.2byte	0x19a
 10512 1cd8 5F120000 		.4byte	0x125f
 10513 1cdc 18       		.byte	0x18
 10514 1cdd 0A       		.uleb128 0xa
 10515 1cde A1140000 		.4byte	.LASF395
 10516 1ce2 1D       		.byte	0x1d
 10517 1ce3 A301     		.2byte	0x1a3
 10518 1ce5 351E0000 		.4byte	0x1e35
 10519 1ce9 2C       		.byte	0x2c
 10520 1cea 00       		.byte	0
 10521 1ceb 1A       		.uleb128 0x1a
 10522 1cec EF1D0000 		.4byte	.LASF396
 10523 1cf0 1D       		.byte	0x1d
 10524 1cf1 2001     		.2byte	0x120
 10525 1cf3 F0000000 		.4byte	0xf0
 10526 1cf7 05       		.uleb128 0x5
 10527 1cf8 EB1C0000 		.4byte	0x1ceb
 10528 1cfc 24       		.uleb128 0x24
 10529 1cfd 07       		.byte	0x7
 10530 1cfe 01       		.byte	0x1
 10531 1cff 69000000 		.4byte	0x69
 10532 1d03 1D       		.byte	0x1d
 10533 1d04 2701     		.2byte	0x127
 10534 1d06 171D0000 		.4byte	0x1d17
 10535 1d0a 22       		.uleb128 0x22
 10536 1d0b E21E0000 		.4byte	.LASF397
 10537 1d0f 00       		.byte	0
 10538 1d10 22       		.uleb128 0x22
 10539 1d11 F10A0000 		.4byte	.LASF398
 10540 1d15 01       		.byte	0x1
 10541 1d16 00       		.byte	0
 10542 1d17 1A       		.uleb128 0x1a
 10543 1d18 27150000 		.4byte	.LASF399
 10544 1d1c 1D       		.byte	0x1d
 10545 1d1d 2A01     		.2byte	0x12a
 10546 1d1f FC1C0000 		.4byte	0x1cfc
 10547 1d23 1A       		.uleb128 0x1a
 10548 1d24 13090000 		.4byte	.LASF400
 10549 1d28 1D       		.byte	0x1d
 10550 1d29 3401     		.2byte	0x134
 10551 1d2b 2F1D0000 		.4byte	0x1d2f
 10552 1d2f 0B       		.uleb128 0xb
 10553 1d30 04       		.byte	0x4
 10554 1d31 351D0000 		.4byte	0x1d35
 10555 1d35 0D       		.uleb128 0xd
 10556 1d36 4A1D0000 		.4byte	0x1d4a
 10557 1d3a 0E       		.uleb128 0xe
 10558 1d3b 4A1D0000 		.4byte	0x1d4a
 10559 1d3f 0E       		.uleb128 0xe
 10560 1d40 501D0000 		.4byte	0x1d50
 10561 1d44 0E       		.uleb128 0xe
 10562 1d45 2C000000 		.4byte	0x2c
 10563 1d49 00       		.byte	0
 10564 1d4a 0B       		.uleb128 0xb
ARM GAS  /tmp/ccZueut9.s 			page 192


 10565 1d4b 04       		.byte	0x4
 10566 1d4c 691C0000 		.4byte	0x1c69
 10567 1d50 0B       		.uleb128 0xb
 10568 1d51 04       		.byte	0x4
 10569 1d52 F71C0000 		.4byte	0x1cf7
 10570 1d56 1A       		.uleb128 0x1a
 10571 1d57 53270000 		.4byte	.LASF401
 10572 1d5b 1D       		.byte	0x1d
 10573 1d5c 3F01     		.2byte	0x13f
 10574 1d5e 621D0000 		.4byte	0x1d62
 10575 1d62 0B       		.uleb128 0xb
 10576 1d63 04       		.byte	0x4
 10577 1d64 681D0000 		.4byte	0x1d68
 10578 1d68 0D       		.uleb128 0xd
 10579 1d69 781D0000 		.4byte	0x1d78
 10580 1d6d 0E       		.uleb128 0xe
 10581 1d6e 4A1D0000 		.4byte	0x1d4a
 10582 1d72 0E       		.uleb128 0xe
 10583 1d73 171D0000 		.4byte	0x1d17
 10584 1d77 00       		.byte	0
 10585 1d78 24       		.uleb128 0x24
 10586 1d79 07       		.byte	0x7
 10587 1d7a 01       		.byte	0x1
 10588 1d7b 69000000 		.4byte	0x69
 10589 1d7f 1D       		.byte	0x1d
 10590 1d80 4401     		.2byte	0x144
 10591 1d82 991D0000 		.4byte	0x1d99
 10592 1d86 22       		.uleb128 0x22
 10593 1d87 9A220000 		.4byte	.LASF402
 10594 1d8b 00       		.byte	0
 10595 1d8c 22       		.uleb128 0x22
 10596 1d8d D7160000 		.4byte	.LASF403
 10597 1d91 01       		.byte	0x1
 10598 1d92 22       		.uleb128 0x22
 10599 1d93 E41A0000 		.4byte	.LASF404
 10600 1d97 02       		.byte	0x2
 10601 1d98 00       		.byte	0
 10602 1d99 1A       		.uleb128 0x1a
 10603 1d9a 750C0000 		.4byte	.LASF405
 10604 1d9e 1D       		.byte	0x1d
 10605 1d9f 4D01     		.2byte	0x14d
 10606 1da1 781D0000 		.4byte	0x1d78
 10607 1da5 19       		.uleb128 0x19
 10608 1da6 10       		.byte	0x10
 10609 1da7 1D       		.byte	0x1d
 10610 1da8 5201     		.2byte	0x152
 10611 1daa E31D0000 		.4byte	0x1de3
 10612 1dae 0A       		.uleb128 0xa
 10613 1daf DC130000 		.4byte	.LASF352
 10614 1db3 1D       		.byte	0x1d
 10615 1db4 5601     		.2byte	0x156
 10616 1db6 0B010000 		.4byte	0x10b
 10617 1dba 00       		.byte	0
 10618 1dbb 0A       		.uleb128 0xa
 10619 1dbc 180B0000 		.4byte	.LASF353
 10620 1dc0 1D       		.byte	0x1d
 10621 1dc1 5A01     		.2byte	0x15a
ARM GAS  /tmp/ccZueut9.s 			page 193


 10622 1dc3 231D0000 		.4byte	0x1d23
 10623 1dc7 04       		.byte	0x4
 10624 1dc8 0A       		.uleb128 0xa
 10625 1dc9 F4290000 		.4byte	.LASF354
 10626 1dcd 1D       		.byte	0x1d
 10627 1dce 5E01     		.2byte	0x15e
 10628 1dd0 561D0000 		.4byte	0x1d56
 10629 1dd4 08       		.byte	0x8
 10630 1dd5 0A       		.uleb128 0xa
 10631 1dd6 8F180000 		.4byte	.LASF406
 10632 1dda 1D       		.byte	0x1d
 10633 1ddb 6601     		.2byte	0x166
 10634 1ddd 0B010000 		.4byte	0x10b
 10635 1de1 0C       		.byte	0xc
 10636 1de2 00       		.byte	0
 10637 1de3 1A       		.uleb128 0x1a
 10638 1de4 E4150000 		.4byte	.LASF407
 10639 1de8 1D       		.byte	0x1d
 10640 1de9 6701     		.2byte	0x167
 10641 1deb A51D0000 		.4byte	0x1da5
 10642 1def 05       		.uleb128 0x5
 10643 1df0 E31D0000 		.4byte	0x1de3
 10644 1df4 19       		.uleb128 0x19
 10645 1df5 04       		.byte	0x4
 10646 1df6 1D       		.byte	0x1d
 10647 1df7 6C01     		.2byte	0x16c
 10648 1df9 181E0000 		.4byte	0x1e18
 10649 1dfd 0A       		.uleb128 0xa
 10650 1dfe C70C0000 		.4byte	.LASF408
 10651 1e02 1D       		.byte	0x1d
 10652 1e03 7101     		.2byte	0x171
 10653 1e05 EB1C0000 		.4byte	0x1ceb
 10654 1e09 00       		.byte	0
 10655 1e0a 0A       		.uleb128 0xa
 10656 1e0b 65010000 		.4byte	.LASF409
 10657 1e0f 1D       		.byte	0x1d
 10658 1e10 7501     		.2byte	0x175
 10659 1e12 991D0000 		.4byte	0x1d99
 10660 1e16 02       		.byte	0x2
 10661 1e17 00       		.byte	0
 10662 1e18 1A       		.uleb128 0x1a
 10663 1e19 F60E0000 		.4byte	.LASF410
 10664 1e1d 1D       		.byte	0x1d
 10665 1e1e 7601     		.2byte	0x176
 10666 1e20 F41D0000 		.4byte	0x1df4
 10667 1e24 05       		.uleb128 0x5
 10668 1e25 181E0000 		.4byte	0x1e18
 10669 1e29 0B       		.uleb128 0xb
 10670 1e2a 04       		.byte	0x4
 10671 1e2b EF1D0000 		.4byte	0x1def
 10672 1e2f 0B       		.uleb128 0xb
 10673 1e30 04       		.byte	0x4
 10674 1e31 241E0000 		.4byte	0x1e24
 10675 1e35 0B       		.uleb128 0xb
 10676 1e36 04       		.byte	0x4
 10677 1e37 641C0000 		.4byte	0x1c64
 10678 1e3b 15       		.uleb128 0x15
ARM GAS  /tmp/ccZueut9.s 			page 194


 10679 1e3c 0A050000 		.4byte	.LASF411
 10680 1e40 1D       		.byte	0x1d
 10681 1e41 B301     		.2byte	0x1b3
 10682 1e43 691C0000 		.4byte	0x1c69
 10683 1e47 21       		.uleb128 0x21
 10684 1e48 07       		.byte	0x7
 10685 1e49 01       		.byte	0x1
 10686 1e4a 69000000 		.4byte	0x69
 10687 1e4e 1E       		.byte	0x1e
 10688 1e4f 3F       		.byte	0x3f
 10689 1e50 671E0000 		.4byte	0x1e67
 10690 1e54 22       		.uleb128 0x22
 10691 1e55 CB0B0000 		.4byte	.LASF412
 10692 1e59 00       		.byte	0
 10693 1e5a 22       		.uleb128 0x22
 10694 1e5b 1E2C0000 		.4byte	.LASF413
 10695 1e5f 01       		.byte	0x1
 10696 1e60 22       		.uleb128 0x22
 10697 1e61 EB020000 		.4byte	.LASF414
 10698 1e65 02       		.byte	0x2
 10699 1e66 00       		.byte	0
 10700 1e67 03       		.uleb128 0x3
 10701 1e68 DB200000 		.4byte	.LASF415
 10702 1e6c 1E       		.byte	0x1e
 10703 1e6d 43       		.byte	0x43
 10704 1e6e 471E0000 		.4byte	0x1e47
 10705 1e72 03       		.uleb128 0x3
 10706 1e73 4F0A0000 		.4byte	.LASF416
 10707 1e77 1E       		.byte	0x1e
 10708 1e78 48       		.byte	0x48
 10709 1e79 7D1E0000 		.4byte	0x1e7d
 10710 1e7d 07       		.uleb128 0x7
 10711 1e7e 4F0A0000 		.4byte	.LASF416
 10712 1e82 08       		.byte	0x8
 10713 1e83 1F       		.byte	0x1f
 10714 1e84 71       		.byte	0x71
 10715 1e85 A21E0000 		.4byte	0x1ea2
 10716 1e89 08       		.uleb128 0x8
 10717 1e8a 231A0000 		.4byte	.LASF340
 10718 1e8e 1F       		.byte	0x1f
 10719 1e8f 75       		.byte	0x75
 10720 1e90 671E0000 		.4byte	0x1e67
 10721 1e94 00       		.byte	0
 10722 1e95 08       		.uleb128 0x8
 10723 1e96 BE210000 		.4byte	.LASF341
 10724 1e9a 1F       		.byte	0x1f
 10725 1e9b 79       		.byte	0x79
 10726 1e9c 341F0000 		.4byte	0x1f34
 10727 1ea0 04       		.byte	0x4
 10728 1ea1 00       		.byte	0
 10729 1ea2 03       		.uleb128 0x3
 10730 1ea3 3D2A0000 		.4byte	.LASF417
 10731 1ea7 1F       		.byte	0x1f
 10732 1ea8 47       		.byte	0x47
 10733 1ea9 0B010000 		.4byte	0x10b
 10734 1ead 03       		.uleb128 0x3
 10735 1eae 3C250000 		.4byte	.LASF418
ARM GAS  /tmp/ccZueut9.s 			page 195


 10736 1eb2 1F       		.byte	0x1f
 10737 1eb3 4F       		.byte	0x4f
 10738 1eb4 B81E0000 		.4byte	0x1eb8
 10739 1eb8 0B       		.uleb128 0xb
 10740 1eb9 04       		.byte	0x4
 10741 1eba BE1E0000 		.4byte	0x1ebe
 10742 1ebe 0D       		.uleb128 0xd
 10743 1ebf CE1E0000 		.4byte	0x1ece
 10744 1ec3 0E       		.uleb128 0xe
 10745 1ec4 CE1E0000 		.4byte	0x1ece
 10746 1ec8 0E       		.uleb128 0xe
 10747 1ec9 A21E0000 		.4byte	0x1ea2
 10748 1ecd 00       		.byte	0
 10749 1ece 0B       		.uleb128 0xb
 10750 1ecf 04       		.byte	0x4
 10751 1ed0 721E0000 		.4byte	0x1e72
 10752 1ed4 17       		.uleb128 0x17
 10753 1ed5 08       		.byte	0x8
 10754 1ed6 1F       		.byte	0x1f
 10755 1ed7 54       		.byte	0x54
 10756 1ed8 F41E0000 		.4byte	0x1ef4
 10757 1edc 08       		.uleb128 0x8
 10758 1edd 340A0000 		.4byte	.LASF419
 10759 1ee1 1F       		.byte	0x1f
 10760 1ee2 58       		.byte	0x58
 10761 1ee3 0B010000 		.4byte	0x10b
 10762 1ee7 00       		.byte	0
 10763 1ee8 18       		.uleb128 0x18
 10764 1ee9 636200   		.ascii	"cb\000"
 10765 1eec 1F       		.byte	0x1f
 10766 1eed 5F       		.byte	0x5f
 10767 1eee AD1E0000 		.4byte	0x1ead
 10768 1ef2 04       		.byte	0x4
 10769 1ef3 00       		.byte	0
 10770 1ef4 03       		.uleb128 0x3
 10771 1ef5 E5100000 		.4byte	.LASF420
 10772 1ef9 1F       		.byte	0x1f
 10773 1efa 60       		.byte	0x60
 10774 1efb D41E0000 		.4byte	0x1ed4
 10775 1eff 17       		.uleb128 0x17
 10776 1f00 B8       		.byte	0xb8
 10777 1f01 1F       		.byte	0x1f
 10778 1f02 66       		.byte	0x66
 10779 1f03 141F0000 		.4byte	0x1f14
 10780 1f07 08       		.uleb128 0x8
 10781 1f08 84270000 		.4byte	.LASF421
 10782 1f0c 1F       		.byte	0x1f
 10783 1f0d 6A       		.byte	0x6a
 10784 1f0e 141F0000 		.4byte	0x1f14
 10785 1f12 00       		.byte	0
 10786 1f13 00       		.byte	0
 10787 1f14 13       		.uleb128 0x13
 10788 1f15 F41E0000 		.4byte	0x1ef4
 10789 1f19 241F0000 		.4byte	0x1f24
 10790 1f1d 14       		.uleb128 0x14
 10791 1f1e 37000000 		.4byte	0x37
 10792 1f22 16       		.byte	0x16
ARM GAS  /tmp/ccZueut9.s 			page 196


 10793 1f23 00       		.byte	0
 10794 1f24 03       		.uleb128 0x3
 10795 1f25 17240000 		.4byte	.LASF422
 10796 1f29 1F       		.byte	0x1f
 10797 1f2a 6C       		.byte	0x6c
 10798 1f2b FF1E0000 		.4byte	0x1eff
 10799 1f2f 05       		.uleb128 0x5
 10800 1f30 241F0000 		.4byte	0x1f24
 10801 1f34 0B       		.uleb128 0xb
 10802 1f35 04       		.byte	0x4
 10803 1f36 2F1F0000 		.4byte	0x1f2f
 10804 1f3a 16       		.uleb128 0x16
 10805 1f3b 71070000 		.4byte	.LASF423
 10806 1f3f 1F       		.byte	0x1f
 10807 1f40 86       		.byte	0x86
 10808 1f41 721E0000 		.4byte	0x1e72
 10809 1f45 21       		.uleb128 0x21
 10810 1f46 07       		.byte	0x7
 10811 1f47 01       		.byte	0x1
 10812 1f48 69000000 		.4byte	0x69
 10813 1f4c 20       		.byte	0x20
 10814 1f4d 31       		.byte	0x31
 10815 1f4e 711F0000 		.4byte	0x1f71
 10816 1f52 22       		.uleb128 0x22
 10817 1f53 F81A0000 		.4byte	.LASF424
 10818 1f57 00       		.byte	0
 10819 1f58 22       		.uleb128 0x22
 10820 1f59 B7180000 		.4byte	.LASF425
 10821 1f5d 01       		.byte	0x1
 10822 1f5e 22       		.uleb128 0x22
 10823 1f5f BF1D0000 		.4byte	.LASF426
 10824 1f63 02       		.byte	0x2
 10825 1f64 22       		.uleb128 0x22
 10826 1f65 6D090000 		.4byte	.LASF427
 10827 1f69 03       		.byte	0x3
 10828 1f6a 22       		.uleb128 0x22
 10829 1f6b EF050000 		.4byte	.LASF428
 10830 1f6f 04       		.byte	0x4
 10831 1f70 00       		.byte	0
 10832 1f71 03       		.uleb128 0x3
 10833 1f72 76170000 		.4byte	.LASF429
 10834 1f76 20       		.byte	0x20
 10835 1f77 37       		.byte	0x37
 10836 1f78 451F0000 		.4byte	0x1f45
 10837 1f7c 03       		.uleb128 0x3
 10838 1f7d FB1B0000 		.4byte	.LASF430
 10839 1f81 20       		.byte	0x20
 10840 1f82 3C       		.byte	0x3c
 10841 1f83 871F0000 		.4byte	0x1f87
 10842 1f87 0C       		.uleb128 0xc
 10843 1f88 FB1B0000 		.4byte	.LASF430
 10844 1f8c 10       		.byte	0x10
 10845 1f8d 21       		.byte	0x21
 10846 1f8e 9701     		.2byte	0x197
 10847 1f90 C91F0000 		.4byte	0x1fc9
 10848 1f94 0A       		.uleb128 0xa
 10849 1f95 231A0000 		.4byte	.LASF340
ARM GAS  /tmp/ccZueut9.s 			page 197


 10850 1f99 21       		.byte	0x21
 10851 1f9a 9B01     		.2byte	0x19b
 10852 1f9c 711F0000 		.4byte	0x1f71
 10853 1fa0 00       		.byte	0
 10854 1fa1 0A       		.uleb128 0xa
 10855 1fa2 BE210000 		.4byte	.LASF341
 10856 1fa6 21       		.byte	0x21
 10857 1fa7 9F01     		.2byte	0x19f
 10858 1fa9 5E210000 		.4byte	0x215e
 10859 1fad 04       		.byte	0x4
 10860 1fae 0A       		.uleb128 0xa
 10861 1faf 250F0000 		.4byte	.LASF431
 10862 1fb3 21       		.byte	0x21
 10863 1fb4 A701     		.2byte	0x1a7
 10864 1fb6 0B010000 		.4byte	0x10b
 10865 1fba 08       		.byte	0x8
 10866 1fbb 09       		.uleb128 0x9
 10867 1fbc 74696D00 		.ascii	"tim\000"
 10868 1fc0 21       		.byte	0x21
 10869 1fc1 AB01     		.2byte	0x1ab
 10870 1fc3 64210000 		.4byte	0x2164
 10871 1fc7 0C       		.byte	0xc
 10872 1fc8 00       		.byte	0
 10873 1fc9 03       		.uleb128 0x3
 10874 1fca 49150000 		.4byte	.LASF432
 10875 1fce 20       		.byte	0x20
 10876 1fcf 43       		.byte	0x43
 10877 1fd0 D41F0000 		.4byte	0x1fd4
 10878 1fd4 0B       		.uleb128 0xb
 10879 1fd5 04       		.byte	0x4
 10880 1fd6 DA1F0000 		.4byte	0x1fda
 10881 1fda 0D       		.uleb128 0xd
 10882 1fdb E51F0000 		.4byte	0x1fe5
 10883 1fdf 0E       		.uleb128 0xe
 10884 1fe0 E51F0000 		.4byte	0x1fe5
 10885 1fe4 00       		.byte	0
 10886 1fe5 0B       		.uleb128 0xb
 10887 1fe6 04       		.byte	0x4
 10888 1fe7 7C1F0000 		.4byte	0x1f7c
 10889 1feb 19       		.uleb128 0x19
 10890 1fec 60       		.byte	0x60
 10891 1fed 22       		.byte	0x22
 10892 1fee 9E01     		.2byte	0x19e
 10893 1ff0 F7200000 		.4byte	0x20f7
 10894 1ff4 09       		.uleb128 0x9
 10895 1ff5 43523100 		.ascii	"CR1\000"
 10896 1ff9 22       		.byte	0x22
 10897 1ffa 9F01     		.2byte	0x19f
 10898 1ffc 16010000 		.4byte	0x116
 10899 2000 00       		.byte	0
 10900 2001 09       		.uleb128 0x9
 10901 2002 43523200 		.ascii	"CR2\000"
 10902 2006 22       		.byte	0x22
 10903 2007 A001     		.2byte	0x1a0
 10904 2009 16010000 		.4byte	0x116
 10905 200d 04       		.byte	0x4
 10906 200e 0A       		.uleb128 0xa
ARM GAS  /tmp/ccZueut9.s 			page 198


 10907 200f 99260000 		.4byte	.LASF433
 10908 2013 22       		.byte	0x22
 10909 2014 A101     		.2byte	0x1a1
 10910 2016 16010000 		.4byte	0x116
 10911 201a 08       		.byte	0x8
 10912 201b 0A       		.uleb128 0xa
 10913 201c 170C0000 		.4byte	.LASF434
 10914 2020 22       		.byte	0x22
 10915 2021 A201     		.2byte	0x1a2
 10916 2023 16010000 		.4byte	0x116
 10917 2027 0C       		.byte	0xc
 10918 2028 09       		.uleb128 0x9
 10919 2029 535200   		.ascii	"SR\000"
 10920 202c 22       		.byte	0x22
 10921 202d A301     		.2byte	0x1a3
 10922 202f 16010000 		.4byte	0x116
 10923 2033 10       		.byte	0x10
 10924 2034 09       		.uleb128 0x9
 10925 2035 45475200 		.ascii	"EGR\000"
 10926 2039 22       		.byte	0x22
 10927 203a A401     		.2byte	0x1a4
 10928 203c 16010000 		.4byte	0x116
 10929 2040 14       		.byte	0x14
 10930 2041 0A       		.uleb128 0xa
 10931 2042 F02A0000 		.4byte	.LASF435
 10932 2046 22       		.byte	0x22
 10933 2047 A501     		.2byte	0x1a5
 10934 2049 16010000 		.4byte	0x116
 10935 204d 18       		.byte	0x18
 10936 204e 0A       		.uleb128 0xa
 10937 204f F62A0000 		.4byte	.LASF436
 10938 2053 22       		.byte	0x22
 10939 2054 A601     		.2byte	0x1a6
 10940 2056 16010000 		.4byte	0x116
 10941 205a 1C       		.byte	0x1c
 10942 205b 0A       		.uleb128 0xa
 10943 205c DC080000 		.4byte	.LASF437
 10944 2060 22       		.byte	0x22
 10945 2061 A701     		.2byte	0x1a7
 10946 2063 16010000 		.4byte	0x116
 10947 2067 20       		.byte	0x20
 10948 2068 09       		.uleb128 0x9
 10949 2069 434E5400 		.ascii	"CNT\000"
 10950 206d 22       		.byte	0x22
 10951 206e A801     		.2byte	0x1a8
 10952 2070 16010000 		.4byte	0x116
 10953 2074 24       		.byte	0x24
 10954 2075 09       		.uleb128 0x9
 10955 2076 50534300 		.ascii	"PSC\000"
 10956 207a 22       		.byte	0x22
 10957 207b A901     		.2byte	0x1a9
 10958 207d 16010000 		.4byte	0x116
 10959 2081 28       		.byte	0x28
 10960 2082 09       		.uleb128 0x9
 10961 2083 41525200 		.ascii	"ARR\000"
 10962 2087 22       		.byte	0x22
 10963 2088 AA01     		.2byte	0x1aa
ARM GAS  /tmp/ccZueut9.s 			page 199


 10964 208a 16010000 		.4byte	0x116
 10965 208e 2C       		.byte	0x2c
 10966 208f 09       		.uleb128 0x9
 10967 2090 52435200 		.ascii	"RCR\000"
 10968 2094 22       		.byte	0x22
 10969 2095 AB01     		.2byte	0x1ab
 10970 2097 16010000 		.4byte	0x116
 10971 209b 30       		.byte	0x30
 10972 209c 09       		.uleb128 0x9
 10973 209d 43435200 		.ascii	"CCR\000"
 10974 20a1 22       		.byte	0x22
 10975 20a2 AC01     		.2byte	0x1ac
 10976 20a4 B60A0000 		.4byte	0xab6
 10977 20a8 34       		.byte	0x34
 10978 20a9 0A       		.uleb128 0xa
 10979 20aa B5020000 		.4byte	.LASF438
 10980 20ae 22       		.byte	0x22
 10981 20af AD01     		.2byte	0x1ad
 10982 20b1 16010000 		.4byte	0x116
 10983 20b5 44       		.byte	0x44
 10984 20b6 09       		.uleb128 0x9
 10985 20b7 44435200 		.ascii	"DCR\000"
 10986 20bb 22       		.byte	0x22
 10987 20bc AE01     		.2byte	0x1ae
 10988 20be 16010000 		.4byte	0x116
 10989 20c2 48       		.byte	0x48
 10990 20c3 0A       		.uleb128 0xa
 10991 20c4 9B1A0000 		.4byte	.LASF439
 10992 20c8 22       		.byte	0x22
 10993 20c9 AF01     		.2byte	0x1af
 10994 20cb 16010000 		.4byte	0x116
 10995 20cf 4C       		.byte	0x4c
 10996 20d0 09       		.uleb128 0x9
 10997 20d1 4F5200   		.ascii	"OR\000"
 10998 20d4 22       		.byte	0x22
 10999 20d5 B001     		.2byte	0x1b0
 11000 20d7 16010000 		.4byte	0x116
 11001 20db 50       		.byte	0x50
 11002 20dc 0A       		.uleb128 0xa
 11003 20dd FC2A0000 		.4byte	.LASF440
 11004 20e1 22       		.byte	0x22
 11005 20e2 B101     		.2byte	0x1b1
 11006 20e4 16010000 		.4byte	0x116
 11007 20e8 54       		.byte	0x54
 11008 20e9 0A       		.uleb128 0xa
 11009 20ea 310F0000 		.4byte	.LASF441
 11010 20ee 22       		.byte	0x22
 11011 20ef B201     		.2byte	0x1b2
 11012 20f1 A10A0000 		.4byte	0xaa1
 11013 20f5 58       		.byte	0x58
 11014 20f6 00       		.byte	0
 11015 20f7 1A       		.uleb128 0x1a
 11016 20f8 D3250000 		.4byte	.LASF442
 11017 20fc 22       		.byte	0x22
 11018 20fd B301     		.2byte	0x1b3
 11019 20ff EB1F0000 		.4byte	0x1feb
 11020 2103 1A       		.uleb128 0x1a
ARM GAS  /tmp/ccZueut9.s 			page 200


 11021 2104 8C0A0000 		.4byte	.LASF443
 11022 2108 21       		.byte	0x21
 11023 2109 6D01     		.2byte	0x16d
 11024 210b 0B010000 		.4byte	0x10b
 11025 210f 19       		.uleb128 0x19
 11026 2110 10       		.byte	0x10
 11027 2111 21       		.byte	0x21
 11028 2112 7801     		.2byte	0x178
 11029 2114 4D210000 		.4byte	0x214d
 11030 2118 0A       		.uleb128 0xa
 11031 2119 6A2A0000 		.4byte	.LASF444
 11032 211d 21       		.byte	0x21
 11033 211e 7E01     		.2byte	0x17e
 11034 2120 03210000 		.4byte	0x2103
 11035 2124 00       		.byte	0
 11036 2125 0A       		.uleb128 0xa
 11037 2126 A01A0000 		.4byte	.LASF445
 11038 212a 21       		.byte	0x21
 11039 212b 8501     		.2byte	0x185
 11040 212d C91F0000 		.4byte	0x1fc9
 11041 2131 04       		.byte	0x4
 11042 2132 09       		.uleb128 0x9
 11043 2133 63723200 		.ascii	"cr2\000"
 11044 2137 21       		.byte	0x21
 11045 2138 8B01     		.2byte	0x18b
 11046 213a 0B010000 		.4byte	0x10b
 11047 213e 08       		.byte	0x8
 11048 213f 0A       		.uleb128 0xa
 11049 2140 750E0000 		.4byte	.LASF446
 11050 2144 21       		.byte	0x21
 11051 2145 9101     		.2byte	0x191
 11052 2147 0B010000 		.4byte	0x10b
 11053 214b 0C       		.byte	0xc
 11054 214c 00       		.byte	0
 11055 214d 1A       		.uleb128 0x1a
 11056 214e 00080000 		.4byte	.LASF447
 11057 2152 21       		.byte	0x21
 11058 2153 9201     		.2byte	0x192
 11059 2155 0F210000 		.4byte	0x210f
 11060 2159 05       		.uleb128 0x5
 11061 215a 4D210000 		.4byte	0x214d
 11062 215e 0B       		.uleb128 0xb
 11063 215f 04       		.byte	0x4
 11064 2160 59210000 		.4byte	0x2159
 11065 2164 0B       		.uleb128 0xb
 11066 2165 04       		.byte	0x4
 11067 2166 F7200000 		.4byte	0x20f7
 11068 216a 15       		.uleb128 0x15
 11069 216b E7290000 		.4byte	.LASF448
 11070 216f 21       		.byte	0x21
 11071 2170 F201     		.2byte	0x1f2
 11072 2172 7C1F0000 		.4byte	0x1f7c
 11073 2176 15       		.uleb128 0x15
 11074 2177 CB210000 		.4byte	.LASF449
 11075 217b 21       		.byte	0x21
 11076 217c 0202     		.2byte	0x202
 11077 217e 7C1F0000 		.4byte	0x1f7c
ARM GAS  /tmp/ccZueut9.s 			page 201


 11078 2182 15       		.uleb128 0x15
 11079 2183 E5210000 		.4byte	.LASF450
 11080 2187 21       		.byte	0x21
 11081 2188 0A02     		.2byte	0x20a
 11082 218a 7C1F0000 		.4byte	0x1f7c
 11083 218e 21       		.uleb128 0x21
 11084 218f 07       		.byte	0x7
 11085 2190 01       		.byte	0x1
 11086 2191 69000000 		.4byte	0x69
 11087 2195 23       		.byte	0x23
 11088 2196 4C       		.byte	0x4c
 11089 2197 C0210000 		.4byte	0x21c0
 11090 219b 22       		.uleb128 0x22
 11091 219c D8070000 		.4byte	.LASF451
 11092 21a0 00       		.byte	0
 11093 21a1 22       		.uleb128 0x22
 11094 21a2 9E100000 		.4byte	.LASF452
 11095 21a6 01       		.byte	0x1
 11096 21a7 22       		.uleb128 0x22
 11097 21a8 45080000 		.4byte	.LASF453
 11098 21ac 02       		.byte	0x2
 11099 21ad 22       		.uleb128 0x22
 11100 21ae 1E060000 		.4byte	.LASF454
 11101 21b2 03       		.byte	0x3
 11102 21b3 22       		.uleb128 0x22
 11103 21b4 7E040000 		.4byte	.LASF455
 11104 21b8 04       		.byte	0x4
 11105 21b9 22       		.uleb128 0x22
 11106 21ba 12170000 		.4byte	.LASF456
 11107 21be 05       		.byte	0x5
 11108 21bf 00       		.byte	0
 11109 21c0 03       		.uleb128 0x3
 11110 21c1 E2140000 		.4byte	.LASF457
 11111 21c5 23       		.byte	0x23
 11112 21c6 53       		.byte	0x53
 11113 21c7 8E210000 		.4byte	0x218e
 11114 21cb 1A       		.uleb128 0x1a
 11115 21cc 7C060000 		.4byte	.LASF458
 11116 21d0 24       		.byte	0x24
 11117 21d1 6A01     		.2byte	0x16a
 11118 21d3 F0000000 		.4byte	0xf0
 11119 21d7 1A       		.uleb128 0x1a
 11120 21d8 5C050000 		.4byte	.LASF459
 11121 21dc 24       		.byte	0x24
 11122 21dd 6F01     		.2byte	0x16f
 11123 21df 0B010000 		.4byte	0x10b
 11124 21e3 24       		.uleb128 0x24
 11125 21e4 07       		.byte	0x7
 11126 21e5 01       		.byte	0x1
 11127 21e6 69000000 		.4byte	0x69
 11128 21ea 24       		.byte	0x24
 11129 21eb 7401     		.2byte	0x174
 11130 21ed 04220000 		.4byte	0x2204
 11131 21f1 22       		.uleb128 0x22
 11132 21f2 31060000 		.4byte	.LASF460
 11133 21f6 01       		.byte	0x1
 11134 21f7 22       		.uleb128 0x22
ARM GAS  /tmp/ccZueut9.s 			page 202


 11135 21f8 BC000000 		.4byte	.LASF461
 11136 21fc 02       		.byte	0x2
 11137 21fd 22       		.uleb128 0x22
 11138 21fe 770B0000 		.4byte	.LASF462
 11139 2202 03       		.byte	0x3
 11140 2203 00       		.byte	0
 11141 2204 1A       		.uleb128 0x1a
 11142 2205 4E2B0000 		.4byte	.LASF463
 11143 2209 24       		.byte	0x24
 11144 220a 7801     		.2byte	0x178
 11145 220c E3210000 		.4byte	0x21e3
 11146 2210 24       		.uleb128 0x24
 11147 2211 07       		.byte	0x7
 11148 2212 01       		.byte	0x1
 11149 2213 69000000 		.4byte	0x69
 11150 2217 24       		.byte	0x24
 11151 2218 7D01     		.2byte	0x17d
 11152 221a 31220000 		.4byte	0x2231
 11153 221e 22       		.uleb128 0x22
 11154 221f 35070000 		.4byte	.LASF464
 11155 2223 01       		.byte	0x1
 11156 2224 22       		.uleb128 0x22
 11157 2225 C52A0000 		.4byte	.LASF465
 11158 2229 02       		.byte	0x2
 11159 222a 22       		.uleb128 0x22
 11160 222b 8E0C0000 		.4byte	.LASF466
 11161 222f 03       		.byte	0x3
 11162 2230 00       		.byte	0
 11163 2231 1A       		.uleb128 0x1a
 11164 2232 58080000 		.4byte	.LASF467
 11165 2236 24       		.byte	0x24
 11166 2237 8101     		.2byte	0x181
 11167 2239 10220000 		.4byte	0x2210
 11168 223d 19       		.uleb128 0x19
 11169 223e 0C       		.byte	0xc
 11170 223f 24       		.byte	0x24
 11171 2240 8601     		.2byte	0x186
 11172 2242 6E220000 		.4byte	0x226e
 11173 2246 0A       		.uleb128 0xa
 11174 2247 DF180000 		.4byte	.LASF468
 11175 224b 24       		.byte	0x24
 11176 224c 8801     		.2byte	0x188
 11177 224e 04220000 		.4byte	0x2204
 11178 2252 00       		.byte	0
 11179 2253 0A       		.uleb128 0xa
 11180 2254 F4040000 		.4byte	.LASF469
 11181 2258 24       		.byte	0x24
 11182 2259 8901     		.2byte	0x189
 11183 225b 0B010000 		.4byte	0x10b
 11184 225f 04       		.byte	0x4
 11185 2260 0A       		.uleb128 0xa
 11186 2261 E02B0000 		.4byte	.LASF470
 11187 2265 24       		.byte	0x24
 11188 2266 8C01     		.2byte	0x18c
 11189 2268 31220000 		.4byte	0x2231
 11190 226c 08       		.byte	0x8
 11191 226d 00       		.byte	0
ARM GAS  /tmp/ccZueut9.s 			page 203


 11192 226e 1A       		.uleb128 0x1a
 11193 226f CB020000 		.4byte	.LASF471
 11194 2273 24       		.byte	0x24
 11195 2274 8E01     		.2byte	0x18e
 11196 2276 3D220000 		.4byte	0x223d
 11197 227a 05       		.uleb128 0x5
 11198 227b 6E220000 		.4byte	0x226e
 11199 227f 1A       		.uleb128 0x1a
 11200 2280 14060000 		.4byte	.LASF472
 11201 2284 24       		.byte	0x24
 11202 2285 9301     		.2byte	0x193
 11203 2287 8B220000 		.4byte	0x228b
 11204 228b 0C       		.uleb128 0xc
 11205 228c 14060000 		.4byte	.LASF472
 11206 2290 3C       		.byte	0x3c
 11207 2291 24       		.byte	0x24
 11208 2292 9801     		.2byte	0x198
 11209 2294 28230000 		.4byte	0x2328
 11210 2298 0A       		.uleb128 0xa
 11211 2299 231A0000 		.4byte	.LASF340
 11212 229d 24       		.byte	0x24
 11213 229e 9C01     		.2byte	0x19c
 11214 22a0 C0210000 		.4byte	0x21c0
 11215 22a4 00       		.byte	0
 11216 22a5 0A       		.uleb128 0xa
 11217 22a6 BE210000 		.4byte	.LASF341
 11218 22aa 24       		.byte	0x24
 11219 22ab A001     		.2byte	0x1a0
 11220 22ad 28230000 		.4byte	0x2328
 11221 22b1 04       		.byte	0x4
 11222 22b2 0A       		.uleb128 0xa
 11223 22b3 F7010000 		.4byte	.LASF473
 11224 22b7 24       		.byte	0x24
 11225 22b8 A401     		.2byte	0x1a4
 11226 22ba D7210000 		.4byte	0x21d7
 11227 22be 08       		.byte	0x8
 11228 22bf 0A       		.uleb128 0xa
 11229 22c0 E10E0000 		.4byte	.LASF346
 11230 22c4 24       		.byte	0x24
 11231 22c5 A901     		.2byte	0x1a9
 11232 22c7 5F120000 		.4byte	0x125f
 11233 22cb 0C       		.byte	0xc
 11234 22cc 0A       		.uleb128 0xa
 11235 22cd 96080000 		.4byte	.LASF345
 11236 22d1 24       		.byte	0x24
 11237 22d2 B201     		.2byte	0x1b2
 11238 22d4 E8020000 		.4byte	0x2e8
 11239 22d8 20       		.byte	0x20
 11240 22d9 0A       		.uleb128 0xa
 11241 22da A7100000 		.4byte	.LASF474
 11242 22de 24       		.byte	0x24
 11243 22df B601     		.2byte	0x1b6
 11244 22e1 CB210000 		.4byte	0x21cb
 11245 22e5 24       		.byte	0x24
 11246 22e6 0A       		.uleb128 0xa
 11247 22e7 200A0000 		.4byte	.LASF475
 11248 22eb 24       		.byte	0x24
ARM GAS  /tmp/ccZueut9.s 			page 204


 11249 22ec BA01     		.2byte	0x1ba
 11250 22ee 0B010000 		.4byte	0x10b
 11251 22f2 28       		.byte	0x28
 11252 22f3 0A       		.uleb128 0xa
 11253 22f4 7A0A0000 		.4byte	.LASF476
 11254 22f8 24       		.byte	0x24
 11255 22f9 BE01     		.2byte	0x1be
 11256 22fb 0B010000 		.4byte	0x10b
 11257 22ff 2C       		.byte	0x2c
 11258 2300 0A       		.uleb128 0xa
 11259 2301 6E010000 		.4byte	.LASF477
 11260 2305 24       		.byte	0x24
 11261 2306 C201     		.2byte	0x1c2
 11262 2308 5E1A0000 		.4byte	0x1a5e
 11263 230c 30       		.byte	0x30
 11264 230d 0A       		.uleb128 0xa
 11265 230e DE020000 		.4byte	.LASF478
 11266 2312 24       		.byte	0x24
 11267 2313 C601     		.2byte	0x1c6
 11268 2315 5E1A0000 		.4byte	0x1a5e
 11269 2319 34       		.byte	0x34
 11270 231a 09       		.uleb128 0x9
 11271 231b 69326300 		.ascii	"i2c\000"
 11272 231f 24       		.byte	0x24
 11273 2320 CA01     		.2byte	0x1ca
 11274 2322 2E230000 		.4byte	0x232e
 11275 2326 38       		.byte	0x38
 11276 2327 00       		.byte	0
 11277 2328 0B       		.uleb128 0xb
 11278 2329 04       		.byte	0x4
 11279 232a 7A220000 		.4byte	0x227a
 11280 232e 0B       		.uleb128 0xb
 11281 232f 04       		.byte	0x4
 11282 2330 460B0000 		.4byte	0xb46
 11283 2334 15       		.uleb128 0x15
 11284 2335 67150000 		.4byte	.LASF479
 11285 2339 24       		.byte	0x24
 11286 233a E001     		.2byte	0x1e0
 11287 233c 7F220000 		.4byte	0x227f
 11288 2340 21       		.uleb128 0x21
 11289 2341 07       		.byte	0x7
 11290 2342 01       		.byte	0x1
 11291 2343 69000000 		.4byte	0x69
 11292 2347 25       		.byte	0x25
 11293 2348 39       		.byte	0x39
 11294 2349 6C230000 		.4byte	0x236c
 11295 234d 22       		.uleb128 0x22
 11296 234e 77130000 		.4byte	.LASF480
 11297 2352 00       		.byte	0
 11298 2353 22       		.uleb128 0x22
 11299 2354 C70E0000 		.4byte	.LASF481
 11300 2358 01       		.byte	0x1
 11301 2359 22       		.uleb128 0x22
 11302 235a 74010000 		.4byte	.LASF482
 11303 235e 02       		.byte	0x2
 11304 235f 22       		.uleb128 0x22
 11305 2360 B41D0000 		.4byte	.LASF483
ARM GAS  /tmp/ccZueut9.s 			page 205


 11306 2364 03       		.byte	0x3
 11307 2365 22       		.uleb128 0x22
 11308 2366 B6240000 		.4byte	.LASF484
 11309 236a 04       		.byte	0x4
 11310 236b 00       		.byte	0
 11311 236c 03       		.uleb128 0x3
 11312 236d 19280000 		.4byte	.LASF485
 11313 2371 25       		.byte	0x25
 11314 2372 3F       		.byte	0x3f
 11315 2373 40230000 		.4byte	0x2340
 11316 2377 03       		.uleb128 0x3
 11317 2378 D62B0000 		.4byte	.LASF486
 11318 237c 26       		.byte	0x26
 11319 237d E2       		.byte	0xe2
 11320 237e 82230000 		.4byte	0x2382
 11321 2382 0C       		.uleb128 0xc
 11322 2383 D62B0000 		.4byte	.LASF486
 11323 2387 20       		.byte	0x20
 11324 2388 26       		.byte	0x26
 11325 2389 1B01     		.2byte	0x11b
 11326 238b F8230000 		.4byte	0x23f8
 11327 238f 0A       		.uleb128 0xa
 11328 2390 231A0000 		.4byte	.LASF340
 11329 2394 26       		.byte	0x26
 11330 2395 1F01     		.2byte	0x11f
 11331 2397 6C230000 		.4byte	0x236c
 11332 239b 00       		.byte	0
 11333 239c 0A       		.uleb128 0xa
 11334 239d BE210000 		.4byte	.LASF341
 11335 23a1 26       		.byte	0x26
 11336 23a2 2301     		.2byte	0x123
 11337 23a4 90240000 		.4byte	0x2490
 11338 23a8 04       		.byte	0x4
 11339 23a9 09       		.uleb128 0x9
 11340 23aa 73706900 		.ascii	"spi\000"
 11341 23ae 26       		.byte	0x26
 11342 23af 2801     		.2byte	0x128
 11343 23b1 96240000 		.4byte	0x2496
 11344 23b5 08       		.byte	0x8
 11345 23b6 09       		.uleb128 0x9
 11346 23b7 63666700 		.ascii	"cfg\000"
 11347 23bb 26       		.byte	0x26
 11348 23bc 2C01     		.2byte	0x12c
 11349 23be F0000000 		.4byte	0xf0
 11350 23c2 0C       		.byte	0xc
 11351 23c3 0A       		.uleb128 0xa
 11352 23c4 6E010000 		.4byte	.LASF477
 11353 23c8 26       		.byte	0x26
 11354 23c9 3001     		.2byte	0x130
 11355 23cb 5E1A0000 		.4byte	0x1a5e
 11356 23cf 10       		.byte	0x10
 11357 23d0 0A       		.uleb128 0xa
 11358 23d1 DE020000 		.4byte	.LASF478
 11359 23d5 26       		.byte	0x26
 11360 23d6 3401     		.2byte	0x134
 11361 23d8 5E1A0000 		.4byte	0x1a5e
 11362 23dc 14       		.byte	0x14
ARM GAS  /tmp/ccZueut9.s 			page 206


 11363 23dd 0A       		.uleb128 0xa
 11364 23de 200A0000 		.4byte	.LASF475
 11365 23e2 26       		.byte	0x26
 11366 23e3 3801     		.2byte	0x138
 11367 23e5 0B010000 		.4byte	0x10b
 11368 23e9 18       		.byte	0x18
 11369 23ea 0A       		.uleb128 0xa
 11370 23eb 7A0A0000 		.4byte	.LASF476
 11371 23ef 26       		.byte	0x26
 11372 23f0 3C01     		.2byte	0x13c
 11373 23f2 0B010000 		.4byte	0x10b
 11374 23f6 1C       		.byte	0x1c
 11375 23f7 00       		.byte	0
 11376 23f8 03       		.uleb128 0x3
 11377 23f9 660A0000 		.4byte	.LASF487
 11378 23fd 26       		.byte	0x26
 11379 23fe EB       		.byte	0xeb
 11380 23ff 03240000 		.4byte	0x2403
 11381 2403 0B       		.uleb128 0xb
 11382 2404 04       		.byte	0x4
 11383 2405 09240000 		.4byte	0x2409
 11384 2409 0D       		.uleb128 0xd
 11385 240a 1E240000 		.4byte	0x241e
 11386 240e 0E       		.uleb128 0xe
 11387 240f 1E240000 		.4byte	0x241e
 11388 2413 0E       		.uleb128 0xe
 11389 2414 2C000000 		.4byte	0x2c
 11390 2418 0E       		.uleb128 0xe
 11391 2419 2C000000 		.4byte	0x2c
 11392 241d 00       		.byte	0
 11393 241e 0B       		.uleb128 0xb
 11394 241f 04       		.byte	0x4
 11395 2420 77230000 		.4byte	0x2377
 11396 2424 17       		.uleb128 0x17
 11397 2425 14       		.byte	0x14
 11398 2426 26       		.byte	0x26
 11399 2427 F1       		.byte	0xf1
 11400 2428 78240000 		.4byte	0x2478
 11401 242c 08       		.uleb128 0x8
 11402 242d 46020000 		.4byte	.LASF488
 11403 2431 26       		.byte	0x26
 11404 2432 F6       		.byte	0xf6
 11405 2433 78240000 		.4byte	0x2478
 11406 2437 00       		.byte	0
 11407 2438 08       		.uleb128 0x8
 11408 2439 ED010000 		.4byte	.LASF489
 11409 243d 26       		.byte	0x26
 11410 243e FB       		.byte	0xfb
 11411 243f D0030000 		.4byte	0x3d0
 11412 2443 04       		.byte	0x4
 11413 2444 08       		.uleb128 0x8
 11414 2445 E70E0000 		.4byte	.LASF490
 11415 2449 26       		.byte	0x26
 11416 244a FF       		.byte	0xff
 11417 244b 2C000000 		.4byte	0x2c
 11418 244f 08       		.byte	0x8
 11419 2450 0A       		.uleb128 0xa
ARM GAS  /tmp/ccZueut9.s 			page 207


 11420 2451 180B0000 		.4byte	.LASF353
 11421 2455 26       		.byte	0x26
 11422 2456 0301     		.2byte	0x103
 11423 2458 F8230000 		.4byte	0x23f8
 11424 245c 0C       		.byte	0xc
 11425 245d 0A       		.uleb128 0xa
 11426 245e 0D1E0000 		.4byte	.LASF491
 11427 2462 26       		.byte	0x26
 11428 2463 0F01     		.2byte	0x10f
 11429 2465 E5000000 		.4byte	0xe5
 11430 2469 10       		.byte	0x10
 11431 246a 0A       		.uleb128 0xa
 11432 246b 36080000 		.4byte	.LASF492
 11433 246f 26       		.byte	0x26
 11434 2470 1501     		.2byte	0x115
 11435 2472 E5000000 		.4byte	0xe5
 11436 2476 12       		.byte	0x12
 11437 2477 00       		.byte	0
 11438 2478 0B       		.uleb128 0xb
 11439 2479 04       		.byte	0x4
 11440 247a 7E240000 		.4byte	0x247e
 11441 247e 25       		.uleb128 0x25
 11442 247f 1A       		.uleb128 0x1a
 11443 2480 EB2B0000 		.4byte	.LASF493
 11444 2484 26       		.byte	0x26
 11445 2485 1601     		.2byte	0x116
 11446 2487 24240000 		.4byte	0x2424
 11447 248b 05       		.uleb128 0x5
 11448 248c 7F240000 		.4byte	0x247f
 11449 2490 0B       		.uleb128 0xb
 11450 2491 04       		.byte	0x4
 11451 2492 8B240000 		.4byte	0x248b
 11452 2496 0B       		.uleb128 0xb
 11453 2497 04       		.byte	0x4
 11454 2498 F90C0000 		.4byte	0xcf9
 11455 249c 15       		.uleb128 0x15
 11456 249d 402C0000 		.4byte	.LASF494
 11457 24a1 26       		.byte	0x26
 11458 24a2 4801     		.2byte	0x148
 11459 24a4 77230000 		.4byte	0x2377
 11460 24a8 21       		.uleb128 0x21
 11461 24a9 07       		.byte	0x7
 11462 24aa 01       		.byte	0x1
 11463 24ab 69000000 		.4byte	0x69
 11464 24af 27       		.byte	0x27
 11465 24b0 4A       		.byte	0x4a
 11466 24b1 C8240000 		.4byte	0x24c8
 11467 24b5 22       		.uleb128 0x22
 11468 24b6 E7080000 		.4byte	.LASF495
 11469 24ba 00       		.byte	0
 11470 24bb 22       		.uleb128 0x22
 11471 24bc D00E0000 		.4byte	.LASF496
 11472 24c0 01       		.byte	0x1
 11473 24c1 22       		.uleb128 0x22
 11474 24c2 A6130000 		.4byte	.LASF497
 11475 24c6 02       		.byte	0x2
 11476 24c7 00       		.byte	0
ARM GAS  /tmp/ccZueut9.s 			page 208


 11477 24c8 03       		.uleb128 0x3
 11478 24c9 9F040000 		.4byte	.LASF498
 11479 24cd 27       		.byte	0x27
 11480 24ce 4E       		.byte	0x4e
 11481 24cf A8240000 		.4byte	0x24a8
 11482 24d3 03       		.uleb128 0x3
 11483 24d4 E00D0000 		.4byte	.LASF499
 11484 24d8 27       		.byte	0x27
 11485 24d9 53       		.byte	0x53
 11486 24da DE240000 		.4byte	0x24de
 11487 24de 0C       		.uleb128 0xc
 11488 24df E00D0000 		.4byte	.LASF499
 11489 24e3 1C       		.byte	0x1c
 11490 24e4 28       		.byte	0x28
 11491 24e5 7901     		.2byte	0x179
 11492 24e7 47250000 		.4byte	0x2547
 11493 24eb 0A       		.uleb128 0xa
 11494 24ec 231A0000 		.4byte	.LASF340
 11495 24f0 28       		.byte	0x28
 11496 24f1 7D01     		.2byte	0x17d
 11497 24f3 C8240000 		.4byte	0x24c8
 11498 24f7 00       		.byte	0
 11499 24f8 0A       		.uleb128 0xa
 11500 24f9 BE210000 		.4byte	.LASF341
 11501 24fd 28       		.byte	0x28
 11502 24fe 8101     		.2byte	0x181
 11503 2500 42260000 		.4byte	0x2642
 11504 2504 04       		.byte	0x4
 11505 2505 0A       		.uleb128 0xa
 11506 2506 FD160000 		.4byte	.LASF500
 11507 250a 28       		.byte	0x28
 11508 250b 8501     		.2byte	0x185
 11509 250d 8D250000 		.4byte	0x258d
 11510 2511 08       		.byte	0x8
 11511 2512 0A       		.uleb128 0xa
 11512 2513 BD1E0000 		.4byte	.LASF501
 11513 2517 28       		.byte	0x28
 11514 2518 8901     		.2byte	0x189
 11515 251a 81250000 		.4byte	0x2581
 11516 251e 0C       		.byte	0xc
 11517 251f 0A       		.uleb128 0xa
 11518 2520 84270000 		.4byte	.LASF421
 11519 2524 28       		.byte	0x28
 11520 2525 8D01     		.2byte	0x18d
 11521 2527 75250000 		.4byte	0x2575
 11522 252b 10       		.byte	0x10
 11523 252c 0A       		.uleb128 0xa
 11524 252d 250F0000 		.4byte	.LASF431
 11525 2531 28       		.byte	0x28
 11526 2532 9501     		.2byte	0x195
 11527 2534 0B010000 		.4byte	0x10b
 11528 2538 14       		.byte	0x14
 11529 2539 09       		.uleb128 0x9
 11530 253a 74696D00 		.ascii	"tim\000"
 11531 253e 28       		.byte	0x28
 11532 253f 9901     		.2byte	0x199
 11533 2541 64210000 		.4byte	0x2164
ARM GAS  /tmp/ccZueut9.s 			page 209


 11534 2545 18       		.byte	0x18
 11535 2546 00       		.byte	0
 11536 2547 03       		.uleb128 0x3
 11537 2548 5A140000 		.4byte	.LASF502
 11538 254c 27       		.byte	0x27
 11539 254d 5A       		.byte	0x5a
 11540 254e 52250000 		.4byte	0x2552
 11541 2552 0B       		.uleb128 0xb
 11542 2553 04       		.byte	0x4
 11543 2554 58250000 		.4byte	0x2558
 11544 2558 0D       		.uleb128 0xd
 11545 2559 63250000 		.4byte	0x2563
 11546 255d 0E       		.uleb128 0xe
 11547 255e 63250000 		.4byte	0x2563
 11548 2562 00       		.byte	0
 11549 2563 0B       		.uleb128 0xb
 11550 2564 04       		.byte	0x4
 11551 2565 D3240000 		.4byte	0x24d3
 11552 2569 1A       		.uleb128 0x1a
 11553 256a 32190000 		.4byte	.LASF503
 11554 256e 28       		.byte	0x28
 11555 256f 2501     		.2byte	0x125
 11556 2571 0B010000 		.4byte	0x10b
 11557 2575 1A       		.uleb128 0x1a
 11558 2576 AD1B0000 		.4byte	.LASF504
 11559 257a 28       		.byte	0x28
 11560 257b 2A01     		.2byte	0x12a
 11561 257d D5000000 		.4byte	0xd5
 11562 2581 1A       		.uleb128 0x1a
 11563 2582 F4030000 		.4byte	.LASF505
 11564 2586 28       		.byte	0x28
 11565 2587 2F01     		.2byte	0x12f
 11566 2589 0B010000 		.4byte	0x10b
 11567 258d 1A       		.uleb128 0x1a
 11568 258e ED0F0000 		.4byte	.LASF506
 11569 2592 28       		.byte	0x28
 11570 2593 3401     		.2byte	0x134
 11571 2595 0B010000 		.4byte	0x10b
 11572 2599 19       		.uleb128 0x19
 11573 259a 08       		.byte	0x8
 11574 259b 28       		.byte	0x28
 11575 259c 3901     		.2byte	0x139
 11576 259e BD250000 		.4byte	0x25bd
 11577 25a2 0A       		.uleb128 0xa
 11578 25a3 340A0000 		.4byte	.LASF419
 11579 25a7 28       		.byte	0x28
 11580 25a8 3D01     		.2byte	0x13d
 11581 25aa 69250000 		.4byte	0x2569
 11582 25ae 00       		.byte	0
 11583 25af 0A       		.uleb128 0xa
 11584 25b0 A01A0000 		.4byte	.LASF445
 11585 25b4 28       		.byte	0x28
 11586 25b5 4301     		.2byte	0x143
 11587 25b7 47250000 		.4byte	0x2547
 11588 25bb 04       		.byte	0x4
 11589 25bc 00       		.byte	0
 11590 25bd 1A       		.uleb128 0x1a
ARM GAS  /tmp/ccZueut9.s 			page 210


 11591 25be DC0F0000 		.4byte	.LASF507
 11592 25c2 28       		.byte	0x28
 11593 25c3 4501     		.2byte	0x145
 11594 25c5 99250000 		.4byte	0x2599
 11595 25c9 19       		.uleb128 0x19
 11596 25ca 34       		.byte	0x34
 11597 25cb 28       		.byte	0x28
 11598 25cc 4A01     		.2byte	0x14a
 11599 25ce 21260000 		.4byte	0x2621
 11600 25d2 0A       		.uleb128 0xa
 11601 25d3 6A2A0000 		.4byte	.LASF444
 11602 25d7 28       		.byte	0x28
 11603 25d8 5001     		.2byte	0x150
 11604 25da 0B010000 		.4byte	0x10b
 11605 25de 00       		.byte	0
 11606 25df 0A       		.uleb128 0xa
 11607 25e0 FD160000 		.4byte	.LASF500
 11608 25e4 28       		.byte	0x28
 11609 25e5 5601     		.2byte	0x156
 11610 25e7 8D250000 		.4byte	0x258d
 11611 25eb 04       		.byte	0x4
 11612 25ec 0A       		.uleb128 0xa
 11613 25ed A01A0000 		.4byte	.LASF445
 11614 25f1 28       		.byte	0x28
 11615 25f2 5C01     		.2byte	0x15c
 11616 25f4 47250000 		.4byte	0x2547
 11617 25f8 08       		.byte	0x8
 11618 25f9 0A       		.uleb128 0xa
 11619 25fa 84270000 		.4byte	.LASF421
 11620 25fe 28       		.byte	0x28
 11621 25ff 6001     		.2byte	0x160
 11622 2601 21260000 		.4byte	0x2621
 11623 2605 0C       		.byte	0xc
 11624 2606 09       		.uleb128 0x9
 11625 2607 63723200 		.ascii	"cr2\000"
 11626 260b 28       		.byte	0x28
 11627 260c 6601     		.2byte	0x166
 11628 260e 0B010000 		.4byte	0x10b
 11629 2612 2C       		.byte	0x2c
 11630 2613 0A       		.uleb128 0xa
 11631 2614 750E0000 		.4byte	.LASF446
 11632 2618 28       		.byte	0x28
 11633 2619 7301     		.2byte	0x173
 11634 261b 0B010000 		.4byte	0x10b
 11635 261f 30       		.byte	0x30
 11636 2620 00       		.byte	0
 11637 2621 13       		.uleb128 0x13
 11638 2622 BD250000 		.4byte	0x25bd
 11639 2626 31260000 		.4byte	0x2631
 11640 262a 14       		.uleb128 0x14
 11641 262b 37000000 		.4byte	0x37
 11642 262f 03       		.byte	0x3
 11643 2630 00       		.byte	0
 11644 2631 1A       		.uleb128 0x1a
 11645 2632 F10D0000 		.4byte	.LASF508
 11646 2636 28       		.byte	0x28
 11647 2637 7401     		.2byte	0x174
ARM GAS  /tmp/ccZueut9.s 			page 211


 11648 2639 C9250000 		.4byte	0x25c9
 11649 263d 05       		.uleb128 0x5
 11650 263e 31260000 		.4byte	0x2631
 11651 2642 0B       		.uleb128 0xb
 11652 2643 04       		.byte	0x4
 11653 2644 3D260000 		.4byte	0x263d
 11654 2648 15       		.uleb128 0x15
 11655 2649 98150000 		.4byte	.LASF509
 11656 264d 28       		.byte	0x28
 11657 264e BC01     		.2byte	0x1bc
 11658 2650 D3240000 		.4byte	0x24d3
 11659 2654 15       		.uleb128 0x15
 11660 2655 9E150000 		.4byte	.LASF510
 11661 2659 28       		.byte	0x28
 11662 265a C001     		.2byte	0x1c0
 11663 265c D3240000 		.4byte	0x24d3
 11664 2660 15       		.uleb128 0x15
 11665 2661 A4150000 		.4byte	.LASF511
 11666 2665 28       		.byte	0x28
 11667 2666 C401     		.2byte	0x1c4
 11668 2668 D3240000 		.4byte	0x24d3
 11669 266c 15       		.uleb128 0x15
 11670 266d AA150000 		.4byte	.LASF512
 11671 2671 28       		.byte	0x28
 11672 2672 C801     		.2byte	0x1c8
 11673 2674 D3240000 		.4byte	0x24d3
 11674 2678 21       		.uleb128 0x21
 11675 2679 07       		.byte	0x7
 11676 267a 01       		.byte	0x1
 11677 267b 69000000 		.4byte	0x69
 11678 267f 29       		.byte	0x29
 11679 2680 55       		.byte	0x55
 11680 2681 98260000 		.4byte	0x2698
 11681 2685 22       		.uleb128 0x22
 11682 2686 0A080000 		.4byte	.LASF513
 11683 268a 00       		.byte	0
 11684 268b 22       		.uleb128 0x22
 11685 268c 580F0000 		.4byte	.LASF514
 11686 2690 01       		.byte	0x1
 11687 2691 22       		.uleb128 0x22
 11688 2692 BA110000 		.4byte	.LASF515
 11689 2696 02       		.byte	0x2
 11690 2697 00       		.byte	0
 11691 2698 03       		.uleb128 0x3
 11692 2699 ED1C0000 		.4byte	.LASF516
 11693 269d 29       		.byte	0x29
 11694 269e 59       		.byte	0x59
 11695 269f 78260000 		.4byte	0x2678
 11696 26a3 03       		.uleb128 0x3
 11697 26a4 AF270000 		.4byte	.LASF517
 11698 26a8 29       		.byte	0x29
 11699 26a9 5E       		.byte	0x5e
 11700 26aa AE260000 		.4byte	0x26ae
 11701 26ae 26       		.uleb128 0x26
 11702 26af AF270000 		.4byte	.LASF517
 11703 26b3 5801     		.2byte	0x158
 11704 26b5 29       		.byte	0x29
ARM GAS  /tmp/ccZueut9.s 			page 212


 11705 26b6 78       		.byte	0x78
 11706 26b7 1B270000 		.4byte	0x271b
 11707 26bb 18       		.uleb128 0x18
 11708 26bc 766D7400 		.ascii	"vmt\000"
 11709 26c0 29       		.byte	0x29
 11710 26c1 7A       		.byte	0x7a
 11711 26c2 99270000 		.4byte	0x2799
 11712 26c6 00       		.byte	0
 11713 26c7 08       		.uleb128 0x8
 11714 26c8 47000000 		.4byte	.LASF518
 11715 26cc 29       		.byte	0x29
 11716 26cd 7B       		.byte	0x7b
 11717 26ce E3120000 		.4byte	0x12e3
 11718 26d2 04       		.byte	0x4
 11719 26d3 08       		.uleb128 0x8
 11720 26d4 231A0000 		.4byte	.LASF340
 11721 26d8 29       		.byte	0x29
 11722 26d9 7B       		.byte	0x7b
 11723 26da 98260000 		.4byte	0x2698
 11724 26de 08       		.byte	0x8
 11725 26df 08       		.uleb128 0x8
 11726 26e0 C21C0000 		.4byte	.LASF519
 11727 26e4 29       		.byte	0x29
 11728 26e5 7B       		.byte	0x7b
 11729 26e6 8E130000 		.4byte	0x138e
 11730 26ea 0C       		.byte	0xc
 11731 26eb 08       		.uleb128 0x8
 11732 26ec BD150000 		.4byte	.LASF520
 11733 26f0 29       		.byte	0x29
 11734 26f1 7B       		.byte	0x7b
 11735 26f2 99130000 		.4byte	0x1399
 11736 26f6 30       		.byte	0x30
 11737 26f7 18       		.uleb128 0x18
 11738 26f8 696200   		.ascii	"ib\000"
 11739 26fb 29       		.byte	0x29
 11740 26fc 7B       		.byte	0x7b
 11741 26fd 9F270000 		.4byte	0x279f
 11742 2701 54       		.byte	0x54
 11743 2702 18       		.uleb128 0x18
 11744 2703 6F6200   		.ascii	"ob\000"
 11745 2706 29       		.byte	0x29
 11746 2707 7B       		.byte	0x7b
 11747 2708 9F270000 		.4byte	0x279f
 11748 270c D4       		.byte	0xd4
 11749 270d 27       		.uleb128 0x27
 11750 270e 1B1F0000 		.4byte	.LASF521
 11751 2712 29       		.byte	0x29
 11752 2713 7B       		.byte	0x7b
 11753 2714 AF270000 		.4byte	0x27af
 11754 2718 5401     		.2byte	0x154
 11755 271a 00       		.byte	0
 11756 271b 1F       		.uleb128 0x1f
 11757 271c 53443300 		.ascii	"SD3\000"
 11758 2720 2A       		.byte	0x2a
 11759 2721 1501     		.2byte	0x115
 11760 2723 A3260000 		.4byte	0x26a3
 11761 2727 07       		.uleb128 0x7
ARM GAS  /tmp/ccZueut9.s 			page 213


 11762 2728 43110000 		.4byte	.LASF522
 11763 272c 20       		.byte	0x20
 11764 272d 29       		.byte	0x29
 11765 272e 6D       		.byte	0x6d
 11766 272f 94270000 		.4byte	0x2794
 11767 2733 08       		.uleb128 0x8
 11768 2734 B11C0000 		.4byte	.LASF523
 11769 2738 29       		.byte	0x29
 11770 2739 6E       		.byte	0x6e
 11771 273a C3130000 		.4byte	0x13c3
 11772 273e 00       		.byte	0
 11773 273f 08       		.uleb128 0x8
 11774 2740 2C060000 		.4byte	.LASF524
 11775 2744 29       		.byte	0x29
 11776 2745 6E       		.byte	0x6e
 11777 2746 E2130000 		.4byte	0x13e2
 11778 274a 04       		.byte	0x4
 11779 274b 18       		.uleb128 0x18
 11780 274c 70757400 		.ascii	"put\000"
 11781 2750 29       		.byte	0x29
 11782 2751 6E       		.byte	0x6e
 11783 2752 FC130000 		.4byte	0x13fc
 11784 2756 08       		.byte	0x8
 11785 2757 18       		.uleb128 0x18
 11786 2758 67657400 		.ascii	"get\000"
 11787 275c 29       		.byte	0x29
 11788 275d 6E       		.byte	0x6e
 11789 275e 11140000 		.4byte	0x1411
 11790 2762 0C       		.byte	0xc
 11791 2763 08       		.uleb128 0x8
 11792 2764 29180000 		.4byte	.LASF525
 11793 2768 29       		.byte	0x29
 11794 2769 6E       		.byte	0x6e
 11795 276a B2140000 		.4byte	0x14b2
 11796 276e 10       		.byte	0x10
 11797 276f 08       		.uleb128 0x8
 11798 2770 881C0000 		.4byte	.LASF526
 11799 2774 29       		.byte	0x29
 11800 2775 6E       		.byte	0x6e
 11801 2776 CC140000 		.4byte	0x14cc
 11802 277a 14       		.byte	0x14
 11803 277b 08       		.uleb128 0x8
 11804 277c 71280000 		.4byte	.LASF527
 11805 2780 29       		.byte	0x29
 11806 2781 6E       		.byte	0x6e
 11807 2782 F0140000 		.4byte	0x14f0
 11808 2786 18       		.byte	0x18
 11809 2787 08       		.uleb128 0x8
 11810 2788 5F170000 		.4byte	.LASF528
 11811 278c 29       		.byte	0x29
 11812 278d 6E       		.byte	0x6e
 11813 278e 14150000 		.4byte	0x1514
 11814 2792 1C       		.byte	0x1c
 11815 2793 00       		.byte	0
 11816 2794 05       		.uleb128 0x5
 11817 2795 27270000 		.4byte	0x2727
 11818 2799 0B       		.uleb128 0xb
ARM GAS  /tmp/ccZueut9.s 			page 214


 11819 279a 04       		.byte	0x4
 11820 279b 94270000 		.4byte	0x2794
 11821 279f 13       		.uleb128 0x13
 11822 27a0 D5000000 		.4byte	0xd5
 11823 27a4 AF270000 		.4byte	0x27af
 11824 27a8 14       		.uleb128 0x14
 11825 27a9 37000000 		.4byte	0x37
 11826 27ad 7F       		.byte	0x7f
 11827 27ae 00       		.byte	0
 11828 27af 0B       		.uleb128 0xb
 11829 27b0 04       		.byte	0x4
 11830 27b1 680D0000 		.4byte	0xd68
 11831 27b5 21       		.uleb128 0x21
 11832 27b6 07       		.byte	0x7
 11833 27b7 01       		.byte	0x1
 11834 27b8 69000000 		.4byte	0x69
 11835 27bc 2B       		.byte	0x2b
 11836 27bd 6C       		.byte	0x6c
 11837 27be D5270000 		.4byte	0x27d5
 11838 27c2 22       		.uleb128 0x22
 11839 27c3 4E040000 		.4byte	.LASF529
 11840 27c7 00       		.byte	0
 11841 27c8 22       		.uleb128 0x22
 11842 27c9 54190000 		.4byte	.LASF530
 11843 27cd 01       		.byte	0x1
 11844 27ce 22       		.uleb128 0x22
 11845 27cf C2160000 		.4byte	.LASF531
 11846 27d3 02       		.byte	0x2
 11847 27d4 00       		.byte	0
 11848 27d5 03       		.uleb128 0x3
 11849 27d6 6F200000 		.4byte	.LASF532
 11850 27da 2B       		.byte	0x2b
 11851 27db 70       		.byte	0x70
 11852 27dc B5270000 		.4byte	0x27b5
 11853 27e0 03       		.uleb128 0x3
 11854 27e1 291F0000 		.4byte	.LASF533
 11855 27e5 2C       		.byte	0x2c
 11856 27e6 BF       		.byte	0xbf
 11857 27e7 0B010000 		.4byte	0x10b
 11858 27eb 03       		.uleb128 0x3
 11859 27ec 121C0000 		.4byte	.LASF534
 11860 27f0 2C       		.byte	0x2c
 11861 27f1 C4       		.byte	0xc4
 11862 27f2 0B010000 		.4byte	0x10b
 11863 27f6 03       		.uleb128 0x3
 11864 27f7 93270000 		.4byte	.LASF535
 11865 27fb 2C       		.byte	0x2c
 11866 27fc C9       		.byte	0xc9
 11867 27fd 01280000 		.4byte	0x2801
 11868 2801 07       		.uleb128 0x7
 11869 2802 93270000 		.4byte	.LASF535
 11870 2806 4C       		.byte	0x4c
 11871 2807 2C       		.byte	0x2c
 11872 2808 F2       		.byte	0xf2
 11873 2809 B0280000 		.4byte	0x28b0
 11874 280d 18       		.uleb128 0x18
 11875 280e 766D7400 		.ascii	"vmt\000"
ARM GAS  /tmp/ccZueut9.s 			page 215


 11876 2812 2C       		.byte	0x2c
 11877 2813 F6       		.byte	0xf6
 11878 2814 53290000 		.4byte	0x2953
 11879 2818 00       		.byte	0
 11880 2819 08       		.uleb128 0x8
 11881 281a 231A0000 		.4byte	.LASF340
 11882 281e 2C       		.byte	0x2c
 11883 281f F7       		.byte	0xf7
 11884 2820 5E150000 		.4byte	0x155e
 11885 2824 04       		.byte	0x4
 11886 2825 18       		.uleb128 0x18
 11887 2826 63696400 		.ascii	"cid\000"
 11888 282a 2C       		.byte	0x2c
 11889 282b F7       		.byte	0xf7
 11890 282c 19160000 		.4byte	0x1619
 11891 2830 08       		.byte	0x8
 11892 2831 18       		.uleb128 0x18
 11893 2832 63736400 		.ascii	"csd\000"
 11894 2836 2C       		.byte	0x2c
 11895 2837 F7       		.byte	0xf7
 11896 2838 19160000 		.4byte	0x1619
 11897 283c 18       		.byte	0x18
 11898 283d 08       		.uleb128 0x8
 11899 283e DA220000 		.4byte	.LASF536
 11900 2842 2C       		.byte	0x2c
 11901 2843 F7       		.byte	0xf7
 11902 2844 0B010000 		.4byte	0x10b
 11903 2848 28       		.byte	0x28
 11904 2849 08       		.uleb128 0x8
 11905 284a BE210000 		.4byte	.LASF341
 11906 284e 2C       		.byte	0x2c
 11907 284f FB       		.byte	0xfb
 11908 2850 59290000 		.4byte	0x2959
 11909 2854 2C       		.byte	0x2c
 11910 2855 08       		.uleb128 0x8
 11911 2856 FF180000 		.4byte	.LASF537
 11912 285a 2C       		.byte	0x2c
 11913 285b FF       		.byte	0xff
 11914 285c E0270000 		.4byte	0x27e0
 11915 2860 30       		.byte	0x30
 11916 2861 0A       		.uleb128 0xa
 11917 2862 F7010000 		.4byte	.LASF473
 11918 2866 2C       		.byte	0x2c
 11919 2867 0301     		.2byte	0x103
 11920 2869 EB270000 		.4byte	0x27eb
 11921 286d 34       		.byte	0x34
 11922 286e 09       		.uleb128 0x9
 11923 286f 72636100 		.ascii	"rca\000"
 11924 2873 2C       		.byte	0x2c
 11925 2874 0701     		.2byte	0x107
 11926 2876 0B010000 		.4byte	0x10b
 11927 287a 38       		.byte	0x38
 11928 287b 0A       		.uleb128 0xa
 11929 287c 96080000 		.4byte	.LASF345
 11930 2880 2C       		.byte	0x2c
 11931 2881 0C01     		.2byte	0x10c
 11932 2883 E8020000 		.4byte	0x2e8
ARM GAS  /tmp/ccZueut9.s 			page 216


 11933 2887 3C       		.byte	0x3c
 11934 2888 0A       		.uleb128 0xa
 11935 2889 691C0000 		.4byte	.LASF348
 11936 288d 2C       		.byte	0x2c
 11937 288e 1001     		.2byte	0x110
 11938 2890 0B010000 		.4byte	0x10b
 11939 2894 40       		.byte	0x40
 11940 2895 09       		.uleb128 0x9
 11941 2896 646D6100 		.ascii	"dma\000"
 11942 289a 2C       		.byte	0x2c
 11943 289b 1401     		.2byte	0x114
 11944 289d 5E1A0000 		.4byte	0x1a5e
 11945 28a1 44       		.byte	0x44
 11946 28a2 0A       		.uleb128 0xa
 11947 28a3 471A0000 		.4byte	.LASF538
 11948 28a7 2C       		.byte	0x2c
 11949 28a8 1901     		.2byte	0x119
 11950 28aa 5F290000 		.4byte	0x295f
 11951 28ae 48       		.byte	0x48
 11952 28af 00       		.byte	0
 11953 28b0 17       		.uleb128 0x17
 11954 28b1 08       		.byte	0x8
 11955 28b2 2C       		.byte	0x2c
 11956 28b3 CF       		.byte	0xcf
 11957 28b4 D1280000 		.4byte	0x28d1
 11958 28b8 08       		.uleb128 0x8
 11959 28b9 53100000 		.4byte	.LASF539
 11960 28bd 2C       		.byte	0x2c
 11961 28be D8       		.byte	0xd8
 11962 28bf 88130000 		.4byte	0x1388
 11963 28c3 00       		.byte	0
 11964 28c4 08       		.uleb128 0x8
 11965 28c5 4F290000 		.4byte	.LASF540
 11966 28c9 2C       		.byte	0x2c
 11967 28ca DC       		.byte	0xdc
 11968 28cb D5270000 		.4byte	0x27d5
 11969 28cf 04       		.byte	0x4
 11970 28d0 00       		.byte	0
 11971 28d1 03       		.uleb128 0x3
 11972 28d2 C0190000 		.4byte	.LASF541
 11973 28d6 2C       		.byte	0x2c
 11974 28d7 DE       		.byte	0xde
 11975 28d8 B0280000 		.4byte	0x28b0
 11976 28dc 05       		.uleb128 0x5
 11977 28dd D1280000 		.4byte	0x28d1
 11978 28e1 07       		.uleb128 0x7
 11979 28e2 8A290000 		.4byte	.LASF542
 11980 28e6 20       		.byte	0x20
 11981 28e7 2C       		.byte	0x2c
 11982 28e8 EB       		.byte	0xeb
 11983 28e9 4E290000 		.4byte	0x294e
 11984 28ed 08       		.uleb128 0x8
 11985 28ee 462C0000 		.4byte	.LASF543
 11986 28f2 2C       		.byte	0x2c
 11987 28f3 EC       		.byte	0xec
 11988 28f4 AB150000 		.4byte	0x15ab
 11989 28f8 00       		.byte	0
ARM GAS  /tmp/ccZueut9.s 			page 217


 11990 28f9 08       		.uleb128 0x8
 11991 28fa 7A0E0000 		.4byte	.LASF544
 11992 28fe 2C       		.byte	0x2c
 11993 28ff EC       		.byte	0xec
 11994 2900 AB150000 		.4byte	0x15ab
 11995 2904 04       		.byte	0x4
 11996 2905 08       		.uleb128 0x8
 11997 2906 68110000 		.4byte	.LASF545
 11998 290a 2C       		.byte	0x2c
 11999 290b EC       		.byte	0xec
 12000 290c AB150000 		.4byte	0x15ab
 12001 2910 08       		.byte	0x8
 12002 2911 08       		.uleb128 0x8
 12003 2912 17180000 		.4byte	.LASF546
 12004 2916 2C       		.byte	0x2c
 12005 2917 EC       		.byte	0xec
 12006 2918 AB150000 		.4byte	0x15ab
 12007 291c 0C       		.byte	0xc
 12008 291d 08       		.uleb128 0x8
 12009 291e 2C060000 		.4byte	.LASF524
 12010 2922 2C       		.byte	0x2c
 12011 2923 EC       		.byte	0xec
 12012 2924 CF150000 		.4byte	0x15cf
 12013 2928 10       		.byte	0x10
 12014 2929 08       		.uleb128 0x8
 12015 292a B11C0000 		.4byte	.LASF523
 12016 292e 2C       		.byte	0x2c
 12017 292f EC       		.byte	0xec
 12018 2930 F3150000 		.4byte	0x15f3
 12019 2934 14       		.byte	0x14
 12020 2935 08       		.uleb128 0x8
 12021 2936 161F0000 		.4byte	.LASF547
 12022 293a 2C       		.byte	0x2c
 12023 293b EC       		.byte	0xec
 12024 293c AB150000 		.4byte	0x15ab
 12025 2940 18       		.byte	0x18
 12026 2941 08       		.uleb128 0x8
 12027 2942 FD280000 		.4byte	.LASF548
 12028 2946 2C       		.byte	0x2c
 12029 2947 EC       		.byte	0xec
 12030 2948 13160000 		.4byte	0x1613
 12031 294c 1C       		.byte	0x1c
 12032 294d 00       		.byte	0
 12033 294e 05       		.uleb128 0x5
 12034 294f E1280000 		.4byte	0x28e1
 12035 2953 0B       		.uleb128 0xb
 12036 2954 04       		.byte	0x4
 12037 2955 4E290000 		.4byte	0x294e
 12038 2959 0B       		.uleb128 0xb
 12039 295a 04       		.byte	0x4
 12040 295b DC280000 		.4byte	0x28dc
 12041 295f 0B       		.uleb128 0xb
 12042 2960 04       		.byte	0x4
 12043 2961 700C0000 		.4byte	0xc70
 12044 2965 15       		.uleb128 0x15
 12045 2966 F40B0000 		.4byte	.LASF549
 12046 296a 2C       		.byte	0x2c
ARM GAS  /tmp/ccZueut9.s 			page 218


 12047 296b 2501     		.2byte	0x125
 12048 296d F6270000 		.4byte	0x27f6
 12049 2971 21       		.uleb128 0x21
 12050 2972 07       		.byte	0x7
 12051 2973 01       		.byte	0x1
 12052 2974 69000000 		.4byte	0x69
 12053 2978 2D       		.byte	0x2d
 12054 2979 46       		.byte	0x46
 12055 297a 9D290000 		.4byte	0x299d
 12056 297e 22       		.uleb128 0x22
 12057 297f AC080000 		.4byte	.LASF550
 12058 2983 00       		.byte	0
 12059 2984 22       		.uleb128 0x22
 12060 2985 EB030000 		.4byte	.LASF551
 12061 2989 01       		.byte	0x1
 12062 298a 22       		.uleb128 0x22
 12063 298b 38290000 		.4byte	.LASF552
 12064 298f 02       		.byte	0x2
 12065 2990 22       		.uleb128 0x22
 12066 2991 D2100000 		.4byte	.LASF553
 12067 2995 03       		.byte	0x3
 12068 2996 22       		.uleb128 0x22
 12069 2997 AA170000 		.4byte	.LASF554
 12070 299b 04       		.byte	0x4
 12071 299c 00       		.byte	0
 12072 299d 03       		.uleb128 0x3
 12073 299e 86100000 		.4byte	.LASF555
 12074 29a2 2D       		.byte	0x2d
 12075 29a3 4C       		.byte	0x4c
 12076 29a4 71290000 		.4byte	0x2971
 12077 29a8 1A       		.uleb128 0x1a
 12078 29a9 1A270000 		.4byte	.LASF556
 12079 29ad 2E       		.byte	0x2e
 12080 29ae 9601     		.2byte	0x196
 12081 29b0 B4290000 		.4byte	0x29b4
 12082 29b4 0C       		.uleb128 0xc
 12083 29b5 1A270000 		.4byte	.LASF556
 12084 29b9 34       		.byte	0x34
 12085 29ba 2E       		.byte	0x2e
 12086 29bb BA01     		.2byte	0x1ba
 12087 29bd 372A0000 		.4byte	0x2a37
 12088 29c1 0A       		.uleb128 0xa
 12089 29c2 231A0000 		.4byte	.LASF340
 12090 29c6 2E       		.byte	0x2e
 12091 29c7 BE01     		.2byte	0x1be
 12092 29c9 9D290000 		.4byte	0x299d
 12093 29cd 00       		.byte	0
 12094 29ce 0A       		.uleb128 0xa
 12095 29cf BE210000 		.4byte	.LASF341
 12096 29d3 2E       		.byte	0x2e
 12097 29d4 C201     		.2byte	0x1c2
 12098 29d6 A92A0000 		.4byte	0x2aa9
 12099 29da 04       		.byte	0x4
 12100 29db 0A       		.uleb128 0xa
 12101 29dc 96080000 		.4byte	.LASF345
 12102 29e0 2E       		.byte	0x2e
 12103 29e1 C701     		.2byte	0x1c7
ARM GAS  /tmp/ccZueut9.s 			page 219


 12104 29e3 E8020000 		.4byte	0x2e8
 12105 29e7 08       		.byte	0x8
 12106 29e8 0A       		.uleb128 0xa
 12107 29e9 E10E0000 		.4byte	.LASF346
 12108 29ed 2E       		.byte	0x2e
 12109 29ee CD01     		.2byte	0x1cd
 12110 29f0 5F120000 		.4byte	0x125f
 12111 29f4 0C       		.byte	0xc
 12112 29f5 09       		.uleb128 0x9
 12113 29f6 73706900 		.ascii	"spi\000"
 12114 29fa 2E       		.byte	0x2e
 12115 29fb D601     		.2byte	0x1d6
 12116 29fd 96240000 		.4byte	0x2496
 12117 2a01 20       		.byte	0x20
 12118 2a02 0A       		.uleb128 0xa
 12119 2a03 6E010000 		.4byte	.LASF477
 12120 2a07 2E       		.byte	0x2e
 12121 2a08 DA01     		.2byte	0x1da
 12122 2a0a 5E1A0000 		.4byte	0x1a5e
 12123 2a0e 24       		.byte	0x24
 12124 2a0f 0A       		.uleb128 0xa
 12125 2a10 DE020000 		.4byte	.LASF478
 12126 2a14 2E       		.byte	0x2e
 12127 2a15 DE01     		.2byte	0x1de
 12128 2a17 5E1A0000 		.4byte	0x1a5e
 12129 2a1b 28       		.byte	0x28
 12130 2a1c 0A       		.uleb128 0xa
 12131 2a1d 200A0000 		.4byte	.LASF475
 12132 2a21 2E       		.byte	0x2e
 12133 2a22 E201     		.2byte	0x1e2
 12134 2a24 0B010000 		.4byte	0x10b
 12135 2a28 2C       		.byte	0x2c
 12136 2a29 0A       		.uleb128 0xa
 12137 2a2a 7A0A0000 		.4byte	.LASF476
 12138 2a2e 2E       		.byte	0x2e
 12139 2a2f E601     		.2byte	0x1e6
 12140 2a31 0B010000 		.4byte	0x10b
 12141 2a35 30       		.byte	0x30
 12142 2a36 00       		.byte	0
 12143 2a37 1A       		.uleb128 0x1a
 12144 2a38 89190000 		.4byte	.LASF557
 12145 2a3c 2E       		.byte	0x2e
 12146 2a3d 9E01     		.2byte	0x19e
 12147 2a3f 432A0000 		.4byte	0x2a43
 12148 2a43 0B       		.uleb128 0xb
 12149 2a44 04       		.byte	0x4
 12150 2a45 492A0000 		.4byte	0x2a49
 12151 2a49 0D       		.uleb128 0xd
 12152 2a4a 542A0000 		.4byte	0x2a54
 12153 2a4e 0E       		.uleb128 0xe
 12154 2a4f 542A0000 		.4byte	0x2a54
 12155 2a53 00       		.byte	0
 12156 2a54 0B       		.uleb128 0xb
 12157 2a55 04       		.byte	0x4
 12158 2a56 A8290000 		.4byte	0x29a8
 12159 2a5a 19       		.uleb128 0x19
 12160 2a5b 0C       		.byte	0xc
ARM GAS  /tmp/ccZueut9.s 			page 220


 12161 2a5c 2E       		.byte	0x2e
 12162 2a5d A301     		.2byte	0x1a3
 12163 2a5f 982A0000 		.4byte	0x2a98
 12164 2a63 0A       		.uleb128 0xa
 12165 2a64 180B0000 		.4byte	.LASF353
 12166 2a68 2E       		.byte	0x2e
 12167 2a69 A701     		.2byte	0x1a7
 12168 2a6b 372A0000 		.4byte	0x2a37
 12169 2a6f 00       		.byte	0
 12170 2a70 0A       		.uleb128 0xa
 12171 2a71 0F2A0000 		.4byte	.LASF558
 12172 2a75 2E       		.byte	0x2e
 12173 2a76 AC01     		.2byte	0x1ac
 12174 2a78 EF170000 		.4byte	0x17ef
 12175 2a7c 04       		.byte	0x4
 12176 2a7d 0A       		.uleb128 0xa
 12177 2a7e 740A0000 		.4byte	.LASF559
 12178 2a82 2E       		.byte	0x2e
 12179 2a83 B001     		.2byte	0x1b0
 12180 2a85 F0000000 		.4byte	0xf0
 12181 2a89 08       		.byte	0x8
 12182 2a8a 09       		.uleb128 0x9
 12183 2a8b 63723100 		.ascii	"cr1\000"
 12184 2a8f 2E       		.byte	0x2e
 12185 2a90 B401     		.2byte	0x1b4
 12186 2a92 F0000000 		.4byte	0xf0
 12187 2a96 0A       		.byte	0xa
 12188 2a97 00       		.byte	0
 12189 2a98 1A       		.uleb128 0x1a
 12190 2a99 2A270000 		.4byte	.LASF560
 12191 2a9d 2E       		.byte	0x2e
 12192 2a9e B501     		.2byte	0x1b5
 12193 2aa0 5A2A0000 		.4byte	0x2a5a
 12194 2aa4 05       		.uleb128 0x5
 12195 2aa5 982A0000 		.4byte	0x2a98
 12196 2aa9 0B       		.uleb128 0xb
 12197 2aaa 04       		.byte	0x4
 12198 2aab A42A0000 		.4byte	0x2aa4
 12199 2aaf 15       		.uleb128 0x15
 12200 2ab0 821C0000 		.4byte	.LASF561
 12201 2ab4 2E       		.byte	0x2e
 12202 2ab5 F201     		.2byte	0x1f2
 12203 2ab7 A8290000 		.4byte	0x29a8
 12204 2abb 03       		.uleb128 0x3
 12205 2abc 74150000 		.4byte	.LASF562
 12206 2ac0 2F       		.byte	0x2f
 12207 2ac1 FA       		.byte	0xfa
 12208 2ac2 C62A0000 		.4byte	0x2ac6
 12209 2ac6 10       		.uleb128 0x10
 12210 2ac7 74150000 		.4byte	.LASF562
 12211 2acb 6002     		.2byte	0x260
 12212 2acd 30       		.byte	0x30
 12213 2ace 7701     		.2byte	0x177
 12214 2ad0 F22B0000 		.4byte	0x2bf2
 12215 2ad4 0A       		.uleb128 0xa
 12216 2ad5 231A0000 		.4byte	.LASF340
 12217 2ad9 30       		.byte	0x30
ARM GAS  /tmp/ccZueut9.s 			page 221


 12218 2ada 7B01     		.2byte	0x17b
 12219 2adc 2A2C0000 		.4byte	0x2c2a
 12220 2ae0 00       		.byte	0
 12221 2ae1 0A       		.uleb128 0xa
 12222 2ae2 BE210000 		.4byte	.LASF341
 12223 2ae6 30       		.byte	0x30
 12224 2ae7 7F01     		.2byte	0x17f
 12225 2ae9 4D350000 		.4byte	0x354d
 12226 2aed 04       		.byte	0x4
 12227 2aee 0A       		.uleb128 0xa
 12228 2aef 6B270000 		.4byte	.LASF563
 12229 2af3 30       		.byte	0x30
 12230 2af4 8301     		.2byte	0x183
 12231 2af6 F0000000 		.4byte	0xf0
 12232 2afa 08       		.byte	0x8
 12233 2afb 0A       		.uleb128 0xa
 12234 2afc 4A2A0000 		.4byte	.LASF564
 12235 2b00 30       		.byte	0x30
 12236 2b01 8701     		.2byte	0x187
 12237 2b03 F0000000 		.4byte	0xf0
 12238 2b07 0A       		.byte	0xa
 12239 2b08 09       		.uleb128 0x9
 12240 2b09 65706300 		.ascii	"epc\000"
 12241 2b0d 30       		.byte	0x30
 12242 2b0e 8B01     		.2byte	0x18b
 12243 2b10 53350000 		.4byte	0x3553
 12244 2b14 0C       		.byte	0xc
 12245 2b15 0A       		.uleb128 0xa
 12246 2b16 D2080000 		.4byte	.LASF565
 12247 2b1a 30       		.byte	0x30
 12248 2b1b 9201     		.2byte	0x192
 12249 2b1d 69350000 		.4byte	0x3569
 12250 2b21 1C       		.byte	0x1c
 12251 2b22 0A       		.uleb128 0xa
 12252 2b23 4B0E0000 		.4byte	.LASF566
 12253 2b27 30       		.byte	0x30
 12254 2b28 9901     		.2byte	0x199
 12255 2b2a 69350000 		.4byte	0x3569
 12256 2b2e 28       		.byte	0x28
 12257 2b2f 0A       		.uleb128 0xa
 12258 2b30 43130000 		.4byte	.LASF567
 12259 2b34 30       		.byte	0x30
 12260 2b35 9D01     		.2byte	0x19d
 12261 2b37 6F2C0000 		.4byte	0x2c6f
 12262 2b3b 34       		.byte	0x34
 12263 2b3c 0A       		.uleb128 0xa
 12264 2b3d 07210000 		.4byte	.LASF568
 12265 2b41 30       		.byte	0x30
 12266 2b42 A101     		.2byte	0x1a1
 12267 2b44 88130000 		.4byte	0x1388
 12268 2b48 38       		.byte	0x38
 12269 2b49 0A       		.uleb128 0xa
 12270 2b4a DA1B0000 		.4byte	.LASF569
 12271 2b4e 30       		.byte	0x30
 12272 2b4f A501     		.2byte	0x1a5
 12273 2b51 2C000000 		.4byte	0x2c
 12274 2b55 3C       		.byte	0x3c
ARM GAS  /tmp/ccZueut9.s 			page 222


 12275 2b56 0A       		.uleb128 0xa
 12276 2b57 76240000 		.4byte	.LASF570
 12277 2b5b 30       		.byte	0x30
 12278 2b5c A901     		.2byte	0x1a9
 12279 2b5e EF2C0000 		.4byte	0x2cef
 12280 2b62 40       		.byte	0x40
 12281 2b63 0A       		.uleb128 0xa
 12282 2b64 A6080000 		.4byte	.LASF571
 12283 2b68 30       		.byte	0x30
 12284 2b69 AD01     		.2byte	0x1ad
 12285 2b6b BF1A0000 		.4byte	0x1abf
 12286 2b6f 44       		.byte	0x44
 12287 2b70 0A       		.uleb128 0xa
 12288 2b71 3C190000 		.4byte	.LASF572
 12289 2b75 30       		.byte	0x30
 12290 2b76 B101     		.2byte	0x1b1
 12291 2b78 F0000000 		.4byte	0xf0
 12292 2b7c 4C       		.byte	0x4c
 12293 2b7d 0A       		.uleb128 0xa
 12294 2b7e A1190000 		.4byte	.LASF573
 12295 2b82 30       		.byte	0x30
 12296 2b83 B501     		.2byte	0x1b5
 12297 2b85 D5000000 		.4byte	0xd5
 12298 2b89 4E       		.byte	0x4e
 12299 2b8a 0A       		.uleb128 0xa
 12300 2b8b BF1F0000 		.4byte	.LASF574
 12301 2b8f 30       		.byte	0x30
 12302 2b90 B901     		.2byte	0x1b9
 12303 2b92 D5000000 		.4byte	0xd5
 12304 2b96 4F       		.byte	0x4f
 12305 2b97 09       		.uleb128 0x9
 12306 2b98 6F746700 		.ascii	"otg\000"
 12307 2b9c 30       		.byte	0x30
 12308 2b9d C101     		.2byte	0x1c1
 12309 2b9f 79350000 		.4byte	0x3579
 12310 2ba3 50       		.byte	0x50
 12311 2ba4 0A       		.uleb128 0xa
 12312 2ba5 22100000 		.4byte	.LASF575
 12313 2ba9 30       		.byte	0x30
 12314 2baa C501     		.2byte	0x1c5
 12315 2bac 7F350000 		.4byte	0x357f
 12316 2bb0 54       		.byte	0x54
 12317 2bb1 0A       		.uleb128 0xa
 12318 2bb2 A11D0000 		.4byte	.LASF576
 12319 2bb6 30       		.byte	0x30
 12320 2bb7 C901     		.2byte	0x1c9
 12321 2bb9 0B010000 		.4byte	0x10b
 12322 2bbd 58       		.byte	0x58
 12323 2bbe 0A       		.uleb128 0xa
 12324 2bbf 1B0F0000 		.4byte	.LASF577
 12325 2bc3 30       		.byte	0x30
 12326 2bc4 CD01     		.2byte	0x1cd
 12327 2bc6 0B010000 		.4byte	0x10b
 12328 2bca 5C       		.byte	0x5c
 12329 2bcb 0A       		.uleb128 0xa
 12330 2bcc D1090000 		.4byte	.LASF578
 12331 2bd0 30       		.byte	0x30
ARM GAS  /tmp/ccZueut9.s 			page 223


 12332 2bd1 D101     		.2byte	0x1d1
 12333 2bd3 E8020000 		.4byte	0x2e8
 12334 2bd7 60       		.byte	0x60
 12335 2bd8 09       		.uleb128 0x9
 12336 2bd9 747200   		.ascii	"tr\000"
 12337 2bdc 30       		.byte	0x30
 12338 2bdd D601     		.2byte	0x1d6
 12339 2bdf E8020000 		.4byte	0x2e8
 12340 2be3 64       		.byte	0x64
 12341 2be4 0A       		.uleb128 0xa
 12342 2be5 51180000 		.4byte	.LASF579
 12343 2be9 30       		.byte	0x30
 12344 2bea DA01     		.2byte	0x1da
 12345 2bec 85350000 		.4byte	0x3585
 12346 2bf0 68       		.byte	0x68
 12347 2bf1 00       		.byte	0
 12348 2bf2 03       		.uleb128 0x3
 12349 2bf3 A10B0000 		.4byte	.LASF580
 12350 2bf7 2F       		.byte	0x2f
 12351 2bf8 FF       		.byte	0xff
 12352 2bf9 D5000000 		.4byte	0xd5
 12353 2bfd 24       		.uleb128 0x24
 12354 2bfe 07       		.byte	0x7
 12355 2bff 01       		.byte	0x1
 12356 2c00 69000000 		.4byte	0x69
 12357 2c04 2F       		.byte	0x2f
 12358 2c05 0401     		.2byte	0x104
 12359 2c07 2A2C0000 		.4byte	0x2c2a
 12360 2c0b 22       		.uleb128 0x22
 12361 2c0c 2E2B0000 		.4byte	.LASF581
 12362 2c10 00       		.byte	0
 12363 2c11 22       		.uleb128 0x22
 12364 2c12 00000000 		.4byte	.LASF582
 12365 2c16 01       		.byte	0x1
 12366 2c17 22       		.uleb128 0x22
 12367 2c18 48170000 		.4byte	.LASF583
 12368 2c1c 02       		.byte	0x2
 12369 2c1d 22       		.uleb128 0x22
 12370 2c1e 711D0000 		.4byte	.LASF584
 12371 2c22 03       		.byte	0x3
 12372 2c23 22       		.uleb128 0x22
 12373 2c24 E9090000 		.4byte	.LASF585
 12374 2c28 04       		.byte	0x4
 12375 2c29 00       		.byte	0
 12376 2c2a 1A       		.uleb128 0x1a
 12377 2c2b 812C0000 		.4byte	.LASF586
 12378 2c2f 2F       		.byte	0x2f
 12379 2c30 0A01     		.2byte	0x10a
 12380 2c32 FD2B0000 		.4byte	0x2bfd
 12381 2c36 24       		.uleb128 0x24
 12382 2c37 07       		.byte	0x7
 12383 2c38 01       		.byte	0x1
 12384 2c39 69000000 		.4byte	0x69
 12385 2c3d 2F       		.byte	0x2f
 12386 2c3e 1801     		.2byte	0x118
 12387 2c40 6F2C0000 		.4byte	0x2c6f
 12388 2c44 22       		.uleb128 0x22
ARM GAS  /tmp/ccZueut9.s 			page 224


 12389 2c45 41240000 		.4byte	.LASF587
 12390 2c49 00       		.byte	0
 12391 2c4a 22       		.uleb128 0x22
 12392 2c4b 38130000 		.4byte	.LASF588
 12393 2c4f 01       		.byte	0x1
 12394 2c50 22       		.uleb128 0x22
 12395 2c51 F3200000 		.4byte	.LASF589
 12396 2c55 02       		.byte	0x2
 12397 2c56 22       		.uleb128 0x22
 12398 2c57 6A1A0000 		.4byte	.LASF590
 12399 2c5b 03       		.byte	0x3
 12400 2c5c 22       		.uleb128 0x22
 12401 2c5d 27190000 		.4byte	.LASF591
 12402 2c61 04       		.byte	0x4
 12403 2c62 22       		.uleb128 0x22
 12404 2c63 A8140000 		.4byte	.LASF592
 12405 2c67 05       		.byte	0x5
 12406 2c68 22       		.uleb128 0x22
 12407 2c69 53110000 		.4byte	.LASF593
 12408 2c6d 06       		.byte	0x6
 12409 2c6e 00       		.byte	0
 12410 2c6f 1A       		.uleb128 0x1a
 12411 2c70 19150000 		.4byte	.LASF594
 12412 2c74 2F       		.byte	0x2f
 12413 2c75 2001     		.2byte	0x120
 12414 2c77 362C0000 		.4byte	0x2c36
 12415 2c7b 24       		.uleb128 0x24
 12416 2c7c 07       		.byte	0x7
 12417 2c7d 01       		.byte	0x1
 12418 2c7e 69000000 		.4byte	0x69
 12419 2c82 2F       		.byte	0x2f
 12420 2c83 2501     		.2byte	0x125
 12421 2c85 AE2C0000 		.4byte	0x2cae
 12422 2c89 22       		.uleb128 0x22
 12423 2c8a 91230000 		.4byte	.LASF595
 12424 2c8e 00       		.byte	0
 12425 2c8f 22       		.uleb128 0x22
 12426 2c90 FB1D0000 		.4byte	.LASF596
 12427 2c94 01       		.byte	0x1
 12428 2c95 22       		.uleb128 0x22
 12429 2c96 02180000 		.4byte	.LASF597
 12430 2c9a 02       		.byte	0x2
 12431 2c9b 22       		.uleb128 0x22
 12432 2c9c 9D180000 		.4byte	.LASF598
 12433 2ca0 03       		.byte	0x3
 12434 2ca1 22       		.uleb128 0x22
 12435 2ca2 A5290000 		.4byte	.LASF599
 12436 2ca6 04       		.byte	0x4
 12437 2ca7 22       		.uleb128 0x22
 12438 2ca8 C6170000 		.4byte	.LASF600
 12439 2cac 05       		.byte	0x5
 12440 2cad 00       		.byte	0
 12441 2cae 1A       		.uleb128 0x1a
 12442 2caf 331E0000 		.4byte	.LASF601
 12443 2cb3 2F       		.byte	0x2f
 12444 2cb4 2C01     		.2byte	0x12c
 12445 2cb6 7B2C0000 		.4byte	0x2c7b
ARM GAS  /tmp/ccZueut9.s 			page 225


 12446 2cba 19       		.uleb128 0x19
 12447 2cbb 08       		.byte	0x8
 12448 2cbc 2F       		.byte	0x2f
 12449 2cbd 3101     		.2byte	0x131
 12450 2cbf DE2C0000 		.4byte	0x2cde
 12451 2cc3 0A       		.uleb128 0xa
 12452 2cc4 F52B0000 		.4byte	.LASF602
 12453 2cc8 2F       		.byte	0x2f
 12454 2cc9 3501     		.2byte	0x135
 12455 2ccb 2C000000 		.4byte	0x2c
 12456 2ccf 00       		.byte	0
 12457 2cd0 0A       		.uleb128 0xa
 12458 2cd1 0A060000 		.4byte	.LASF603
 12459 2cd5 2F       		.byte	0x2f
 12460 2cd6 3901     		.2byte	0x139
 12461 2cd8 BD130000 		.4byte	0x13bd
 12462 2cdc 04       		.byte	0x4
 12463 2cdd 00       		.byte	0
 12464 2cde 1A       		.uleb128 0x1a
 12465 2cdf 62190000 		.4byte	.LASF604
 12466 2ce3 2F       		.byte	0x2f
 12467 2ce4 3A01     		.2byte	0x13a
 12468 2ce6 BA2C0000 		.4byte	0x2cba
 12469 2cea 05       		.uleb128 0x5
 12470 2ceb DE2C0000 		.4byte	0x2cde
 12471 2cef 1A       		.uleb128 0x1a
 12472 2cf0 7E2B0000 		.4byte	.LASF605
 12473 2cf4 2F       		.byte	0x2f
 12474 2cf5 4201     		.2byte	0x142
 12475 2cf7 FB2C0000 		.4byte	0x2cfb
 12476 2cfb 0B       		.uleb128 0xb
 12477 2cfc 04       		.byte	0x4
 12478 2cfd 012D0000 		.4byte	0x2d01
 12479 2d01 0D       		.uleb128 0xd
 12480 2d02 0C2D0000 		.4byte	0x2d0c
 12481 2d06 0E       		.uleb128 0xe
 12482 2d07 0C2D0000 		.4byte	0x2d0c
 12483 2d0b 00       		.byte	0
 12484 2d0c 0B       		.uleb128 0xb
 12485 2d0d 04       		.byte	0x4
 12486 2d0e BB2A0000 		.4byte	0x2abb
 12487 2d12 1A       		.uleb128 0x1a
 12488 2d13 6C060000 		.4byte	.LASF606
 12489 2d17 2F       		.byte	0x2f
 12490 2d18 4B01     		.2byte	0x14b
 12491 2d1a 1E2D0000 		.4byte	0x2d1e
 12492 2d1e 0B       		.uleb128 0xb
 12493 2d1f 04       		.byte	0x4
 12494 2d20 242D0000 		.4byte	0x2d24
 12495 2d24 0D       		.uleb128 0xd
 12496 2d25 342D0000 		.4byte	0x2d34
 12497 2d29 0E       		.uleb128 0xe
 12498 2d2a 0C2D0000 		.4byte	0x2d0c
 12499 2d2e 0E       		.uleb128 0xe
 12500 2d2f F22B0000 		.4byte	0x2bf2
 12501 2d33 00       		.byte	0
 12502 2d34 1A       		.uleb128 0x1a
ARM GAS  /tmp/ccZueut9.s 			page 226


 12503 2d35 F40C0000 		.4byte	.LASF607
 12504 2d39 2F       		.byte	0x2f
 12505 2d3a 5401     		.2byte	0x154
 12506 2d3c 402D0000 		.4byte	0x2d40
 12507 2d40 0B       		.uleb128 0xb
 12508 2d41 04       		.byte	0x4
 12509 2d42 462D0000 		.4byte	0x2d46
 12510 2d46 0D       		.uleb128 0xd
 12511 2d47 562D0000 		.4byte	0x2d56
 12512 2d4b 0E       		.uleb128 0xe
 12513 2d4c 0C2D0000 		.4byte	0x2d0c
 12514 2d50 0E       		.uleb128 0xe
 12515 2d51 AE2C0000 		.4byte	0x2cae
 12516 2d55 00       		.byte	0
 12517 2d56 1A       		.uleb128 0x1a
 12518 2d57 E3070000 		.4byte	.LASF608
 12519 2d5b 2F       		.byte	0x2f
 12520 2d5c 6001     		.2byte	0x160
 12521 2d5e 622D0000 		.4byte	0x2d62
 12522 2d62 0B       		.uleb128 0xb
 12523 2d63 04       		.byte	0x4
 12524 2d64 682D0000 		.4byte	0x2d68
 12525 2d68 20       		.uleb128 0x20
 12526 2d69 A4150000 		.4byte	0x15a4
 12527 2d6d 772D0000 		.4byte	0x2d77
 12528 2d71 0E       		.uleb128 0xe
 12529 2d72 0C2D0000 		.4byte	0x2d0c
 12530 2d76 00       		.byte	0
 12531 2d77 1A       		.uleb128 0x1a
 12532 2d78 C3110000 		.4byte	.LASF609
 12533 2d7c 2F       		.byte	0x2f
 12534 2d7d 6501     		.2byte	0x165
 12535 2d7f 832D0000 		.4byte	0x2d83
 12536 2d83 0B       		.uleb128 0xb
 12537 2d84 04       		.byte	0x4
 12538 2d85 892D0000 		.4byte	0x2d89
 12539 2d89 20       		.uleb128 0x20
 12540 2d8a A72D0000 		.4byte	0x2da7
 12541 2d8e A72D0000 		.4byte	0x2da7
 12542 2d92 0E       		.uleb128 0xe
 12543 2d93 0C2D0000 		.4byte	0x2d0c
 12544 2d97 0E       		.uleb128 0xe
 12545 2d98 D5000000 		.4byte	0xd5
 12546 2d9c 0E       		.uleb128 0xe
 12547 2d9d D5000000 		.4byte	0xd5
 12548 2da1 0E       		.uleb128 0xe
 12549 2da2 F0000000 		.4byte	0xf0
 12550 2da6 00       		.byte	0
 12551 2da7 0B       		.uleb128 0xb
 12552 2da8 04       		.byte	0x4
 12553 2da9 EA2C0000 		.4byte	0x2cea
 12554 2dad 17       		.uleb128 0x17
 12555 2dae 20       		.byte	0x20
 12556 2daf 31       		.byte	0x31
 12557 2db0 35       		.byte	0x35
 12558 2db1 162E0000 		.4byte	0x2e16
 12559 2db5 08       		.uleb128 0x8
ARM GAS  /tmp/ccZueut9.s 			page 227


 12560 2db6 5C040000 		.4byte	.LASF610
 12561 2dba 31       		.byte	0x31
 12562 2dbb 36       		.byte	0x36
 12563 2dbc 16010000 		.4byte	0x116
 12564 2dc0 00       		.byte	0
 12565 2dc1 08       		.uleb128 0x8
 12566 2dc2 600F0000 		.4byte	.LASF611
 12567 2dc6 31       		.byte	0x31
 12568 2dc7 38       		.byte	0x38
 12569 2dc8 16010000 		.4byte	0x116
 12570 2dcc 04       		.byte	0x4
 12571 2dcd 08       		.uleb128 0x8
 12572 2dce A6030000 		.4byte	.LASF612
 12573 2dd2 31       		.byte	0x31
 12574 2dd3 39       		.byte	0x39
 12575 2dd4 16010000 		.4byte	0x116
 12576 2dd8 08       		.byte	0x8
 12577 2dd9 08       		.uleb128 0x8
 12578 2dda A2210000 		.4byte	.LASF613
 12579 2dde 31       		.byte	0x31
 12580 2ddf 3A       		.byte	0x3a
 12581 2de0 16010000 		.4byte	0x116
 12582 2de4 0C       		.byte	0xc
 12583 2de5 08       		.uleb128 0x8
 12584 2de6 FB170000 		.4byte	.LASF614
 12585 2dea 31       		.byte	0x31
 12586 2deb 3C       		.byte	0x3c
 12587 2dec 16010000 		.4byte	0x116
 12588 2df0 10       		.byte	0x10
 12589 2df1 08       		.uleb128 0x8
 12590 2df2 B10F0000 		.4byte	.LASF615
 12591 2df6 31       		.byte	0x31
 12592 2df7 3E       		.byte	0x3e
 12593 2df8 16010000 		.4byte	0x116
 12594 2dfc 14       		.byte	0x14
 12595 2dfd 08       		.uleb128 0x8
 12596 2dfe B90F0000 		.4byte	.LASF616
 12597 2e02 31       		.byte	0x31
 12598 2e03 3F       		.byte	0x3f
 12599 2e04 16010000 		.4byte	0x116
 12600 2e08 18       		.byte	0x18
 12601 2e09 08       		.uleb128 0x8
 12602 2e0a 54050000 		.4byte	.LASF617
 12603 2e0e 31       		.byte	0x31
 12604 2e0f 40       		.byte	0x40
 12605 2e10 16010000 		.4byte	0x116
 12606 2e14 1C       		.byte	0x1c
 12607 2e15 00       		.byte	0
 12608 2e16 03       		.uleb128 0x3
 12609 2e17 0F210000 		.4byte	.LASF618
 12610 2e1b 31       		.byte	0x31
 12611 2e1c 41       		.byte	0x41
 12612 2e1d AD2D0000 		.4byte	0x2dad
 12613 2e21 17       		.uleb128 0x17
 12614 2e22 20       		.byte	0x20
 12615 2e23 31       		.byte	0x31
 12616 2e24 46       		.byte	0x46
ARM GAS  /tmp/ccZueut9.s 			page 228


 12617 2e25 8A2E0000 		.4byte	0x2e8a
 12618 2e29 08       		.uleb128 0x8
 12619 2e2a 10100000 		.4byte	.LASF619
 12620 2e2e 31       		.byte	0x31
 12621 2e2f 47       		.byte	0x47
 12622 2e30 16010000 		.4byte	0x116
 12623 2e34 00       		.byte	0
 12624 2e35 08       		.uleb128 0x8
 12625 2e36 6D150000 		.4byte	.LASF620
 12626 2e3a 31       		.byte	0x31
 12627 2e3b 49       		.byte	0x49
 12628 2e3c 16010000 		.4byte	0x116
 12629 2e40 04       		.byte	0x4
 12630 2e41 08       		.uleb128 0x8
 12631 2e42 7D260000 		.4byte	.LASF621
 12632 2e46 31       		.byte	0x31
 12633 2e47 4A       		.byte	0x4a
 12634 2e48 16010000 		.4byte	0x116
 12635 2e4c 08       		.byte	0x8
 12636 2e4d 08       		.uleb128 0x8
 12637 2e4e 91150000 		.4byte	.LASF622
 12638 2e52 31       		.byte	0x31
 12639 2e53 4C       		.byte	0x4c
 12640 2e54 16010000 		.4byte	0x116
 12641 2e58 0C       		.byte	0xc
 12642 2e59 08       		.uleb128 0x8
 12643 2e5a 561B0000 		.4byte	.LASF623
 12644 2e5e 31       		.byte	0x31
 12645 2e5f 4D       		.byte	0x4d
 12646 2e60 16010000 		.4byte	0x116
 12647 2e64 10       		.byte	0x10
 12648 2e65 08       		.uleb128 0x8
 12649 2e66 B10F0000 		.4byte	.LASF615
 12650 2e6a 31       		.byte	0x31
 12651 2e6b 4F       		.byte	0x4f
 12652 2e6c 16010000 		.4byte	0x116
 12653 2e70 14       		.byte	0x14
 12654 2e71 08       		.uleb128 0x8
 12655 2e72 B7080000 		.4byte	.LASF624
 12656 2e76 31       		.byte	0x31
 12657 2e77 50       		.byte	0x50
 12658 2e78 16010000 		.4byte	0x116
 12659 2e7c 18       		.byte	0x18
 12660 2e7d 08       		.uleb128 0x8
 12661 2e7e 66260000 		.4byte	.LASF625
 12662 2e82 31       		.byte	0x31
 12663 2e83 52       		.byte	0x52
 12664 2e84 16010000 		.4byte	0x116
 12665 2e88 1C       		.byte	0x1c
 12666 2e89 00       		.byte	0
 12667 2e8a 03       		.uleb128 0x3
 12668 2e8b FD090000 		.4byte	.LASF626
 12669 2e8f 31       		.byte	0x31
 12670 2e90 53       		.byte	0x53
 12671 2e91 212E0000 		.4byte	0x2e21
 12672 2e95 17       		.uleb128 0x17
 12673 2e96 20       		.byte	0x20
ARM GAS  /tmp/ccZueut9.s 			page 229


 12674 2e97 31       		.byte	0x31
 12675 2e98 58       		.byte	0x58
 12676 2e99 FE2E0000 		.4byte	0x2efe
 12677 2e9d 08       		.uleb128 0x8
 12678 2e9e 9A210000 		.4byte	.LASF627
 12679 2ea2 31       		.byte	0x31
 12680 2ea3 59       		.byte	0x59
 12681 2ea4 16010000 		.4byte	0x116
 12682 2ea8 00       		.byte	0
 12683 2ea9 08       		.uleb128 0x8
 12684 2eaa 6D150000 		.4byte	.LASF620
 12685 2eae 31       		.byte	0x31
 12686 2eaf 5B       		.byte	0x5b
 12687 2eb0 16010000 		.4byte	0x116
 12688 2eb4 04       		.byte	0x4
 12689 2eb5 08       		.uleb128 0x8
 12690 2eb6 CF1C0000 		.4byte	.LASF628
 12691 2eba 31       		.byte	0x31
 12692 2ebb 5C       		.byte	0x5c
 12693 2ebc 16010000 		.4byte	0x116
 12694 2ec0 08       		.byte	0x8
 12695 2ec1 08       		.uleb128 0x8
 12696 2ec2 91150000 		.4byte	.LASF622
 12697 2ec6 31       		.byte	0x31
 12698 2ec7 5E       		.byte	0x5e
 12699 2ec8 16010000 		.4byte	0x116
 12700 2ecc 0C       		.byte	0xc
 12701 2ecd 08       		.uleb128 0x8
 12702 2ece D0270000 		.4byte	.LASF629
 12703 2ed2 31       		.byte	0x31
 12704 2ed3 5F       		.byte	0x5f
 12705 2ed4 16010000 		.4byte	0x116
 12706 2ed8 10       		.byte	0x10
 12707 2ed9 08       		.uleb128 0x8
 12708 2eda B10F0000 		.4byte	.LASF615
 12709 2ede 31       		.byte	0x31
 12710 2edf 61       		.byte	0x61
 12711 2ee0 16010000 		.4byte	0x116
 12712 2ee4 14       		.byte	0x14
 12713 2ee5 08       		.uleb128 0x8
 12714 2ee6 B90F0000 		.4byte	.LASF616
 12715 2eea 31       		.byte	0x31
 12716 2eeb 62       		.byte	0x62
 12717 2eec 16010000 		.4byte	0x116
 12718 2ef0 18       		.byte	0x18
 12719 2ef1 08       		.uleb128 0x8
 12720 2ef2 66260000 		.4byte	.LASF625
 12721 2ef6 31       		.byte	0x31
 12722 2ef7 63       		.byte	0x63
 12723 2ef8 16010000 		.4byte	0x116
 12724 2efc 1C       		.byte	0x1c
 12725 2efd 00       		.byte	0
 12726 2efe 03       		.uleb128 0x3
 12727 2eff 98090000 		.4byte	.LASF630
 12728 2f03 31       		.byte	0x31
 12729 2f04 64       		.byte	0x64
 12730 2f05 952E0000 		.4byte	0x2e95
ARM GAS  /tmp/ccZueut9.s 			page 230


 12731 2f09 28       		.uleb128 0x28
 12732 2f0a 00100100 		.4byte	0x11000
 12733 2f0e 31       		.byte	0x31
 12734 2f0f 69       		.byte	0x69
 12735 2f10 E6310000 		.4byte	0x31e6
 12736 2f14 08       		.uleb128 0x8
 12737 2f15 53060000 		.4byte	.LASF631
 12738 2f19 31       		.byte	0x31
 12739 2f1a 6A       		.byte	0x6a
 12740 2f1b 16010000 		.4byte	0x116
 12741 2f1f 00       		.byte	0
 12742 2f20 08       		.uleb128 0x8
 12743 2f21 2E0E0000 		.4byte	.LASF632
 12744 2f25 31       		.byte	0x31
 12745 2f26 6B       		.byte	0x6b
 12746 2f27 16010000 		.4byte	0x116
 12747 2f2b 04       		.byte	0x4
 12748 2f2c 08       		.uleb128 0x8
 12749 2f2d 0B090000 		.4byte	.LASF633
 12750 2f31 31       		.byte	0x31
 12751 2f32 6C       		.byte	0x6c
 12752 2f33 16010000 		.4byte	0x116
 12753 2f37 08       		.byte	0x8
 12754 2f38 08       		.uleb128 0x8
 12755 2f39 922B0000 		.4byte	.LASF634
 12756 2f3d 31       		.byte	0x31
 12757 2f3e 6D       		.byte	0x6d
 12758 2f3f 16010000 		.4byte	0x116
 12759 2f43 0C       		.byte	0xc
 12760 2f44 08       		.uleb128 0x8
 12761 2f45 6E170000 		.4byte	.LASF635
 12762 2f49 31       		.byte	0x31
 12763 2f4a 6E       		.byte	0x6e
 12764 2f4b 16010000 		.4byte	0x116
 12765 2f4f 10       		.byte	0x10
 12766 2f50 08       		.uleb128 0x8
 12767 2f51 AA0D0000 		.4byte	.LASF636
 12768 2f55 31       		.byte	0x31
 12769 2f56 6F       		.byte	0x6f
 12770 2f57 16010000 		.4byte	0x116
 12771 2f5b 14       		.byte	0x14
 12772 2f5c 08       		.uleb128 0x8
 12773 2f5d 971F0000 		.4byte	.LASF637
 12774 2f61 31       		.byte	0x31
 12775 2f62 70       		.byte	0x70
 12776 2f63 16010000 		.4byte	0x116
 12777 2f67 18       		.byte	0x18
 12778 2f68 08       		.uleb128 0x8
 12779 2f69 B3090000 		.4byte	.LASF638
 12780 2f6d 31       		.byte	0x31
 12781 2f6e 71       		.byte	0x71
 12782 2f6f 16010000 		.4byte	0x116
 12783 2f73 1C       		.byte	0x1c
 12784 2f74 08       		.uleb128 0x8
 12785 2f75 AB090000 		.4byte	.LASF639
 12786 2f79 31       		.byte	0x31
 12787 2f7a 73       		.byte	0x73
ARM GAS  /tmp/ccZueut9.s 			page 231


 12788 2f7b 16010000 		.4byte	0x116
 12789 2f7f 20       		.byte	0x20
 12790 2f80 08       		.uleb128 0x8
 12791 2f81 F51E0000 		.4byte	.LASF640
 12792 2f85 31       		.byte	0x31
 12793 2f86 75       		.byte	0x75
 12794 2f87 16010000 		.4byte	0x116
 12795 2f8b 24       		.byte	0x24
 12796 2f8c 08       		.uleb128 0x8
 12797 2f8d 0F010000 		.4byte	.LASF641
 12798 2f91 31       		.byte	0x31
 12799 2f92 76       		.byte	0x76
 12800 2f93 16010000 		.4byte	0x116
 12801 2f97 28       		.byte	0x28
 12802 2f98 08       		.uleb128 0x8
 12803 2f99 9F1F0000 		.4byte	.LASF642
 12804 2f9d 31       		.byte	0x31
 12805 2f9e 78       		.byte	0x78
 12806 2f9f 16010000 		.4byte	0x116
 12807 2fa3 2C       		.byte	0x2c
 12808 2fa4 08       		.uleb128 0x8
 12809 2fa5 08110000 		.4byte	.LASF643
 12810 2fa9 31       		.byte	0x31
 12811 2faa 7A       		.byte	0x7a
 12812 2fab 16010000 		.4byte	0x116
 12813 2faf 30       		.byte	0x30
 12814 2fb0 08       		.uleb128 0x8
 12815 2fb1 17110000 		.4byte	.LASF644
 12816 2fb5 31       		.byte	0x31
 12817 2fb6 7B       		.byte	0x7b
 12818 2fb7 16010000 		.4byte	0x116
 12819 2fbb 34       		.byte	0x34
 12820 2fbc 08       		.uleb128 0x8
 12821 2fbd 9A020000 		.4byte	.LASF645
 12822 2fc1 31       		.byte	0x31
 12823 2fc2 7C       		.byte	0x7c
 12824 2fc3 16010000 		.4byte	0x116
 12825 2fc7 38       		.byte	0x38
 12826 2fc8 18       		.uleb128 0x18
 12827 2fc9 43494400 		.ascii	"CID\000"
 12828 2fcd 31       		.byte	0x31
 12829 2fce 7D       		.byte	0x7d
 12830 2fcf 16010000 		.4byte	0x116
 12831 2fd3 3C       		.byte	0x3c
 12832 2fd4 08       		.uleb128 0x8
 12833 2fd5 E9130000 		.4byte	.LASF646
 12834 2fd9 31       		.byte	0x31
 12835 2fda 7E       		.byte	0x7e
 12836 2fdb F6310000 		.4byte	0x31f6
 12837 2fdf 40       		.byte	0x40
 12838 2fe0 27       		.uleb128 0x27
 12839 2fe1 9E280000 		.4byte	.LASF647
 12840 2fe5 31       		.byte	0x31
 12841 2fe6 7F       		.byte	0x7f
 12842 2fe7 16010000 		.4byte	0x116
 12843 2feb 0001     		.2byte	0x100
 12844 2fed 27       		.uleb128 0x27
ARM GAS  /tmp/ccZueut9.s 			page 232


 12845 2fee 17030000 		.4byte	.LASF648
 12846 2ff2 31       		.byte	0x31
 12847 2ff3 81       		.byte	0x81
 12848 2ff4 840D0000 		.4byte	0xd84
 12849 2ff8 0401     		.2byte	0x104
 12850 2ffa 27       		.uleb128 0x27
 12851 2ffb 70180000 		.4byte	.LASF649
 12852 2fff 31       		.byte	0x31
 12853 3000 83       		.byte	0x83
 12854 3001 0B320000 		.4byte	0x320b
 12855 3005 4001     		.2byte	0x140
 12856 3007 27       		.uleb128 0x27
 12857 3008 541C0000 		.4byte	.LASF650
 12858 300c 31       		.byte	0x31
 12859 300d 84       		.byte	0x84
 12860 300e 16010000 		.4byte	0x116
 12861 3012 0004     		.2byte	0x400
 12862 3014 27       		.uleb128 0x27
 12863 3015 1E2B0000 		.4byte	.LASF651
 12864 3019 31       		.byte	0x31
 12865 301a 85       		.byte	0x85
 12866 301b 16010000 		.4byte	0x116
 12867 301f 0404     		.2byte	0x404
 12868 3021 27       		.uleb128 0x27
 12869 3022 91050000 		.4byte	.LASF652
 12870 3026 31       		.byte	0x31
 12871 3027 86       		.byte	0x86
 12872 3028 16010000 		.4byte	0x116
 12873 302c 0804     		.2byte	0x408
 12874 302e 27       		.uleb128 0x27
 12875 302f 07280000 		.4byte	.LASF653
 12876 3033 31       		.byte	0x31
 12877 3034 88       		.byte	0x88
 12878 3035 16010000 		.4byte	0x116
 12879 3039 0C04     		.2byte	0x40c
 12880 303b 27       		.uleb128 0x27
 12881 303c 2C040000 		.4byte	.LASF654
 12882 3040 31       		.byte	0x31
 12883 3041 89       		.byte	0x89
 12884 3042 16010000 		.4byte	0x116
 12885 3046 1004     		.2byte	0x410
 12886 3048 27       		.uleb128 0x27
 12887 3049 67050000 		.4byte	.LASF655
 12888 304d 31       		.byte	0x31
 12889 304e 8B       		.byte	0x8b
 12890 304f 16010000 		.4byte	0x116
 12891 3053 1404     		.2byte	0x414
 12892 3055 27       		.uleb128 0x27
 12893 3056 420E0000 		.4byte	.LASF656
 12894 305a 31       		.byte	0x31
 12895 305b 8D       		.byte	0x8d
 12896 305c 16010000 		.4byte	0x116
 12897 3060 1804     		.2byte	0x418
 12898 3062 27       		.uleb128 0x27
 12899 3063 54230000 		.4byte	.LASF657
 12900 3067 31       		.byte	0x31
 12901 3068 8F       		.byte	0x8f
ARM GAS  /tmp/ccZueut9.s 			page 233


 12902 3069 20320000 		.4byte	0x3220
 12903 306d 1C04     		.2byte	0x41c
 12904 306f 27       		.uleb128 0x27
 12905 3070 94030000 		.4byte	.LASF658
 12906 3074 31       		.byte	0x31
 12907 3075 90       		.byte	0x90
 12908 3076 16010000 		.4byte	0x116
 12909 307a 4004     		.2byte	0x440
 12910 307c 27       		.uleb128 0x27
 12911 307d 6E250000 		.4byte	.LASF659
 12912 3081 31       		.byte	0x31
 12913 3082 92       		.byte	0x92
 12914 3083 35320000 		.4byte	0x3235
 12915 3087 4404     		.2byte	0x444
 12916 3089 29       		.uleb128 0x29
 12917 308a 686300   		.ascii	"hc\000"
 12918 308d 31       		.byte	0x31
 12919 308e 93       		.byte	0x93
 12920 308f 3A320000 		.4byte	0x323a
 12921 3093 0005     		.2byte	0x500
 12922 3095 27       		.uleb128 0x27
 12923 3096 46280000 		.4byte	.LASF660
 12924 309a 31       		.byte	0x31
 12925 309b 94       		.byte	0x94
 12926 309c 5A320000 		.4byte	0x325a
 12927 30a0 0007     		.2byte	0x700
 12928 30a2 27       		.uleb128 0x27
 12929 30a3 811F0000 		.4byte	.LASF661
 12930 30a7 31       		.byte	0x31
 12931 30a8 95       		.byte	0x95
 12932 30a9 16010000 		.4byte	0x116
 12933 30ad 0008     		.2byte	0x800
 12934 30af 27       		.uleb128 0x27
 12935 30b0 85290000 		.4byte	.LASF662
 12936 30b4 31       		.byte	0x31
 12937 30b5 96       		.byte	0x96
 12938 30b6 16010000 		.4byte	0x116
 12939 30ba 0408     		.2byte	0x804
 12940 30bc 27       		.uleb128 0x27
 12941 30bd 29070000 		.4byte	.LASF663
 12942 30c1 31       		.byte	0x31
 12943 30c2 97       		.byte	0x97
 12944 30c3 16010000 		.4byte	0x116
 12945 30c7 0808     		.2byte	0x808
 12946 30c9 27       		.uleb128 0x27
 12947 30ca 3C060000 		.4byte	.LASF664
 12948 30ce 31       		.byte	0x31
 12949 30cf 98       		.byte	0x98
 12950 30d0 16010000 		.4byte	0x116
 12951 30d4 0C08     		.2byte	0x80c
 12952 30d6 27       		.uleb128 0x27
 12953 30d7 260E0000 		.4byte	.LASF665
 12954 30db 31       		.byte	0x31
 12955 30dc 99       		.byte	0x99
 12956 30dd 16010000 		.4byte	0x116
 12957 30e1 1008     		.2byte	0x810
 12958 30e3 27       		.uleb128 0x27
ARM GAS  /tmp/ccZueut9.s 			page 234


 12959 30e4 9E260000 		.4byte	.LASF666
 12960 30e8 31       		.byte	0x31
 12961 30e9 9B       		.byte	0x9b
 12962 30ea 16010000 		.4byte	0x116
 12963 30ee 1408     		.2byte	0x814
 12964 30f0 27       		.uleb128 0x27
 12965 30f1 24270000 		.4byte	.LASF667
 12966 30f5 31       		.byte	0x31
 12967 30f6 9D       		.byte	0x9d
 12968 30f7 16010000 		.4byte	0x116
 12969 30fb 1808     		.2byte	0x818
 12970 30fd 27       		.uleb128 0x27
 12971 30fe FB230000 		.4byte	.LASF668
 12972 3102 31       		.byte	0x31
 12973 3103 9F       		.byte	0x9f
 12974 3104 16010000 		.4byte	0x116
 12975 3108 1C08     		.2byte	0x81c
 12976 310a 27       		.uleb128 0x27
 12977 310b A9070000 		.4byte	.LASF669
 12978 310f 31       		.byte	0x31
 12979 3110 A1       		.byte	0xa1
 12980 3111 16010000 		.4byte	0x116
 12981 3115 2008     		.2byte	0x820
 12982 3117 27       		.uleb128 0x27
 12983 3118 93060000 		.4byte	.LASF670
 12984 311c 31       		.byte	0x31
 12985 311d A2       		.byte	0xa2
 12986 311e 16010000 		.4byte	0x116
 12987 3122 2408     		.2byte	0x824
 12988 3124 27       		.uleb128 0x27
 12989 3125 8E1F0000 		.4byte	.LASF671
 12990 3129 31       		.byte	0x31
 12991 312a A3       		.byte	0xa3
 12992 312b 16010000 		.4byte	0x116
 12993 312f 2808     		.2byte	0x828
 12994 3131 27       		.uleb128 0x27
 12995 3132 1F110000 		.4byte	.LASF672
 12996 3136 31       		.byte	0x31
 12997 3137 A5       		.byte	0xa5
 12998 3138 16010000 		.4byte	0x116
 12999 313c 2C08     		.2byte	0x82c
 13000 313e 27       		.uleb128 0x27
 13001 313f 3C080000 		.4byte	.LASF673
 13002 3143 31       		.byte	0x31
 13003 3144 A7       		.byte	0xa7
 13004 3145 16010000 		.4byte	0x116
 13005 3149 3008     		.2byte	0x830
 13006 314b 27       		.uleb128 0x27
 13007 314c F60F0000 		.4byte	.LASF674
 13008 3150 31       		.byte	0x31
 13009 3151 A8       		.byte	0xa8
 13010 3152 16010000 		.4byte	0x116
 13011 3156 3408     		.2byte	0x834
 13012 3158 27       		.uleb128 0x27
 13013 3159 4F080000 		.4byte	.LASF675
 13014 315d 31       		.byte	0x31
 13015 315e AA       		.byte	0xaa
ARM GAS  /tmp/ccZueut9.s 			page 235


 13016 315f 16010000 		.4byte	0x116
 13017 3163 3808     		.2byte	0x838
 13018 3165 27       		.uleb128 0x27
 13019 3166 79080000 		.4byte	.LASF676
 13020 316a 31       		.byte	0x31
 13021 316b AB       		.byte	0xab
 13022 316c 16010000 		.4byte	0x116
 13023 3170 3C08     		.2byte	0x83c
 13024 3172 27       		.uleb128 0x27
 13025 3173 33090000 		.4byte	.LASF677
 13026 3177 31       		.byte	0x31
 13027 3178 AC       		.byte	0xac
 13028 3179 6F320000 		.4byte	0x326f
 13029 317d 4008     		.2byte	0x840
 13030 317f 27       		.uleb128 0x27
 13031 3180 7B0F0000 		.4byte	.LASF678
 13032 3184 31       		.byte	0x31
 13033 3185 AD       		.byte	0xad
 13034 3186 6F320000 		.4byte	0x326f
 13035 318a 8008     		.2byte	0x880
 13036 318c 27       		.uleb128 0x27
 13037 318d 7E150000 		.4byte	.LASF679
 13038 3191 31       		.byte	0x31
 13039 3192 AE       		.byte	0xae
 13040 3193 6F320000 		.4byte	0x326f
 13041 3197 C008     		.2byte	0x8c0
 13042 3199 29       		.uleb128 0x29
 13043 319a 696500   		.ascii	"ie\000"
 13044 319d 31       		.byte	0x31
 13045 319e AF       		.byte	0xaf
 13046 319f 74320000 		.4byte	0x3274
 13047 31a3 0009     		.2byte	0x900
 13048 31a5 29       		.uleb128 0x29
 13049 31a6 6F6500   		.ascii	"oe\000"
 13050 31a9 31       		.byte	0x31
 13051 31aa B0       		.byte	0xb0
 13052 31ab 84320000 		.4byte	0x3284
 13053 31af 000B     		.2byte	0xb00
 13054 31b1 27       		.uleb128 0x27
 13055 31b2 870D0000 		.4byte	.LASF680
 13056 31b6 31       		.byte	0x31
 13057 31b7 B1       		.byte	0xb1
 13058 31b8 5A320000 		.4byte	0x325a
 13059 31bc 000D     		.2byte	0xd00
 13060 31be 27       		.uleb128 0x27
 13061 31bf 9D290000 		.4byte	.LASF681
 13062 31c3 31       		.byte	0x31
 13063 31c4 B2       		.byte	0xb2
 13064 31c5 16010000 		.4byte	0x116
 13065 31c9 000E     		.2byte	0xe00
 13066 31cb 27       		.uleb128 0x27
 13067 31cc DF1B0000 		.4byte	.LASF682
 13068 31d0 31       		.byte	0x31
 13069 31d1 B4       		.byte	0xb4
 13070 31d2 A4320000 		.4byte	0x32a4
 13071 31d6 040E     		.2byte	0xe04
 13072 31d8 27       		.uleb128 0x27
ARM GAS  /tmp/ccZueut9.s 			page 236


 13073 31d9 3E0B0000 		.4byte	.LASF182
 13074 31dd 31       		.byte	0x31
 13075 31de B5       		.byte	0xb5
 13076 31df C0320000 		.4byte	0x32c0
 13077 31e3 0010     		.2byte	0x1000
 13078 31e5 00       		.byte	0
 13079 31e6 13       		.uleb128 0x13
 13080 31e7 16010000 		.4byte	0x116
 13081 31eb F6310000 		.4byte	0x31f6
 13082 31ef 14       		.uleb128 0x14
 13083 31f0 37000000 		.4byte	0x37
 13084 31f4 2F       		.byte	0x2f
 13085 31f5 00       		.byte	0
 13086 31f6 06       		.uleb128 0x6
 13087 31f7 E6310000 		.4byte	0x31e6
 13088 31fb 13       		.uleb128 0x13
 13089 31fc 16010000 		.4byte	0x116
 13090 3200 0B320000 		.4byte	0x320b
 13091 3204 14       		.uleb128 0x14
 13092 3205 37000000 		.4byte	0x37
 13093 3209 AF       		.byte	0xaf
 13094 320a 00       		.byte	0
 13095 320b 06       		.uleb128 0x6
 13096 320c FB310000 		.4byte	0x31fb
 13097 3210 13       		.uleb128 0x13
 13098 3211 16010000 		.4byte	0x116
 13099 3215 20320000 		.4byte	0x3220
 13100 3219 14       		.uleb128 0x14
 13101 321a 37000000 		.4byte	0x37
 13102 321e 08       		.byte	0x8
 13103 321f 00       		.byte	0
 13104 3220 06       		.uleb128 0x6
 13105 3221 10320000 		.4byte	0x3210
 13106 3225 13       		.uleb128 0x13
 13107 3226 16010000 		.4byte	0x116
 13108 322a 35320000 		.4byte	0x3235
 13109 322e 14       		.uleb128 0x14
 13110 322f 37000000 		.4byte	0x37
 13111 3233 2E       		.byte	0x2e
 13112 3234 00       		.byte	0
 13113 3235 06       		.uleb128 0x6
 13114 3236 25320000 		.4byte	0x3225
 13115 323a 13       		.uleb128 0x13
 13116 323b 162E0000 		.4byte	0x2e16
 13117 323f 4A320000 		.4byte	0x324a
 13118 3243 14       		.uleb128 0x14
 13119 3244 37000000 		.4byte	0x37
 13120 3248 0F       		.byte	0xf
 13121 3249 00       		.byte	0
 13122 324a 13       		.uleb128 0x13
 13123 324b 16010000 		.4byte	0x116
 13124 324f 5A320000 		.4byte	0x325a
 13125 3253 14       		.uleb128 0x14
 13126 3254 37000000 		.4byte	0x37
 13127 3258 3F       		.byte	0x3f
 13128 3259 00       		.byte	0
 13129 325a 06       		.uleb128 0x6
ARM GAS  /tmp/ccZueut9.s 			page 237


 13130 325b 4A320000 		.4byte	0x324a
 13131 325f 13       		.uleb128 0x13
 13132 3260 16010000 		.4byte	0x116
 13133 3264 6F320000 		.4byte	0x326f
 13134 3268 14       		.uleb128 0x14
 13135 3269 37000000 		.4byte	0x37
 13136 326d 0F       		.byte	0xf
 13137 326e 00       		.byte	0
 13138 326f 06       		.uleb128 0x6
 13139 3270 5F320000 		.4byte	0x325f
 13140 3274 13       		.uleb128 0x13
 13141 3275 8A2E0000 		.4byte	0x2e8a
 13142 3279 84320000 		.4byte	0x3284
 13143 327d 14       		.uleb128 0x14
 13144 327e 37000000 		.4byte	0x37
 13145 3282 0F       		.byte	0xf
 13146 3283 00       		.byte	0
 13147 3284 13       		.uleb128 0x13
 13148 3285 FE2E0000 		.4byte	0x2efe
 13149 3289 94320000 		.4byte	0x3294
 13150 328d 14       		.uleb128 0x14
 13151 328e 37000000 		.4byte	0x37
 13152 3292 0F       		.byte	0xf
 13153 3293 00       		.byte	0
 13154 3294 13       		.uleb128 0x13
 13155 3295 16010000 		.4byte	0x116
 13156 3299 A4320000 		.4byte	0x32a4
 13157 329d 14       		.uleb128 0x14
 13158 329e 37000000 		.4byte	0x37
 13159 32a2 7E       		.byte	0x7e
 13160 32a3 00       		.byte	0
 13161 32a4 06       		.uleb128 0x6
 13162 32a5 94320000 		.4byte	0x3294
 13163 32a9 13       		.uleb128 0x13
 13164 32aa 16010000 		.4byte	0x116
 13165 32ae C0320000 		.4byte	0x32c0
 13166 32b2 14       		.uleb128 0x14
 13167 32b3 37000000 		.4byte	0x37
 13168 32b7 0F       		.byte	0xf
 13169 32b8 2A       		.uleb128 0x2a
 13170 32b9 37000000 		.4byte	0x37
 13171 32bd FF03     		.2byte	0x3ff
 13172 32bf 00       		.byte	0
 13173 32c0 06       		.uleb128 0x6
 13174 32c1 A9320000 		.4byte	0x32a9
 13175 32c5 03       		.uleb128 0x3
 13176 32c6 BF2B0000 		.4byte	.LASF683
 13177 32ca 31       		.byte	0x31
 13178 32cb B6       		.byte	0xb6
 13179 32cc 092F0000 		.4byte	0x2f09
 13180 32d0 17       		.uleb128 0x17
 13181 32d1 0C       		.byte	0xc
 13182 32d2 30       		.byte	0x30
 13183 32d3 C6       		.byte	0xc6
 13184 32d4 FD320000 		.4byte	0x32fd
 13185 32d8 08       		.uleb128 0x8
 13186 32d9 C90A0000 		.4byte	.LASF684
ARM GAS  /tmp/ccZueut9.s 			page 238


 13187 32dd 30       		.byte	0x30
 13188 32de C7       		.byte	0xc7
 13189 32df 0B010000 		.4byte	0x10b
 13190 32e3 00       		.byte	0
 13191 32e4 08       		.uleb128 0x8
 13192 32e5 3D0D0000 		.4byte	.LASF685
 13193 32e9 30       		.byte	0x30
 13194 32ea C8       		.byte	0xc8
 13195 32eb 0B010000 		.4byte	0x10b
 13196 32ef 04       		.byte	0x4
 13197 32f0 08       		.uleb128 0x8
 13198 32f1 7F110000 		.4byte	.LASF686
 13199 32f5 30       		.byte	0x30
 13200 32f6 C9       		.byte	0xc9
 13201 32f7 0B010000 		.4byte	0x10b
 13202 32fb 08       		.byte	0x8
 13203 32fc 00       		.byte	0
 13204 32fd 03       		.uleb128 0x3
 13205 32fe 740D0000 		.4byte	.LASF687
 13206 3302 30       		.byte	0x30
 13207 3303 CA       		.byte	0xca
 13208 3304 D0320000 		.4byte	0x32d0
 13209 3308 05       		.uleb128 0x5
 13210 3309 FD320000 		.4byte	0x32fd
 13211 330d 17       		.uleb128 0x17
 13212 330e 04       		.byte	0x4
 13213 330f 30       		.byte	0x30
 13214 3310 DD       		.byte	0xdd
 13215 3311 22330000 		.4byte	0x3322
 13216 3315 08       		.uleb128 0x8
 13217 3316 97290000 		.4byte	.LASF688
 13218 331a 30       		.byte	0x30
 13219 331b E1       		.byte	0xe1
 13220 331c BD130000 		.4byte	0x13bd
 13221 3320 00       		.byte	0
 13222 3321 00       		.byte	0
 13223 3322 17       		.uleb128 0x17
 13224 3323 04       		.byte	0x4
 13225 3324 30       		.byte	0x30
 13226 3325 E3       		.byte	0xe3
 13227 3326 37330000 		.4byte	0x3337
 13228 332a 08       		.uleb128 0x8
 13229 332b 4D0B0000 		.4byte	.LASF373
 13230 332f 30       		.byte	0x30
 13231 3330 E7       		.byte	0xe7
 13232 3331 37330000 		.4byte	0x3337
 13233 3335 00       		.byte	0
 13234 3336 00       		.byte	0
 13235 3337 0B       		.uleb128 0xb
 13236 3338 04       		.byte	0x4
 13237 3339 99130000 		.4byte	0x1399
 13238 333d 1D       		.uleb128 0x1d
 13239 333e 04       		.byte	0x4
 13240 333f 30       		.byte	0x30
 13241 3340 DC       		.byte	0xdc
 13242 3341 5C330000 		.4byte	0x335c
 13243 3345 2B       		.uleb128 0x2b
ARM GAS  /tmp/ccZueut9.s 			page 239


 13244 3346 B6250000 		.4byte	.LASF689
 13245 334a 30       		.byte	0x30
 13246 334b E2       		.byte	0xe2
 13247 334c 0D330000 		.4byte	0x330d
 13248 3350 2B       		.uleb128 0x2b
 13249 3351 70240000 		.4byte	.LASF690
 13250 3355 30       		.byte	0x30
 13251 3356 E8       		.byte	0xe8
 13252 3357 22330000 		.4byte	0x3322
 13253 335b 00       		.byte	0
 13254 335c 17       		.uleb128 0x17
 13255 335d 14       		.byte	0x14
 13256 335e 30       		.byte	0x30
 13257 335f CF       		.byte	0xcf
 13258 3360 A1330000 		.4byte	0x33a1
 13259 3364 08       		.uleb128 0x8
 13260 3365 7C090000 		.4byte	.LASF691
 13261 3369 30       		.byte	0x30
 13262 336a D3       		.byte	0xd3
 13263 336b A4150000 		.4byte	0x15a4
 13264 336f 00       		.byte	0
 13265 3370 08       		.uleb128 0x8
 13266 3371 D0160000 		.4byte	.LASF692
 13267 3375 30       		.byte	0x30
 13268 3376 D7       		.byte	0xd7
 13269 3377 2C000000 		.4byte	0x2c
 13270 337b 04       		.byte	0x4
 13271 337c 08       		.uleb128 0x8
 13272 337d E40C0000 		.4byte	.LASF693
 13273 3381 30       		.byte	0x30
 13274 3382 DB       		.byte	0xdb
 13275 3383 2C000000 		.4byte	0x2c
 13276 3387 08       		.byte	0x8
 13277 3388 08       		.uleb128 0x8
 13278 3389 340A0000 		.4byte	.LASF419
 13279 338d 30       		.byte	0x30
 13280 338e E9       		.byte	0xe9
 13281 338f 3D330000 		.4byte	0x333d
 13282 3393 0C       		.byte	0xc
 13283 3394 08       		.uleb128 0x8
 13284 3395 97110000 		.4byte	.LASF694
 13285 3399 30       		.byte	0x30
 13286 339a ED       		.byte	0xed
 13287 339b 2C000000 		.4byte	0x2c
 13288 339f 10       		.byte	0x10
 13289 33a0 00       		.byte	0
 13290 33a1 03       		.uleb128 0x3
 13291 33a2 F1130000 		.4byte	.LASF695
 13292 33a6 30       		.byte	0x30
 13293 33a7 EE       		.byte	0xee
 13294 33a8 5C330000 		.4byte	0x335c
 13295 33ac 19       		.uleb128 0x19
 13296 33ad 04       		.byte	0x4
 13297 33ae 30       		.byte	0x30
 13298 33af 0101     		.2byte	0x101
 13299 33b1 C3330000 		.4byte	0x33c3
 13300 33b5 0A       		.uleb128 0xa
ARM GAS  /tmp/ccZueut9.s 			page 240


 13301 33b6 970D0000 		.4byte	.LASF696
 13302 33ba 30       		.byte	0x30
 13303 33bb 0501     		.2byte	0x105
 13304 33bd 88130000 		.4byte	0x1388
 13305 33c1 00       		.byte	0
 13306 33c2 00       		.byte	0
 13307 33c3 19       		.uleb128 0x19
 13308 33c4 04       		.byte	0x4
 13309 33c5 30       		.byte	0x30
 13310 33c6 0701     		.2byte	0x107
 13311 33c8 DA330000 		.4byte	0x33da
 13312 33cc 0A       		.uleb128 0xa
 13313 33cd 4A250000 		.4byte	.LASF374
 13314 33d1 30       		.byte	0x30
 13315 33d2 0B01     		.2byte	0x10b
 13316 33d4 DA330000 		.4byte	0x33da
 13317 33d8 00       		.byte	0
 13318 33d9 00       		.byte	0
 13319 33da 0B       		.uleb128 0xb
 13320 33db 04       		.byte	0x4
 13321 33dc 8E130000 		.4byte	0x138e
 13322 33e0 2C       		.uleb128 0x2c
 13323 33e1 04       		.byte	0x4
 13324 33e2 30       		.byte	0x30
 13325 33e3 0001     		.2byte	0x100
 13326 33e5 02340000 		.4byte	0x3402
 13327 33e9 1E       		.uleb128 0x1e
 13328 33ea B6250000 		.4byte	.LASF689
 13329 33ee 30       		.byte	0x30
 13330 33ef 0601     		.2byte	0x106
 13331 33f1 AC330000 		.4byte	0x33ac
 13332 33f5 1E       		.uleb128 0x1e
 13333 33f6 70240000 		.4byte	.LASF690
 13334 33fa 30       		.byte	0x30
 13335 33fb 0C01     		.2byte	0x10c
 13336 33fd C3330000 		.4byte	0x33c3
 13337 3401 00       		.byte	0
 13338 3402 17       		.uleb128 0x17
 13339 3403 14       		.byte	0x14
 13340 3404 30       		.byte	0x30
 13341 3405 F3       		.byte	0xf3
 13342 3406 49340000 		.4byte	0x3449
 13343 340a 08       		.uleb128 0x8
 13344 340b 77070000 		.4byte	.LASF697
 13345 340f 30       		.byte	0x30
 13346 3410 F7       		.byte	0xf7
 13347 3411 A4150000 		.4byte	0x15a4
 13348 3415 00       		.byte	0
 13349 3416 08       		.uleb128 0x8
 13350 3417 E2170000 		.4byte	.LASF698
 13351 341b 30       		.byte	0x30
 13352 341c FB       		.byte	0xfb
 13353 341d 2C000000 		.4byte	0x2c
 13354 3421 04       		.byte	0x4
 13355 3422 08       		.uleb128 0x8
 13356 3423 0F0A0000 		.4byte	.LASF699
 13357 3427 30       		.byte	0x30
ARM GAS  /tmp/ccZueut9.s 			page 241


 13358 3428 FF       		.byte	0xff
 13359 3429 2C000000 		.4byte	0x2c
 13360 342d 08       		.byte	0x8
 13361 342e 0A       		.uleb128 0xa
 13362 342f 340A0000 		.4byte	.LASF419
 13363 3433 30       		.byte	0x30
 13364 3434 0D01     		.2byte	0x10d
 13365 3436 E0330000 		.4byte	0x33e0
 13366 343a 0C       		.byte	0xc
 13367 343b 0A       		.uleb128 0xa
 13368 343c 97110000 		.4byte	.LASF694
 13369 3440 30       		.byte	0x30
 13370 3441 1101     		.2byte	0x111
 13371 3443 2C000000 		.4byte	0x2c
 13372 3447 10       		.byte	0x10
 13373 3448 00       		.byte	0
 13374 3449 1A       		.uleb128 0x1a
 13375 344a 2F230000 		.4byte	.LASF700
 13376 344e 30       		.byte	0x30
 13377 344f 1201     		.2byte	0x112
 13378 3451 02340000 		.4byte	0x3402
 13379 3455 19       		.uleb128 0x19
 13380 3456 24       		.byte	0x24
 13381 3457 30       		.byte	0x30
 13382 3458 1801     		.2byte	0x118
 13383 345a E1340000 		.4byte	0x34e1
 13384 345e 0A       		.uleb128 0xa
 13385 345f A51B0000 		.4byte	.LASF701
 13386 3463 30       		.byte	0x30
 13387 3464 1C01     		.2byte	0x11c
 13388 3466 0B010000 		.4byte	0x10b
 13389 346a 00       		.byte	0
 13390 346b 0A       		.uleb128 0xa
 13391 346c 1F0B0000 		.4byte	.LASF702
 13392 3470 30       		.byte	0x30
 13393 3471 2701     		.2byte	0x127
 13394 3473 122D0000 		.4byte	0x2d12
 13395 3477 04       		.byte	0x4
 13396 3478 0A       		.uleb128 0xa
 13397 3479 C91C0000 		.4byte	.LASF703
 13398 347d 30       		.byte	0x30
 13399 347e 2D01     		.2byte	0x12d
 13400 3480 122D0000 		.4byte	0x2d12
 13401 3484 08       		.byte	0x8
 13402 3485 0A       		.uleb128 0xa
 13403 3486 3B0E0000 		.4byte	.LASF704
 13404 348a 30       		.byte	0x30
 13405 348b 3301     		.2byte	0x133
 13406 348d 122D0000 		.4byte	0x2d12
 13407 3491 0C       		.byte	0xc
 13408 3492 0A       		.uleb128 0xa
 13409 3493 0C2C0000 		.4byte	.LASF705
 13410 3497 30       		.byte	0x30
 13411 3498 3901     		.2byte	0x139
 13412 349a F0000000 		.4byte	0xf0
 13413 349e 10       		.byte	0x10
 13414 349f 0A       		.uleb128 0xa
ARM GAS  /tmp/ccZueut9.s 			page 242


 13415 34a0 A10E0000 		.4byte	.LASF706
 13416 34a4 30       		.byte	0x30
 13417 34a5 3F01     		.2byte	0x13f
 13418 34a7 F0000000 		.4byte	0xf0
 13419 34ab 12       		.byte	0x12
 13420 34ac 0A       		.uleb128 0xa
 13421 34ad 8E2A0000 		.4byte	.LASF707
 13422 34b1 30       		.byte	0x30
 13423 34b2 4401     		.2byte	0x144
 13424 34b4 E1340000 		.4byte	0x34e1
 13425 34b8 14       		.byte	0x14
 13426 34b9 0A       		.uleb128 0xa
 13427 34ba 66100000 		.4byte	.LASF708
 13428 34be 30       		.byte	0x30
 13429 34bf 4901     		.2byte	0x149
 13430 34c1 E7340000 		.4byte	0x34e7
 13431 34c5 18       		.byte	0x18
 13432 34c6 0A       		.uleb128 0xa
 13433 34c7 08160000 		.4byte	.LASF709
 13434 34cb 30       		.byte	0x30
 13435 34cc 5001     		.2byte	0x150
 13436 34ce F0000000 		.4byte	0xf0
 13437 34d2 1C       		.byte	0x1c
 13438 34d3 0A       		.uleb128 0xa
 13439 34d4 DD290000 		.4byte	.LASF710
 13440 34d8 30       		.byte	0x30
 13441 34d9 5601     		.2byte	0x156
 13442 34db 88130000 		.4byte	0x1388
 13443 34df 20       		.byte	0x20
 13444 34e0 00       		.byte	0
 13445 34e1 0B       		.uleb128 0xb
 13446 34e2 04       		.byte	0x4
 13447 34e3 A1330000 		.4byte	0x33a1
 13448 34e7 0B       		.uleb128 0xb
 13449 34e8 04       		.byte	0x4
 13450 34e9 49340000 		.4byte	0x3449
 13451 34ed 1A       		.uleb128 0x1a
 13452 34ee 1A250000 		.4byte	.LASF711
 13453 34f2 30       		.byte	0x30
 13454 34f3 5701     		.2byte	0x157
 13455 34f5 55340000 		.4byte	0x3455
 13456 34f9 05       		.uleb128 0x5
 13457 34fa ED340000 		.4byte	0x34ed
 13458 34fe 19       		.uleb128 0x19
 13459 34ff 10       		.byte	0x10
 13460 3500 30       		.byte	0x30
 13461 3501 5C01     		.2byte	0x15c
 13462 3503 3C350000 		.4byte	0x353c
 13463 3507 0A       		.uleb128 0xa
 13464 3508 45060000 		.4byte	.LASF712
 13465 350c 30       		.byte	0x30
 13466 350d 6101     		.2byte	0x161
 13467 350f 342D0000 		.4byte	0x2d34
 13468 3513 00       		.byte	0
 13469 3514 0A       		.uleb128 0xa
 13470 3515 11290000 		.4byte	.LASF713
 13471 3519 30       		.byte	0x30
ARM GAS  /tmp/ccZueut9.s 			page 243


 13472 351a 6601     		.2byte	0x166
 13473 351c 772D0000 		.4byte	0x2d77
 13474 3520 04       		.byte	0x4
 13475 3521 0A       		.uleb128 0xa
 13476 3522 A2160000 		.4byte	.LASF714
 13477 3526 30       		.byte	0x30
 13478 3527 6C01     		.2byte	0x16c
 13479 3529 562D0000 		.4byte	0x2d56
 13480 352d 08       		.byte	0x8
 13481 352e 0A       		.uleb128 0xa
 13482 352f E4020000 		.4byte	.LASF715
 13483 3533 30       		.byte	0x30
 13484 3534 7001     		.2byte	0x170
 13485 3536 EF2C0000 		.4byte	0x2cef
 13486 353a 0C       		.byte	0xc
 13487 353b 00       		.byte	0
 13488 353c 1A       		.uleb128 0x1a
 13489 353d 87150000 		.4byte	.LASF716
 13490 3541 30       		.byte	0x30
 13491 3542 7201     		.2byte	0x172
 13492 3544 FE340000 		.4byte	0x34fe
 13493 3548 05       		.uleb128 0x5
 13494 3549 3C350000 		.4byte	0x353c
 13495 354d 0B       		.uleb128 0xb
 13496 354e 04       		.byte	0x4
 13497 354f 48350000 		.4byte	0x3548
 13498 3553 13       		.uleb128 0x13
 13499 3554 63350000 		.4byte	0x3563
 13500 3558 63350000 		.4byte	0x3563
 13501 355c 14       		.uleb128 0x14
 13502 355d 37000000 		.4byte	0x37
 13503 3561 03       		.byte	0x3
 13504 3562 00       		.byte	0
 13505 3563 0B       		.uleb128 0xb
 13506 3564 04       		.byte	0x4
 13507 3565 F9340000 		.4byte	0x34f9
 13508 3569 13       		.uleb128 0x13
 13509 356a D0030000 		.4byte	0x3d0
 13510 356e 79350000 		.4byte	0x3579
 13511 3572 14       		.uleb128 0x14
 13512 3573 37000000 		.4byte	0x37
 13513 3577 02       		.byte	0x2
 13514 3578 00       		.byte	0
 13515 3579 0B       		.uleb128 0xb
 13516 357a 04       		.byte	0x4
 13517 357b C5320000 		.4byte	0x32c5
 13518 357f 0B       		.uleb128 0xb
 13519 3580 04       		.byte	0x4
 13520 3581 08330000 		.4byte	0x3308
 13521 3585 13       		.uleb128 0x13
 13522 3586 940D0000 		.4byte	0xd94
 13523 358a 95350000 		.4byte	0x3595
 13524 358e 14       		.uleb128 0x14
 13525 358f 37000000 		.4byte	0x37
 13526 3593 3E       		.byte	0x3e
 13527 3594 00       		.byte	0
 13528 3595 15       		.uleb128 0x15
ARM GAS  /tmp/ccZueut9.s 			page 244


 13529 3596 18010000 		.4byte	.LASF717
 13530 359a 30       		.byte	0x30
 13531 359b 0602     		.2byte	0x206
 13532 359d BB2A0000 		.4byte	0x2abb
 13533 35a1 21       		.uleb128 0x21
 13534 35a2 07       		.byte	0x7
 13535 35a3 01       		.byte	0x1
 13536 35a4 69000000 		.4byte	0x69
 13537 35a8 32       		.byte	0x32
 13538 35a9 97       		.byte	0x97
 13539 35aa C1350000 		.4byte	0x35c1
 13540 35ae 22       		.uleb128 0x22
 13541 35af D50D0000 		.4byte	.LASF718
 13542 35b3 00       		.byte	0
 13543 35b4 22       		.uleb128 0x22
 13544 35b5 151E0000 		.4byte	.LASF719
 13545 35b9 01       		.byte	0x1
 13546 35ba 22       		.uleb128 0x22
 13547 35bb 21090000 		.4byte	.LASF720
 13548 35bf 02       		.byte	0x2
 13549 35c0 00       		.byte	0
 13550 35c1 03       		.uleb128 0x3
 13551 35c2 67080000 		.4byte	.LASF721
 13552 35c6 32       		.byte	0x32
 13553 35c7 9B       		.byte	0x9b
 13554 35c8 A1350000 		.4byte	0x35a1
 13555 35cc 03       		.uleb128 0x3
 13556 35cd 44030000 		.4byte	.LASF722
 13557 35d1 32       		.byte	0x32
 13558 35d2 A0       		.byte	0xa0
 13559 35d3 D7350000 		.4byte	0x35d7
 13560 35d7 26       		.uleb128 0x26
 13561 35d8 44030000 		.4byte	.LASF722
 13562 35dc 5802     		.2byte	0x258
 13563 35de 32       		.byte	0x32
 13564 35df E5       		.byte	0xe5
 13565 35e0 45360000 		.4byte	0x3645
 13566 35e4 18       		.uleb128 0x18
 13567 35e5 766D7400 		.ascii	"vmt\000"
 13568 35e9 32       		.byte	0x32
 13569 35ea E7       		.byte	0xe7
 13570 35eb 00370000 		.4byte	0x3700
 13571 35ef 00       		.byte	0
 13572 35f0 08       		.uleb128 0x8
 13573 35f1 47000000 		.4byte	.LASF518
 13574 35f5 32       		.byte	0x32
 13575 35f6 E8       		.byte	0xe8
 13576 35f7 E3120000 		.4byte	0x12e3
 13577 35fb 04       		.byte	0x4
 13578 35fc 08       		.uleb128 0x8
 13579 35fd 231A0000 		.4byte	.LASF340
 13580 3601 32       		.byte	0x32
 13581 3602 E8       		.byte	0xe8
 13582 3603 C1350000 		.4byte	0x35c1
 13583 3607 08       		.byte	0x8
 13584 3608 08       		.uleb128 0x8
 13585 3609 C21C0000 		.4byte	.LASF519
ARM GAS  /tmp/ccZueut9.s 			page 245


 13586 360d 32       		.byte	0x32
 13587 360e E8       		.byte	0xe8
 13588 360f 8E130000 		.4byte	0x138e
 13589 3613 0C       		.byte	0xc
 13590 3614 08       		.uleb128 0x8
 13591 3615 BD150000 		.4byte	.LASF520
 13592 3619 32       		.byte	0x32
 13593 361a E8       		.byte	0xe8
 13594 361b 99130000 		.4byte	0x1399
 13595 361f 30       		.byte	0x30
 13596 3620 18       		.uleb128 0x18
 13597 3621 696200   		.ascii	"ib\000"
 13598 3624 32       		.byte	0x32
 13599 3625 E8       		.byte	0xe8
 13600 3626 06370000 		.4byte	0x3706
 13601 362a 54       		.byte	0x54
 13602 362b 29       		.uleb128 0x29
 13603 362c 6F6200   		.ascii	"ob\000"
 13604 362f 32       		.byte	0x32
 13605 3630 E8       		.byte	0xe8
 13606 3631 06370000 		.4byte	0x3706
 13607 3635 5401     		.2byte	0x154
 13608 3637 27       		.uleb128 0x27
 13609 3638 BE210000 		.4byte	.LASF341
 13610 363c 32       		.byte	0x32
 13611 363d E8       		.byte	0xe8
 13612 363e 16370000 		.4byte	0x3716
 13613 3642 5402     		.2byte	0x254
 13614 3644 00       		.byte	0
 13615 3645 17       		.uleb128 0x17
 13616 3646 08       		.byte	0x8
 13617 3647 32       		.byte	0x32
 13618 3648 A7       		.byte	0xa7
 13619 3649 7E360000 		.4byte	0x367e
 13620 364d 08       		.uleb128 0x8
 13621 364e 57280000 		.4byte	.LASF723
 13622 3652 32       		.byte	0x32
 13623 3653 AB       		.byte	0xab
 13624 3654 0C2D0000 		.4byte	0x2d0c
 13625 3658 00       		.byte	0
 13626 3659 08       		.uleb128 0x8
 13627 365a 82130000 		.4byte	.LASF724
 13628 365e 32       		.byte	0x32
 13629 365f AF       		.byte	0xaf
 13630 3660 F22B0000 		.4byte	0x2bf2
 13631 3664 04       		.byte	0x4
 13632 3665 08       		.uleb128 0x8
 13633 3666 63060000 		.4byte	.LASF725
 13634 366a 32       		.byte	0x32
 13635 366b B3       		.byte	0xb3
 13636 366c F22B0000 		.4byte	0x2bf2
 13637 3670 05       		.byte	0x5
 13638 3671 08       		.uleb128 0x8
 13639 3672 DB140000 		.4byte	.LASF726
 13640 3676 32       		.byte	0x32
 13641 3677 B9       		.byte	0xb9
 13642 3678 F22B0000 		.4byte	0x2bf2
ARM GAS  /tmp/ccZueut9.s 			page 246


 13643 367c 06       		.byte	0x6
 13644 367d 00       		.byte	0
 13645 367e 03       		.uleb128 0x3
 13646 367f E3220000 		.4byte	.LASF727
 13647 3683 32       		.byte	0x32
 13648 3684 BA       		.byte	0xba
 13649 3685 45360000 		.4byte	0x3645
 13650 3689 05       		.uleb128 0x5
 13651 368a 7E360000 		.4byte	0x367e
 13652 368e 07       		.uleb128 0x7
 13653 368f 371B0000 		.4byte	.LASF728
 13654 3693 20       		.byte	0x20
 13655 3694 32       		.byte	0x32
 13656 3695 DA       		.byte	0xda
 13657 3696 FB360000 		.4byte	0x36fb
 13658 369a 08       		.uleb128 0x8
 13659 369b B11C0000 		.4byte	.LASF523
 13660 369f 32       		.byte	0x32
 13661 36a0 DB       		.byte	0xdb
 13662 36a1 C3130000 		.4byte	0x13c3
 13663 36a5 00       		.byte	0
 13664 36a6 08       		.uleb128 0x8
 13665 36a7 2C060000 		.4byte	.LASF524
 13666 36ab 32       		.byte	0x32
 13667 36ac DB       		.byte	0xdb
 13668 36ad E2130000 		.4byte	0x13e2
 13669 36b1 04       		.byte	0x4
 13670 36b2 18       		.uleb128 0x18
 13671 36b3 70757400 		.ascii	"put\000"
 13672 36b7 32       		.byte	0x32
 13673 36b8 DB       		.byte	0xdb
 13674 36b9 FC130000 		.4byte	0x13fc
 13675 36bd 08       		.byte	0x8
 13676 36be 18       		.uleb128 0x18
 13677 36bf 67657400 		.ascii	"get\000"
 13678 36c3 32       		.byte	0x32
 13679 36c4 DB       		.byte	0xdb
 13680 36c5 11140000 		.4byte	0x1411
 13681 36c9 0C       		.byte	0xc
 13682 36ca 08       		.uleb128 0x8
 13683 36cb 29180000 		.4byte	.LASF525
 13684 36cf 32       		.byte	0x32
 13685 36d0 DB       		.byte	0xdb
 13686 36d1 B2140000 		.4byte	0x14b2
 13687 36d5 10       		.byte	0x10
 13688 36d6 08       		.uleb128 0x8
 13689 36d7 881C0000 		.4byte	.LASF526
 13690 36db 32       		.byte	0x32
 13691 36dc DB       		.byte	0xdb
 13692 36dd CC140000 		.4byte	0x14cc
 13693 36e1 14       		.byte	0x14
 13694 36e2 08       		.uleb128 0x8
 13695 36e3 71280000 		.4byte	.LASF527
 13696 36e7 32       		.byte	0x32
 13697 36e8 DB       		.byte	0xdb
 13698 36e9 F0140000 		.4byte	0x14f0
 13699 36ed 18       		.byte	0x18
ARM GAS  /tmp/ccZueut9.s 			page 247


 13700 36ee 08       		.uleb128 0x8
 13701 36ef 5F170000 		.4byte	.LASF528
 13702 36f3 32       		.byte	0x32
 13703 36f4 DB       		.byte	0xdb
 13704 36f5 14150000 		.4byte	0x1514
 13705 36f9 1C       		.byte	0x1c
 13706 36fa 00       		.byte	0
 13707 36fb 05       		.uleb128 0x5
 13708 36fc 8E360000 		.4byte	0x368e
 13709 3700 0B       		.uleb128 0xb
 13710 3701 04       		.byte	0x4
 13711 3702 FB360000 		.4byte	0x36fb
 13712 3706 13       		.uleb128 0x13
 13713 3707 D5000000 		.4byte	0xd5
 13714 370b 16370000 		.4byte	0x3716
 13715 370f 14       		.uleb128 0x14
 13716 3710 37000000 		.4byte	0x37
 13717 3714 FF       		.byte	0xff
 13718 3715 00       		.byte	0
 13719 3716 0B       		.uleb128 0xb
 13720 3717 04       		.byte	0x4
 13721 3718 89360000 		.4byte	0x3689
 13722 371c 16       		.uleb128 0x16
 13723 371d C20A0000 		.4byte	.LASF729
 13724 3721 33       		.byte	0x33
 13725 3722 14       		.byte	0x14
 13726 3723 48350000 		.4byte	0x3548
 13727 3727 16       		.uleb128 0x16
 13728 3728 FB0D0000 		.4byte	.LASF730
 13729 372c 33       		.byte	0x33
 13730 372d 15       		.byte	0x15
 13731 372e 7E360000 		.4byte	0x367e
 13732 3732 16       		.uleb128 0x16
 13733 3733 4E140000 		.4byte	.LASF731
 13734 3737 33       		.byte	0x33
 13735 3738 16       		.byte	0x16
 13736 3739 CC350000 		.4byte	0x35cc
 13737 373d 03       		.uleb128 0x3
 13738 373e 2B090000 		.4byte	.LASF732
 13739 3742 34       		.byte	0x34
 13740 3743 22       		.byte	0x22
 13741 3744 48370000 		.4byte	0x3748
 13742 3748 0B       		.uleb128 0xb
 13743 3749 04       		.byte	0x4
 13744 374a 4E370000 		.4byte	0x374e
 13745 374e 2D       		.uleb128 0x2d
 13746 374f 2E070000 		.4byte	.LASF862
 13747 3753 03       		.uleb128 0x3
 13748 3754 420F0000 		.4byte	.LASF733
 13749 3758 35       		.byte	0x35
 13750 3759 2C       		.byte	0x2c
 13751 375a 9F000000 		.4byte	0x9f
 13752 375e 03       		.uleb128 0x3
 13753 375f 92220000 		.4byte	.LASF734
 13754 3763 35       		.byte	0x35
 13755 3764 72       		.byte	0x72
 13756 3765 9F000000 		.4byte	0x9f
ARM GAS  /tmp/ccZueut9.s 			page 248


 13757 3769 1A       		.uleb128 0x1a
 13758 376a 61110000 		.4byte	.LASF735
 13759 376e 02       		.byte	0x2
 13760 376f 6501     		.2byte	0x165
 13761 3771 37000000 		.4byte	0x37
 13762 3775 1D       		.uleb128 0x1d
 13763 3776 04       		.byte	0x4
 13764 3777 35       		.byte	0x35
 13765 3778 A6       		.byte	0xa6
 13766 3779 94370000 		.4byte	0x3794
 13767 377d 2B       		.uleb128 0x2b
 13768 377e 031B0000 		.4byte	.LASF736
 13769 3782 35       		.byte	0x35
 13770 3783 A8       		.byte	0xa8
 13771 3784 69370000 		.4byte	0x3769
 13772 3788 2B       		.uleb128 0x2b
 13773 3789 10110000 		.4byte	.LASF737
 13774 378d 35       		.byte	0x35
 13775 378e A9       		.byte	0xa9
 13776 378f 94370000 		.4byte	0x3794
 13777 3793 00       		.byte	0
 13778 3794 13       		.uleb128 0x13
 13779 3795 69000000 		.4byte	0x69
 13780 3799 A4370000 		.4byte	0x37a4
 13781 379d 14       		.uleb128 0x14
 13782 379e 37000000 		.4byte	0x37
 13783 37a2 03       		.byte	0x3
 13784 37a3 00       		.byte	0
 13785 37a4 17       		.uleb128 0x17
 13786 37a5 08       		.byte	0x8
 13787 37a6 35       		.byte	0x35
 13788 37a7 A3       		.byte	0xa3
 13789 37a8 C5370000 		.4byte	0x37c5
 13790 37ac 08       		.uleb128 0x8
 13791 37ad 9B0F0000 		.4byte	.LASF738
 13792 37b1 35       		.byte	0x35
 13793 37b2 A5       		.byte	0xa5
 13794 37b3 25000000 		.4byte	0x25
 13795 37b7 00       		.byte	0
 13796 37b8 08       		.uleb128 0x8
 13797 37b9 091B0000 		.4byte	.LASF739
 13798 37bd 35       		.byte	0x35
 13799 37be AA       		.byte	0xaa
 13800 37bf 75370000 		.4byte	0x3775
 13801 37c3 04       		.byte	0x4
 13802 37c4 00       		.byte	0
 13803 37c5 03       		.uleb128 0x3
 13804 37c6 65230000 		.4byte	.LASF740
 13805 37ca 35       		.byte	0x35
 13806 37cb AB       		.byte	0xab
 13807 37cc A4370000 		.4byte	0x37a4
 13808 37d0 03       		.uleb128 0x3
 13809 37d1 E8270000 		.4byte	.LASF741
 13810 37d5 35       		.byte	0x35
 13811 37d6 AF       		.byte	0xaf
 13812 37d7 3D370000 		.4byte	0x373d
 13813 37db 0B       		.uleb128 0xb
ARM GAS  /tmp/ccZueut9.s 			page 249


 13814 37dc 04       		.byte	0x4
 13815 37dd 20110000 		.4byte	0x1120
 13816 37e1 16       		.uleb128 0x16
 13817 37e2 DD100000 		.4byte	.LASF742
 13818 37e6 36       		.byte	0x36
 13819 37e7 10       		.byte	0x10
 13820 37e8 EC370000 		.4byte	0x37ec
 13821 37ec 0B       		.uleb128 0xb
 13822 37ed 04       		.byte	0x4
 13823 37ee DB370000 		.4byte	0x37db
 13824 37f2 16       		.uleb128 0x16
 13825 37f3 72080000 		.4byte	.LASF743
 13826 37f7 36       		.byte	0x36
 13827 37f8 E8       		.byte	0xe8
 13828 37f9 DB370000 		.4byte	0x37db
 13829 37fd 16       		.uleb128 0x16
 13830 37fe 5C280000 		.4byte	.LASF744
 13831 3802 36       		.byte	0x36
 13832 3803 E9       		.byte	0xe9
 13833 3804 25000000 		.4byte	0x25
 13834 3808 16       		.uleb128 0x16
 13835 3809 8F1A0000 		.4byte	.LASF745
 13836 380d 36       		.byte	0x36
 13837 380e E9       		.byte	0xe9
 13838 380f 25000000 		.4byte	0x25
 13839 3813 16       		.uleb128 0x16
 13840 3814 22180000 		.4byte	.LASF746
 13841 3818 36       		.byte	0x36
 13842 3819 E9       		.byte	0xe9
 13843 381a 25000000 		.4byte	0x25
 13844 381e 16       		.uleb128 0x16
 13845 381f F4090000 		.4byte	.LASF747
 13846 3823 36       		.byte	0x36
 13847 3824 EB       		.byte	0xeb
 13848 3825 25000000 		.4byte	0x25
 13849 3829 07       		.uleb128 0x7
 13850 382a 58130000 		.4byte	.LASF748
 13851 382e 5C       		.byte	0x5c
 13852 382f 37       		.byte	0x37
 13853 3830 0C       		.byte	0xc
 13854 3831 96380000 		.4byte	0x3896
 13855 3835 08       		.uleb128 0x8
 13856 3836 29210000 		.4byte	.LASF749
 13857 383a 37       		.byte	0x37
 13858 383b 0D       		.byte	0xd
 13859 383c D0030000 		.4byte	0x3d0
 13860 3840 00       		.byte	0
 13861 3841 08       		.uleb128 0x8
 13862 3842 241D0000 		.4byte	.LASF750
 13863 3846 37       		.byte	0x37
 13864 3847 0E       		.byte	0xe
 13865 3848 2C000000 		.4byte	0x2c
 13866 384c 04       		.byte	0x4
 13867 384d 08       		.uleb128 0x8
 13868 384e 890C0000 		.4byte	.LASF751
 13869 3852 37       		.byte	0x37
 13870 3853 0F       		.byte	0xf
ARM GAS  /tmp/ccZueut9.s 			page 250


 13871 3854 D0030000 		.4byte	0x3d0
 13872 3858 08       		.byte	0x8
 13873 3859 08       		.uleb128 0x8
 13874 385a 2E080000 		.4byte	.LASF752
 13875 385e 37       		.byte	0x37
 13876 385f 10       		.byte	0x10
 13877 3860 D0030000 		.4byte	0x3d0
 13878 3864 0C       		.byte	0xc
 13879 3865 08       		.uleb128 0x8
 13880 3866 E3270000 		.4byte	.LASF753
 13881 386a 37       		.byte	0x37
 13882 386b 11       		.byte	0x11
 13883 386c 96380000 		.4byte	0x3896
 13884 3870 10       		.byte	0x10
 13885 3871 08       		.uleb128 0x8
 13886 3872 D8010000 		.4byte	.LASF754
 13887 3876 37       		.byte	0x37
 13888 3877 12       		.byte	0x12
 13889 3878 A4150000 		.4byte	0x15a4
 13890 387c 51       		.byte	0x51
 13891 387d 08       		.uleb128 0x8
 13892 387e D5240000 		.4byte	.LASF755
 13893 3882 37       		.byte	0x37
 13894 3883 13       		.byte	0x13
 13895 3884 CB380000 		.4byte	0x38cb
 13896 3888 54       		.byte	0x54
 13897 3889 08       		.uleb128 0x8
 13898 388a FD020000 		.4byte	.LASF756
 13899 388e 37       		.byte	0x37
 13900 388f 14       		.byte	0x14
 13901 3890 D1380000 		.4byte	0x38d1
 13902 3894 58       		.byte	0x58
 13903 3895 00       		.byte	0
 13904 3896 13       		.uleb128 0x13
 13905 3897 20110000 		.4byte	0x1120
 13906 389b A6380000 		.4byte	0x38a6
 13907 389f 14       		.uleb128 0x14
 13908 38a0 37000000 		.4byte	0x37
 13909 38a4 40       		.byte	0x40
 13910 38a5 00       		.byte	0
 13911 38a6 07       		.uleb128 0x7
 13912 38a7 32000000 		.4byte	.LASF757
 13913 38ab 08       		.byte	0x8
 13914 38ac 37       		.byte	0x37
 13915 38ad 25       		.byte	0x25
 13916 38ae CB380000 		.4byte	0x38cb
 13917 38b2 08       		.uleb128 0x8
 13918 38b3 AF230000 		.4byte	.LASF758
 13919 38b7 37       		.byte	0x37
 13920 38b8 26       		.byte	0x26
 13921 38b9 71390000 		.4byte	0x3971
 13922 38bd 00       		.byte	0
 13923 38be 08       		.uleb128 0x8
 13924 38bf FD020000 		.4byte	.LASF756
 13925 38c3 37       		.byte	0x37
 13926 38c4 27       		.byte	0x27
 13927 38c5 CB380000 		.4byte	0x38cb
ARM GAS  /tmp/ccZueut9.s 			page 251


 13928 38c9 04       		.byte	0x4
 13929 38ca 00       		.byte	0
 13930 38cb 0B       		.uleb128 0xb
 13931 38cc 04       		.byte	0x4
 13932 38cd A6380000 		.4byte	0x38a6
 13933 38d1 0B       		.uleb128 0xb
 13934 38d2 04       		.byte	0x4
 13935 38d3 29380000 		.4byte	0x3829
 13936 38d7 03       		.uleb128 0x3
 13937 38d8 2F1C0000 		.4byte	.LASF759
 13938 38dc 37       		.byte	0x37
 13939 38dd 15       		.byte	0x15
 13940 38de 29380000 		.4byte	0x3829
 13941 38e2 17       		.uleb128 0x17
 13942 38e3 04       		.byte	0x4
 13943 38e4 37       		.byte	0x37
 13944 38e5 18       		.byte	0x18
 13945 38e6 F7380000 		.4byte	0x38f7
 13946 38ea 08       		.uleb128 0x8
 13947 38eb 1C0C0000 		.4byte	.LASF760
 13948 38ef 37       		.byte	0x37
 13949 38f0 19       		.byte	0x19
 13950 38f1 F7380000 		.4byte	0x38f7
 13951 38f5 00       		.byte	0
 13952 38f6 00       		.byte	0
 13953 38f7 0B       		.uleb128 0xb
 13954 38f8 04       		.byte	0x4
 13955 38f9 D7380000 		.4byte	0x38d7
 13956 38fd 17       		.uleb128 0x17
 13957 38fe 0C       		.byte	0xc
 13958 38ff 37       		.byte	0x37
 13959 3900 17       		.byte	0x17
 13960 3901 2A390000 		.4byte	0x392a
 13961 3905 08       		.uleb128 0x8
 13962 3906 43260000 		.4byte	.LASF761
 13963 390a 37       		.byte	0x37
 13964 390b 1A       		.byte	0x1a
 13965 390c E2380000 		.4byte	0x38e2
 13966 3910 00       		.byte	0
 13967 3911 08       		.uleb128 0x8
 13968 3912 890C0000 		.4byte	.LASF751
 13969 3916 37       		.byte	0x37
 13970 3917 1B       		.byte	0x1b
 13971 3918 D0030000 		.4byte	0x3d0
 13972 391c 04       		.byte	0x4
 13973 391d 08       		.uleb128 0x8
 13974 391e 2E080000 		.4byte	.LASF752
 13975 3922 37       		.byte	0x37
 13976 3923 1C       		.byte	0x1c
 13977 3924 D0030000 		.4byte	0x3d0
 13978 3928 08       		.byte	0x8
 13979 3929 00       		.byte	0
 13980 392a 03       		.uleb128 0x3
 13981 392b 2B130000 		.4byte	.LASF762
 13982 392f 37       		.byte	0x37
 13983 3930 1D       		.byte	0x1d
 13984 3931 FD380000 		.4byte	0x38fd
ARM GAS  /tmp/ccZueut9.s 			page 252


 13985 3935 07       		.uleb128 0x7
 13986 3936 931E0000 		.4byte	.LASF763
 13987 393a 0C       		.byte	0xc
 13988 393b 37       		.byte	0x37
 13989 393c 1F       		.byte	0x1f
 13990 393d 66390000 		.4byte	0x3966
 13991 3941 08       		.uleb128 0x8
 13992 3942 890C0000 		.4byte	.LASF751
 13993 3946 37       		.byte	0x37
 13994 3947 20       		.byte	0x20
 13995 3948 D0030000 		.4byte	0x3d0
 13996 394c 00       		.byte	0
 13997 394d 08       		.uleb128 0x8
 13998 394e 2E080000 		.4byte	.LASF752
 13999 3952 37       		.byte	0x37
 14000 3953 21       		.byte	0x21
 14001 3954 D0030000 		.4byte	0x3d0
 14002 3958 04       		.byte	0x4
 14003 3959 08       		.uleb128 0x8
 14004 395a C5050000 		.4byte	.LASF764
 14005 395e 37       		.byte	0x37
 14006 395f 22       		.byte	0x22
 14007 3960 F7380000 		.4byte	0x38f7
 14008 3964 08       		.byte	0x8
 14009 3965 00       		.byte	0
 14010 3966 03       		.uleb128 0x3
 14011 3967 B2200000 		.4byte	.LASF765
 14012 396b 37       		.byte	0x37
 14013 396c 23       		.byte	0x23
 14014 396d 35390000 		.4byte	0x3935
 14015 3971 0B       		.uleb128 0xb
 14016 3972 04       		.byte	0x4
 14017 3973 66390000 		.4byte	0x3966
 14018 3977 03       		.uleb128 0x3
 14019 3978 98170000 		.4byte	.LASF766
 14020 397c 38       		.byte	0x38
 14021 397d 16       		.byte	0x16
 14022 397e B1000000 		.4byte	0xb1
 14023 3982 07       		.uleb128 0x7
 14024 3983 861F0000 		.4byte	.LASF767
 14025 3987 18       		.byte	0x18
 14026 3988 38       		.byte	0x38
 14027 3989 2F       		.byte	0x2f
 14028 398a D5390000 		.4byte	0x39d5
 14029 398e 08       		.uleb128 0x8
 14030 398f 48140000 		.4byte	.LASF768
 14031 3993 38       		.byte	0x38
 14032 3994 31       		.byte	0x31
 14033 3995 D5390000 		.4byte	0x39d5
 14034 3999 00       		.byte	0
 14035 399a 18       		.uleb128 0x18
 14036 399b 5F6B00   		.ascii	"_k\000"
 14037 399e 38       		.byte	0x38
 14038 399f 32       		.byte	0x32
 14039 39a0 25000000 		.4byte	0x25
 14040 39a4 04       		.byte	0x4
 14041 39a5 08       		.uleb128 0x8
ARM GAS  /tmp/ccZueut9.s 			page 253


 14042 39a6 0B1D0000 		.4byte	.LASF769
 14043 39aa 38       		.byte	0x38
 14044 39ab 32       		.byte	0x32
 14045 39ac 25000000 		.4byte	0x25
 14046 39b0 08       		.byte	0x8
 14047 39b1 08       		.uleb128 0x8
 14048 39b2 2F1D0000 		.4byte	.LASF770
 14049 39b6 38       		.byte	0x38
 14050 39b7 32       		.byte	0x32
 14051 39b8 25000000 		.4byte	0x25
 14052 39bc 0C       		.byte	0xc
 14053 39bd 08       		.uleb128 0x8
 14054 39be B70B0000 		.4byte	.LASF771
 14055 39c2 38       		.byte	0x38
 14056 39c3 32       		.byte	0x32
 14057 39c4 25000000 		.4byte	0x25
 14058 39c8 10       		.byte	0x10
 14059 39c9 18       		.uleb128 0x18
 14060 39ca 5F7800   		.ascii	"_x\000"
 14061 39cd 38       		.byte	0x38
 14062 39ce 33       		.byte	0x33
 14063 39cf DB390000 		.4byte	0x39db
 14064 39d3 14       		.byte	0x14
 14065 39d4 00       		.byte	0
 14066 39d5 0B       		.uleb128 0xb
 14067 39d6 04       		.byte	0x4
 14068 39d7 82390000 		.4byte	0x3982
 14069 39db 13       		.uleb128 0x13
 14070 39dc 77390000 		.4byte	0x3977
 14071 39e0 EB390000 		.4byte	0x39eb
 14072 39e4 14       		.uleb128 0x14
 14073 39e5 37000000 		.4byte	0x37
 14074 39e9 00       		.byte	0
 14075 39ea 00       		.byte	0
 14076 39eb 07       		.uleb128 0x7
 14077 39ec 97200000 		.4byte	.LASF772
 14078 39f0 24       		.byte	0x24
 14079 39f1 38       		.byte	0x38
 14080 39f2 37       		.byte	0x37
 14081 39f3 643A0000 		.4byte	0x3a64
 14082 39f7 08       		.uleb128 0x8
 14083 39f8 FF150000 		.4byte	.LASF773
 14084 39fc 38       		.byte	0x38
 14085 39fd 39       		.byte	0x39
 14086 39fe 25000000 		.4byte	0x25
 14087 3a02 00       		.byte	0
 14088 3a03 08       		.uleb128 0x8
 14089 3a04 D10C0000 		.4byte	.LASF774
 14090 3a08 38       		.byte	0x38
 14091 3a09 3A       		.byte	0x3a
 14092 3a0a 25000000 		.4byte	0x25
 14093 3a0e 04       		.byte	0x4
 14094 3a0f 08       		.uleb128 0x8
 14095 3a10 2A110000 		.4byte	.LASF775
 14096 3a14 38       		.byte	0x38
 14097 3a15 3B       		.byte	0x3b
 14098 3a16 25000000 		.4byte	0x25
ARM GAS  /tmp/ccZueut9.s 			page 254


 14099 3a1a 08       		.byte	0x8
 14100 3a1b 08       		.uleb128 0x8
 14101 3a1c B80A0000 		.4byte	.LASF776
 14102 3a20 38       		.byte	0x38
 14103 3a21 3C       		.byte	0x3c
 14104 3a22 25000000 		.4byte	0x25
 14105 3a26 0C       		.byte	0xc
 14106 3a27 08       		.uleb128 0x8
 14107 3a28 63020000 		.4byte	.LASF777
 14108 3a2c 38       		.byte	0x38
 14109 3a2d 3D       		.byte	0x3d
 14110 3a2e 25000000 		.4byte	0x25
 14111 3a32 10       		.byte	0x10
 14112 3a33 08       		.uleb128 0x8
 14113 3a34 0C0D0000 		.4byte	.LASF778
 14114 3a38 38       		.byte	0x38
 14115 3a39 3E       		.byte	0x3e
 14116 3a3a 25000000 		.4byte	0x25
 14117 3a3e 14       		.byte	0x14
 14118 3a3f 08       		.uleb128 0x8
 14119 3a40 9D0A0000 		.4byte	.LASF779
 14120 3a44 38       		.byte	0x38
 14121 3a45 3F       		.byte	0x3f
 14122 3a46 25000000 		.4byte	0x25
 14123 3a4a 18       		.byte	0x18
 14124 3a4b 08       		.uleb128 0x8
 14125 3a4c C8080000 		.4byte	.LASF780
 14126 3a50 38       		.byte	0x38
 14127 3a51 40       		.byte	0x40
 14128 3a52 25000000 		.4byte	0x25
 14129 3a56 1C       		.byte	0x1c
 14130 3a57 08       		.uleb128 0x8
 14131 3a58 CB2B0000 		.4byte	.LASF781
 14132 3a5c 38       		.byte	0x38
 14133 3a5d 41       		.byte	0x41
 14134 3a5e 25000000 		.4byte	0x25
 14135 3a62 20       		.byte	0x20
 14136 3a63 00       		.byte	0
 14137 3a64 26       		.uleb128 0x26
 14138 3a65 20160000 		.4byte	.LASF782
 14139 3a69 0801     		.2byte	0x108
 14140 3a6b 38       		.byte	0x38
 14141 3a6c 4A       		.byte	0x4a
 14142 3a6d A43A0000 		.4byte	0x3aa4
 14143 3a71 08       		.uleb128 0x8
 14144 3a72 9E130000 		.4byte	.LASF783
 14145 3a76 38       		.byte	0x38
 14146 3a77 4B       		.byte	0x4b
 14147 3a78 A43A0000 		.4byte	0x3aa4
 14148 3a7c 00       		.byte	0
 14149 3a7d 08       		.uleb128 0x8
 14150 3a7e 72040000 		.4byte	.LASF784
 14151 3a82 38       		.byte	0x38
 14152 3a83 4C       		.byte	0x4c
 14153 3a84 A43A0000 		.4byte	0x3aa4
 14154 3a88 80       		.byte	0x80
 14155 3a89 27       		.uleb128 0x27
ARM GAS  /tmp/ccZueut9.s 			page 255


 14156 3a8a 6C020000 		.4byte	.LASF785
 14157 3a8e 38       		.byte	0x38
 14158 3a8f 4E       		.byte	0x4e
 14159 3a90 77390000 		.4byte	0x3977
 14160 3a94 0001     		.2byte	0x100
 14161 3a96 27       		.uleb128 0x27
 14162 3a97 57240000 		.4byte	.LASF786
 14163 3a9b 38       		.byte	0x38
 14164 3a9c 51       		.byte	0x51
 14165 3a9d 77390000 		.4byte	0x3977
 14166 3aa1 0401     		.2byte	0x104
 14167 3aa3 00       		.byte	0
 14168 3aa4 13       		.uleb128 0x13
 14169 3aa5 D0030000 		.4byte	0x3d0
 14170 3aa9 B43A0000 		.4byte	0x3ab4
 14171 3aad 14       		.uleb128 0x14
 14172 3aae 37000000 		.4byte	0x37
 14173 3ab2 1F       		.byte	0x1f
 14174 3ab3 00       		.byte	0
 14175 3ab4 26       		.uleb128 0x26
 14176 3ab5 7E010000 		.4byte	.LASF787
 14177 3ab9 9001     		.2byte	0x190
 14178 3abb 38       		.byte	0x38
 14179 3abc 5D       		.byte	0x5d
 14180 3abd F23A0000 		.4byte	0x3af2
 14181 3ac1 08       		.uleb128 0x8
 14182 3ac2 48140000 		.4byte	.LASF768
 14183 3ac6 38       		.byte	0x38
 14184 3ac7 5E       		.byte	0x5e
 14185 3ac8 F23A0000 		.4byte	0x3af2
 14186 3acc 00       		.byte	0
 14187 3acd 08       		.uleb128 0x8
 14188 3ace 88020000 		.4byte	.LASF788
 14189 3ad2 38       		.byte	0x38
 14190 3ad3 5F       		.byte	0x5f
 14191 3ad4 25000000 		.4byte	0x25
 14192 3ad8 04       		.byte	0x4
 14193 3ad9 08       		.uleb128 0x8
 14194 3ada 1D230000 		.4byte	.LASF789
 14195 3ade 38       		.byte	0x38
 14196 3adf 61       		.byte	0x61
 14197 3ae0 F83A0000 		.4byte	0x3af8
 14198 3ae4 08       		.byte	0x8
 14199 3ae5 08       		.uleb128 0x8
 14200 3ae6 20160000 		.4byte	.LASF782
 14201 3aea 38       		.byte	0x38
 14202 3aeb 62       		.byte	0x62
 14203 3aec 643A0000 		.4byte	0x3a64
 14204 3af0 88       		.byte	0x88
 14205 3af1 00       		.byte	0
 14206 3af2 0B       		.uleb128 0xb
 14207 3af3 04       		.byte	0x4
 14208 3af4 B43A0000 		.4byte	0x3ab4
 14209 3af8 13       		.uleb128 0x13
 14210 3af9 083B0000 		.4byte	0x3b08
 14211 3afd 083B0000 		.4byte	0x3b08
 14212 3b01 14       		.uleb128 0x14
ARM GAS  /tmp/ccZueut9.s 			page 256


 14213 3b02 37000000 		.4byte	0x37
 14214 3b06 1F       		.byte	0x1f
 14215 3b07 00       		.byte	0
 14216 3b08 0B       		.uleb128 0xb
 14217 3b09 04       		.byte	0x4
 14218 3b0a 0E3B0000 		.4byte	0x3b0e
 14219 3b0e 2E       		.uleb128 0x2e
 14220 3b0f 07       		.uleb128 0x7
 14221 3b10 401A0000 		.4byte	.LASF790
 14222 3b14 08       		.byte	0x8
 14223 3b15 38       		.byte	0x38
 14224 3b16 75       		.byte	0x75
 14225 3b17 343B0000 		.4byte	0x3b34
 14226 3b1b 08       		.uleb128 0x8
 14227 3b1c 65160000 		.4byte	.LASF791
 14228 3b20 38       		.byte	0x38
 14229 3b21 76       		.byte	0x76
 14230 3b22 343B0000 		.4byte	0x3b34
 14231 3b26 00       		.byte	0
 14232 3b27 08       		.uleb128 0x8
 14233 3b28 610C0000 		.4byte	.LASF792
 14234 3b2c 38       		.byte	0x38
 14235 3b2d 77       		.byte	0x77
 14236 3b2e 25000000 		.4byte	0x25
 14237 3b32 04       		.byte	0x4
 14238 3b33 00       		.byte	0
 14239 3b34 0B       		.uleb128 0xb
 14240 3b35 04       		.byte	0x4
 14241 3b36 69000000 		.4byte	0x69
 14242 3b3a 07       		.uleb128 0x7
 14243 3b3b 03230000 		.4byte	.LASF793
 14244 3b3f 68       		.byte	0x68
 14245 3b40 38       		.byte	0x38
 14246 3b41 B5       		.byte	0xb5
 14247 3b42 643C0000 		.4byte	0x3c64
 14248 3b46 18       		.uleb128 0x18
 14249 3b47 5F7000   		.ascii	"_p\000"
 14250 3b4a 38       		.byte	0x38
 14251 3b4b B6       		.byte	0xb6
 14252 3b4c 343B0000 		.4byte	0x3b34
 14253 3b50 00       		.byte	0
 14254 3b51 18       		.uleb128 0x18
 14255 3b52 5F7200   		.ascii	"_r\000"
 14256 3b55 38       		.byte	0x38
 14257 3b56 B7       		.byte	0xb7
 14258 3b57 25000000 		.4byte	0x25
 14259 3b5b 04       		.byte	0x4
 14260 3b5c 18       		.uleb128 0x18
 14261 3b5d 5F7700   		.ascii	"_w\000"
 14262 3b60 38       		.byte	0x38
 14263 3b61 B8       		.byte	0xb8
 14264 3b62 25000000 		.4byte	0x25
 14265 3b66 08       		.byte	0x8
 14266 3b67 08       		.uleb128 0x8
 14267 3b68 F6020000 		.4byte	.LASF794
 14268 3b6c 38       		.byte	0x38
 14269 3b6d B9       		.byte	0xb9
ARM GAS  /tmp/ccZueut9.s 			page 257


 14270 3b6e 7B000000 		.4byte	0x7b
 14271 3b72 0C       		.byte	0xc
 14272 3b73 08       		.uleb128 0x8
 14273 3b74 AF220000 		.4byte	.LASF795
 14274 3b78 38       		.byte	0x38
 14275 3b79 BA       		.byte	0xba
 14276 3b7a 7B000000 		.4byte	0x7b
 14277 3b7e 0E       		.byte	0xe
 14278 3b7f 18       		.uleb128 0x18
 14279 3b80 5F626600 		.ascii	"_bf\000"
 14280 3b84 38       		.byte	0x38
 14281 3b85 BB       		.byte	0xbb
 14282 3b86 0F3B0000 		.4byte	0x3b0f
 14283 3b8a 10       		.byte	0x10
 14284 3b8b 08       		.uleb128 0x8
 14285 3b8c 01060000 		.4byte	.LASF796
 14286 3b90 38       		.byte	0x38
 14287 3b91 BC       		.byte	0xbc
 14288 3b92 25000000 		.4byte	0x25
 14289 3b96 18       		.byte	0x18
 14290 3b97 08       		.uleb128 0x8
 14291 3b98 ED140000 		.4byte	.LASF797
 14292 3b9c 38       		.byte	0x38
 14293 3b9d C3       		.byte	0xc3
 14294 3b9e D0030000 		.4byte	0x3d0
 14295 3ba2 1C       		.byte	0x1c
 14296 3ba3 08       		.uleb128 0x8
 14297 3ba4 8C2B0000 		.4byte	.LASF798
 14298 3ba8 38       		.byte	0x38
 14299 3ba9 C5       		.byte	0xc5
 14300 3baa BF3D0000 		.4byte	0x3dbf
 14301 3bae 20       		.byte	0x20
 14302 3baf 08       		.uleb128 0x8
 14303 3bb0 670C0000 		.4byte	.LASF799
 14304 3bb4 38       		.byte	0x38
 14305 3bb5 C7       		.byte	0xc7
 14306 3bb6 E33D0000 		.4byte	0x3de3
 14307 3bba 24       		.byte	0x24
 14308 3bbb 08       		.uleb128 0x8
 14309 3bbc 97180000 		.4byte	.LASF800
 14310 3bc0 38       		.byte	0x38
 14311 3bc1 CA       		.byte	0xca
 14312 3bc2 073E0000 		.4byte	0x3e07
 14313 3bc6 28       		.byte	0x28
 14314 3bc7 08       		.uleb128 0x8
 14315 3bc8 3E1E0000 		.4byte	.LASF801
 14316 3bcc 38       		.byte	0x38
 14317 3bcd CB       		.byte	0xcb
 14318 3bce 213E0000 		.4byte	0x3e21
 14319 3bd2 2C       		.byte	0x2c
 14320 3bd3 18       		.uleb128 0x18
 14321 3bd4 5F756200 		.ascii	"_ub\000"
 14322 3bd8 38       		.byte	0x38
 14323 3bd9 CE       		.byte	0xce
 14324 3bda 0F3B0000 		.4byte	0x3b0f
 14325 3bde 30       		.byte	0x30
 14326 3bdf 18       		.uleb128 0x18
ARM GAS  /tmp/ccZueut9.s 			page 258


 14327 3be0 5F757000 		.ascii	"_up\000"
 14328 3be4 38       		.byte	0x38
 14329 3be5 CF       		.byte	0xcf
 14330 3be6 343B0000 		.4byte	0x3b34
 14331 3bea 38       		.byte	0x38
 14332 3beb 18       		.uleb128 0x18
 14333 3bec 5F757200 		.ascii	"_ur\000"
 14334 3bf0 38       		.byte	0x38
 14335 3bf1 D0       		.byte	0xd0
 14336 3bf2 25000000 		.4byte	0x25
 14337 3bf6 3C       		.byte	0x3c
 14338 3bf7 08       		.uleb128 0x8
 14339 3bf8 AB210000 		.4byte	.LASF802
 14340 3bfc 38       		.byte	0x38
 14341 3bfd D3       		.byte	0xd3
 14342 3bfe 273E0000 		.4byte	0x3e27
 14343 3c02 40       		.byte	0x40
 14344 3c03 08       		.uleb128 0x8
 14345 3c04 E5030000 		.4byte	.LASF803
 14346 3c08 38       		.byte	0x38
 14347 3c09 D4       		.byte	0xd4
 14348 3c0a 373E0000 		.4byte	0x3e37
 14349 3c0e 43       		.byte	0x43
 14350 3c0f 18       		.uleb128 0x18
 14351 3c10 5F6C6200 		.ascii	"_lb\000"
 14352 3c14 38       		.byte	0x38
 14353 3c15 D7       		.byte	0xd7
 14354 3c16 0F3B0000 		.4byte	0x3b0f
 14355 3c1a 44       		.byte	0x44
 14356 3c1b 08       		.uleb128 0x8
 14357 3c1c 340D0000 		.4byte	.LASF804
 14358 3c20 38       		.byte	0x38
 14359 3c21 DA       		.byte	0xda
 14360 3c22 25000000 		.4byte	0x25
 14361 3c26 4C       		.byte	0x4c
 14362 3c27 08       		.uleb128 0x8
 14363 3c28 D2190000 		.4byte	.LASF805
 14364 3c2c 38       		.byte	0x38
 14365 3c2d DB       		.byte	0xdb
 14366 3c2e 53370000 		.4byte	0x3753
 14367 3c32 50       		.byte	0x50
 14368 3c33 08       		.uleb128 0x8
 14369 3c34 E9260000 		.4byte	.LASF806
 14370 3c38 38       		.byte	0x38
 14371 3c39 DE       		.byte	0xde
 14372 3c3a 823C0000 		.4byte	0x3c82
 14373 3c3e 54       		.byte	0x54
 14374 3c3f 08       		.uleb128 0x8
 14375 3c40 DF030000 		.4byte	.LASF807
 14376 3c44 38       		.byte	0x38
 14377 3c45 E2       		.byte	0xe2
 14378 3c46 D0370000 		.4byte	0x37d0
 14379 3c4a 58       		.byte	0x58
 14380 3c4b 08       		.uleb128 0x8
 14381 3c4c 65170000 		.4byte	.LASF808
 14382 3c50 38       		.byte	0x38
 14383 3c51 E4       		.byte	0xe4
ARM GAS  /tmp/ccZueut9.s 			page 259


 14384 3c52 C5370000 		.4byte	0x37c5
 14385 3c56 5C       		.byte	0x5c
 14386 3c57 08       		.uleb128 0x8
 14387 3c58 C8280000 		.4byte	.LASF809
 14388 3c5c 38       		.byte	0x38
 14389 3c5d E5       		.byte	0xe5
 14390 3c5e 25000000 		.4byte	0x25
 14391 3c62 64       		.byte	0x64
 14392 3c63 00       		.byte	0
 14393 3c64 20       		.uleb128 0x20
 14394 3c65 25000000 		.4byte	0x25
 14395 3c69 823C0000 		.4byte	0x3c82
 14396 3c6d 0E       		.uleb128 0xe
 14397 3c6e 823C0000 		.4byte	0x3c82
 14398 3c72 0E       		.uleb128 0xe
 14399 3c73 D0030000 		.4byte	0x3d0
 14400 3c77 0E       		.uleb128 0xe
 14401 3c78 DB370000 		.4byte	0x37db
 14402 3c7c 0E       		.uleb128 0xe
 14403 3c7d 25000000 		.4byte	0x25
 14404 3c81 00       		.byte	0
 14405 3c82 0B       		.uleb128 0xb
 14406 3c83 04       		.byte	0x4
 14407 3c84 8D3C0000 		.4byte	0x3c8d
 14408 3c88 05       		.uleb128 0x5
 14409 3c89 823C0000 		.4byte	0x3c82
 14410 3c8d 10       		.uleb128 0x10
 14411 3c8e B91A0000 		.4byte	.LASF810
 14412 3c92 2804     		.2byte	0x428
 14413 3c94 38       		.byte	0x38
 14414 3c95 3902     		.2byte	0x239
 14415 3c97 BF3D0000 		.4byte	0x3dbf
 14416 3c9b 0A       		.uleb128 0xa
 14417 3c9c 24130000 		.4byte	.LASF811
 14418 3ca0 38       		.byte	0x38
 14419 3ca1 3B02     		.2byte	0x23b
 14420 3ca3 25000000 		.4byte	0x25
 14421 3ca7 00       		.byte	0
 14422 3ca8 0A       		.uleb128 0xa
 14423 3ca9 650E0000 		.4byte	.LASF812
 14424 3cad 38       		.byte	0x38
 14425 3cae 4002     		.2byte	0x240
 14426 3cb0 8E3E0000 		.4byte	0x3e8e
 14427 3cb4 04       		.byte	0x4
 14428 3cb5 0A       		.uleb128 0xa
 14429 3cb6 360B0000 		.4byte	.LASF813
 14430 3cba 38       		.byte	0x38
 14431 3cbb 4002     		.2byte	0x240
 14432 3cbd 8E3E0000 		.4byte	0x3e8e
 14433 3cc1 08       		.byte	0x8
 14434 3cc2 0A       		.uleb128 0xa
 14435 3cc3 390A0000 		.4byte	.LASF814
 14436 3cc7 38       		.byte	0x38
 14437 3cc8 4002     		.2byte	0x240
 14438 3cca 8E3E0000 		.4byte	0x3e8e
 14439 3cce 0C       		.byte	0xc
 14440 3ccf 0A       		.uleb128 0xa
ARM GAS  /tmp/ccZueut9.s 			page 260


 14441 3cd0 83020000 		.4byte	.LASF815
 14442 3cd4 38       		.byte	0x38
 14443 3cd5 4202     		.2byte	0x242
 14444 3cd7 25000000 		.4byte	0x25
 14445 3cdb 10       		.byte	0x10
 14446 3cdc 0A       		.uleb128 0xa
 14447 3cdd 7B100000 		.4byte	.LASF816
 14448 3ce1 38       		.byte	0x38
 14449 3ce2 4302     		.2byte	0x243
 14450 3ce4 70400000 		.4byte	0x4070
 14451 3ce8 14       		.byte	0x14
 14452 3ce9 0A       		.uleb128 0xa
 14453 3cea 34270000 		.4byte	.LASF817
 14454 3cee 38       		.byte	0x38
 14455 3cef 4602     		.2byte	0x246
 14456 3cf1 25000000 		.4byte	0x25
 14457 3cf5 30       		.byte	0x30
 14458 3cf6 0A       		.uleb128 0xa
 14459 3cf7 23290000 		.4byte	.LASF818
 14460 3cfb 38       		.byte	0x38
 14461 3cfc 4702     		.2byte	0x247
 14462 3cfe 85400000 		.4byte	0x4085
 14463 3d02 34       		.byte	0x34
 14464 3d03 0A       		.uleb128 0xa
 14465 3d04 A4270000 		.4byte	.LASF819
 14466 3d08 38       		.byte	0x38
 14467 3d09 4902     		.2byte	0x249
 14468 3d0b 25000000 		.4byte	0x25
 14469 3d0f 38       		.byte	0x38
 14470 3d10 0A       		.uleb128 0xa
 14471 3d11 06220000 		.4byte	.LASF820
 14472 3d15 38       		.byte	0x38
 14473 3d16 4B02     		.2byte	0x24b
 14474 3d18 96400000 		.4byte	0x4096
 14475 3d1c 3C       		.byte	0x3c
 14476 3d1d 0A       		.uleb128 0xa
 14477 3d1e 410A0000 		.4byte	.LASF821
 14478 3d22 38       		.byte	0x38
 14479 3d23 4E02     		.2byte	0x24e
 14480 3d25 D5390000 		.4byte	0x39d5
 14481 3d29 40       		.byte	0x40
 14482 3d2a 0A       		.uleb128 0xa
 14483 3d2b 2A0A0000 		.4byte	.LASF822
 14484 3d2f 38       		.byte	0x38
 14485 3d30 4F02     		.2byte	0x24f
 14486 3d32 25000000 		.4byte	0x25
 14487 3d36 44       		.byte	0x44
 14488 3d37 0A       		.uleb128 0xa
 14489 3d38 91240000 		.4byte	.LASF823
 14490 3d3c 38       		.byte	0x38
 14491 3d3d 5002     		.2byte	0x250
 14492 3d3f D5390000 		.4byte	0x39d5
 14493 3d43 48       		.byte	0x48
 14494 3d44 0A       		.uleb128 0xa
 14495 3d45 97190000 		.4byte	.LASF824
 14496 3d49 38       		.byte	0x38
 14497 3d4a 5102     		.2byte	0x251
ARM GAS  /tmp/ccZueut9.s 			page 261


 14498 3d4c 9C400000 		.4byte	0x409c
 14499 3d50 4C       		.byte	0x4c
 14500 3d51 0A       		.uleb128 0xa
 14501 3d52 54030000 		.4byte	.LASF825
 14502 3d56 38       		.byte	0x38
 14503 3d57 5402     		.2byte	0x254
 14504 3d59 25000000 		.4byte	0x25
 14505 3d5d 50       		.byte	0x50
 14506 3d5e 0A       		.uleb128 0xa
 14507 3d5f 5E100000 		.4byte	.LASF826
 14508 3d63 38       		.byte	0x38
 14509 3d64 5502     		.2byte	0x255
 14510 3d66 DB370000 		.4byte	0x37db
 14511 3d6a 54       		.byte	0x54
 14512 3d6b 0A       		.uleb128 0xa
 14513 3d6c 4E060000 		.4byte	.LASF827
 14514 3d70 38       		.byte	0x38
 14515 3d71 7802     		.2byte	0x278
 14516 3d73 4E400000 		.4byte	0x404e
 14517 3d77 58       		.byte	0x58
 14518 3d78 11       		.uleb128 0x11
 14519 3d79 7E010000 		.4byte	.LASF787
 14520 3d7d 38       		.byte	0x38
 14521 3d7e 7C02     		.2byte	0x27c
 14522 3d80 F23A0000 		.4byte	0x3af2
 14523 3d84 4801     		.2byte	0x148
 14524 3d86 11       		.uleb128 0x11
 14525 3d87 CD1F0000 		.4byte	.LASF828
 14526 3d8b 38       		.byte	0x38
 14527 3d8c 7D02     		.2byte	0x27d
 14528 3d8e B43A0000 		.4byte	0x3ab4
 14529 3d92 4C01     		.2byte	0x14c
 14530 3d94 11       		.uleb128 0x11
 14531 3d95 82030000 		.4byte	.LASF829
 14532 3d99 38       		.byte	0x38
 14533 3d9a 8102     		.2byte	0x281
 14534 3d9c AD400000 		.4byte	0x40ad
 14535 3da0 DC02     		.2byte	0x2dc
 14536 3da2 11       		.uleb128 0x11
 14537 3da3 40170000 		.4byte	.LASF830
 14538 3da7 38       		.byte	0x38
 14539 3da8 8602     		.2byte	0x286
 14540 3daa 533E0000 		.4byte	0x3e53
 14541 3dae E002     		.2byte	0x2e0
 14542 3db0 11       		.uleb128 0x11
 14543 3db1 9B070000 		.4byte	.LASF831
 14544 3db5 38       		.byte	0x38
 14545 3db6 8802     		.2byte	0x288
 14546 3db8 B9400000 		.4byte	0x40b9
 14547 3dbc EC02     		.2byte	0x2ec
 14548 3dbe 00       		.byte	0
 14549 3dbf 0B       		.uleb128 0xb
 14550 3dc0 04       		.byte	0x4
 14551 3dc1 643C0000 		.4byte	0x3c64
 14552 3dc5 20       		.uleb128 0x20
 14553 3dc6 25000000 		.4byte	0x25
 14554 3dca E33D0000 		.4byte	0x3de3
ARM GAS  /tmp/ccZueut9.s 			page 262


 14555 3dce 0E       		.uleb128 0xe
 14556 3dcf 823C0000 		.4byte	0x3c82
 14557 3dd3 0E       		.uleb128 0xe
 14558 3dd4 D0030000 		.4byte	0x3d0
 14559 3dd8 0E       		.uleb128 0xe
 14560 3dd9 15110000 		.4byte	0x1115
 14561 3ddd 0E       		.uleb128 0xe
 14562 3dde 25000000 		.4byte	0x25
 14563 3de2 00       		.byte	0
 14564 3de3 0B       		.uleb128 0xb
 14565 3de4 04       		.byte	0x4
 14566 3de5 C53D0000 		.4byte	0x3dc5
 14567 3de9 20       		.uleb128 0x20
 14568 3dea 5E370000 		.4byte	0x375e
 14569 3dee 073E0000 		.4byte	0x3e07
 14570 3df2 0E       		.uleb128 0xe
 14571 3df3 823C0000 		.4byte	0x3c82
 14572 3df7 0E       		.uleb128 0xe
 14573 3df8 D0030000 		.4byte	0x3d0
 14574 3dfc 0E       		.uleb128 0xe
 14575 3dfd 5E370000 		.4byte	0x375e
 14576 3e01 0E       		.uleb128 0xe
 14577 3e02 25000000 		.4byte	0x25
 14578 3e06 00       		.byte	0
 14579 3e07 0B       		.uleb128 0xb
 14580 3e08 04       		.byte	0x4
 14581 3e09 E93D0000 		.4byte	0x3de9
 14582 3e0d 20       		.uleb128 0x20
 14583 3e0e 25000000 		.4byte	0x25
 14584 3e12 213E0000 		.4byte	0x3e21
 14585 3e16 0E       		.uleb128 0xe
 14586 3e17 823C0000 		.4byte	0x3c82
 14587 3e1b 0E       		.uleb128 0xe
 14588 3e1c D0030000 		.4byte	0x3d0
 14589 3e20 00       		.byte	0
 14590 3e21 0B       		.uleb128 0xb
 14591 3e22 04       		.byte	0x4
 14592 3e23 0D3E0000 		.4byte	0x3e0d
 14593 3e27 13       		.uleb128 0x13
 14594 3e28 69000000 		.4byte	0x69
 14595 3e2c 373E0000 		.4byte	0x3e37
 14596 3e30 14       		.uleb128 0x14
 14597 3e31 37000000 		.4byte	0x37
 14598 3e35 02       		.byte	0x2
 14599 3e36 00       		.byte	0
 14600 3e37 13       		.uleb128 0x13
 14601 3e38 69000000 		.4byte	0x69
 14602 3e3c 473E0000 		.4byte	0x3e47
 14603 3e40 14       		.uleb128 0x14
 14604 3e41 37000000 		.4byte	0x37
 14605 3e45 00       		.byte	0
 14606 3e46 00       		.byte	0
 14607 3e47 1A       		.uleb128 0x1a
 14608 3e48 632A0000 		.4byte	.LASF832
 14609 3e4c 38       		.byte	0x38
 14610 3e4d 1F01     		.2byte	0x11f
 14611 3e4f 3A3B0000 		.4byte	0x3b3a
ARM GAS  /tmp/ccZueut9.s 			page 263


 14612 3e53 0C       		.uleb128 0xc
 14613 3e54 7A1E0000 		.4byte	.LASF833
 14614 3e58 0C       		.byte	0xc
 14615 3e59 38       		.byte	0x38
 14616 3e5a 2301     		.2byte	0x123
 14617 3e5c 883E0000 		.4byte	0x3e88
 14618 3e60 0A       		.uleb128 0xa
 14619 3e61 48140000 		.4byte	.LASF768
 14620 3e65 38       		.byte	0x38
 14621 3e66 2501     		.2byte	0x125
 14622 3e68 883E0000 		.4byte	0x3e88
 14623 3e6c 00       		.byte	0
 14624 3e6d 0A       		.uleb128 0xa
 14625 3e6e B3110000 		.4byte	.LASF834
 14626 3e72 38       		.byte	0x38
 14627 3e73 2601     		.2byte	0x126
 14628 3e75 25000000 		.4byte	0x25
 14629 3e79 04       		.byte	0x4
 14630 3e7a 0A       		.uleb128 0xa
 14631 3e7b 7C1C0000 		.4byte	.LASF835
 14632 3e7f 38       		.byte	0x38
 14633 3e80 2701     		.2byte	0x127
 14634 3e82 8E3E0000 		.4byte	0x3e8e
 14635 3e86 08       		.byte	0x8
 14636 3e87 00       		.byte	0
 14637 3e88 0B       		.uleb128 0xb
 14638 3e89 04       		.byte	0x4
 14639 3e8a 533E0000 		.4byte	0x3e53
 14640 3e8e 0B       		.uleb128 0xb
 14641 3e8f 04       		.byte	0x4
 14642 3e90 473E0000 		.4byte	0x3e47
 14643 3e94 0C       		.uleb128 0xc
 14644 3e95 B72B0000 		.4byte	.LASF836
 14645 3e99 0E       		.byte	0xe
 14646 3e9a 38       		.byte	0x38
 14647 3e9b 3F01     		.2byte	0x13f
 14648 3e9d C93E0000 		.4byte	0x3ec9
 14649 3ea1 0A       		.uleb128 0xa
 14650 3ea2 82180000 		.4byte	.LASF837
 14651 3ea6 38       		.byte	0x38
 14652 3ea7 4001     		.2byte	0x140
 14653 3ea9 C93E0000 		.4byte	0x3ec9
 14654 3ead 00       		.byte	0
 14655 3eae 0A       		.uleb128 0xa
 14656 3eaf 6E2B0000 		.4byte	.LASF838
 14657 3eb3 38       		.byte	0x38
 14658 3eb4 4101     		.2byte	0x141
 14659 3eb6 C93E0000 		.4byte	0x3ec9
 14660 3eba 06       		.byte	0x6
 14661 3ebb 0A       		.uleb128 0xa
 14662 3ebc 961A0000 		.4byte	.LASF839
 14663 3ec0 38       		.byte	0x38
 14664 3ec1 4201     		.2byte	0x142
 14665 3ec3 8D000000 		.4byte	0x8d
 14666 3ec7 0C       		.byte	0xc
 14667 3ec8 00       		.byte	0
 14668 3ec9 13       		.uleb128 0x13
ARM GAS  /tmp/ccZueut9.s 			page 264


 14669 3eca 8D000000 		.4byte	0x8d
 14670 3ece D93E0000 		.4byte	0x3ed9
 14671 3ed2 14       		.uleb128 0x14
 14672 3ed3 37000000 		.4byte	0x37
 14673 3ed7 02       		.byte	0x2
 14674 3ed8 00       		.byte	0
 14675 3ed9 19       		.uleb128 0x19
 14676 3eda D0       		.byte	0xd0
 14677 3edb 38       		.byte	0x38
 14678 3edc 5902     		.2byte	0x259
 14679 3ede DA3F0000 		.4byte	0x3fda
 14680 3ee2 0A       		.uleb128 0xa
 14681 3ee3 8B090000 		.4byte	.LASF840
 14682 3ee7 38       		.byte	0x38
 14683 3ee8 5B02     		.2byte	0x25b
 14684 3eea 37000000 		.4byte	0x37
 14685 3eee 00       		.byte	0
 14686 3eef 0A       		.uleb128 0xa
 14687 3ef0 38180000 		.4byte	.LASF841
 14688 3ef4 38       		.byte	0x38
 14689 3ef5 5C02     		.2byte	0x25c
 14690 3ef7 DB370000 		.4byte	0x37db
 14691 3efb 04       		.byte	0x4
 14692 3efc 0A       		.uleb128 0xa
 14693 3efd D71A0000 		.4byte	.LASF842
 14694 3f01 38       		.byte	0x38
 14695 3f02 5D02     		.2byte	0x25d
 14696 3f04 DA3F0000 		.4byte	0x3fda
 14697 3f08 08       		.byte	0x8
 14698 3f09 0A       		.uleb128 0xa
 14699 3f0a 2E160000 		.4byte	.LASF843
 14700 3f0e 38       		.byte	0x38
 14701 3f0f 5E02     		.2byte	0x25e
 14702 3f11 EB390000 		.4byte	0x39eb
 14703 3f15 24       		.byte	0x24
 14704 3f16 0A       		.uleb128 0xa
 14705 3f17 57260000 		.4byte	.LASF844
 14706 3f1b 38       		.byte	0x38
 14707 3f1c 5F02     		.2byte	0x25f
 14708 3f1e 25000000 		.4byte	0x25
 14709 3f22 48       		.byte	0x48
 14710 3f23 0A       		.uleb128 0xa
 14711 3f24 B71C0000 		.4byte	.LASF845
 14712 3f28 38       		.byte	0x38
 14713 3f29 6002     		.2byte	0x260
 14714 3f2b C3000000 		.4byte	0xc3
 14715 3f2f 50       		.byte	0x50
 14716 3f30 0A       		.uleb128 0xa
 14717 3f31 192B0000 		.4byte	.LASF846
 14718 3f35 38       		.byte	0x38
 14719 3f36 6102     		.2byte	0x261
 14720 3f38 943E0000 		.4byte	0x3e94
 14721 3f3c 58       		.byte	0x58
 14722 3f3d 0A       		.uleb128 0xa
 14723 3f3e D8210000 		.4byte	.LASF847
 14724 3f42 38       		.byte	0x38
 14725 3f43 6202     		.2byte	0x262
ARM GAS  /tmp/ccZueut9.s 			page 265


 14726 3f45 C5370000 		.4byte	0x37c5
 14727 3f49 68       		.byte	0x68
 14728 3f4a 0A       		.uleb128 0xa
 14729 3f4b CA070000 		.4byte	.LASF848
 14730 3f4f 38       		.byte	0x38
 14731 3f50 6302     		.2byte	0x263
 14732 3f52 C5370000 		.4byte	0x37c5
 14733 3f56 70       		.byte	0x70
 14734 3f57 0A       		.uleb128 0xa
 14735 3f58 DC040000 		.4byte	.LASF849
 14736 3f5c 38       		.byte	0x38
 14737 3f5d 6402     		.2byte	0x264
 14738 3f5f C5370000 		.4byte	0x37c5
 14739 3f63 78       		.byte	0x78
 14740 3f64 0A       		.uleb128 0xa
 14741 3f65 CD1A0000 		.4byte	.LASF850
 14742 3f69 38       		.byte	0x38
 14743 3f6a 6502     		.2byte	0x265
 14744 3f6c EA3F0000 		.4byte	0x3fea
 14745 3f70 80       		.byte	0x80
 14746 3f71 0A       		.uleb128 0xa
 14747 3f72 BC140000 		.4byte	.LASF851
 14748 3f76 38       		.byte	0x38
 14749 3f77 6602     		.2byte	0x266
 14750 3f79 FA3F0000 		.4byte	0x3ffa
 14751 3f7d 88       		.byte	0x88
 14752 3f7e 0A       		.uleb128 0xa
 14753 3f7f 52200000 		.4byte	.LASF852
 14754 3f83 38       		.byte	0x38
 14755 3f84 6702     		.2byte	0x267
 14756 3f86 25000000 		.4byte	0x25
 14757 3f8a A0       		.byte	0xa0
 14758 3f8b 0A       		.uleb128 0xa
 14759 3f8c 8D1C0000 		.4byte	.LASF853
 14760 3f90 38       		.byte	0x38
 14761 3f91 6802     		.2byte	0x268
 14762 3f93 C5370000 		.4byte	0x37c5
 14763 3f97 A4       		.byte	0xa4
 14764 3f98 0A       		.uleb128 0xa
 14765 3f99 4D000000 		.4byte	.LASF854
 14766 3f9d 38       		.byte	0x38
 14767 3f9e 6902     		.2byte	0x269
 14768 3fa0 C5370000 		.4byte	0x37c5
 14769 3fa4 AC       		.byte	0xac
 14770 3fa5 0A       		.uleb128 0xa
 14771 3fa6 900B0000 		.4byte	.LASF855
 14772 3faa 38       		.byte	0x38
 14773 3fab 6A02     		.2byte	0x26a
 14774 3fad C5370000 		.4byte	0x37c5
 14775 3fb1 B4       		.byte	0xb4
 14776 3fb2 0A       		.uleb128 0xa
 14777 3fb3 B3160000 		.4byte	.LASF856
 14778 3fb7 38       		.byte	0x38
 14779 3fb8 6B02     		.2byte	0x26b
 14780 3fba C5370000 		.4byte	0x37c5
 14781 3fbe BC       		.byte	0xbc
 14782 3fbf 0A       		.uleb128 0xa
ARM GAS  /tmp/ccZueut9.s 			page 266


 14783 3fc0 261B0000 		.4byte	.LASF857
 14784 3fc4 38       		.byte	0x38
 14785 3fc5 6C02     		.2byte	0x26c
 14786 3fc7 C5370000 		.4byte	0x37c5
 14787 3fcb C4       		.byte	0xc4
 14788 3fcc 0A       		.uleb128 0xa
 14789 3fcd 70230000 		.4byte	.LASF858
 14790 3fd1 38       		.byte	0x38
 14791 3fd2 6D02     		.2byte	0x26d
 14792 3fd4 25000000 		.4byte	0x25
 14793 3fd8 CC       		.byte	0xcc
 14794 3fd9 00       		.byte	0
 14795 3fda 13       		.uleb128 0x13
 14796 3fdb 20110000 		.4byte	0x1120
 14797 3fdf EA3F0000 		.4byte	0x3fea
 14798 3fe3 14       		.uleb128 0x14
 14799 3fe4 37000000 		.4byte	0x37
 14800 3fe8 19       		.byte	0x19
 14801 3fe9 00       		.byte	0
 14802 3fea 13       		.uleb128 0x13
 14803 3feb 20110000 		.4byte	0x1120
 14804 3fef FA3F0000 		.4byte	0x3ffa
 14805 3ff3 14       		.uleb128 0x14
 14806 3ff4 37000000 		.4byte	0x37
 14807 3ff8 07       		.byte	0x7
 14808 3ff9 00       		.byte	0
 14809 3ffa 13       		.uleb128 0x13
 14810 3ffb 20110000 		.4byte	0x1120
 14811 3fff 0A400000 		.4byte	0x400a
 14812 4003 14       		.uleb128 0x14
 14813 4004 37000000 		.4byte	0x37
 14814 4008 17       		.byte	0x17
 14815 4009 00       		.byte	0
 14816 400a 19       		.uleb128 0x19
 14817 400b F0       		.byte	0xf0
 14818 400c 38       		.byte	0x38
 14819 400d 7202     		.2byte	0x272
 14820 400f 2E400000 		.4byte	0x402e
 14821 4013 0A       		.uleb128 0xa
 14822 4014 E3280000 		.4byte	.LASF859
 14823 4018 38       		.byte	0x38
 14824 4019 7502     		.2byte	0x275
 14825 401b 2E400000 		.4byte	0x402e
 14826 401f 00       		.byte	0
 14827 4020 0A       		.uleb128 0xa
 14828 4021 6C0E0000 		.4byte	.LASF860
 14829 4025 38       		.byte	0x38
 14830 4026 7602     		.2byte	0x276
 14831 4028 3E400000 		.4byte	0x403e
 14832 402c 78       		.byte	0x78
 14833 402d 00       		.byte	0
 14834 402e 13       		.uleb128 0x13
 14835 402f 343B0000 		.4byte	0x3b34
 14836 4033 3E400000 		.4byte	0x403e
 14837 4037 14       		.uleb128 0x14
 14838 4038 37000000 		.4byte	0x37
 14839 403c 1D       		.byte	0x1d
ARM GAS  /tmp/ccZueut9.s 			page 267


 14840 403d 00       		.byte	0
 14841 403e 13       		.uleb128 0x13
 14842 403f 37000000 		.4byte	0x37
 14843 4043 4E400000 		.4byte	0x404e
 14844 4047 14       		.uleb128 0x14
 14845 4048 37000000 		.4byte	0x37
 14846 404c 1D       		.byte	0x1d
 14847 404d 00       		.byte	0
 14848 404e 2C       		.uleb128 0x2c
 14849 404f F0       		.byte	0xf0
 14850 4050 38       		.byte	0x38
 14851 4051 5702     		.2byte	0x257
 14852 4053 70400000 		.4byte	0x4070
 14853 4057 1E       		.uleb128 0x1e
 14854 4058 B91A0000 		.4byte	.LASF810
 14855 405c 38       		.byte	0x38
 14856 405d 6E02     		.2byte	0x26e
 14857 405f D93E0000 		.4byte	0x3ed9
 14858 4063 1E       		.uleb128 0x1e
 14859 4064 85210000 		.4byte	.LASF861
 14860 4068 38       		.byte	0x38
 14861 4069 7702     		.2byte	0x277
 14862 406b 0A400000 		.4byte	0x400a
 14863 406f 00       		.byte	0
 14864 4070 13       		.uleb128 0x13
 14865 4071 20110000 		.4byte	0x1120
 14866 4075 80400000 		.4byte	0x4080
 14867 4079 14       		.uleb128 0x14
 14868 407a 37000000 		.4byte	0x37
 14869 407e 18       		.byte	0x18
 14870 407f 00       		.byte	0
 14871 4080 2D       		.uleb128 0x2d
 14872 4081 EC210000 		.4byte	.LASF863
 14873 4085 0B       		.uleb128 0xb
 14874 4086 04       		.byte	0x4
 14875 4087 80400000 		.4byte	0x4080
 14876 408b 0D       		.uleb128 0xd
 14877 408c 96400000 		.4byte	0x4096
 14878 4090 0E       		.uleb128 0xe
 14879 4091 823C0000 		.4byte	0x3c82
 14880 4095 00       		.byte	0
 14881 4096 0B       		.uleb128 0xb
 14882 4097 04       		.byte	0x4
 14883 4098 8B400000 		.4byte	0x408b
 14884 409c 0B       		.uleb128 0xb
 14885 409d 04       		.byte	0x4
 14886 409e D5390000 		.4byte	0x39d5
 14887 40a2 0D       		.uleb128 0xd
 14888 40a3 AD400000 		.4byte	0x40ad
 14889 40a7 0E       		.uleb128 0xe
 14890 40a8 25000000 		.4byte	0x25
 14891 40ac 00       		.byte	0
 14892 40ad 0B       		.uleb128 0xb
 14893 40ae 04       		.byte	0x4
 14894 40af B3400000 		.4byte	0x40b3
 14895 40b3 0B       		.uleb128 0xb
 14896 40b4 04       		.byte	0x4
ARM GAS  /tmp/ccZueut9.s 			page 268


 14897 40b5 A2400000 		.4byte	0x40a2
 14898 40b9 13       		.uleb128 0x13
 14899 40ba 473E0000 		.4byte	0x3e47
 14900 40be C9400000 		.4byte	0x40c9
 14901 40c2 14       		.uleb128 0x14
 14902 40c3 37000000 		.4byte	0x37
 14903 40c7 02       		.byte	0x2
 14904 40c8 00       		.byte	0
 14905 40c9 15       		.uleb128 0x15
 14906 40ca 5F210000 		.4byte	.LASF864
 14907 40ce 38       		.byte	0x38
 14908 40cf 0703     		.2byte	0x307
 14909 40d1 823C0000 		.4byte	0x3c82
 14910 40d5 15       		.uleb128 0x15
 14911 40d6 8A250000 		.4byte	.LASF865
 14912 40da 38       		.byte	0x38
 14913 40db 0803     		.2byte	0x308
 14914 40dd 883C0000 		.4byte	0x3c88
 14915 40e1 16       		.uleb128 0x16
 14916 40e2 C9010000 		.4byte	.LASF866
 14917 40e6 39       		.byte	0x39
 14918 40e7 63       		.byte	0x63
 14919 40e8 DB370000 		.4byte	0x37db
 14920 40ec 03       		.uleb128 0x3
 14921 40ed F5140000 		.4byte	.LASF867
 14922 40f1 3A       		.byte	0x3a
 14923 40f2 08       		.byte	0x8
 14924 40f3 F7400000 		.4byte	0x40f7
 14925 40f7 07       		.uleb128 0x7
 14926 40f8 21240000 		.4byte	.LASF868
 14927 40fc 18       		.byte	0x18
 14928 40fd 3A       		.byte	0x3a
 14929 40fe 0B       		.byte	0xb
 14930 40ff 4B410000 		.4byte	0x414b
 14931 4103 18       		.uleb128 0x18
 14932 4104 696400   		.ascii	"id\000"
 14933 4107 3A       		.byte	0x3a
 14934 4108 0C       		.byte	0xc
 14935 4109 15110000 		.4byte	0x1115
 14936 410d 00       		.byte	0
 14937 410e 08       		.uleb128 0x8
 14938 410f BD010000 		.4byte	.LASF869
 14939 4113 3A       		.byte	0x3a
 14940 4114 0D       		.byte	0xd
 14941 4115 FB000000 		.4byte	0xfb
 14942 4119 04       		.byte	0x4
 14943 411a 08       		.uleb128 0x8
 14944 411b ED290000 		.4byte	.LASF870
 14945 411f 3A       		.byte	0x3a
 14946 4120 0E       		.byte	0xe
 14947 4121 B5410000 		.4byte	0x41b5
 14948 4125 08       		.byte	0x8
 14949 4126 08       		.uleb128 0x8
 14950 4127 EA0C0000 		.4byte	.LASF871
 14951 412b 3A       		.byte	0x3a
 14952 412c 0F       		.byte	0xf
 14953 412d B5410000 		.4byte	0x41b5
ARM GAS  /tmp/ccZueut9.s 			page 269


 14954 4131 0C       		.byte	0xc
 14955 4132 08       		.uleb128 0x8
 14956 4133 FD020000 		.4byte	.LASF756
 14957 4137 3A       		.byte	0x3a
 14958 4138 10       		.byte	0x10
 14959 4139 B5410000 		.4byte	0x41b5
 14960 413d 10       		.byte	0x10
 14961 413e 08       		.uleb128 0x8
 14962 413f 542A0000 		.4byte	.LASF872
 14963 4143 3A       		.byte	0x3a
 14964 4144 11       		.byte	0x11
 14965 4145 BB410000 		.4byte	0x41bb
 14966 4149 14       		.byte	0x14
 14967 414a 00       		.byte	0
 14968 414b 03       		.uleb128 0x3
 14969 414c F3180000 		.4byte	.LASF873
 14970 4150 3A       		.byte	0x3a
 14971 4151 09       		.byte	0x9
 14972 4152 56410000 		.4byte	0x4156
 14973 4156 07       		.uleb128 0x7
 14974 4157 4C130000 		.4byte	.LASF874
 14975 415b 18       		.byte	0x18
 14976 415c 3A       		.byte	0x3a
 14977 415d 2E       		.byte	0x2e
 14978 415e B5410000 		.4byte	0x41b5
 14979 4162 18       		.uleb128 0x18
 14980 4163 696400   		.ascii	"id\000"
 14981 4166 3A       		.byte	0x3a
 14982 4167 2F       		.byte	0x2f
 14983 4168 15110000 		.4byte	0x1115
 14984 416c 00       		.byte	0
 14985 416d 18       		.uleb128 0x18
 14986 416e 6E7300   		.ascii	"ns\000"
 14987 4171 3A       		.byte	0x3a
 14988 4172 30       		.byte	0x30
 14989 4173 B5410000 		.4byte	0x41b5
 14990 4177 04       		.byte	0x4
 14991 4178 08       		.uleb128 0x8
 14992 4179 FD020000 		.4byte	.LASF756
 14993 417d 3A       		.byte	0x3a
 14994 417e 31       		.byte	0x31
 14995 417f BB410000 		.4byte	0x41bb
 14996 4183 08       		.byte	0x8
 14997 4184 08       		.uleb128 0x8
 14998 4185 5D230000 		.4byte	.LASF875
 14999 4189 3A       		.byte	0x3a
 15000 418a 32       		.byte	0x32
 15001 418b A4150000 		.4byte	0x15a4
 15002 418f 0C       		.byte	0xc
 15003 4190 08       		.uleb128 0x8
 15004 4191 0B140000 		.4byte	.LASF876
 15005 4195 3A       		.byte	0x3a
 15006 4196 33       		.byte	0x33
 15007 4197 A4150000 		.4byte	0x15a4
 15008 419b 0D       		.byte	0xd
 15009 419c 08       		.uleb128 0x8
 15010 419d F7080000 		.4byte	.LASF877
ARM GAS  /tmp/ccZueut9.s 			page 270


 15011 41a1 3A       		.byte	0x3a
 15012 41a2 34       		.byte	0x34
 15013 41a3 D5000000 		.4byte	0xd5
 15014 41a7 0E       		.byte	0xe
 15015 41a8 08       		.uleb128 0x8
 15016 41a9 130E0000 		.4byte	.LASF878
 15017 41ad 3A       		.byte	0x3a
 15018 41ae 3C       		.byte	0x3c
 15019 41af 5D420000 		.4byte	0x425d
 15020 41b3 10       		.byte	0x10
 15021 41b4 00       		.byte	0
 15022 41b5 0B       		.uleb128 0xb
 15023 41b6 04       		.byte	0x4
 15024 41b7 EC400000 		.4byte	0x40ec
 15025 41bb 0B       		.uleb128 0xb
 15026 41bc 04       		.byte	0x4
 15027 41bd 4B410000 		.4byte	0x414b
 15028 41c1 07       		.uleb128 0x7
 15029 41c2 5F1B0000 		.4byte	.LASF879
 15030 41c6 08       		.byte	0x8
 15031 41c7 3A       		.byte	0x3a
 15032 41c8 14       		.byte	0x14
 15033 41c9 F2410000 		.4byte	0x41f2
 15034 41cd 18       		.uleb128 0x18
 15035 41ce 62756600 		.ascii	"buf\000"
 15036 41d2 3A       		.byte	0x3a
 15037 41d3 15       		.byte	0x15
 15038 41d4 DB370000 		.4byte	0x37db
 15039 41d8 00       		.byte	0
 15040 41d9 08       		.uleb128 0x8
 15041 41da 162A0000 		.4byte	.LASF880
 15042 41de 3A       		.byte	0x3a
 15043 41df 16       		.byte	0x16
 15044 41e0 F0000000 		.4byte	0xf0
 15045 41e4 04       		.byte	0x4
 15046 41e5 18       		.uleb128 0x18
 15047 41e6 6C656E00 		.ascii	"len\000"
 15048 41ea 3A       		.byte	0x3a
 15049 41eb 17       		.byte	0x17
 15050 41ec F0000000 		.4byte	0xf0
 15051 41f0 06       		.byte	0x6
 15052 41f1 00       		.byte	0
 15053 41f2 07       		.uleb128 0x7
 15054 41f3 DA190000 		.4byte	.LASF881
 15055 41f7 08       		.byte	0x8
 15056 41f8 3A       		.byte	0x3a
 15057 41f9 1A       		.byte	0x1a
 15058 41fa 23420000 		.4byte	0x4223
 15059 41fe 18       		.uleb128 0x18
 15060 41ff 62756600 		.ascii	"buf\000"
 15061 4203 3A       		.byte	0x3a
 15062 4204 1B       		.byte	0x1b
 15063 4205 23420000 		.4byte	0x4223
 15064 4209 00       		.byte	0
 15065 420a 08       		.uleb128 0x8
 15066 420b 840A0000 		.4byte	.LASF882
 15067 420f 3A       		.byte	0x3a
ARM GAS  /tmp/ccZueut9.s 			page 271


 15068 4210 1C       		.byte	0x1c
 15069 4211 F0000000 		.4byte	0xf0
 15070 4215 04       		.byte	0x4
 15071 4216 18       		.uleb128 0x18
 15072 4217 64696D00 		.ascii	"dim\000"
 15073 421b 3A       		.byte	0x3a
 15074 421c 1D       		.byte	0x1d
 15075 421d F0000000 		.4byte	0xf0
 15076 4221 06       		.byte	0x6
 15077 4222 00       		.byte	0
 15078 4223 0B       		.uleb128 0xb
 15079 4224 04       		.byte	0x4
 15080 4225 29420000 		.4byte	0x4229
 15081 4229 04       		.uleb128 0x4
 15082 422a 04       		.byte	0x4
 15083 422b 04       		.byte	0x4
 15084 422c BC0B0000 		.4byte	.LASF883
 15085 4230 07       		.uleb128 0x7
 15086 4231 9F110000 		.4byte	.LASF884
 15087 4235 08       		.byte	0x8
 15088 4236 3A       		.byte	0x3a
 15089 4237 20       		.byte	0x20
 15090 4238 5D420000 		.4byte	0x425d
 15091 423c 18       		.uleb128 0x18
 15092 423d 62756600 		.ascii	"buf\000"
 15093 4241 3A       		.byte	0x3a
 15094 4242 21       		.byte	0x21
 15095 4243 23420000 		.4byte	0x4223
 15096 4247 00       		.byte	0
 15097 4248 18       		.uleb128 0x18
 15098 4249 6E00     		.ascii	"n\000"
 15099 424b 3A       		.byte	0x3a
 15100 424c 22       		.byte	0x22
 15101 424d F0000000 		.4byte	0xf0
 15102 4251 04       		.byte	0x4
 15103 4252 18       		.uleb128 0x18
 15104 4253 6D00     		.ascii	"m\000"
 15105 4255 3A       		.byte	0x3a
 15106 4256 23       		.byte	0x23
 15107 4257 F0000000 		.4byte	0xf0
 15108 425b 06       		.byte	0x6
 15109 425c 00       		.byte	0
 15110 425d 1D       		.uleb128 0x1d
 15111 425e 08       		.byte	0x8
 15112 425f 3A       		.byte	0x3a
 15113 4260 35       		.byte	0x35
 15114 4261 A2420000 		.4byte	0x42a2
 15115 4265 23       		.uleb128 0x23
 15116 4266 6200     		.ascii	"b\000"
 15117 4268 3A       		.byte	0x3a
 15118 4269 36       		.byte	0x36
 15119 426a A4150000 		.4byte	0x15a4
 15120 426e 23       		.uleb128 0x23
 15121 426f 7300     		.ascii	"s\000"
 15122 4271 3A       		.byte	0x3a
 15123 4272 37       		.byte	0x37
 15124 4273 29420000 		.4byte	0x4229
ARM GAS  /tmp/ccZueut9.s 			page 272


 15125 4277 23       		.uleb128 0x23
 15126 4278 6900     		.ascii	"i\000"
 15127 427a 3A       		.byte	0x3a
 15128 427b 38       		.byte	0x38
 15129 427c FB000000 		.4byte	0xfb
 15130 4280 23       		.uleb128 0x23
 15131 4281 73747200 		.ascii	"str\000"
 15132 4285 3A       		.byte	0x3a
 15133 4286 39       		.byte	0x39
 15134 4287 C1410000 		.4byte	0x41c1
 15135 428b 2B       		.uleb128 0x2b
 15136 428c 0A010000 		.4byte	.LASF885
 15137 4290 3A       		.byte	0x3a
 15138 4291 3A       		.byte	0x3a
 15139 4292 F2410000 		.4byte	0x41f2
 15140 4296 23       		.uleb128 0x23
 15141 4297 6D617400 		.ascii	"mat\000"
 15142 429b 3A       		.byte	0x3a
 15143 429c 3B       		.byte	0x3b
 15144 429d 30420000 		.4byte	0x4230
 15145 42a1 00       		.byte	0
 15146 42a2 2F       		.uleb128 0x2f
 15147 42a3 62757300 		.ascii	"bus\000"
 15148 42a7 3B       		.byte	0x3b
 15149 42a8 0C       		.byte	0xc
 15150 42a9 2A390000 		.4byte	0x392a
 15151 42ad 16       		.uleb128 0x16
 15152 42ae 8C0F0000 		.4byte	.LASF886
 15153 42b2 3B       		.byte	0x3b
 15154 42b3 0E       		.byte	0xe
 15155 42b4 EC400000 		.4byte	0x40ec
 15156 42b8 21       		.uleb128 0x21
 15157 42b9 07       		.byte	0x7
 15158 42ba 01       		.byte	0x1
 15159 42bb 69000000 		.4byte	0x69
 15160 42bf 3C       		.byte	0x3c
 15161 42c0 83       		.byte	0x83
 15162 42c1 D2420000 		.4byte	0x42d2
 15163 42c5 22       		.uleb128 0x22
 15164 42c6 5A250000 		.4byte	.LASF887
 15165 42ca 00       		.byte	0
 15166 42cb 22       		.uleb128 0x22
 15167 42cc 4A1E0000 		.4byte	.LASF888
 15168 42d0 01       		.byte	0x1
 15169 42d1 00       		.byte	0
 15170 42d2 03       		.uleb128 0x3
 15171 42d3 312A0000 		.4byte	.LASF889
 15172 42d7 3C       		.byte	0x3c
 15173 42d8 86       		.byte	0x86
 15174 42d9 B8420000 		.4byte	0x42b8
 15175 42dd 21       		.uleb128 0x21
 15176 42de 07       		.byte	0x7
 15177 42df 01       		.byte	0x1
 15178 42e0 69000000 		.4byte	0x69
 15179 42e4 3C       		.byte	0x3c
 15180 42e5 8B       		.byte	0x8b
 15181 42e6 1B430000 		.4byte	0x431b
ARM GAS  /tmp/ccZueut9.s 			page 273


 15182 42ea 22       		.uleb128 0x22
 15183 42eb 14080000 		.4byte	.LASF890
 15184 42ef 00       		.byte	0
 15185 42f0 22       		.uleb128 0x22
 15186 42f1 22040000 		.4byte	.LASF891
 15187 42f5 01       		.byte	0x1
 15188 42f6 22       		.uleb128 0x22
 15189 42f7 BD250000 		.4byte	.LASF892
 15190 42fb 02       		.byte	0x2
 15191 42fc 22       		.uleb128 0x22
 15192 42fd 04240000 		.4byte	.LASF893
 15193 4301 03       		.byte	0x3
 15194 4302 22       		.uleb128 0x22
 15195 4303 9D000000 		.4byte	.LASF894
 15196 4307 04       		.byte	0x4
 15197 4308 22       		.uleb128 0x22
 15198 4309 3A1F0000 		.4byte	.LASF895
 15199 430d 05       		.byte	0x5
 15200 430e 22       		.uleb128 0x22
 15201 430f 45160000 		.4byte	.LASF896
 15202 4313 06       		.byte	0x6
 15203 4314 22       		.uleb128 0x22
 15204 4315 D41D0000 		.4byte	.LASF897
 15205 4319 07       		.byte	0x7
 15206 431a 00       		.byte	0
 15207 431b 03       		.uleb128 0x3
 15208 431c 4A1B0000 		.4byte	.LASF898
 15209 4320 3C       		.byte	0x3c
 15210 4321 94       		.byte	0x94
 15211 4322 DD420000 		.4byte	0x42dd
 15212 4326 03       		.uleb128 0x3
 15213 4327 86050000 		.4byte	.LASF899
 15214 432b 3C       		.byte	0x3c
 15215 432c 99       		.byte	0x99
 15216 432d 31430000 		.4byte	0x4331
 15217 4331 07       		.uleb128 0x7
 15218 4332 86050000 		.4byte	.LASF899
 15219 4336 14       		.byte	0x14
 15220 4337 3C       		.byte	0x3c
 15221 4338 C7       		.byte	0xc7
 15222 4339 7A430000 		.4byte	0x437a
 15223 433d 08       		.uleb128 0x8
 15224 433e 231A0000 		.4byte	.LASF340
 15225 4342 3C       		.byte	0x3c
 15226 4343 CB       		.byte	0xcb
 15227 4344 1B430000 		.4byte	0x431b
 15228 4348 00       		.byte	0
 15229 4349 08       		.uleb128 0x8
 15230 434a BE210000 		.4byte	.LASF341
 15231 434e 3C       		.byte	0x3c
 15232 434f CF       		.byte	0xcf
 15233 4350 11440000 		.4byte	0x4411
 15234 4354 04       		.byte	0x4
 15235 4355 08       		.uleb128 0x8
 15236 4356 66270000 		.4byte	.LASF900
 15237 435a 3C       		.byte	0x3c
 15238 435b D3       		.byte	0xd3
ARM GAS  /tmp/ccZueut9.s 			page 274


 15239 435c 17440000 		.4byte	0x4417
 15240 4360 08       		.byte	0x8
 15241 4361 08       		.uleb128 0x8
 15242 4362 820C0000 		.4byte	.LASF347
 15243 4366 3C       		.byte	0x3c
 15244 4367 D7       		.byte	0xd7
 15245 4368 5E1A0000 		.4byte	0x1a5e
 15246 436c 0C       		.byte	0xc
 15247 436d 08       		.uleb128 0x8
 15248 436e 691C0000 		.4byte	.LASF348
 15249 4372 3C       		.byte	0x3c
 15250 4373 DB       		.byte	0xdb
 15251 4374 0B010000 		.4byte	0x10b
 15252 4378 10       		.byte	0x10
 15253 4379 00       		.byte	0
 15254 437a 03       		.uleb128 0x3
 15255 437b 01100000 		.4byte	.LASF901
 15256 437f 3C       		.byte	0x3c
 15257 4380 A0       		.byte	0xa0
 15258 4381 85430000 		.4byte	0x4385
 15259 4385 0B       		.uleb128 0xb
 15260 4386 04       		.byte	0x4
 15261 4387 8B430000 		.4byte	0x438b
 15262 438b 0D       		.uleb128 0xd
 15263 438c 96430000 		.4byte	0x4396
 15264 4390 0E       		.uleb128 0xe
 15265 4391 96430000 		.4byte	0x4396
 15266 4395 00       		.byte	0
 15267 4396 0B       		.uleb128 0xb
 15268 4397 04       		.byte	0x4
 15269 4398 26430000 		.4byte	0x4326
 15270 439c 03       		.uleb128 0x3
 15271 439d 5E1F0000 		.4byte	.LASF902
 15272 43a1 3C       		.byte	0x3c
 15273 43a2 A8       		.byte	0xa8
 15274 43a3 A7430000 		.4byte	0x43a7
 15275 43a7 0B       		.uleb128 0xb
 15276 43a8 04       		.byte	0x4
 15277 43a9 AD430000 		.4byte	0x43ad
 15278 43ad 0D       		.uleb128 0xd
 15279 43ae BD430000 		.4byte	0x43bd
 15280 43b2 0E       		.uleb128 0xe
 15281 43b3 96430000 		.4byte	0x4396
 15282 43b7 0E       		.uleb128 0xe
 15283 43b8 D2420000 		.4byte	0x42d2
 15284 43bc 00       		.byte	0
 15285 43bd 17       		.uleb128 0x17
 15286 43be 14       		.byte	0x14
 15287 43bf 3C       		.byte	0x3c
 15288 43c0 AD       		.byte	0xad
 15289 43c1 01440000 		.4byte	0x4401
 15290 43c5 08       		.uleb128 0x8
 15291 43c6 22230000 		.4byte	.LASF903
 15292 43ca 3C       		.byte	0x3c
 15293 43cb B1       		.byte	0xb1
 15294 43cc 7A430000 		.4byte	0x437a
 15295 43d0 00       		.byte	0
ARM GAS  /tmp/ccZueut9.s 			page 275


 15296 43d1 08       		.uleb128 0x8
 15297 43d2 A7280000 		.4byte	.LASF904
 15298 43d6 3C       		.byte	0x3c
 15299 43d7 B5       		.byte	0xb5
 15300 43d8 7A430000 		.4byte	0x437a
 15301 43dc 04       		.byte	0x4
 15302 43dd 08       		.uleb128 0x8
 15303 43de 59290000 		.4byte	.LASF905
 15304 43e2 3C       		.byte	0x3c
 15305 43e3 B9       		.byte	0xb9
 15306 43e4 7A430000 		.4byte	0x437a
 15307 43e8 08       		.byte	0x8
 15308 43e9 08       		.uleb128 0x8
 15309 43ea F4290000 		.4byte	.LASF354
 15310 43ee 3C       		.byte	0x3c
 15311 43ef BD       		.byte	0xbd
 15312 43f0 9C430000 		.4byte	0x439c
 15313 43f4 0C       		.byte	0xc
 15314 43f5 18       		.uleb128 0x18
 15315 43f6 637200   		.ascii	"cr\000"
 15316 43f9 3C       		.byte	0x3c
 15317 43fa C1       		.byte	0xc1
 15318 43fb 0B010000 		.4byte	0x10b
 15319 43ff 10       		.byte	0x10
 15320 4400 00       		.byte	0
 15321 4401 03       		.uleb128 0x3
 15322 4402 232B0000 		.4byte	.LASF906
 15323 4406 3C       		.byte	0x3c
 15324 4407 C2       		.byte	0xc2
 15325 4408 BD430000 		.4byte	0x43bd
 15326 440c 05       		.uleb128 0x5
 15327 440d 01440000 		.4byte	0x4401
 15328 4411 0B       		.uleb128 0xb
 15329 4412 04       		.byte	0x4
 15330 4413 0C440000 		.4byte	0x440c
 15331 4417 0B       		.uleb128 0xb
 15332 4418 04       		.byte	0x4
 15333 4419 220A0000 		.4byte	0xa22
 15334 441d 16       		.uleb128 0x16
 15335 441e D5050000 		.4byte	.LASF907
 15336 4422 3C       		.byte	0x3c
 15337 4423 E7       		.byte	0xe7
 15338 4424 26430000 		.4byte	0x4326
 15339 4428 21       		.uleb128 0x21
 15340 4429 07       		.byte	0x7
 15341 442a 01       		.byte	0x1
 15342 442b 69000000 		.4byte	0x69
 15343 442f 3D       		.byte	0x3d
 15344 4430 70       		.byte	0x70
 15345 4431 96440000 		.4byte	0x4496
 15346 4435 22       		.uleb128 0x22
 15347 4436 00040000 		.4byte	.LASF908
 15348 443a 00       		.byte	0
 15349 443b 22       		.uleb128 0x22
 15350 443c A0020000 		.4byte	.LASF909
 15351 4440 01       		.byte	0x1
 15352 4441 22       		.uleb128 0x22
ARM GAS  /tmp/ccZueut9.s 			page 276


 15353 4442 500C0000 		.4byte	.LASF910
 15354 4446 02       		.byte	0x2
 15355 4447 22       		.uleb128 0x22
 15356 4448 351D0000 		.4byte	.LASF911
 15357 444c 03       		.byte	0x3
 15358 444d 22       		.uleb128 0x22
 15359 444e 79230000 		.4byte	.LASF912
 15360 4452 04       		.byte	0x4
 15361 4453 22       		.uleb128 0x22
 15362 4454 3C090000 		.4byte	.LASF913
 15363 4458 05       		.byte	0x5
 15364 4459 22       		.uleb128 0x22
 15365 445a B20D0000 		.4byte	.LASF914
 15366 445e 06       		.byte	0x6
 15367 445f 22       		.uleb128 0x22
 15368 4460 E0230000 		.4byte	.LASF915
 15369 4464 07       		.byte	0x7
 15370 4465 22       		.uleb128 0x22
 15371 4466 840F0000 		.4byte	.LASF916
 15372 446a 08       		.byte	0x8
 15373 446b 22       		.uleb128 0x22
 15374 446c FD1E0000 		.4byte	.LASF917
 15375 4470 09       		.byte	0x9
 15376 4471 22       		.uleb128 0x22
 15377 4472 462B0000 		.4byte	.LASF918
 15378 4476 0A       		.byte	0xa
 15379 4477 22       		.uleb128 0x22
 15380 4478 C20B0000 		.4byte	.LASF919
 15381 447c 0B       		.byte	0xb
 15382 447d 22       		.uleb128 0x22
 15383 447e 5C000000 		.4byte	.LASF920
 15384 4482 0C       		.byte	0xc
 15385 4483 22       		.uleb128 0x22
 15386 4484 65130000 		.4byte	.LASF921
 15387 4488 0D       		.byte	0xd
 15388 4489 22       		.uleb128 0x22
 15389 448a 78280000 		.4byte	.LASF922
 15390 448e 0E       		.byte	0xe
 15391 448f 22       		.uleb128 0x22
 15392 4490 AC100000 		.4byte	.LASF923
 15393 4494 0F       		.byte	0xf
 15394 4495 00       		.byte	0
 15395 4496 21       		.uleb128 0x21
 15396 4497 07       		.byte	0x7
 15397 4498 01       		.byte	0x1
 15398 4499 69000000 		.4byte	0x69
 15399 449d 3D       		.byte	0x3d
 15400 449e 86       		.byte	0x86
 15401 449f B6440000 		.4byte	0x44b6
 15402 44a3 22       		.uleb128 0x22
 15403 44a4 50010000 		.4byte	.LASF924
 15404 44a8 00       		.byte	0
 15405 44a9 22       		.uleb128 0x22
 15406 44aa 04200000 		.4byte	.LASF925
 15407 44ae 01       		.byte	0x1
 15408 44af 22       		.uleb128 0x22
 15409 44b0 C5230000 		.4byte	.LASF926
ARM GAS  /tmp/ccZueut9.s 			page 277


 15410 44b4 02       		.byte	0x2
 15411 44b5 00       		.byte	0
 15412 44b6 21       		.uleb128 0x21
 15413 44b7 07       		.byte	0x7
 15414 44b8 01       		.byte	0x1
 15415 44b9 69000000 		.4byte	0x69
 15416 44bd 3E       		.byte	0x3e
 15417 44be 0D       		.byte	0xd
 15418 44bf E2440000 		.4byte	0x44e2
 15419 44c3 22       		.uleb128 0x22
 15420 44c4 D61F0000 		.4byte	.LASF927
 15421 44c8 00       		.byte	0
 15422 44c9 22       		.uleb128 0x22
 15423 44ca DB1F0000 		.4byte	.LASF928
 15424 44ce 01       		.byte	0x1
 15425 44cf 22       		.uleb128 0x22
 15426 44d0 E01F0000 		.4byte	.LASF929
 15427 44d4 02       		.byte	0x2
 15428 44d5 22       		.uleb128 0x22
 15429 44d6 E51F0000 		.4byte	.LASF930
 15430 44da 03       		.byte	0x3
 15431 44db 22       		.uleb128 0x22
 15432 44dc 68140000 		.4byte	.LASF931
 15433 44e0 04       		.byte	0x4
 15434 44e1 00       		.byte	0
 15435 44e2 13       		.uleb128 0x13
 15436 44e3 27110000 		.4byte	0x1127
 15437 44e7 ED440000 		.4byte	0x44ed
 15438 44eb 30       		.uleb128 0x30
 15439 44ec 00       		.byte	0
 15440 44ed 05       		.uleb128 0x5
 15441 44ee E2440000 		.4byte	0x44e2
 15442 44f2 16       		.uleb128 0x16
 15443 44f3 1E1B0000 		.4byte	.LASF932
 15444 44f7 3F       		.byte	0x3f
 15445 44f8 A5       		.byte	0xa5
 15446 44f9 ED440000 		.4byte	0x44ed
 15447 44fd 17       		.uleb128 0x17
 15448 44fe 0C       		.byte	0xc
 15449 44ff 40       		.byte	0x40
 15450 4500 16       		.byte	0x16
 15451 4501 2A450000 		.4byte	0x452a
 15452 4505 08       		.uleb128 0x8
 15453 4506 91100000 		.4byte	.LASF933
 15454 450a 40       		.byte	0x40
 15455 450b 18       		.byte	0x18
 15456 450c 29420000 		.4byte	0x4229
 15457 4510 00       		.byte	0
 15458 4511 08       		.uleb128 0x8
 15459 4512 5C030000 		.4byte	.LASF934
 15460 4516 40       		.byte	0x40
 15461 4517 1A       		.byte	0x1a
 15462 4518 29420000 		.4byte	0x4229
 15463 451c 04       		.byte	0x4
 15464 451d 08       		.uleb128 0x8
 15465 451e 27030000 		.4byte	.LASF935
 15466 4522 40       		.byte	0x40
ARM GAS  /tmp/ccZueut9.s 			page 278


 15467 4523 24       		.byte	0x24
 15468 4524 29420000 		.4byte	0x4229
 15469 4528 08       		.byte	0x8
 15470 4529 00       		.byte	0
 15471 452a 03       		.uleb128 0x3
 15472 452b C0220000 		.4byte	.LASF936
 15473 452f 40       		.byte	0x40
 15474 4530 28       		.byte	0x28
 15475 4531 FD440000 		.4byte	0x44fd
 15476 4535 13       		.uleb128 0x13
 15477 4536 20110000 		.4byte	0x1120
 15478 453a 46450000 		.4byte	0x4546
 15479 453e 2A       		.uleb128 0x2a
 15480 453f 37000000 		.4byte	0x37
 15481 4543 2A10     		.2byte	0x102a
 15482 4545 00       		.byte	0
 15483 4546 16       		.uleb128 0x16
 15484 4547 29210000 		.4byte	.LASF749
 15485 454b 01       		.byte	0x1
 15486 454c 3F       		.byte	0x3f
 15487 454d 35450000 		.4byte	0x4535
 15488 4551 16       		.uleb128 0x16
 15489 4552 580D0000 		.4byte	.LASF937
 15490 4556 01       		.byte	0x1
 15491 4557 42       		.byte	0x42
 15492 4558 25000000 		.4byte	0x25
 15493 455c 2F       		.uleb128 0x2f
 15494 455d 6300     		.ascii	"c\000"
 15495 455f 01       		.byte	0x1
 15496 4560 43       		.byte	0x43
 15497 4561 20110000 		.4byte	0x1120
 15498 4565 31       		.uleb128 0x31
 15499 4566 270D0000 		.4byte	.LASF1058
 15500 456a 01       		.byte	0x1
 15501 456b 4C       		.byte	0x4c
 15502 456c 25000000 		.4byte	0x25
 15503 4570 00000000 		.4byte	.LFB259
 15504 4574 942A0000 		.4byte	.LFE259-.LFB259
 15505 4578 01       		.uleb128 0x1
 15506 4579 9C       		.byte	0x9c
 15507 457a 786F0000 		.4byte	0x6f78
 15508 457e 32       		.uleb128 0x32
 15509 457f 633100   		.ascii	"c1\000"
 15510 4582 01       		.byte	0x1
 15511 4583 4D       		.byte	0x4d
 15512 4584 20110000 		.4byte	0x1120
 15513 4588 05       		.uleb128 0x5
 15514 4589 03       		.byte	0x3
 15515 458a 00000000 		.4byte	c1.13446
 15516 458e 32       		.uleb128 0x32
 15517 458f 633200   		.ascii	"c2\000"
 15518 4592 01       		.byte	0x1
 15519 4593 4D       		.byte	0x4d
 15520 4594 20110000 		.4byte	0x1120
 15521 4598 05       		.uleb128 0x5
 15522 4599 03       		.byte	0x3
 15523 459a 00000000 		.4byte	c2.13447
ARM GAS  /tmp/ccZueut9.s 			page 279


 15524 459e 33       		.uleb128 0x33
 15525 459f A0070000 		.4byte	.LASF938
 15526 45a3 01       		.byte	0x1
 15527 45a4 4D       		.byte	0x4d
 15528 45a5 20110000 		.4byte	0x1120
 15529 45a9 05       		.uleb128 0x5
 15530 45aa 03       		.byte	0x3
 15531 45ab 00000000 		.4byte	wait_cam.13448
 15532 45af 32       		.uleb128 0x32
 15533 45b0 6900     		.ascii	"i\000"
 15534 45b2 01       		.byte	0x1
 15535 45b3 4E       		.byte	0x4e
 15536 45b4 25000000 		.4byte	0x25
 15537 45b8 05       		.uleb128 0x5
 15538 45b9 03       		.byte	0x3
 15539 45ba 00000000 		.4byte	i.13449
 15540 45be 32       		.uleb128 0x32
 15541 45bf 6A00     		.ascii	"j\000"
 15542 45c1 01       		.byte	0x1
 15543 45c2 4E       		.byte	0x4e
 15544 45c3 25000000 		.4byte	0x25
 15545 45c7 05       		.uleb128 0x5
 15546 45c8 03       		.byte	0x3
 15547 45c9 00000000 		.4byte	j.13450
 15548 45cd 34       		.uleb128 0x34
 15549 45ce 6E00     		.ascii	"n\000"
 15550 45d0 01       		.byte	0x1
 15551 45d1 4E       		.byte	0x4e
 15552 45d2 25000000 		.4byte	0x25
 15553 45d6 33       		.uleb128 0x33
 15554 45d7 39170000 		.4byte	.LASF939
 15555 45db 01       		.byte	0x1
 15556 45dc 4E       		.byte	0x4e
 15557 45dd 25000000 		.4byte	0x25
 15558 45e1 05       		.uleb128 0x5
 15559 45e2 03       		.byte	0x3
 15560 45e3 00000000 		.4byte	speedr.13452
 15561 45e7 33       		.uleb128 0x33
 15562 45e8 1D170000 		.4byte	.LASF940
 15563 45ec 01       		.byte	0x1
 15564 45ed 4E       		.byte	0x4e
 15565 45ee 25000000 		.4byte	0x25
 15566 45f2 05       		.uleb128 0x5
 15567 45f3 03       		.byte	0x3
 15568 45f4 00000000 		.4byte	speedl.13453
 15569 45f8 33       		.uleb128 0x33
 15570 45f9 F6000000 		.4byte	.LASF941
 15571 45fd 01       		.byte	0x1
 15572 45fe 4E       		.byte	0x4e
 15573 45ff 25000000 		.4byte	0x25
 15574 4603 05       		.uleb128 0x5
 15575 4604 03       		.byte	0x3
 15576 4605 00000000 		.4byte	positionr.13454
 15577 4609 33       		.uleb128 0x33
 15578 460a EC000000 		.4byte	.LASF942
 15579 460e 01       		.byte	0x1
 15580 460f 4E       		.byte	0x4e
ARM GAS  /tmp/ccZueut9.s 			page 280


 15581 4610 25000000 		.4byte	0x25
 15582 4614 05       		.uleb128 0x5
 15583 4615 03       		.byte	0x3
 15584 4616 00000000 		.4byte	positionl.13455
 15585 461a 33       		.uleb128 0x33
 15586 461b 74000000 		.4byte	.LASF943
 15587 461f 01       		.byte	0x1
 15588 4620 4E       		.byte	0x4e
 15589 4621 25000000 		.4byte	0x25
 15590 4625 05       		.uleb128 0x5
 15591 4626 03       		.byte	0x3
 15592 4627 00000000 		.4byte	LED_nbr.13456
 15593 462b 33       		.uleb128 0x33
 15594 462c 73290000 		.4byte	.LASF944
 15595 4630 01       		.byte	0x1
 15596 4631 4E       		.byte	0x4e
 15597 4632 25000000 		.4byte	0x25
 15598 4636 05       		.uleb128 0x5
 15599 4637 03       		.byte	0x3
 15600 4638 00000000 		.4byte	LED_action.13457
 15601 463c 33       		.uleb128 0x33
 15602 463d 210C0000 		.4byte	.LASF945
 15603 4641 01       		.byte	0x1
 15604 4642 4E       		.byte	0x4e
 15605 4643 25000000 		.4byte	0x25
 15606 4647 05       		.uleb128 0x5
 15607 4648 03       		.byte	0x3
 15608 4649 00000000 		.4byte	accx.13458
 15609 464d 33       		.uleb128 0x33
 15610 464e 260C0000 		.4byte	.LASF946
 15611 4652 01       		.byte	0x1
 15612 4653 4E       		.byte	0x4e
 15613 4654 25000000 		.4byte	0x25
 15614 4658 05       		.uleb128 0x5
 15615 4659 03       		.byte	0x3
 15616 465a 00000000 		.4byte	accy.13459
 15617 465e 33       		.uleb128 0x33
 15618 465f 360E0000 		.4byte	.LASF947
 15619 4663 01       		.byte	0x1
 15620 4664 4E       		.byte	0x4e
 15621 4665 25000000 		.4byte	0x25
 15622 4669 05       		.uleb128 0x5
 15623 466a 03       		.byte	0x3
 15624 466b 00000000 		.4byte	accz.13460
 15625 466f 33       		.uleb128 0x33
 15626 4670 622C0000 		.4byte	.LASF948
 15627 4674 01       		.byte	0x1
 15628 4675 4E       		.byte	0x4e
 15629 4676 25000000 		.4byte	0x25
 15630 467a 05       		.uleb128 0x5
 15631 467b 03       		.byte	0x3
 15632 467c 00000000 		.4byte	sound.13461
 15633 4680 33       		.uleb128 0x33
 15634 4681 B6290000 		.4byte	.LASF949
 15635 4685 01       		.byte	0x1
 15636 4686 4E       		.byte	0x4e
 15637 4687 25000000 		.4byte	0x25
ARM GAS  /tmp/ccZueut9.s 			page 281


 15638 468b 05       		.uleb128 0x5
 15639 468c 03       		.byte	0x3
 15640 468d 00000000 		.4byte	gyrox.13462
 15641 4691 33       		.uleb128 0x33
 15642 4692 AB0F0000 		.4byte	.LASF950
 15643 4696 01       		.byte	0x1
 15644 4697 4E       		.byte	0x4e
 15645 4698 25000000 		.4byte	0x25
 15646 469c 05       		.uleb128 0x5
 15647 469d 03       		.byte	0x3
 15648 469e 00000000 		.4byte	gyroy.13463
 15649 46a2 33       		.uleb128 0x33
 15650 46a3 BC290000 		.4byte	.LASF951
 15651 46a7 01       		.byte	0x1
 15652 46a8 4E       		.byte	0x4e
 15653 46a9 25000000 		.4byte	0x25
 15654 46ad 05       		.uleb128 0x5
 15655 46ae 03       		.byte	0x3
 15656 46af 00000000 		.4byte	gyroz.13464
 15657 46b3 33       		.uleb128 0x33
 15658 46b4 5C1D0000 		.4byte	.LASF952
 15659 46b8 01       		.byte	0x1
 15660 46b9 4F       		.byte	0x4f
 15661 46ba 25000000 		.4byte	0x25
 15662 46be 05       		.uleb128 0x5
 15663 46bf 03       		.byte	0x3
 15664 46c0 00000000 		.4byte	cam_mode.13465
 15665 46c4 33       		.uleb128 0x33
 15666 46c5 870E0000 		.4byte	.LASF953
 15667 46c9 01       		.byte	0x1
 15668 46ca 4F       		.byte	0x4f
 15669 46cb 25000000 		.4byte	0x25
 15670 46cf 05       		.uleb128 0x5
 15671 46d0 03       		.byte	0x3
 15672 46d1 00000000 		.4byte	cam_width.13466
 15673 46d5 33       		.uleb128 0x33
 15674 46d6 B5220000 		.4byte	.LASF954
 15675 46da 01       		.byte	0x1
 15676 46db 4F       		.byte	0x4f
 15677 46dc 25000000 		.4byte	0x25
 15678 46e0 05       		.uleb128 0x5
 15679 46e1 03       		.byte	0x3
 15680 46e2 00000000 		.4byte	cam_heigth.13467
 15681 46e6 33       		.uleb128 0x33
 15682 46e7 C2020000 		.4byte	.LASF955
 15683 46eb 01       		.byte	0x1
 15684 46ec 4F       		.byte	0x4f
 15685 46ed 25000000 		.4byte	0x25
 15686 46f1 05       		.uleb128 0x5
 15687 46f2 03       		.byte	0x3
 15688 46f3 00000000 		.4byte	cam_zoom.13468
 15689 46f7 33       		.uleb128 0x33
 15690 46f8 B50C0000 		.4byte	.LASF956
 15691 46fc 01       		.byte	0x1
 15692 46fd 4F       		.byte	0x4f
 15693 46fe 25000000 		.4byte	0x25
 15694 4702 05       		.uleb128 0x5
ARM GAS  /tmp/ccZueut9.s 			page 282


 15695 4703 03       		.byte	0x3
 15696 4704 00000000 		.4byte	cam_size.13469
 15697 4708 33       		.uleb128 0x33
 15698 4709 53140000 		.4byte	.LASF957
 15699 470d 01       		.byte	0x1
 15700 470e 4F       		.byte	0x4f
 15701 470f 25000000 		.4byte	0x25
 15702 4713 05       		.uleb128 0x5
 15703 4714 03       		.byte	0x3
 15704 4715 00000000 		.4byte	cam_x1.13470
 15705 4719 33       		.uleb128 0x33
 15706 471a 1C1A0000 		.4byte	.LASF958
 15707 471e 01       		.byte	0x1
 15708 471f 4F       		.byte	0x4f
 15709 4720 25000000 		.4byte	0x25
 15710 4724 05       		.uleb128 0x5
 15711 4725 03       		.byte	0x3
 15712 4726 00000000 		.4byte	cam_y1.13471
 15713 472a 33       		.uleb128 0x33
 15714 472b 34110000 		.4byte	.LASF959
 15715 472f 01       		.byte	0x1
 15716 4730 50       		.byte	0x50
 15717 4731 20110000 		.4byte	0x1120
 15718 4735 05       		.uleb128 0x5
 15719 4736 03       		.byte	0x3
 15720 4737 00000000 		.4byte	first.13472
 15721 473b 33       		.uleb128 0x33
 15722 473c AC030000 		.4byte	.LASF960
 15723 4740 01       		.byte	0x1
 15724 4741 51       		.byte	0x51
 15725 4742 786F0000 		.4byte	0x6f78
 15726 4746 05       		.uleb128 0x5
 15727 4747 03       		.byte	0x3
 15728 4748 00000000 		.4byte	rgb_value.13473
 15729 474c 35       		.uleb128 0x35
 15730 474d 70747200 		.ascii	"ptr\000"
 15731 4751 01       		.byte	0x1
 15732 4752 52       		.byte	0x52
 15733 4753 DB370000 		.4byte	0x37db
 15734 4757 00000000 		.4byte	.LLST0
 15735 475b 32       		.uleb128 0x32
 15736 475c 6D6F6400 		.ascii	"mod\000"
 15737 4760 01       		.byte	0x1
 15738 4761 53       		.byte	0x53
 15739 4762 25000000 		.4byte	0x25
 15740 4766 05       		.uleb128 0x5
 15741 4767 03       		.byte	0x3
 15742 4768 00000000 		.4byte	mod.13475
 15743 476c 32       		.uleb128 0x32
 15744 476d 72656700 		.ascii	"reg\000"
 15745 4771 01       		.byte	0x1
 15746 4772 53       		.byte	0x53
 15747 4773 25000000 		.4byte	0x25
 15748 4777 05       		.uleb128 0x5
 15749 4778 03       		.byte	0x3
 15750 4779 00000000 		.4byte	reg.13476
 15751 477d 32       		.uleb128 0x32
ARM GAS  /tmp/ccZueut9.s 			page 283


 15752 477e 76616C00 		.ascii	"val\000"
 15753 4782 01       		.byte	0x1
 15754 4783 53       		.byte	0x53
 15755 4784 25000000 		.4byte	0x25
 15756 4788 05       		.uleb128 0x5
 15757 4789 03       		.byte	0x3
 15758 478a 00000000 		.4byte	val.13477
 15759 478e 36       		.uleb128 0x36
 15760 478f 21070000 		.4byte	.LASF961
 15761 4793 01       		.byte	0x1
 15762 4794 55       		.byte	0x55
 15763 4795 20110000 		.4byte	0x1120
 15764 4799 E8000000 		.4byte	.LLST1
 15765 479d 36       		.uleb128 0x36
 15766 479e B5060000 		.4byte	.LASF962
 15767 47a2 01       		.byte	0x1
 15768 47a3 55       		.byte	0x55
 15769 47a4 20110000 		.4byte	0x1120
 15770 47a8 3F010000 		.4byte	.LLST2
 15771 47ac 36       		.uleb128 0x36
 15772 47ad B0150000 		.4byte	.LASF963
 15773 47b1 01       		.byte	0x1
 15774 47b2 55       		.byte	0x55
 15775 47b3 20110000 		.4byte	0x1120
 15776 47b7 C2010000 		.4byte	.LLST3
 15777 47bb 33       		.uleb128 0x33
 15778 47bc 8E200000 		.4byte	.LASF964
 15779 47c0 01       		.byte	0x1
 15780 47c1 57       		.byte	0x57
 15781 47c2 2A450000 		.4byte	0x452a
 15782 47c6 05       		.uleb128 0x5
 15783 47c7 03       		.byte	0x3
 15784 47c8 00000000 		.4byte	accelero.13481
 15785 47cc 36       		.uleb128 0x36
 15786 47cd 960A0000 		.4byte	.LASF965
 15787 47d1 01       		.byte	0x1
 15788 47d2 59       		.byte	0x59
 15789 47d3 25000000 		.4byte	0x25
 15790 47d7 1F020000 		.4byte	.LLST4
 15791 47db 36       		.uleb128 0x36
 15792 47dc 00010000 		.4byte	.LASF966
 15793 47e0 01       		.byte	0x1
 15794 47e1 5A       		.byte	0x5a
 15795 47e2 37000000 		.4byte	0x37
 15796 47e6 64020000 		.4byte	.LLST5
 15797 47ea 37       		.uleb128 0x37
 15798 47eb 19020000 		.4byte	.LASF967
 15799 47ef 01       		.byte	0x1
 15800 47f0 5B       		.byte	0x5b
 15801 47f1 D5000000 		.4byte	0xd5
 15802 47f5 00       		.byte	0
 15803 47f6 36       		.uleb128 0x36
 15804 47f7 5F200000 		.4byte	.LASF968
 15805 47fb 01       		.byte	0x1
 15806 47fc 5C       		.byte	0x5c
 15807 47fd F0000000 		.4byte	0xf0
 15808 4801 9A020000 		.4byte	.LLST6
ARM GAS  /tmp/ccZueut9.s 			page 284


 15809 4805 36       		.uleb128 0x36
 15810 4806 C5210000 		.4byte	.LASF969
 15811 480a 01       		.byte	0x1
 15812 480b 5D       		.byte	0x5d
 15813 480c 29420000 		.4byte	0x4229
 15814 4810 13030000 		.4byte	.LLST7
 15815 4814 36       		.uleb128 0x36
 15816 4815 D2210000 		.4byte	.LASF970
 15817 4819 01       		.byte	0x1
 15818 481a 5E       		.byte	0x5e
 15819 481b 0B010000 		.4byte	0x10b
 15820 481f 53030000 		.4byte	.LLST8
 15821 4823 33       		.uleb128 0x33
 15822 4824 5B060000 		.4byte	.LASF971
 15823 4828 01       		.byte	0x1
 15824 4829 5F       		.byte	0x5f
 15825 482a 886F0000 		.4byte	0x6f88
 15826 482e 03       		.uleb128 0x3
 15827 482f 91       		.byte	0x91
 15828 4830 B87F     		.sleb128 -72
 15829 4832 33       		.uleb128 0x33
 15830 4833 9C2A0000 		.4byte	.LASF972
 15831 4837 01       		.byte	0x1
 15832 4838 81       		.byte	0x81
 15833 4839 25000000 		.4byte	0x25
 15834 483d 05       		.uleb128 0x5
 15835 483e 03       		.byte	0x3
 15836 483f 00000000 		.4byte	HWversion.13489
 15837 4843 38       		.uleb128 0x38
 15838 4844 62120000 		.4byte	.LBB3
 15839 4848 12000000 		.4byte	.LBE3-.LBB3
 15840 484c 6A480000 		.4byte	0x486a
 15841 4850 39       		.uleb128 0x39
 15842 4851 5F5F7800 		.ascii	"__x\000"
 15843 4855 01       		.byte	0x1
 15844 4856 3D04     		.2byte	0x43d
 15845 4858 20110000 		.4byte	0x1120
 15846 485c 8B030000 		.4byte	.LLST10
 15847 4860 3A       		.uleb128 0x3a
 15848 4861 66120000 		.4byte	.LVL190
 15849 4865 986F0000 		.4byte	0x6f98
 15850 4869 00       		.byte	0
 15851 486a 3B       		.uleb128 0x3b
 15852 486b 00000000 		.4byte	.Ldebug_ranges0+0
 15853 486f BE620000 		.4byte	0x62be
 15854 4873 39       		.uleb128 0x39
 15855 4874 7400     		.ascii	"t\000"
 15856 4876 01       		.byte	0x1
 15857 4877 5205     		.2byte	0x552
 15858 4879 9F000000 		.4byte	0x9f
 15859 487d 9E030000 		.4byte	.LLST9
 15860 4881 3A       		.uleb128 0x3a
 15861 4882 74010000 		.4byte	.LVL17
 15862 4886 A36F0000 		.4byte	0x6fa3
 15863 488a 3A       		.uleb128 0x3a
 15864 488b 7A010000 		.4byte	.LVL18
 15865 488f AE6F0000 		.4byte	0x6fae
ARM GAS  /tmp/ccZueut9.s 			page 285


 15866 4893 3A       		.uleb128 0x3a
 15867 4894 80010000 		.4byte	.LVL19
 15868 4898 B96F0000 		.4byte	0x6fb9
 15869 489c 3C       		.uleb128 0x3c
 15870 489d 8E010000 		.4byte	.LVL20
 15871 48a1 C46F0000 		.4byte	0x6fc4
 15872 48a5 C5480000 		.4byte	0x48c5
 15873 48a9 3D       		.uleb128 0x3d
 15874 48aa 01       		.uleb128 0x1
 15875 48ab 50       		.byte	0x50
 15876 48ac 02       		.uleb128 0x2
 15877 48ad 78       		.byte	0x78
 15878 48ae 00       		.sleb128 0
 15879 48af 3D       		.uleb128 0x3d
 15880 48b0 01       		.uleb128 0x1
 15881 48b1 51       		.byte	0x51
 15882 48b2 05       		.uleb128 0x5
 15883 48b3 03       		.byte	0x3
 15884 48b4 F8000000 		.4byte	.LC13
 15885 48b8 3D       		.uleb128 0x3d
 15886 48b9 01       		.uleb128 0x1
 15887 48ba 52       		.byte	0x52
 15888 48bb 02       		.uleb128 0x2
 15889 48bc 74       		.byte	0x74
 15890 48bd 00       		.sleb128 0
 15891 48be 3D       		.uleb128 0x3d
 15892 48bf 01       		.uleb128 0x1
 15893 48c0 53       		.byte	0x53
 15894 48c1 02       		.uleb128 0x2
 15895 48c2 75       		.byte	0x75
 15896 48c3 00       		.sleb128 0
 15897 48c4 00       		.byte	0
 15898 48c5 3C       		.uleb128 0x3c
 15899 48c6 9C010000 		.4byte	.LVL21
 15900 48ca CF6F0000 		.4byte	0x6fcf
 15901 48ce D9480000 		.4byte	0x48d9
 15902 48d2 3D       		.uleb128 0x3d
 15903 48d3 01       		.uleb128 0x1
 15904 48d4 50       		.byte	0x50
 15905 48d5 02       		.uleb128 0x2
 15906 48d6 78       		.byte	0x78
 15907 48d7 00       		.sleb128 0
 15908 48d8 00       		.byte	0
 15909 48d9 3C       		.uleb128 0x3c
 15910 48da A4010000 		.4byte	.LVL22
 15911 48de DA6F0000 		.4byte	0x6fda
 15912 48e2 ED480000 		.4byte	0x48ed
 15913 48e6 3D       		.uleb128 0x3d
 15914 48e7 01       		.uleb128 0x1
 15915 48e8 50       		.byte	0x50
 15916 48e9 02       		.uleb128 0x2
 15917 48ea 78       		.byte	0x78
 15918 48eb 00       		.sleb128 0
 15919 48ec 00       		.byte	0
 15920 48ed 3A       		.uleb128 0x3a
 15921 48ee A8010000 		.4byte	.LVL23
 15922 48f2 E56F0000 		.4byte	0x6fe5
ARM GAS  /tmp/ccZueut9.s 			page 286


 15923 48f6 3A       		.uleb128 0x3a
 15924 48f7 68130000 		.4byte	.LVL192
 15925 48fb F06F0000 		.4byte	0x6ff0
 15926 48ff 3C       		.uleb128 0x3c
 15927 4900 72130000 		.4byte	.LVL193
 15928 4904 C46F0000 		.4byte	0x6fc4
 15929 4908 1C490000 		.4byte	0x491c
 15930 490c 3D       		.uleb128 0x3d
 15931 490d 01       		.uleb128 0x1
 15932 490e 50       		.byte	0x50
 15933 490f 02       		.uleb128 0x2
 15934 4910 78       		.byte	0x78
 15935 4911 00       		.sleb128 0
 15936 4912 3D       		.uleb128 0x3d
 15937 4913 01       		.uleb128 0x1
 15938 4914 51       		.byte	0x51
 15939 4915 05       		.uleb128 0x5
 15940 4916 03       		.byte	0x3
 15941 4917 B40A0000 		.4byte	.LC85
 15942 491b 00       		.byte	0
 15943 491c 3C       		.uleb128 0x3c
 15944 491d 80130000 		.4byte	.LVL194
 15945 4921 CF6F0000 		.4byte	0x6fcf
 15946 4925 30490000 		.4byte	0x4930
 15947 4929 3D       		.uleb128 0x3d
 15948 492a 01       		.uleb128 0x1
 15949 492b 50       		.byte	0x50
 15950 492c 02       		.uleb128 0x2
 15951 492d 78       		.byte	0x78
 15952 492e 00       		.sleb128 0
 15953 492f 00       		.byte	0
 15954 4930 3C       		.uleb128 0x3c
 15955 4931 88130000 		.4byte	.LVL195
 15956 4935 DA6F0000 		.4byte	0x6fda
 15957 4939 44490000 		.4byte	0x4944
 15958 493d 3D       		.uleb128 0x3d
 15959 493e 01       		.uleb128 0x1
 15960 493f 50       		.byte	0x50
 15961 4940 02       		.uleb128 0x2
 15962 4941 78       		.byte	0x78
 15963 4942 00       		.sleb128 0
 15964 4943 00       		.byte	0
 15965 4944 3A       		.uleb128 0x3a
 15966 4945 8C130000 		.4byte	.LVL196
 15967 4949 E56F0000 		.4byte	0x6fe5
 15968 494d 3A       		.uleb128 0x3a
 15969 494e BE130000 		.4byte	.LVL197
 15970 4952 FB6F0000 		.4byte	0x6ffb
 15971 4956 3C       		.uleb128 0x3c
 15972 4957 C8130000 		.4byte	.LVL198
 15973 495b 06700000 		.4byte	0x7006
 15974 495f 69490000 		.4byte	0x4969
 15975 4963 3D       		.uleb128 0x3d
 15976 4964 01       		.uleb128 0x1
 15977 4965 51       		.byte	0x51
 15978 4966 01       		.uleb128 0x1
 15979 4967 30       		.byte	0x30
ARM GAS  /tmp/ccZueut9.s 			page 287


 15980 4968 00       		.byte	0
 15981 4969 3A       		.uleb128 0x3a
 15982 496a D0130000 		.4byte	.LVL199
 15983 496e 11700000 		.4byte	0x7011
 15984 4972 3C       		.uleb128 0x3c
 15985 4973 E4130000 		.4byte	.LVL200
 15986 4977 C46F0000 		.4byte	0x6fc4
 15987 497b 8C490000 		.4byte	0x498c
 15988 497f 3D       		.uleb128 0x3d
 15989 4980 01       		.uleb128 0x1
 15990 4981 50       		.byte	0x50
 15991 4982 02       		.uleb128 0x2
 15992 4983 78       		.byte	0x78
 15993 4984 00       		.sleb128 0
 15994 4985 3D       		.uleb128 0x3d
 15995 4986 01       		.uleb128 0x1
 15996 4987 51       		.byte	0x51
 15997 4988 02       		.uleb128 0x2
 15998 4989 75       		.byte	0x75
 15999 498a 00       		.sleb128 0
 16000 498b 00       		.byte	0
 16001 498c 3C       		.uleb128 0x3c
 16002 498d F0130000 		.4byte	.LVL201
 16003 4991 CF6F0000 		.4byte	0x6fcf
 16004 4995 A0490000 		.4byte	0x49a0
 16005 4999 3D       		.uleb128 0x3d
 16006 499a 01       		.uleb128 0x1
 16007 499b 50       		.byte	0x50
 16008 499c 02       		.uleb128 0x2
 16009 499d 74       		.byte	0x74
 16010 499e 00       		.sleb128 0
 16011 499f 00       		.byte	0
 16012 49a0 3C       		.uleb128 0x3c
 16013 49a1 F8130000 		.4byte	.LVL202
 16014 49a5 DA6F0000 		.4byte	0x6fda
 16015 49a9 B4490000 		.4byte	0x49b4
 16016 49ad 3D       		.uleb128 0x3d
 16017 49ae 01       		.uleb128 0x1
 16018 49af 50       		.byte	0x50
 16019 49b0 02       		.uleb128 0x2
 16020 49b1 74       		.byte	0x74
 16021 49b2 00       		.sleb128 0
 16022 49b3 00       		.byte	0
 16023 49b4 3A       		.uleb128 0x3a
 16024 49b5 FC130000 		.4byte	.LVL203
 16025 49b9 E56F0000 		.4byte	0x6fe5
 16026 49bd 3C       		.uleb128 0x3c
 16027 49be 16140000 		.4byte	.LVL204
 16028 49c2 1C700000 		.4byte	0x701c
 16029 49c6 EC490000 		.4byte	0x49ec
 16030 49ca 3D       		.uleb128 0x3d
 16031 49cb 01       		.uleb128 0x1
 16032 49cc 50       		.byte	0x50
 16033 49cd 02       		.uleb128 0x2
 16034 49ce 78       		.byte	0x78
 16035 49cf 00       		.sleb128 0
 16036 49d0 3D       		.uleb128 0x3d
ARM GAS  /tmp/ccZueut9.s 			page 288


 16037 49d1 01       		.uleb128 0x1
 16038 49d2 51       		.byte	0x51
 16039 49d3 05       		.uleb128 0x5
 16040 49d4 03       		.byte	0x3
 16041 49d5 0C0B0000 		.4byte	.LC91
 16042 49d9 3D       		.uleb128 0x3d
 16043 49da 01       		.uleb128 0x1
 16044 49db 52       		.byte	0x52
 16045 49dc 05       		.uleb128 0x5
 16046 49dd 03       		.byte	0x3
 16047 49de 00000000 		.4byte	.LANCHOR24
 16048 49e2 3D       		.uleb128 0x3d
 16049 49e3 01       		.uleb128 0x1
 16050 49e4 53       		.byte	0x53
 16051 49e5 05       		.uleb128 0x5
 16052 49e6 03       		.byte	0x3
 16053 49e7 00000000 		.4byte	.LANCHOR25
 16054 49eb 00       		.byte	0
 16055 49ec 3C       		.uleb128 0x3c
 16056 49ed 26140000 		.4byte	.LVL205
 16057 49f1 C46F0000 		.4byte	0x6fc4
 16058 49f5 094A0000 		.4byte	0x4a09
 16059 49f9 3D       		.uleb128 0x3d
 16060 49fa 01       		.uleb128 0x1
 16061 49fb 50       		.byte	0x50
 16062 49fc 02       		.uleb128 0x2
 16063 49fd 78       		.byte	0x78
 16064 49fe 00       		.sleb128 0
 16065 49ff 3D       		.uleb128 0x3d
 16066 4a00 01       		.uleb128 0x1
 16067 4a01 51       		.byte	0x51
 16068 4a02 05       		.uleb128 0x5
 16069 4a03 03       		.byte	0x3
 16070 4a04 180B0000 		.4byte	.LC92
 16071 4a08 00       		.byte	0
 16072 4a09 3C       		.uleb128 0x3c
 16073 4a0a 34140000 		.4byte	.LVL206
 16074 4a0e CF6F0000 		.4byte	0x6fcf
 16075 4a12 1D4A0000 		.4byte	0x4a1d
 16076 4a16 3D       		.uleb128 0x3d
 16077 4a17 01       		.uleb128 0x1
 16078 4a18 50       		.byte	0x50
 16079 4a19 02       		.uleb128 0x2
 16080 4a1a 78       		.byte	0x78
 16081 4a1b 00       		.sleb128 0
 16082 4a1c 00       		.byte	0
 16083 4a1d 3C       		.uleb128 0x3c
 16084 4a1e 3C140000 		.4byte	.LVL207
 16085 4a22 DA6F0000 		.4byte	0x6fda
 16086 4a26 314A0000 		.4byte	0x4a31
 16087 4a2a 3D       		.uleb128 0x3d
 16088 4a2b 01       		.uleb128 0x1
 16089 4a2c 50       		.byte	0x50
 16090 4a2d 02       		.uleb128 0x2
 16091 4a2e 78       		.byte	0x78
 16092 4a2f 00       		.sleb128 0
 16093 4a30 00       		.byte	0
ARM GAS  /tmp/ccZueut9.s 			page 289


 16094 4a31 3A       		.uleb128 0x3a
 16095 4a32 40140000 		.4byte	.LVL208
 16096 4a36 E56F0000 		.4byte	0x6fe5
 16097 4a3a 3A       		.uleb128 0x3a
 16098 4a3b 48140000 		.4byte	.LVL209
 16099 4a3f FB6F0000 		.4byte	0x6ffb
 16100 4a43 3A       		.uleb128 0x3a
 16101 4a44 54140000 		.4byte	.LVL210
 16102 4a48 06700000 		.4byte	0x7006
 16103 4a4c 3A       		.uleb128 0x3a
 16104 4a4d 5E140000 		.4byte	.LVL211
 16105 4a51 11700000 		.4byte	0x7011
 16106 4a55 3C       		.uleb128 0x3c
 16107 4a56 68140000 		.4byte	.LVL212
 16108 4a5a C46F0000 		.4byte	0x6fc4
 16109 4a5e 724A0000 		.4byte	0x4a72
 16110 4a62 3D       		.uleb128 0x3d
 16111 4a63 01       		.uleb128 0x1
 16112 4a64 50       		.byte	0x50
 16113 4a65 02       		.uleb128 0x2
 16114 4a66 78       		.byte	0x78
 16115 4a67 00       		.sleb128 0
 16116 4a68 3D       		.uleb128 0x3d
 16117 4a69 01       		.uleb128 0x1
 16118 4a6a 51       		.byte	0x51
 16119 4a6b 05       		.uleb128 0x5
 16120 4a6c 03       		.byte	0x3
 16121 4a6d 5C0B0000 		.4byte	.LC96
 16122 4a71 00       		.byte	0
 16123 4a72 3C       		.uleb128 0x3c
 16124 4a73 6E140000 		.4byte	.LVL213
 16125 4a77 CF6F0000 		.4byte	0x6fcf
 16126 4a7b 864A0000 		.4byte	0x4a86
 16127 4a7f 3D       		.uleb128 0x3d
 16128 4a80 01       		.uleb128 0x1
 16129 4a81 50       		.byte	0x50
 16130 4a82 02       		.uleb128 0x2
 16131 4a83 78       		.byte	0x78
 16132 4a84 00       		.sleb128 0
 16133 4a85 00       		.byte	0
 16134 4a86 3C       		.uleb128 0x3c
 16135 4a87 76140000 		.4byte	.LVL214
 16136 4a8b DA6F0000 		.4byte	0x6fda
 16137 4a8f 9A4A0000 		.4byte	0x4a9a
 16138 4a93 3D       		.uleb128 0x3d
 16139 4a94 01       		.uleb128 0x1
 16140 4a95 50       		.byte	0x50
 16141 4a96 02       		.uleb128 0x2
 16142 4a97 78       		.byte	0x78
 16143 4a98 00       		.sleb128 0
 16144 4a99 00       		.byte	0
 16145 4a9a 3A       		.uleb128 0x3a
 16146 4a9b 7A140000 		.4byte	.LVL215
 16147 4a9f E56F0000 		.4byte	0x6fe5
 16148 4aa3 3C       		.uleb128 0x3c
 16149 4aa4 9A140000 		.4byte	.LVL216
 16150 4aa8 DA6F0000 		.4byte	0x6fda
ARM GAS  /tmp/ccZueut9.s 			page 290


 16151 4aac C04A0000 		.4byte	0x4ac0
 16152 4ab0 3D       		.uleb128 0x3d
 16153 4ab1 01       		.uleb128 0x1
 16154 4ab2 50       		.byte	0x50
 16155 4ab3 05       		.uleb128 0x5
 16156 4ab4 03       		.byte	0x3
 16157 4ab5 D40A0000 		.4byte	.LC88
 16158 4ab9 3D       		.uleb128 0x3d
 16159 4aba 01       		.uleb128 0x1
 16160 4abb 51       		.byte	0x51
 16161 4abc 02       		.uleb128 0x2
 16162 4abd 08       		.byte	0x8
 16163 4abe 25       		.byte	0x25
 16164 4abf 00       		.byte	0
 16165 4ac0 3A       		.uleb128 0x3a
 16166 4ac1 9E140000 		.4byte	.LVL217
 16167 4ac5 E56F0000 		.4byte	0x6fe5
 16168 4ac9 3C       		.uleb128 0x3c
 16169 4aca AE140000 		.4byte	.LVL218
 16170 4ace C46F0000 		.4byte	0x6fc4
 16171 4ad2 E64A0000 		.4byte	0x4ae6
 16172 4ad6 3D       		.uleb128 0x3d
 16173 4ad7 01       		.uleb128 0x1
 16174 4ad8 50       		.byte	0x50
 16175 4ad9 02       		.uleb128 0x2
 16176 4ada 78       		.byte	0x78
 16177 4adb 00       		.sleb128 0
 16178 4adc 3D       		.uleb128 0x3d
 16179 4add 01       		.uleb128 0x1
 16180 4ade 51       		.byte	0x51
 16181 4adf 05       		.uleb128 0x5
 16182 4ae0 03       		.byte	0x3
 16183 4ae1 480B0000 		.4byte	.LC95
 16184 4ae5 00       		.byte	0
 16185 4ae6 3C       		.uleb128 0x3c
 16186 4ae7 B4140000 		.4byte	.LVL219
 16187 4aeb CF6F0000 		.4byte	0x6fcf
 16188 4aef FA4A0000 		.4byte	0x4afa
 16189 4af3 3D       		.uleb128 0x3d
 16190 4af4 01       		.uleb128 0x1
 16191 4af5 50       		.byte	0x50
 16192 4af6 02       		.uleb128 0x2
 16193 4af7 78       		.byte	0x78
 16194 4af8 00       		.sleb128 0
 16195 4af9 00       		.byte	0
 16196 4afa 3C       		.uleb128 0x3c
 16197 4afb BC140000 		.4byte	.LVL220
 16198 4aff DA6F0000 		.4byte	0x6fda
 16199 4b03 0E4B0000 		.4byte	0x4b0e
 16200 4b07 3D       		.uleb128 0x3d
 16201 4b08 01       		.uleb128 0x1
 16202 4b09 50       		.byte	0x50
 16203 4b0a 02       		.uleb128 0x2
 16204 4b0b 78       		.byte	0x78
 16205 4b0c 00       		.sleb128 0
 16206 4b0d 00       		.byte	0
 16207 4b0e 3A       		.uleb128 0x3a
ARM GAS  /tmp/ccZueut9.s 			page 291


 16208 4b0f C0140000 		.4byte	.LVL221
 16209 4b13 E56F0000 		.4byte	0x6fe5
 16210 4b17 3C       		.uleb128 0x3c
 16211 4b18 E2140000 		.4byte	.LVL222
 16212 4b1c 1C700000 		.4byte	0x701c
 16213 4b20 4D4B0000 		.4byte	0x4b4d
 16214 4b24 3D       		.uleb128 0x3d
 16215 4b25 01       		.uleb128 0x1
 16216 4b26 50       		.byte	0x50
 16217 4b27 02       		.uleb128 0x2
 16218 4b28 78       		.byte	0x78
 16219 4b29 00       		.sleb128 0
 16220 4b2a 3D       		.uleb128 0x3d
 16221 4b2b 01       		.uleb128 0x1
 16222 4b2c 51       		.byte	0x51
 16223 4b2d 05       		.uleb128 0x5
 16224 4b2e 03       		.byte	0x3
 16225 4b2f FC0A0000 		.4byte	.LC89
 16226 4b33 3D       		.uleb128 0x3d
 16227 4b34 01       		.uleb128 0x1
 16228 4b35 52       		.byte	0x52
 16229 4b36 05       		.uleb128 0x5
 16230 4b37 03       		.byte	0x3
 16231 4b38 00000000 		.4byte	.LANCHOR24
 16232 4b3c 3D       		.uleb128 0x3d
 16233 4b3d 01       		.uleb128 0x1
 16234 4b3e 53       		.byte	0x53
 16235 4b3f 05       		.uleb128 0x5
 16236 4b40 03       		.byte	0x3
 16237 4b41 00000000 		.4byte	.LANCHOR25
 16238 4b45 3D       		.uleb128 0x3d
 16239 4b46 02       		.uleb128 0x2
 16240 4b47 7D       		.byte	0x7d
 16241 4b48 00       		.sleb128 0
 16242 4b49 02       		.uleb128 0x2
 16243 4b4a 74       		.byte	0x74
 16244 4b4b 00       		.sleb128 0
 16245 4b4c 00       		.byte	0
 16246 4b4d 3A       		.uleb128 0x3a
 16247 4b4e E6140000 		.4byte	.LVL223
 16248 4b52 FB6F0000 		.4byte	0x6ffb
 16249 4b56 3A       		.uleb128 0x3a
 16250 4b57 F4140000 		.4byte	.LVL224
 16251 4b5b 27700000 		.4byte	0x7027
 16252 4b5f 3A       		.uleb128 0x3a
 16253 4b60 F8140000 		.4byte	.LVL225
 16254 4b64 11700000 		.4byte	0x7011
 16255 4b68 3C       		.uleb128 0x3c
 16256 4b69 08150000 		.4byte	.LVL226
 16257 4b6d DA6F0000 		.4byte	0x6fda
 16258 4b71 844B0000 		.4byte	0x4b84
 16259 4b75 3D       		.uleb128 0x3d
 16260 4b76 01       		.uleb128 0x1
 16261 4b77 50       		.byte	0x50
 16262 4b78 05       		.uleb128 0x5
 16263 4b79 03       		.byte	0x3
 16264 4b7a 080B0000 		.4byte	.LC90
ARM GAS  /tmp/ccZueut9.s 			page 292


 16265 4b7e 3D       		.uleb128 0x3d
 16266 4b7f 01       		.uleb128 0x1
 16267 4b80 51       		.byte	0x51
 16268 4b81 01       		.uleb128 0x1
 16269 4b82 33       		.byte	0x33
 16270 4b83 00       		.byte	0
 16271 4b84 3A       		.uleb128 0x3a
 16272 4b85 0C150000 		.4byte	.LVL227
 16273 4b89 E56F0000 		.4byte	0x6fe5
 16274 4b8d 3C       		.uleb128 0x3c
 16275 4b8e 1A150000 		.4byte	.LVL228
 16276 4b92 32700000 		.4byte	0x7032
 16277 4b96 A04B0000 		.4byte	0x4ba0
 16278 4b9a 3D       		.uleb128 0x3d
 16279 4b9b 01       		.uleb128 0x1
 16280 4b9c 50       		.byte	0x50
 16281 4b9d 01       		.uleb128 0x1
 16282 4b9e 30       		.byte	0x30
 16283 4b9f 00       		.byte	0
 16284 4ba0 3C       		.uleb128 0x3c
 16285 4ba1 22150000 		.4byte	.LVL229
 16286 4ba5 32700000 		.4byte	0x7032
 16287 4ba9 B34B0000 		.4byte	0x4bb3
 16288 4bad 3D       		.uleb128 0x3d
 16289 4bae 01       		.uleb128 0x1
 16290 4baf 50       		.byte	0x50
 16291 4bb0 01       		.uleb128 0x1
 16292 4bb1 31       		.byte	0x31
 16293 4bb2 00       		.byte	0
 16294 4bb3 3C       		.uleb128 0x3c
 16295 4bb4 2A150000 		.4byte	.LVL230
 16296 4bb8 32700000 		.4byte	0x7032
 16297 4bbc C64B0000 		.4byte	0x4bc6
 16298 4bc0 3D       		.uleb128 0x3d
 16299 4bc1 01       		.uleb128 0x1
 16300 4bc2 50       		.byte	0x50
 16301 4bc3 01       		.uleb128 0x1
 16302 4bc4 32       		.byte	0x32
 16303 4bc5 00       		.byte	0
 16304 4bc6 3C       		.uleb128 0x3c
 16305 4bc7 38150000 		.4byte	.LVL231
 16306 4bcb C46F0000 		.4byte	0x6fc4
 16307 4bcf EF4B0000 		.4byte	0x4bef
 16308 4bd3 3D       		.uleb128 0x3d
 16309 4bd4 01       		.uleb128 0x1
 16310 4bd5 50       		.byte	0x50
 16311 4bd6 02       		.uleb128 0x2
 16312 4bd7 78       		.byte	0x78
 16313 4bd8 00       		.sleb128 0
 16314 4bd9 3D       		.uleb128 0x3d
 16315 4bda 01       		.uleb128 0x1
 16316 4bdb 51       		.byte	0x51
 16317 4bdc 05       		.uleb128 0x5
 16318 4bdd 03       		.byte	0x3
 16319 4bde C40A0000 		.4byte	.LC87
 16320 4be2 3D       		.uleb128 0x3d
 16321 4be3 01       		.uleb128 0x1
ARM GAS  /tmp/ccZueut9.s 			page 293


 16322 4be4 52       		.byte	0x52
 16323 4be5 02       		.uleb128 0x2
 16324 4be6 74       		.byte	0x74
 16325 4be7 00       		.sleb128 0
 16326 4be8 3D       		.uleb128 0x3d
 16327 4be9 01       		.uleb128 0x1
 16328 4bea 53       		.byte	0x53
 16329 4beb 02       		.uleb128 0x2
 16330 4bec 75       		.byte	0x75
 16331 4bed 00       		.sleb128 0
 16332 4bee 00       		.byte	0
 16333 4bef 3C       		.uleb128 0x3c
 16334 4bf0 56150000 		.4byte	.LVL233
 16335 4bf4 DA6F0000 		.4byte	0x6fda
 16336 4bf8 034C0000 		.4byte	0x4c03
 16337 4bfc 3D       		.uleb128 0x3d
 16338 4bfd 01       		.uleb128 0x1
 16339 4bfe 50       		.byte	0x50
 16340 4bff 02       		.uleb128 0x2
 16341 4c00 78       		.byte	0x78
 16342 4c01 00       		.sleb128 0
 16343 4c02 00       		.byte	0
 16344 4c03 3A       		.uleb128 0x3a
 16345 4c04 5A150000 		.4byte	.LVL234
 16346 4c08 E56F0000 		.4byte	0x6fe5
 16347 4c0c 3C       		.uleb128 0x3c
 16348 4c0d AE150000 		.4byte	.LVL235
 16349 4c11 1C700000 		.4byte	0x701c
 16350 4c15 324C0000 		.4byte	0x4c32
 16351 4c19 3D       		.uleb128 0x3d
 16352 4c1a 01       		.uleb128 0x1
 16353 4c1b 50       		.byte	0x50
 16354 4c1c 02       		.uleb128 0x2
 16355 4c1d 78       		.byte	0x78
 16356 4c1e 00       		.sleb128 0
 16357 4c1f 3D       		.uleb128 0x3d
 16358 4c20 01       		.uleb128 0x1
 16359 4c21 51       		.byte	0x51
 16360 4c22 05       		.uleb128 0x5
 16361 4c23 03       		.byte	0x3
 16362 4c24 A80A0000 		.4byte	.LC83
 16363 4c28 3D       		.uleb128 0x3d
 16364 4c29 01       		.uleb128 0x1
 16365 4c2a 52       		.byte	0x52
 16366 4c2b 05       		.uleb128 0x5
 16367 4c2c 03       		.byte	0x3
 16368 4c2d 00000000 		.4byte	.LANCHOR31
 16369 4c31 00       		.byte	0
 16370 4c32 3A       		.uleb128 0x3a
 16371 4c33 B8150000 		.4byte	.LVL236
 16372 4c37 3D700000 		.4byte	0x703d
 16373 4c3b 3C       		.uleb128 0x3c
 16374 4c3c 0E160000 		.4byte	.LVL237
 16375 4c40 C46F0000 		.4byte	0x6fc4
 16376 4c44 584C0000 		.4byte	0x4c58
 16377 4c48 3D       		.uleb128 0x3d
 16378 4c49 01       		.uleb128 0x1
ARM GAS  /tmp/ccZueut9.s 			page 294


 16379 4c4a 50       		.byte	0x50
 16380 4c4b 02       		.uleb128 0x2
 16381 4c4c 78       		.byte	0x78
 16382 4c4d 00       		.sleb128 0
 16383 4c4e 3D       		.uleb128 0x3d
 16384 4c4f 01       		.uleb128 0x1
 16385 4c50 51       		.byte	0x51
 16386 4c51 05       		.uleb128 0x5
 16387 4c52 03       		.byte	0x3
 16388 4c53 94000000 		.4byte	.LC6
 16389 4c57 00       		.byte	0
 16390 4c58 3C       		.uleb128 0x3c
 16391 4c59 2C160000 		.4byte	.LVL239
 16392 4c5d DA6F0000 		.4byte	0x6fda
 16393 4c61 6C4C0000 		.4byte	0x4c6c
 16394 4c65 3D       		.uleb128 0x3d
 16395 4c66 01       		.uleb128 0x1
 16396 4c67 50       		.byte	0x50
 16397 4c68 02       		.uleb128 0x2
 16398 4c69 78       		.byte	0x78
 16399 4c6a 00       		.sleb128 0
 16400 4c6b 00       		.byte	0
 16401 4c6c 3A       		.uleb128 0x3a
 16402 4c6d 30160000 		.4byte	.LVL240
 16403 4c71 E56F0000 		.4byte	0x6fe5
 16404 4c75 3C       		.uleb128 0x3c
 16405 4c76 42160000 		.4byte	.LVL241
 16406 4c7a 1C700000 		.4byte	0x701c
 16407 4c7e 9B4C0000 		.4byte	0x4c9b
 16408 4c82 3D       		.uleb128 0x3d
 16409 4c83 01       		.uleb128 0x1
 16410 4c84 50       		.byte	0x50
 16411 4c85 02       		.uleb128 0x2
 16412 4c86 78       		.byte	0x78
 16413 4c87 00       		.sleb128 0
 16414 4c88 3D       		.uleb128 0x3d
 16415 4c89 01       		.uleb128 0x1
 16416 4c8a 51       		.byte	0x51
 16417 4c8b 05       		.uleb128 0x5
 16418 4c8c 03       		.byte	0x3
 16419 4c8d 88000000 		.4byte	.LC4
 16420 4c91 3D       		.uleb128 0x3d
 16421 4c92 01       		.uleb128 0x1
 16422 4c93 52       		.byte	0x52
 16423 4c94 05       		.uleb128 0x5
 16424 4c95 03       		.byte	0x3
 16425 4c96 00000000 		.4byte	.LANCHOR27
 16426 4c9a 00       		.byte	0
 16427 4c9b 3A       		.uleb128 0x3a
 16428 4c9c 4A160000 		.4byte	.LVL242
 16429 4ca0 48700000 		.4byte	0x7048
 16430 4ca4 3C       		.uleb128 0x3c
 16431 4ca5 62160000 		.4byte	.LVL243
 16432 4ca9 DA6F0000 		.4byte	0x6fda
 16433 4cad C04C0000 		.4byte	0x4cc0
 16434 4cb1 3D       		.uleb128 0x3d
 16435 4cb2 01       		.uleb128 0x1
ARM GAS  /tmp/ccZueut9.s 			page 295


 16436 4cb3 50       		.byte	0x50
 16437 4cb4 05       		.uleb128 0x5
 16438 4cb5 03       		.byte	0x3
 16439 4cb6 90000000 		.4byte	.LC5
 16440 4cba 3D       		.uleb128 0x3d
 16441 4cbb 01       		.uleb128 0x1
 16442 4cbc 51       		.byte	0x51
 16443 4cbd 01       		.uleb128 0x1
 16444 4cbe 33       		.byte	0x33
 16445 4cbf 00       		.byte	0
 16446 4cc0 3A       		.uleb128 0x3a
 16447 4cc1 66160000 		.4byte	.LVL244
 16448 4cc5 E56F0000 		.4byte	0x6fe5
 16449 4cc9 3C       		.uleb128 0x3c
 16450 4cca 86160000 		.4byte	.LVL245
 16451 4cce DA6F0000 		.4byte	0x6fda
 16452 4cd2 E64C0000 		.4byte	0x4ce6
 16453 4cd6 3D       		.uleb128 0x3d
 16454 4cd7 01       		.uleb128 0x1
 16455 4cd8 50       		.byte	0x50
 16456 4cd9 05       		.uleb128 0x5
 16457 4cda 03       		.byte	0x3
 16458 4cdb EC090000 		.4byte	.LC73
 16459 4cdf 3D       		.uleb128 0x3d
 16460 4ce0 01       		.uleb128 0x1
 16461 4ce1 51       		.byte	0x51
 16462 4ce2 02       		.uleb128 0x2
 16463 4ce3 08       		.byte	0x8
 16464 4ce4 3E       		.byte	0x3e
 16465 4ce5 00       		.byte	0
 16466 4ce6 3A       		.uleb128 0x3a
 16467 4ce7 8A160000 		.4byte	.LVL246
 16468 4ceb E56F0000 		.4byte	0x6fe5
 16469 4cef 3C       		.uleb128 0x3c
 16470 4cf0 96160000 		.4byte	.LVL247
 16471 4cf4 53700000 		.4byte	0x7053
 16472 4cf8 074D0000 		.4byte	0x4d07
 16473 4cfc 3D       		.uleb128 0x3d
 16474 4cfd 01       		.uleb128 0x1
 16475 4cfe 50       		.byte	0x50
 16476 4cff 01       		.uleb128 0x1
 16477 4d00 38       		.byte	0x38
 16478 4d01 3D       		.uleb128 0x3d
 16479 4d02 01       		.uleb128 0x1
 16480 4d03 51       		.byte	0x51
 16481 4d04 01       		.uleb128 0x1
 16482 4d05 31       		.byte	0x31
 16483 4d06 00       		.byte	0
 16484 4d07 3C       		.uleb128 0x3c
 16485 4d08 9E160000 		.4byte	.LVL248
 16486 4d0c 5E700000 		.4byte	0x705e
 16487 4d10 1C4D0000 		.4byte	0x4d1c
 16488 4d14 3D       		.uleb128 0x3d
 16489 4d15 01       		.uleb128 0x1
 16490 4d16 50       		.byte	0x50
 16491 4d17 03       		.uleb128 0x3
 16492 4d18 0A       		.byte	0xa
ARM GAS  /tmp/ccZueut9.s 			page 296


 16493 4d19 9001     		.2byte	0x190
 16494 4d1b 00       		.byte	0
 16495 4d1c 3A       		.uleb128 0x3a
 16496 4d1d A2160000 		.4byte	.LVL249
 16497 4d21 69700000 		.4byte	0x7069
 16498 4d25 3C       		.uleb128 0x3c
 16499 4d26 A8160000 		.4byte	.LVL250
 16500 4d2a 5E700000 		.4byte	0x705e
 16501 4d2e 394D0000 		.4byte	0x4d39
 16502 4d32 3D       		.uleb128 0x3d
 16503 4d33 01       		.uleb128 0x1
 16504 4d34 50       		.byte	0x50
 16505 4d35 02       		.uleb128 0x2
 16506 4d36 08       		.byte	0x8
 16507 4d37 64       		.byte	0x64
 16508 4d38 00       		.byte	0
 16509 4d39 3A       		.uleb128 0x3a
 16510 4d3a AC160000 		.4byte	.LVL251
 16511 4d3e 74700000 		.4byte	0x7074
 16512 4d42 3C       		.uleb128 0x3c
 16513 4d43 B4160000 		.4byte	.LVL252
 16514 4d47 DA6F0000 		.4byte	0x6fda
 16515 4d4b 5E4D0000 		.4byte	0x4d5e
 16516 4d4f 3D       		.uleb128 0x3d
 16517 4d50 01       		.uleb128 0x1
 16518 4d51 50       		.byte	0x50
 16519 4d52 05       		.uleb128 0x5
 16520 4d53 03       		.byte	0x3
 16521 4d54 640B0000 		.4byte	.LC97
 16522 4d58 3D       		.uleb128 0x3d
 16523 4d59 01       		.uleb128 0x1
 16524 4d5a 51       		.byte	0x51
 16525 4d5b 01       		.uleb128 0x1
 16526 4d5c 49       		.byte	0x49
 16527 4d5d 00       		.byte	0
 16528 4d5e 3A       		.uleb128 0x3a
 16529 4d5f B8160000 		.4byte	.LVL253
 16530 4d63 E56F0000 		.4byte	0x6fe5
 16531 4d67 3C       		.uleb128 0x3c
 16532 4d68 D0160000 		.4byte	.LVL255
 16533 4d6c 7F700000 		.4byte	0x707f
 16534 4d70 804D0000 		.4byte	0x4d80
 16535 4d74 3D       		.uleb128 0x3d
 16536 4d75 01       		.uleb128 0x1
 16537 4d76 50       		.byte	0x50
 16538 4d77 02       		.uleb128 0x2
 16539 4d78 7B       		.byte	0x7b
 16540 4d79 00       		.sleb128 0
 16541 4d7a 3D       		.uleb128 0x3d
 16542 4d7b 01       		.uleb128 0x1
 16543 4d7c 51       		.byte	0x51
 16544 4d7d 01       		.uleb128 0x1
 16545 4d7e 31       		.byte	0x31
 16546 4d7f 00       		.byte	0
 16547 4d80 3C       		.uleb128 0x3c
 16548 4d81 DA160000 		.4byte	.LVL256
 16549 4d85 7F700000 		.4byte	0x707f
ARM GAS  /tmp/ccZueut9.s 			page 297


 16550 4d89 984D0000 		.4byte	0x4d98
 16551 4d8d 3D       		.uleb128 0x3d
 16552 4d8e 01       		.uleb128 0x1
 16553 4d8f 50       		.byte	0x50
 16554 4d90 01       		.uleb128 0x1
 16555 4d91 31       		.byte	0x31
 16556 4d92 3D       		.uleb128 0x3d
 16557 4d93 01       		.uleb128 0x1
 16558 4d94 51       		.byte	0x51
 16559 4d95 01       		.uleb128 0x1
 16560 4d96 31       		.byte	0x31
 16561 4d97 00       		.byte	0
 16562 4d98 3C       		.uleb128 0x3c
 16563 4d99 E4160000 		.4byte	.LVL257
 16564 4d9d 7F700000 		.4byte	0x707f
 16565 4da1 B04D0000 		.4byte	0x4db0
 16566 4da5 3D       		.uleb128 0x3d
 16567 4da6 01       		.uleb128 0x1
 16568 4da7 50       		.byte	0x50
 16569 4da8 01       		.uleb128 0x1
 16570 4da9 32       		.byte	0x32
 16571 4daa 3D       		.uleb128 0x3d
 16572 4dab 01       		.uleb128 0x1
 16573 4dac 51       		.byte	0x51
 16574 4dad 01       		.uleb128 0x1
 16575 4dae 31       		.byte	0x31
 16576 4daf 00       		.byte	0
 16577 4db0 3C       		.uleb128 0x3c
 16578 4db1 F2160000 		.4byte	.LVL258
 16579 4db5 C46F0000 		.4byte	0x6fc4
 16580 4db9 D94D0000 		.4byte	0x4dd9
 16581 4dbd 3D       		.uleb128 0x3d
 16582 4dbe 01       		.uleb128 0x1
 16583 4dbf 50       		.byte	0x50
 16584 4dc0 02       		.uleb128 0x2
 16585 4dc1 78       		.byte	0x78
 16586 4dc2 00       		.sleb128 0
 16587 4dc3 3D       		.uleb128 0x3d
 16588 4dc4 01       		.uleb128 0x1
 16589 4dc5 51       		.byte	0x51
 16590 4dc6 05       		.uleb128 0x5
 16591 4dc7 03       		.byte	0x3
 16592 4dc8 5C000000 		.4byte	.LC1
 16593 4dcc 3D       		.uleb128 0x3d
 16594 4dcd 01       		.uleb128 0x1
 16595 4dce 52       		.byte	0x52
 16596 4dcf 02       		.uleb128 0x2
 16597 4dd0 74       		.byte	0x74
 16598 4dd1 00       		.sleb128 0
 16599 4dd2 3D       		.uleb128 0x3d
 16600 4dd3 01       		.uleb128 0x1
 16601 4dd4 53       		.byte	0x53
 16602 4dd5 02       		.uleb128 0x2
 16603 4dd6 75       		.byte	0x75
 16604 4dd7 00       		.sleb128 0
 16605 4dd8 00       		.byte	0
 16606 4dd9 3C       		.uleb128 0x3c
ARM GAS  /tmp/ccZueut9.s 			page 298


 16607 4dda 00170000 		.4byte	.LVL259
 16608 4dde CF6F0000 		.4byte	0x6fcf
 16609 4de2 ED4D0000 		.4byte	0x4ded
 16610 4de6 3D       		.uleb128 0x3d
 16611 4de7 01       		.uleb128 0x1
 16612 4de8 50       		.byte	0x50
 16613 4de9 02       		.uleb128 0x2
 16614 4dea 78       		.byte	0x78
 16615 4deb 00       		.sleb128 0
 16616 4dec 00       		.byte	0
 16617 4ded 3C       		.uleb128 0x3c
 16618 4dee 08170000 		.4byte	.LVL260
 16619 4df2 DA6F0000 		.4byte	0x6fda
 16620 4df6 014E0000 		.4byte	0x4e01
 16621 4dfa 3D       		.uleb128 0x3d
 16622 4dfb 01       		.uleb128 0x1
 16623 4dfc 50       		.byte	0x50
 16624 4dfd 02       		.uleb128 0x2
 16625 4dfe 78       		.byte	0x78
 16626 4dff 00       		.sleb128 0
 16627 4e00 00       		.byte	0
 16628 4e01 3A       		.uleb128 0x3a
 16629 4e02 0C170000 		.4byte	.LVL261
 16630 4e06 E56F0000 		.4byte	0x6fe5
 16631 4e0a 3C       		.uleb128 0x3c
 16632 4e0b 1A170000 		.4byte	.LVL262
 16633 4e0f 8A700000 		.4byte	0x708a
 16634 4e13 1D4E0000 		.4byte	0x4e1d
 16635 4e17 3D       		.uleb128 0x3d
 16636 4e18 01       		.uleb128 0x1
 16637 4e19 50       		.byte	0x50
 16638 4e1a 01       		.uleb128 0x1
 16639 4e1b 30       		.byte	0x30
 16640 4e1c 00       		.byte	0
 16641 4e1d 3C       		.uleb128 0x3c
 16642 4e1e 22170000 		.4byte	.LVL263
 16643 4e22 8A700000 		.4byte	0x708a
 16644 4e26 304E0000 		.4byte	0x4e30
 16645 4e2a 3D       		.uleb128 0x3d
 16646 4e2b 01       		.uleb128 0x1
 16647 4e2c 50       		.byte	0x50
 16648 4e2d 01       		.uleb128 0x1
 16649 4e2e 31       		.byte	0x31
 16650 4e2f 00       		.byte	0
 16651 4e30 3C       		.uleb128 0x3c
 16652 4e31 2A170000 		.4byte	.LVL264
 16653 4e35 8A700000 		.4byte	0x708a
 16654 4e39 434E0000 		.4byte	0x4e43
 16655 4e3d 3D       		.uleb128 0x3d
 16656 4e3e 01       		.uleb128 0x1
 16657 4e3f 50       		.byte	0x50
 16658 4e40 01       		.uleb128 0x1
 16659 4e41 32       		.byte	0x32
 16660 4e42 00       		.byte	0
 16661 4e43 3C       		.uleb128 0x3c
 16662 4e44 32170000 		.4byte	.LVL265
 16663 4e48 8A700000 		.4byte	0x708a
ARM GAS  /tmp/ccZueut9.s 			page 299


 16664 4e4c 564E0000 		.4byte	0x4e56
 16665 4e50 3D       		.uleb128 0x3d
 16666 4e51 01       		.uleb128 0x1
 16667 4e52 50       		.byte	0x50
 16668 4e53 01       		.uleb128 0x1
 16669 4e54 33       		.byte	0x33
 16670 4e55 00       		.byte	0
 16671 4e56 3C       		.uleb128 0x3c
 16672 4e57 3A170000 		.4byte	.LVL266
 16673 4e5b 8A700000 		.4byte	0x708a
 16674 4e5f 694E0000 		.4byte	0x4e69
 16675 4e63 3D       		.uleb128 0x3d
 16676 4e64 01       		.uleb128 0x1
 16677 4e65 50       		.byte	0x50
 16678 4e66 01       		.uleb128 0x1
 16679 4e67 34       		.byte	0x34
 16680 4e68 00       		.byte	0
 16681 4e69 3C       		.uleb128 0x3c
 16682 4e6a 42170000 		.4byte	.LVL267
 16683 4e6e 8A700000 		.4byte	0x708a
 16684 4e72 7C4E0000 		.4byte	0x4e7c
 16685 4e76 3D       		.uleb128 0x3d
 16686 4e77 01       		.uleb128 0x1
 16687 4e78 50       		.byte	0x50
 16688 4e79 01       		.uleb128 0x1
 16689 4e7a 35       		.byte	0x35
 16690 4e7b 00       		.byte	0
 16691 4e7c 3C       		.uleb128 0x3c
 16692 4e7d 4A170000 		.4byte	.LVL268
 16693 4e81 8A700000 		.4byte	0x708a
 16694 4e85 8F4E0000 		.4byte	0x4e8f
 16695 4e89 3D       		.uleb128 0x3d
 16696 4e8a 01       		.uleb128 0x1
 16697 4e8b 50       		.byte	0x50
 16698 4e8c 01       		.uleb128 0x1
 16699 4e8d 36       		.byte	0x36
 16700 4e8e 00       		.byte	0
 16701 4e8f 3C       		.uleb128 0x3c
 16702 4e90 52170000 		.4byte	.LVL269
 16703 4e94 8A700000 		.4byte	0x708a
 16704 4e98 A24E0000 		.4byte	0x4ea2
 16705 4e9c 3D       		.uleb128 0x3d
 16706 4e9d 01       		.uleb128 0x1
 16707 4e9e 50       		.byte	0x50
 16708 4e9f 01       		.uleb128 0x1
 16709 4ea0 37       		.byte	0x37
 16710 4ea1 00       		.byte	0
 16711 4ea2 3C       		.uleb128 0x3c
 16712 4ea3 70170000 		.4byte	.LVL270
 16713 4ea7 C46F0000 		.4byte	0x6fc4
 16714 4eab F64E0000 		.4byte	0x4ef6
 16715 4eaf 3D       		.uleb128 0x3d
 16716 4eb0 01       		.uleb128 0x1
 16717 4eb1 50       		.byte	0x50
 16718 4eb2 02       		.uleb128 0x2
 16719 4eb3 78       		.byte	0x78
 16720 4eb4 00       		.sleb128 0
ARM GAS  /tmp/ccZueut9.s 			page 300


 16721 4eb5 3D       		.uleb128 0x3d
 16722 4eb6 01       		.uleb128 0x1
 16723 4eb7 51       		.byte	0x51
 16724 4eb8 05       		.uleb128 0x5
 16725 4eb9 03       		.byte	0x3
 16726 4eba 6C0A0000 		.4byte	.LC78
 16727 4ebe 3D       		.uleb128 0x3d
 16728 4ebf 01       		.uleb128 0x1
 16729 4ec0 52       		.byte	0x52
 16730 4ec1 04       		.uleb128 0x4
 16731 4ec2 91       		.byte	0x91
 16732 4ec3 947F     		.sleb128 -108
 16733 4ec5 06       		.byte	0x6
 16734 4ec6 3D       		.uleb128 0x3d
 16735 4ec7 01       		.uleb128 0x1
 16736 4ec8 53       		.byte	0x53
 16737 4ec9 02       		.uleb128 0x2
 16738 4eca 74       		.byte	0x74
 16739 4ecb 00       		.sleb128 0
 16740 4ecc 3D       		.uleb128 0x3d
 16741 4ecd 02       		.uleb128 0x2
 16742 4ece 7D       		.byte	0x7d
 16743 4ecf 00       		.sleb128 0
 16744 4ed0 04       		.uleb128 0x4
 16745 4ed1 91       		.byte	0x91
 16746 4ed2 887F     		.sleb128 -120
 16747 4ed4 06       		.byte	0x6
 16748 4ed5 3D       		.uleb128 0x3d
 16749 4ed6 02       		.uleb128 0x2
 16750 4ed7 7D       		.byte	0x7d
 16751 4ed8 04       		.sleb128 4
 16752 4ed9 02       		.uleb128 0x2
 16753 4eda 75       		.byte	0x75
 16754 4edb 00       		.sleb128 0
 16755 4edc 3D       		.uleb128 0x3d
 16756 4edd 02       		.uleb128 0x2
 16757 4ede 7D       		.byte	0x7d
 16758 4edf 08       		.sleb128 8
 16759 4ee0 02       		.uleb128 0x2
 16760 4ee1 76       		.byte	0x76
 16761 4ee2 00       		.sleb128 0
 16762 4ee3 3D       		.uleb128 0x3d
 16763 4ee4 02       		.uleb128 0x2
 16764 4ee5 7D       		.byte	0x7d
 16765 4ee6 0C       		.sleb128 12
 16766 4ee7 04       		.uleb128 0x4
 16767 4ee8 91       		.byte	0x91
 16768 4ee9 907F     		.sleb128 -112
 16769 4eeb 06       		.byte	0x6
 16770 4eec 3D       		.uleb128 0x3d
 16771 4eed 02       		.uleb128 0x2
 16772 4eee 7D       		.byte	0x7d
 16773 4eef 10       		.sleb128 16
 16774 4ef0 04       		.uleb128 0x4
 16775 4ef1 91       		.byte	0x91
 16776 4ef2 8C7F     		.sleb128 -116
 16777 4ef4 06       		.byte	0x6
ARM GAS  /tmp/ccZueut9.s 			page 301


 16778 4ef5 00       		.byte	0
 16779 4ef6 3C       		.uleb128 0x3c
 16780 4ef7 8E170000 		.4byte	.LVL272
 16781 4efb DA6F0000 		.4byte	0x6fda
 16782 4eff 0A4F0000 		.4byte	0x4f0a
 16783 4f03 3D       		.uleb128 0x3d
 16784 4f04 01       		.uleb128 0x1
 16785 4f05 50       		.byte	0x50
 16786 4f06 02       		.uleb128 0x2
 16787 4f07 78       		.byte	0x78
 16788 4f08 00       		.sleb128 0
 16789 4f09 00       		.byte	0
 16790 4f0a 3A       		.uleb128 0x3a
 16791 4f0b 92170000 		.4byte	.LVL273
 16792 4f0f E56F0000 		.4byte	0x6fe5
 16793 4f13 3C       		.uleb128 0x3c
 16794 4f14 A0170000 		.4byte	.LVL274
 16795 4f18 95700000 		.4byte	0x7095
 16796 4f1c 264F0000 		.4byte	0x4f26
 16797 4f20 3D       		.uleb128 0x3d
 16798 4f21 01       		.uleb128 0x1
 16799 4f22 50       		.byte	0x50
 16800 4f23 01       		.uleb128 0x1
 16801 4f24 30       		.byte	0x30
 16802 4f25 00       		.byte	0
 16803 4f26 3C       		.uleb128 0x3c
 16804 4f27 A8170000 		.4byte	.LVL275
 16805 4f2b 95700000 		.4byte	0x7095
 16806 4f2f 394F0000 		.4byte	0x4f39
 16807 4f33 3D       		.uleb128 0x3d
 16808 4f34 01       		.uleb128 0x1
 16809 4f35 50       		.byte	0x50
 16810 4f36 01       		.uleb128 0x1
 16811 4f37 31       		.byte	0x31
 16812 4f38 00       		.byte	0
 16813 4f39 3C       		.uleb128 0x3c
 16814 4f3a B0170000 		.4byte	.LVL276
 16815 4f3e 95700000 		.4byte	0x7095
 16816 4f42 4C4F0000 		.4byte	0x4f4c
 16817 4f46 3D       		.uleb128 0x3d
 16818 4f47 01       		.uleb128 0x1
 16819 4f48 50       		.byte	0x50
 16820 4f49 01       		.uleb128 0x1
 16821 4f4a 32       		.byte	0x32
 16822 4f4b 00       		.byte	0
 16823 4f4c 3C       		.uleb128 0x3c
 16824 4f4d B8170000 		.4byte	.LVL277
 16825 4f51 95700000 		.4byte	0x7095
 16826 4f55 5F4F0000 		.4byte	0x4f5f
 16827 4f59 3D       		.uleb128 0x3d
 16828 4f5a 01       		.uleb128 0x1
 16829 4f5b 50       		.byte	0x50
 16830 4f5c 01       		.uleb128 0x1
 16831 4f5d 33       		.byte	0x33
 16832 4f5e 00       		.byte	0
 16833 4f5f 3C       		.uleb128 0x3c
 16834 4f60 C0170000 		.4byte	.LVL278
ARM GAS  /tmp/ccZueut9.s 			page 302


 16835 4f64 95700000 		.4byte	0x7095
 16836 4f68 724F0000 		.4byte	0x4f72
 16837 4f6c 3D       		.uleb128 0x3d
 16838 4f6d 01       		.uleb128 0x1
 16839 4f6e 50       		.byte	0x50
 16840 4f6f 01       		.uleb128 0x1
 16841 4f70 34       		.byte	0x34
 16842 4f71 00       		.byte	0
 16843 4f72 3C       		.uleb128 0x3c
 16844 4f73 C8170000 		.4byte	.LVL279
 16845 4f77 95700000 		.4byte	0x7095
 16846 4f7b 854F0000 		.4byte	0x4f85
 16847 4f7f 3D       		.uleb128 0x3d
 16848 4f80 01       		.uleb128 0x1
 16849 4f81 50       		.byte	0x50
 16850 4f82 01       		.uleb128 0x1
 16851 4f83 35       		.byte	0x35
 16852 4f84 00       		.byte	0
 16853 4f85 3C       		.uleb128 0x3c
 16854 4f86 D0170000 		.4byte	.LVL280
 16855 4f8a 95700000 		.4byte	0x7095
 16856 4f8e 984F0000 		.4byte	0x4f98
 16857 4f92 3D       		.uleb128 0x3d
 16858 4f93 01       		.uleb128 0x1
 16859 4f94 50       		.byte	0x50
 16860 4f95 01       		.uleb128 0x1
 16861 4f96 36       		.byte	0x36
 16862 4f97 00       		.byte	0
 16863 4f98 3C       		.uleb128 0x3c
 16864 4f99 D8170000 		.4byte	.LVL281
 16865 4f9d 95700000 		.4byte	0x7095
 16866 4fa1 AB4F0000 		.4byte	0x4fab
 16867 4fa5 3D       		.uleb128 0x3d
 16868 4fa6 01       		.uleb128 0x1
 16869 4fa7 50       		.byte	0x50
 16870 4fa8 01       		.uleb128 0x1
 16871 4fa9 37       		.byte	0x37
 16872 4faa 00       		.byte	0
 16873 4fab 3C       		.uleb128 0x3c
 16874 4fac F6170000 		.4byte	.LVL282
 16875 4fb0 C46F0000 		.4byte	0x6fc4
 16876 4fb4 FF4F0000 		.4byte	0x4fff
 16877 4fb8 3D       		.uleb128 0x3d
 16878 4fb9 01       		.uleb128 0x1
 16879 4fba 50       		.byte	0x50
 16880 4fbb 02       		.uleb128 0x2
 16881 4fbc 78       		.byte	0x78
 16882 4fbd 00       		.sleb128 0
 16883 4fbe 3D       		.uleb128 0x3d
 16884 4fbf 01       		.uleb128 0x1
 16885 4fc0 51       		.byte	0x51
 16886 4fc1 05       		.uleb128 0x5
 16887 4fc2 03       		.byte	0x3
 16888 4fc3 500A0000 		.4byte	.LC77
 16889 4fc7 3D       		.uleb128 0x3d
 16890 4fc8 01       		.uleb128 0x1
 16891 4fc9 52       		.byte	0x52
ARM GAS  /tmp/ccZueut9.s 			page 303


 16892 4fca 04       		.uleb128 0x4
 16893 4fcb 91       		.byte	0x91
 16894 4fcc 947F     		.sleb128 -108
 16895 4fce 06       		.byte	0x6
 16896 4fcf 3D       		.uleb128 0x3d
 16897 4fd0 01       		.uleb128 0x1
 16898 4fd1 53       		.byte	0x53
 16899 4fd2 02       		.uleb128 0x2
 16900 4fd3 74       		.byte	0x74
 16901 4fd4 00       		.sleb128 0
 16902 4fd5 3D       		.uleb128 0x3d
 16903 4fd6 02       		.uleb128 0x2
 16904 4fd7 7D       		.byte	0x7d
 16905 4fd8 00       		.sleb128 0
 16906 4fd9 04       		.uleb128 0x4
 16907 4fda 91       		.byte	0x91
 16908 4fdb 887F     		.sleb128 -120
 16909 4fdd 06       		.byte	0x6
 16910 4fde 3D       		.uleb128 0x3d
 16911 4fdf 02       		.uleb128 0x2
 16912 4fe0 7D       		.byte	0x7d
 16913 4fe1 04       		.sleb128 4
 16914 4fe2 02       		.uleb128 0x2
 16915 4fe3 75       		.byte	0x75
 16916 4fe4 00       		.sleb128 0
 16917 4fe5 3D       		.uleb128 0x3d
 16918 4fe6 02       		.uleb128 0x2
 16919 4fe7 7D       		.byte	0x7d
 16920 4fe8 08       		.sleb128 8
 16921 4fe9 02       		.uleb128 0x2
 16922 4fea 76       		.byte	0x76
 16923 4feb 00       		.sleb128 0
 16924 4fec 3D       		.uleb128 0x3d
 16925 4fed 02       		.uleb128 0x2
 16926 4fee 7D       		.byte	0x7d
 16927 4fef 0C       		.sleb128 12
 16928 4ff0 04       		.uleb128 0x4
 16929 4ff1 91       		.byte	0x91
 16930 4ff2 907F     		.sleb128 -112
 16931 4ff4 06       		.byte	0x6
 16932 4ff5 3D       		.uleb128 0x3d
 16933 4ff6 02       		.uleb128 0x2
 16934 4ff7 7D       		.byte	0x7d
 16935 4ff8 10       		.sleb128 16
 16936 4ff9 04       		.uleb128 0x4
 16937 4ffa 91       		.byte	0x91
 16938 4ffb 8C7F     		.sleb128 -116
 16939 4ffd 06       		.byte	0x6
 16940 4ffe 00       		.byte	0
 16941 4fff 3C       		.uleb128 0x3c
 16942 5000 14180000 		.4byte	.LVL284
 16943 5004 DA6F0000 		.4byte	0x6fda
 16944 5008 13500000 		.4byte	0x5013
 16945 500c 3D       		.uleb128 0x3d
 16946 500d 01       		.uleb128 0x1
 16947 500e 50       		.byte	0x50
 16948 500f 02       		.uleb128 0x2
ARM GAS  /tmp/ccZueut9.s 			page 304


 16949 5010 78       		.byte	0x78
 16950 5011 00       		.sleb128 0
 16951 5012 00       		.byte	0
 16952 5013 3A       		.uleb128 0x3a
 16953 5014 18180000 		.4byte	.LVL285
 16954 5018 E56F0000 		.4byte	0x6fe5
 16955 501c 3A       		.uleb128 0x3a
 16956 501d 24180000 		.4byte	.LVL286
 16957 5021 A0700000 		.4byte	0x70a0
 16958 5025 3A       		.uleb128 0x3a
 16959 5026 2A180000 		.4byte	.LVL287
 16960 502a AB700000 		.4byte	0x70ab
 16961 502e 3A       		.uleb128 0x3a
 16962 502f 30180000 		.4byte	.LVL288
 16963 5033 B6700000 		.4byte	0x70b6
 16964 5037 3C       		.uleb128 0x3c
 16965 5038 3E180000 		.4byte	.LVL289
 16966 503c C46F0000 		.4byte	0x6fc4
 16967 5040 60500000 		.4byte	0x5060
 16968 5044 3D       		.uleb128 0x3d
 16969 5045 01       		.uleb128 0x1
 16970 5046 50       		.byte	0x50
 16971 5047 02       		.uleb128 0x2
 16972 5048 78       		.byte	0x78
 16973 5049 00       		.sleb128 0
 16974 504a 3D       		.uleb128 0x3d
 16975 504b 01       		.uleb128 0x1
 16976 504c 51       		.byte	0x51
 16977 504d 05       		.uleb128 0x5
 16978 504e 03       		.byte	0x3
 16979 504f C4000000 		.4byte	.LC12
 16980 5053 3D       		.uleb128 0x3d
 16981 5054 01       		.uleb128 0x1
 16982 5055 52       		.byte	0x52
 16983 5056 02       		.uleb128 0x2
 16984 5057 74       		.byte	0x74
 16985 5058 00       		.sleb128 0
 16986 5059 3D       		.uleb128 0x3d
 16987 505a 01       		.uleb128 0x1
 16988 505b 53       		.byte	0x53
 16989 505c 02       		.uleb128 0x2
 16990 505d 75       		.byte	0x75
 16991 505e 00       		.sleb128 0
 16992 505f 00       		.byte	0
 16993 5060 3C       		.uleb128 0x3c
 16994 5061 5C180000 		.4byte	.LVL291
 16995 5065 DA6F0000 		.4byte	0x6fda
 16996 5069 74500000 		.4byte	0x5074
 16997 506d 3D       		.uleb128 0x3d
 16998 506e 01       		.uleb128 0x1
 16999 506f 50       		.byte	0x50
 17000 5070 02       		.uleb128 0x2
 17001 5071 78       		.byte	0x78
 17002 5072 00       		.sleb128 0
 17003 5073 00       		.byte	0
 17004 5074 3A       		.uleb128 0x3a
 17005 5075 60180000 		.4byte	.LVL292
ARM GAS  /tmp/ccZueut9.s 			page 305


 17006 5079 E56F0000 		.4byte	0x6fe5
 17007 507d 3A       		.uleb128 0x3a
 17008 507e 6C180000 		.4byte	.LVL293
 17009 5082 C1700000 		.4byte	0x70c1
 17010 5086 3A       		.uleb128 0x3a
 17011 5087 72180000 		.4byte	.LVL294
 17012 508b CC700000 		.4byte	0x70cc
 17013 508f 3C       		.uleb128 0x3c
 17014 5090 7E180000 		.4byte	.LVL295
 17015 5094 C46F0000 		.4byte	0x6fc4
 17016 5098 B2500000 		.4byte	0x50b2
 17017 509c 3D       		.uleb128 0x3d
 17018 509d 01       		.uleb128 0x1
 17019 509e 50       		.byte	0x50
 17020 509f 02       		.uleb128 0x2
 17021 50a0 78       		.byte	0x78
 17022 50a1 00       		.sleb128 0
 17023 50a2 3D       		.uleb128 0x3d
 17024 50a3 01       		.uleb128 0x1
 17025 50a4 51       		.byte	0x51
 17026 50a5 05       		.uleb128 0x5
 17027 50a6 03       		.byte	0x3
 17028 50a7 980A0000 		.4byte	.LC81
 17029 50ab 3D       		.uleb128 0x3d
 17030 50ac 01       		.uleb128 0x1
 17031 50ad 52       		.byte	0x52
 17032 50ae 02       		.uleb128 0x2
 17033 50af 74       		.byte	0x74
 17034 50b0 00       		.sleb128 0
 17035 50b1 00       		.byte	0
 17036 50b2 3C       		.uleb128 0x3c
 17037 50b3 9C180000 		.4byte	.LVL297
 17038 50b7 DA6F0000 		.4byte	0x6fda
 17039 50bb C6500000 		.4byte	0x50c6
 17040 50bf 3D       		.uleb128 0x3d
 17041 50c0 01       		.uleb128 0x1
 17042 50c1 50       		.byte	0x50
 17043 50c2 02       		.uleb128 0x2
 17044 50c3 78       		.byte	0x78
 17045 50c4 00       		.sleb128 0
 17046 50c5 00       		.byte	0
 17047 50c6 3A       		.uleb128 0x3a
 17048 50c7 A0180000 		.4byte	.LVL298
 17049 50cb E56F0000 		.4byte	0x6fe5
 17050 50cf 3C       		.uleb128 0x3c
 17051 50d0 1A190000 		.4byte	.LVL299
 17052 50d4 C46F0000 		.4byte	0x6fc4
 17053 50d8 F3500000 		.4byte	0x50f3
 17054 50dc 3D       		.uleb128 0x3d
 17055 50dd 01       		.uleb128 0x1
 17056 50de 50       		.byte	0x50
 17057 50df 02       		.uleb128 0x2
 17058 50e0 78       		.byte	0x78
 17059 50e1 00       		.sleb128 0
 17060 50e2 3D       		.uleb128 0x3d
 17061 50e3 01       		.uleb128 0x1
 17062 50e4 51       		.byte	0x51
ARM GAS  /tmp/ccZueut9.s 			page 306


 17063 50e5 05       		.uleb128 0x5
 17064 50e6 03       		.byte	0x3
 17065 50e7 BC090000 		.4byte	.LC70
 17066 50eb 3D       		.uleb128 0x3d
 17067 50ec 02       		.uleb128 0x2
 17068 50ed 7D       		.byte	0x7d
 17069 50ee 00       		.sleb128 0
 17070 50ef 02       		.uleb128 0x2
 17071 50f0 74       		.byte	0x74
 17072 50f1 00       		.sleb128 0
 17073 50f2 00       		.byte	0
 17074 50f3 3C       		.uleb128 0x3c
 17075 50f4 28190000 		.4byte	.LVL300
 17076 50f8 CF6F0000 		.4byte	0x6fcf
 17077 50fc 07510000 		.4byte	0x5107
 17078 5100 3D       		.uleb128 0x3d
 17079 5101 01       		.uleb128 0x1
 17080 5102 50       		.byte	0x50
 17081 5103 02       		.uleb128 0x2
 17082 5104 78       		.byte	0x78
 17083 5105 00       		.sleb128 0
 17084 5106 00       		.byte	0
 17085 5107 3C       		.uleb128 0x3c
 17086 5108 30190000 		.4byte	.LVL301
 17087 510c DA6F0000 		.4byte	0x6fda
 17088 5110 1B510000 		.4byte	0x511b
 17089 5114 3D       		.uleb128 0x3d
 17090 5115 01       		.uleb128 0x1
 17091 5116 50       		.byte	0x50
 17092 5117 02       		.uleb128 0x2
 17093 5118 78       		.byte	0x78
 17094 5119 00       		.sleb128 0
 17095 511a 00       		.byte	0
 17096 511b 3A       		.uleb128 0x3a
 17097 511c 34190000 		.4byte	.LVL302
 17098 5120 E56F0000 		.4byte	0x6fe5
 17099 5124 3C       		.uleb128 0x3c
 17100 5125 4A190000 		.4byte	.LVL303
 17101 5129 D7700000 		.4byte	0x70d7
 17102 512d 38510000 		.4byte	0x5138
 17103 5131 3D       		.uleb128 0x3d
 17104 5132 01       		.uleb128 0x1
 17105 5133 50       		.byte	0x50
 17106 5134 02       		.uleb128 0x2
 17107 5135 7B       		.byte	0x7b
 17108 5136 00       		.sleb128 0
 17109 5137 00       		.byte	0
 17110 5138 3C       		.uleb128 0x3c
 17111 5139 52190000 		.4byte	.LVL304
 17112 513d D7700000 		.4byte	0x70d7
 17113 5141 4B510000 		.4byte	0x514b
 17114 5145 3D       		.uleb128 0x3d
 17115 5146 01       		.uleb128 0x1
 17116 5147 50       		.byte	0x50
 17117 5148 01       		.uleb128 0x1
 17118 5149 31       		.byte	0x31
 17119 514a 00       		.byte	0
ARM GAS  /tmp/ccZueut9.s 			page 307


 17120 514b 3C       		.uleb128 0x3c
 17121 514c 5A190000 		.4byte	.LVL305
 17122 5150 D7700000 		.4byte	0x70d7
 17123 5154 5E510000 		.4byte	0x515e
 17124 5158 3D       		.uleb128 0x3d
 17125 5159 01       		.uleb128 0x1
 17126 515a 50       		.byte	0x50
 17127 515b 01       		.uleb128 0x1
 17128 515c 32       		.byte	0x32
 17129 515d 00       		.byte	0
 17130 515e 3C       		.uleb128 0x3c
 17131 515f 62190000 		.4byte	.LVL306
 17132 5163 D7700000 		.4byte	0x70d7
 17133 5167 71510000 		.4byte	0x5171
 17134 516b 3D       		.uleb128 0x3d
 17135 516c 01       		.uleb128 0x1
 17136 516d 50       		.byte	0x50
 17137 516e 01       		.uleb128 0x1
 17138 516f 33       		.byte	0x33
 17139 5170 00       		.byte	0
 17140 5171 3C       		.uleb128 0x3c
 17141 5172 6A190000 		.4byte	.LVL307
 17142 5176 D7700000 		.4byte	0x70d7
 17143 517a 84510000 		.4byte	0x5184
 17144 517e 3D       		.uleb128 0x3d
 17145 517f 01       		.uleb128 0x1
 17146 5180 50       		.byte	0x50
 17147 5181 01       		.uleb128 0x1
 17148 5182 34       		.byte	0x34
 17149 5183 00       		.byte	0
 17150 5184 3C       		.uleb128 0x3c
 17151 5185 7E190000 		.4byte	.LVL308
 17152 5189 C46F0000 		.4byte	0x6fc4
 17153 518d BD510000 		.4byte	0x51bd
 17154 5191 3D       		.uleb128 0x3d
 17155 5192 01       		.uleb128 0x1
 17156 5193 50       		.byte	0x50
 17157 5194 02       		.uleb128 0x2
 17158 5195 78       		.byte	0x78
 17159 5196 00       		.sleb128 0
 17160 5197 3D       		.uleb128 0x3d
 17161 5198 01       		.uleb128 0x1
 17162 5199 51       		.byte	0x51
 17163 519a 05       		.uleb128 0x5
 17164 519b 03       		.byte	0x3
 17165 519c 3C0A0000 		.4byte	.LC76
 17166 51a0 3D       		.uleb128 0x3d
 17167 51a1 01       		.uleb128 0x1
 17168 51a2 52       		.byte	0x52
 17169 51a3 02       		.uleb128 0x2
 17170 51a4 74       		.byte	0x74
 17171 51a5 00       		.sleb128 0
 17172 51a6 3D       		.uleb128 0x3d
 17173 51a7 01       		.uleb128 0x1
 17174 51a8 53       		.byte	0x53
 17175 51a9 02       		.uleb128 0x2
 17176 51aa 75       		.byte	0x75
ARM GAS  /tmp/ccZueut9.s 			page 308


 17177 51ab 00       		.sleb128 0
 17178 51ac 3D       		.uleb128 0x3d
 17179 51ad 02       		.uleb128 0x2
 17180 51ae 7D       		.byte	0x7d
 17181 51af 00       		.sleb128 0
 17182 51b0 04       		.uleb128 0x4
 17183 51b1 91       		.byte	0x91
 17184 51b2 887F     		.sleb128 -120
 17185 51b4 06       		.byte	0x6
 17186 51b5 3D       		.uleb128 0x3d
 17187 51b6 02       		.uleb128 0x2
 17188 51b7 7D       		.byte	0x7d
 17189 51b8 04       		.sleb128 4
 17190 51b9 02       		.uleb128 0x2
 17191 51ba 76       		.byte	0x76
 17192 51bb 00       		.sleb128 0
 17193 51bc 00       		.byte	0
 17194 51bd 3C       		.uleb128 0x3c
 17195 51be 8C190000 		.4byte	.LVL309
 17196 51c2 CF6F0000 		.4byte	0x6fcf
 17197 51c6 D1510000 		.4byte	0x51d1
 17198 51ca 3D       		.uleb128 0x3d
 17199 51cb 01       		.uleb128 0x1
 17200 51cc 50       		.byte	0x50
 17201 51cd 02       		.uleb128 0x2
 17202 51ce 78       		.byte	0x78
 17203 51cf 00       		.sleb128 0
 17204 51d0 00       		.byte	0
 17205 51d1 3C       		.uleb128 0x3c
 17206 51d2 94190000 		.4byte	.LVL310
 17207 51d6 DA6F0000 		.4byte	0x6fda
 17208 51da E5510000 		.4byte	0x51e5
 17209 51de 3D       		.uleb128 0x3d
 17210 51df 01       		.uleb128 0x1
 17211 51e0 50       		.byte	0x50
 17212 51e1 02       		.uleb128 0x2
 17213 51e2 78       		.byte	0x78
 17214 51e3 00       		.sleb128 0
 17215 51e4 00       		.byte	0
 17216 51e5 3A       		.uleb128 0x3a
 17217 51e6 98190000 		.4byte	.LVL311
 17218 51ea E56F0000 		.4byte	0x6fe5
 17219 51ee 3C       		.uleb128 0x3c
 17220 51ef B0190000 		.4byte	.LVL312
 17221 51f3 C46F0000 		.4byte	0x6fc4
 17222 51f7 0B520000 		.4byte	0x520b
 17223 51fb 3D       		.uleb128 0x3d
 17224 51fc 01       		.uleb128 0x1
 17225 51fd 50       		.byte	0x50
 17226 51fe 02       		.uleb128 0x2
 17227 51ff 78       		.byte	0x78
 17228 5200 00       		.sleb128 0
 17229 5201 3D       		.uleb128 0x3d
 17230 5202 01       		.uleb128 0x1
 17231 5203 51       		.byte	0x51
 17232 5204 05       		.uleb128 0x5
 17233 5205 03       		.byte	0x3
ARM GAS  /tmp/ccZueut9.s 			page 309


 17234 5206 AC000000 		.4byte	.LC9
 17235 520a 00       		.byte	0
 17236 520b 3C       		.uleb128 0x3c
 17237 520c CE190000 		.4byte	.LVL314
 17238 5210 DA6F0000 		.4byte	0x6fda
 17239 5214 1F520000 		.4byte	0x521f
 17240 5218 3D       		.uleb128 0x3d
 17241 5219 01       		.uleb128 0x1
 17242 521a 50       		.byte	0x50
 17243 521b 02       		.uleb128 0x2
 17244 521c 78       		.byte	0x78
 17245 521d 00       		.sleb128 0
 17246 521e 00       		.byte	0
 17247 521f 3A       		.uleb128 0x3a
 17248 5220 D2190000 		.4byte	.LVL315
 17249 5224 E56F0000 		.4byte	0x6fe5
 17250 5228 3C       		.uleb128 0x3c
 17251 5229 E0190000 		.4byte	.LVL316
 17252 522d E2700000 		.4byte	0x70e2
 17253 5231 3B520000 		.4byte	0x523b
 17254 5235 3D       		.uleb128 0x3d
 17255 5236 01       		.uleb128 0x1
 17256 5237 50       		.byte	0x50
 17257 5238 01       		.uleb128 0x1
 17258 5239 30       		.byte	0x30
 17259 523a 00       		.byte	0
 17260 523b 3C       		.uleb128 0x3c
 17261 523c E6190000 		.4byte	.LVL317
 17262 5240 ED700000 		.4byte	0x70ed
 17263 5244 4E520000 		.4byte	0x524e
 17264 5248 3D       		.uleb128 0x3d
 17265 5249 01       		.uleb128 0x1
 17266 524a 50       		.byte	0x50
 17267 524b 01       		.uleb128 0x1
 17268 524c 30       		.byte	0x30
 17269 524d 00       		.byte	0
 17270 524e 3C       		.uleb128 0x3c
 17271 524f EE190000 		.4byte	.LVL318
 17272 5253 53700000 		.4byte	0x7053
 17273 5257 66520000 		.4byte	0x5266
 17274 525b 3D       		.uleb128 0x3d
 17275 525c 01       		.uleb128 0x1
 17276 525d 50       		.byte	0x50
 17277 525e 01       		.uleb128 0x1
 17278 525f 38       		.byte	0x38
 17279 5260 3D       		.uleb128 0x3d
 17280 5261 01       		.uleb128 0x1
 17281 5262 51       		.byte	0x51
 17282 5263 01       		.uleb128 0x1
 17283 5264 30       		.byte	0x30
 17284 5265 00       		.byte	0
 17285 5266 3C       		.uleb128 0x3c
 17286 5267 061A0000 		.4byte	.LVL319
 17287 526b DA6F0000 		.4byte	0x6fda
 17288 526f 82520000 		.4byte	0x5282
 17289 5273 3D       		.uleb128 0x3d
 17290 5274 01       		.uleb128 0x1
ARM GAS  /tmp/ccZueut9.s 			page 310


 17291 5275 50       		.byte	0x50
 17292 5276 05       		.uleb128 0x5
 17293 5277 03       		.byte	0x3
 17294 5278 A40A0000 		.4byte	.LC82
 17295 527c 3D       		.uleb128 0x3d
 17296 527d 01       		.uleb128 0x1
 17297 527e 51       		.byte	0x51
 17298 527f 01       		.uleb128 0x1
 17299 5280 33       		.byte	0x33
 17300 5281 00       		.byte	0
 17301 5282 3A       		.uleb128 0x3a
 17302 5283 0A1A0000 		.4byte	.LVL320
 17303 5287 E56F0000 		.4byte	0x6fe5
 17304 528b 3C       		.uleb128 0x3c
 17305 528c 3E1A0000 		.4byte	.LVL321
 17306 5290 1C700000 		.4byte	0x701c
 17307 5294 B8520000 		.4byte	0x52b8
 17308 5298 3D       		.uleb128 0x3d
 17309 5299 01       		.uleb128 0x1
 17310 529a 50       		.byte	0x50
 17311 529b 02       		.uleb128 0x2
 17312 529c 78       		.byte	0x78
 17313 529d 00       		.sleb128 0
 17314 529e 3D       		.uleb128 0x3d
 17315 529f 01       		.uleb128 0x1
 17316 52a0 51       		.byte	0x51
 17317 52a1 05       		.uleb128 0x5
 17318 52a2 03       		.byte	0x3
 17319 52a3 D0090000 		.4byte	.LC71
 17320 52a7 3D       		.uleb128 0x3d
 17321 52a8 01       		.uleb128 0x1
 17322 52a9 52       		.byte	0x52
 17323 52aa 04       		.uleb128 0x4
 17324 52ab 91       		.byte	0x91
 17325 52ac B07F     		.sleb128 -80
 17326 52ae 06       		.byte	0x6
 17327 52af 3D       		.uleb128 0x3d
 17328 52b0 01       		.uleb128 0x1
 17329 52b1 53       		.byte	0x53
 17330 52b2 04       		.uleb128 0x4
 17331 52b3 91       		.byte	0x91
 17332 52b4 A87F     		.sleb128 -88
 17333 52b6 06       		.byte	0x6
 17334 52b7 00       		.byte	0
 17335 52b8 3A       		.uleb128 0x3a
 17336 52b9 7C1A0000 		.4byte	.LVL322
 17337 52bd F8700000 		.4byte	0x70f8
 17338 52c1 3C       		.uleb128 0x3c
 17339 52c2 CA1A0000 		.4byte	.LVL323
 17340 52c6 03710000 		.4byte	0x7103
 17341 52ca E4520000 		.4byte	0x52e4
 17342 52ce 3D       		.uleb128 0x3d
 17343 52cf 02       		.uleb128 0x2
 17344 52d0 7D       		.byte	0x7d
 17345 52d1 00       		.sleb128 0
 17346 52d2 02       		.uleb128 0x2
 17347 52d3 75       		.byte	0x75
ARM GAS  /tmp/ccZueut9.s 			page 311


 17348 52d4 00       		.sleb128 0
 17349 52d5 3D       		.uleb128 0x3d
 17350 52d6 02       		.uleb128 0x2
 17351 52d7 7D       		.byte	0x7d
 17352 52d8 04       		.sleb128 4
 17353 52d9 02       		.uleb128 0x2
 17354 52da 75       		.byte	0x75
 17355 52db 00       		.sleb128 0
 17356 52dc 3D       		.uleb128 0x3d
 17357 52dd 02       		.uleb128 0x2
 17358 52de 7D       		.byte	0x7d
 17359 52df 08       		.sleb128 8
 17360 52e0 02       		.uleb128 0x2
 17361 52e1 74       		.byte	0x74
 17362 52e2 00       		.sleb128 0
 17363 52e3 00       		.byte	0
 17364 52e4 3A       		.uleb128 0x3a
 17365 52e5 CE1A0000 		.4byte	.LVL324
 17366 52e9 0E710000 		.4byte	0x710e
 17367 52ed 3C       		.uleb128 0x3c
 17368 52ee DE1A0000 		.4byte	.LVL325
 17369 52f2 DA6F0000 		.4byte	0x6fda
 17370 52f6 09530000 		.4byte	0x5309
 17371 52fa 3D       		.uleb128 0x3d
 17372 52fb 01       		.uleb128 0x1
 17373 52fc 50       		.byte	0x50
 17374 52fd 05       		.uleb128 0x5
 17375 52fe 03       		.byte	0x3
 17376 52ff E8090000 		.4byte	.LC72
 17377 5303 3D       		.uleb128 0x3d
 17378 5304 01       		.uleb128 0x1
 17379 5305 51       		.byte	0x51
 17380 5306 01       		.uleb128 0x1
 17381 5307 33       		.byte	0x33
 17382 5308 00       		.byte	0
 17383 5309 3A       		.uleb128 0x3a
 17384 530a E21A0000 		.4byte	.LVL326
 17385 530e E56F0000 		.4byte	0x6fe5
 17386 5312 3C       		.uleb128 0x3c
 17387 5313 F61A0000 		.4byte	.LVL327
 17388 5317 1C700000 		.4byte	0x701c
 17389 531b 41530000 		.4byte	0x5341
 17390 531f 3D       		.uleb128 0x3d
 17391 5320 01       		.uleb128 0x1
 17392 5321 50       		.byte	0x50
 17393 5322 02       		.uleb128 0x2
 17394 5323 78       		.byte	0x78
 17395 5324 00       		.sleb128 0
 17396 5325 3D       		.uleb128 0x3d
 17397 5326 01       		.uleb128 0x1
 17398 5327 51       		.byte	0x51
 17399 5328 05       		.uleb128 0x5
 17400 5329 03       		.byte	0x3
 17401 532a 2C0A0000 		.4byte	.LC74
 17402 532e 3D       		.uleb128 0x3d
 17403 532f 01       		.uleb128 0x1
 17404 5330 52       		.byte	0x52
ARM GAS  /tmp/ccZueut9.s 			page 312


 17405 5331 05       		.uleb128 0x5
 17406 5332 03       		.byte	0x3
 17407 5333 00000000 		.4byte	.LANCHOR30
 17408 5337 3D       		.uleb128 0x3d
 17409 5338 01       		.uleb128 0x1
 17410 5339 53       		.byte	0x53
 17411 533a 05       		.uleb128 0x5
 17412 533b 03       		.byte	0x3
 17413 533c 00000000 		.4byte	.LANCHOR27
 17414 5340 00       		.byte	0
 17415 5341 3A       		.uleb128 0x3a
 17416 5342 021B0000 		.4byte	.LVL328
 17417 5346 53700000 		.4byte	0x7053
 17418 534a 3C       		.uleb128 0x3c
 17419 534b 1A1B0000 		.4byte	.LVL329
 17420 534f DA6F0000 		.4byte	0x6fda
 17421 5353 66530000 		.4byte	0x5366
 17422 5357 3D       		.uleb128 0x3d
 17423 5358 01       		.uleb128 0x1
 17424 5359 50       		.byte	0x50
 17425 535a 05       		.uleb128 0x5
 17426 535b 03       		.byte	0x3
 17427 535c 380A0000 		.4byte	.LC75
 17428 5360 3D       		.uleb128 0x3d
 17429 5361 01       		.uleb128 0x1
 17430 5362 51       		.byte	0x51
 17431 5363 01       		.uleb128 0x1
 17432 5364 33       		.byte	0x33
 17433 5365 00       		.byte	0
 17434 5366 3A       		.uleb128 0x3a
 17435 5367 1E1B0000 		.4byte	.LVL330
 17436 536b E56F0000 		.4byte	0x6fe5
 17437 536f 3C       		.uleb128 0x3c
 17438 5370 301B0000 		.4byte	.LVL331
 17439 5374 1C700000 		.4byte	0x701c
 17440 5378 95530000 		.4byte	0x5395
 17441 537c 3D       		.uleb128 0x3d
 17442 537d 01       		.uleb128 0x1
 17443 537e 50       		.byte	0x50
 17444 537f 02       		.uleb128 0x2
 17445 5380 78       		.byte	0x78
 17446 5381 00       		.sleb128 0
 17447 5382 3D       		.uleb128 0x3d
 17448 5383 01       		.uleb128 0x1
 17449 5384 51       		.byte	0x51
 17450 5385 05       		.uleb128 0x5
 17451 5386 03       		.byte	0x3
 17452 5387 B8000000 		.4byte	.LC10
 17453 538b 3D       		.uleb128 0x3d
 17454 538c 01       		.uleb128 0x1
 17455 538d 52       		.byte	0x52
 17456 538e 05       		.uleb128 0x5
 17457 538f 03       		.byte	0x3
 17458 5390 00000000 		.4byte	.LANCHOR27
 17459 5394 00       		.byte	0
 17460 5395 3A       		.uleb128 0x3a
 17461 5396 381B0000 		.4byte	.LVL332
ARM GAS  /tmp/ccZueut9.s 			page 313


 17462 539a 19710000 		.4byte	0x7119
 17463 539e 3C       		.uleb128 0x3c
 17464 539f 501B0000 		.4byte	.LVL333
 17465 53a3 DA6F0000 		.4byte	0x6fda
 17466 53a7 BA530000 		.4byte	0x53ba
 17467 53ab 3D       		.uleb128 0x3d
 17468 53ac 01       		.uleb128 0x1
 17469 53ad 50       		.byte	0x50
 17470 53ae 05       		.uleb128 0x5
 17471 53af 03       		.byte	0x3
 17472 53b0 C0000000 		.4byte	.LC11
 17473 53b4 3D       		.uleb128 0x3d
 17474 53b5 01       		.uleb128 0x1
 17475 53b6 51       		.byte	0x51
 17476 53b7 01       		.uleb128 0x1
 17477 53b8 33       		.byte	0x33
 17478 53b9 00       		.byte	0
 17479 53ba 3A       		.uleb128 0x3a
 17480 53bb 541B0000 		.4byte	.LVL334
 17481 53bf E56F0000 		.4byte	0x6fe5
 17482 53c3 3C       		.uleb128 0x3c
 17483 53c4 681B0000 		.4byte	.LVL335
 17484 53c8 1C700000 		.4byte	0x701c
 17485 53cc F2530000 		.4byte	0x53f2
 17486 53d0 3D       		.uleb128 0x3d
 17487 53d1 01       		.uleb128 0x1
 17488 53d2 50       		.byte	0x50
 17489 53d3 02       		.uleb128 0x2
 17490 53d4 78       		.byte	0x78
 17491 53d5 00       		.sleb128 0
 17492 53d6 3D       		.uleb128 0x3d
 17493 53d7 01       		.uleb128 0x1
 17494 53d8 51       		.byte	0x51
 17495 53d9 05       		.uleb128 0x5
 17496 53da 03       		.byte	0x3
 17497 53db 880A0000 		.4byte	.LC79
 17498 53df 3D       		.uleb128 0x3d
 17499 53e0 01       		.uleb128 0x1
 17500 53e1 52       		.byte	0x52
 17501 53e2 05       		.uleb128 0x5
 17502 53e3 03       		.byte	0x3
 17503 53e4 00000000 		.4byte	.LANCHOR22
 17504 53e8 3D       		.uleb128 0x3d
 17505 53e9 01       		.uleb128 0x1
 17506 53ea 53       		.byte	0x53
 17507 53eb 05       		.uleb128 0x5
 17508 53ec 03       		.byte	0x3
 17509 53ed 00000000 		.4byte	.LANCHOR23
 17510 53f1 00       		.byte	0
 17511 53f2 3A       		.uleb128 0x3a
 17512 53f3 701B0000 		.4byte	.LVL336
 17513 53f7 24710000 		.4byte	0x7124
 17514 53fb 3A       		.uleb128 0x3a
 17515 53fc 781B0000 		.4byte	.LVL337
 17516 5400 2F710000 		.4byte	0x712f
 17517 5404 3C       		.uleb128 0x3c
 17518 5405 901B0000 		.4byte	.LVL338
ARM GAS  /tmp/ccZueut9.s 			page 314


 17519 5409 DA6F0000 		.4byte	0x6fda
 17520 540d 20540000 		.4byte	0x5420
 17521 5411 3D       		.uleb128 0x3d
 17522 5412 01       		.uleb128 0x1
 17523 5413 50       		.byte	0x50
 17524 5414 05       		.uleb128 0x5
 17525 5415 03       		.byte	0x3
 17526 5416 940A0000 		.4byte	.LC80
 17527 541a 3D       		.uleb128 0x3d
 17528 541b 01       		.uleb128 0x1
 17529 541c 51       		.byte	0x51
 17530 541d 01       		.uleb128 0x1
 17531 541e 33       		.byte	0x33
 17532 541f 00       		.byte	0
 17533 5420 3A       		.uleb128 0x3a
 17534 5421 941B0000 		.4byte	.LVL339
 17535 5425 E56F0000 		.4byte	0x6fe5
 17536 5429 3C       		.uleb128 0x3c
 17537 542a 101C0000 		.4byte	.LVL340
 17538 542e DA6F0000 		.4byte	0x6fda
 17539 5432 45540000 		.4byte	0x5445
 17540 5436 3D       		.uleb128 0x3d
 17541 5437 01       		.uleb128 0x1
 17542 5438 50       		.byte	0x50
 17543 5439 05       		.uleb128 0x5
 17544 543a 03       		.byte	0x3
 17545 543b 14010000 		.4byte	.LC15
 17546 543f 3D       		.uleb128 0x3d
 17547 5440 01       		.uleb128 0x1
 17548 5441 51       		.byte	0x51
 17549 5442 01       		.uleb128 0x1
 17550 5443 31       		.byte	0x31
 17551 5444 00       		.byte	0
 17552 5445 3A       		.uleb128 0x3a
 17553 5446 141C0000 		.4byte	.LVL341
 17554 544a E56F0000 		.4byte	0x6fe5
 17555 544e 3C       		.uleb128 0x3c
 17556 544f 201C0000 		.4byte	.LVL342
 17557 5453 DA6F0000 		.4byte	0x6fda
 17558 5457 6B540000 		.4byte	0x546b
 17559 545b 3D       		.uleb128 0x3d
 17560 545c 01       		.uleb128 0x1
 17561 545d 50       		.byte	0x50
 17562 545e 05       		.uleb128 0x5
 17563 545f 03       		.byte	0x3
 17564 5460 18010000 		.4byte	.LC16
 17565 5464 3D       		.uleb128 0x3d
 17566 5465 01       		.uleb128 0x1
 17567 5466 51       		.byte	0x51
 17568 5467 02       		.uleb128 0x2
 17569 5468 08       		.byte	0x8
 17570 5469 21       		.byte	0x21
 17571 546a 00       		.byte	0
 17572 546b 3A       		.uleb128 0x3a
 17573 546c 241C0000 		.4byte	.LVL343
 17574 5470 E56F0000 		.4byte	0x6fe5
 17575 5474 3C       		.uleb128 0x3c
ARM GAS  /tmp/ccZueut9.s 			page 315


 17576 5475 301C0000 		.4byte	.LVL344
 17577 5479 DA6F0000 		.4byte	0x6fda
 17578 547d 91540000 		.4byte	0x5491
 17579 5481 3D       		.uleb128 0x3d
 17580 5482 01       		.uleb128 0x1
 17581 5483 50       		.byte	0x50
 17582 5484 05       		.uleb128 0x5
 17583 5485 03       		.byte	0x3
 17584 5486 3C010000 		.4byte	.LC17
 17585 548a 3D       		.uleb128 0x3d
 17586 548b 01       		.uleb128 0x1
 17587 548c 51       		.byte	0x51
 17588 548d 02       		.uleb128 0x2
 17589 548e 08       		.byte	0x8
 17590 548f 31       		.byte	0x31
 17591 5490 00       		.byte	0
 17592 5491 3A       		.uleb128 0x3a
 17593 5492 341C0000 		.4byte	.LVL345
 17594 5496 E56F0000 		.4byte	0x6fe5
 17595 549a 3A       		.uleb128 0x3a
 17596 549b 3C1C0000 		.4byte	.LVL346
 17597 549f 3A710000 		.4byte	0x713a
 17598 54a3 3C       		.uleb128 0x3c
 17599 54a4 4A1C0000 		.4byte	.LVL347
 17600 54a8 DA6F0000 		.4byte	0x6fda
 17601 54ac C0540000 		.4byte	0x54c0
 17602 54b0 3D       		.uleb128 0x3d
 17603 54b1 01       		.uleb128 0x1
 17604 54b2 50       		.byte	0x50
 17605 54b3 05       		.uleb128 0x5
 17606 54b4 03       		.byte	0x3
 17607 54b5 70010000 		.4byte	.LC18
 17608 54b9 3D       		.uleb128 0x3d
 17609 54ba 01       		.uleb128 0x1
 17610 54bb 51       		.byte	0x51
 17611 54bc 02       		.uleb128 0x2
 17612 54bd 08       		.byte	0x8
 17613 54be 21       		.byte	0x21
 17614 54bf 00       		.byte	0
 17615 54c0 3A       		.uleb128 0x3a
 17616 54c1 4E1C0000 		.4byte	.LVL348
 17617 54c5 E56F0000 		.4byte	0x6fe5
 17618 54c9 3C       		.uleb128 0x3c
 17619 54ca 5A1C0000 		.4byte	.LVL349
 17620 54ce DA6F0000 		.4byte	0x6fda
 17621 54d2 E6540000 		.4byte	0x54e6
 17622 54d6 3D       		.uleb128 0x3d
 17623 54d7 01       		.uleb128 0x1
 17624 54d8 50       		.byte	0x50
 17625 54d9 05       		.uleb128 0x5
 17626 54da 03       		.byte	0x3
 17627 54db C4010000 		.4byte	.LC20
 17628 54df 3D       		.uleb128 0x3d
 17629 54e0 01       		.uleb128 0x1
 17630 54e1 51       		.byte	0x51
 17631 54e2 02       		.uleb128 0x2
 17632 54e3 08       		.byte	0x8
ARM GAS  /tmp/ccZueut9.s 			page 316


 17633 54e4 25       		.byte	0x25
 17634 54e5 00       		.byte	0
 17635 54e6 3A       		.uleb128 0x3a
 17636 54e7 5E1C0000 		.4byte	.LVL350
 17637 54eb E56F0000 		.4byte	0x6fe5
 17638 54ef 3C       		.uleb128 0x3c
 17639 54f0 6A1C0000 		.4byte	.LVL351
 17640 54f4 DA6F0000 		.4byte	0x6fda
 17641 54f8 0C550000 		.4byte	0x550c
 17642 54fc 3D       		.uleb128 0x3d
 17643 54fd 01       		.uleb128 0x1
 17644 54fe 50       		.byte	0x50
 17645 54ff 05       		.uleb128 0x5
 17646 5500 03       		.byte	0x3
 17647 5501 EC010000 		.4byte	.LC21
 17648 5505 3D       		.uleb128 0x3d
 17649 5506 01       		.uleb128 0x1
 17650 5507 51       		.byte	0x51
 17651 5508 02       		.uleb128 0x2
 17652 5509 08       		.byte	0x8
 17653 550a 2E       		.byte	0x2e
 17654 550b 00       		.byte	0
 17655 550c 3A       		.uleb128 0x3a
 17656 550d 6E1C0000 		.4byte	.LVL352
 17657 5511 E56F0000 		.4byte	0x6fe5
 17658 5515 3C       		.uleb128 0x3c
 17659 5516 7A1C0000 		.4byte	.LVL353
 17660 551a DA6F0000 		.4byte	0x6fda
 17661 551e 32550000 		.4byte	0x5532
 17662 5522 3D       		.uleb128 0x3d
 17663 5523 01       		.uleb128 0x1
 17664 5524 50       		.byte	0x50
 17665 5525 05       		.uleb128 0x5
 17666 5526 03       		.byte	0x3
 17667 5527 1C020000 		.4byte	.LC22
 17668 552b 3D       		.uleb128 0x3d
 17669 552c 01       		.uleb128 0x1
 17670 552d 51       		.byte	0x51
 17671 552e 02       		.uleb128 0x2
 17672 552f 08       		.byte	0x8
 17673 5530 2E       		.byte	0x2e
 17674 5531 00       		.byte	0
 17675 5532 3A       		.uleb128 0x3a
 17676 5533 7E1C0000 		.4byte	.LVL354
 17677 5537 E56F0000 		.4byte	0x6fe5
 17678 553b 3C       		.uleb128 0x3c
 17679 553c 8A1C0000 		.4byte	.LVL355
 17680 5540 DA6F0000 		.4byte	0x6fda
 17681 5544 58550000 		.4byte	0x5558
 17682 5548 3D       		.uleb128 0x3d
 17683 5549 01       		.uleb128 0x1
 17684 554a 50       		.byte	0x50
 17685 554b 05       		.uleb128 0x5
 17686 554c 03       		.byte	0x3
 17687 554d 4C020000 		.4byte	.LC23
 17688 5551 3D       		.uleb128 0x3d
 17689 5552 01       		.uleb128 0x1
ARM GAS  /tmp/ccZueut9.s 			page 317


 17690 5553 51       		.byte	0x51
 17691 5554 02       		.uleb128 0x2
 17692 5555 08       		.byte	0x8
 17693 5556 32       		.byte	0x32
 17694 5557 00       		.byte	0
 17695 5558 3A       		.uleb128 0x3a
 17696 5559 8E1C0000 		.4byte	.LVL356
 17697 555d E56F0000 		.4byte	0x6fe5
 17698 5561 3C       		.uleb128 0x3c
 17699 5562 9A1C0000 		.4byte	.LVL357
 17700 5566 DA6F0000 		.4byte	0x6fda
 17701 556a 7D550000 		.4byte	0x557d
 17702 556e 3D       		.uleb128 0x3d
 17703 556f 01       		.uleb128 0x1
 17704 5570 50       		.byte	0x50
 17705 5571 05       		.uleb128 0x5
 17706 5572 03       		.byte	0x3
 17707 5573 80020000 		.4byte	.LC24
 17708 5577 3D       		.uleb128 0x3d
 17709 5578 01       		.uleb128 0x1
 17710 5579 51       		.byte	0x51
 17711 557a 01       		.uleb128 0x1
 17712 557b 4F       		.byte	0x4f
 17713 557c 00       		.byte	0
 17714 557d 3A       		.uleb128 0x3a
 17715 557e 9E1C0000 		.4byte	.LVL358
 17716 5582 E56F0000 		.4byte	0x6fe5
 17717 5586 3A       		.uleb128 0x3a
 17718 5587 A61C0000 		.4byte	.LVL359
 17719 558b 3A710000 		.4byte	0x713a
 17720 558f 3C       		.uleb128 0x3c
 17721 5590 B41C0000 		.4byte	.LVL360
 17722 5594 DA6F0000 		.4byte	0x6fda
 17723 5598 AB550000 		.4byte	0x55ab
 17724 559c 3D       		.uleb128 0x3d
 17725 559d 01       		.uleb128 0x1
 17726 559e 50       		.byte	0x50
 17727 559f 05       		.uleb128 0x5
 17728 55a0 03       		.byte	0x3
 17729 55a1 BC020000 		.4byte	.LC26
 17730 55a5 3D       		.uleb128 0x3d
 17731 55a6 01       		.uleb128 0x1
 17732 55a7 51       		.byte	0x51
 17733 55a8 01       		.uleb128 0x1
 17734 55a9 48       		.byte	0x48
 17735 55aa 00       		.byte	0
 17736 55ab 3A       		.uleb128 0x3a
 17737 55ac B81C0000 		.4byte	.LVL361
 17738 55b0 E56F0000 		.4byte	0x6fe5
 17739 55b4 3C       		.uleb128 0x3c
 17740 55b5 C41C0000 		.4byte	.LVL362
 17741 55b9 DA6F0000 		.4byte	0x6fda
 17742 55bd D1550000 		.4byte	0x55d1
 17743 55c1 3D       		.uleb128 0x3d
 17744 55c2 01       		.uleb128 0x1
 17745 55c3 50       		.byte	0x50
 17746 55c4 05       		.uleb128 0x5
ARM GAS  /tmp/ccZueut9.s 			page 318


 17747 55c5 03       		.byte	0x3
 17748 55c6 D8020000 		.4byte	.LC27
 17749 55ca 3D       		.uleb128 0x3d
 17750 55cb 01       		.uleb128 0x1
 17751 55cc 51       		.byte	0x51
 17752 55cd 02       		.uleb128 0x2
 17753 55ce 08       		.byte	0x8
 17754 55cf 28       		.byte	0x28
 17755 55d0 00       		.byte	0
 17756 55d1 3A       		.uleb128 0x3a
 17757 55d2 C81C0000 		.4byte	.LVL363
 17758 55d6 E56F0000 		.4byte	0x6fe5
 17759 55da 3C       		.uleb128 0x3c
 17760 55db D41C0000 		.4byte	.LVL364
 17761 55df DA6F0000 		.4byte	0x6fda
 17762 55e3 F7550000 		.4byte	0x55f7
 17763 55e7 3D       		.uleb128 0x3d
 17764 55e8 01       		.uleb128 0x1
 17765 55e9 50       		.byte	0x50
 17766 55ea 05       		.uleb128 0x5
 17767 55eb 03       		.byte	0x3
 17768 55ec 04030000 		.4byte	.LC28
 17769 55f0 3D       		.uleb128 0x3d
 17770 55f1 01       		.uleb128 0x1
 17771 55f2 51       		.byte	0x51
 17772 55f3 02       		.uleb128 0x2
 17773 55f4 08       		.byte	0x8
 17774 55f5 4F       		.byte	0x4f
 17775 55f6 00       		.byte	0
 17776 55f7 3A       		.uleb128 0x3a
 17777 55f8 D81C0000 		.4byte	.LVL365
 17778 55fc E56F0000 		.4byte	0x6fe5
 17779 5600 3C       		.uleb128 0x3c
 17780 5601 E41C0000 		.4byte	.LVL366
 17781 5605 DA6F0000 		.4byte	0x6fda
 17782 5609 1D560000 		.4byte	0x561d
 17783 560d 3D       		.uleb128 0x3d
 17784 560e 01       		.uleb128 0x1
 17785 560f 50       		.byte	0x50
 17786 5610 05       		.uleb128 0x5
 17787 5611 03       		.byte	0x3
 17788 5612 54030000 		.4byte	.LC29
 17789 5616 3D       		.uleb128 0x3d
 17790 5617 01       		.uleb128 0x1
 17791 5618 51       		.byte	0x51
 17792 5619 02       		.uleb128 0x2
 17793 561a 08       		.byte	0x8
 17794 561b 2F       		.byte	0x2f
 17795 561c 00       		.byte	0
 17796 561d 3A       		.uleb128 0x3a
 17797 561e E81C0000 		.4byte	.LVL367
 17798 5622 E56F0000 		.4byte	0x6fe5
 17799 5626 3C       		.uleb128 0x3c
 17800 5627 F41C0000 		.4byte	.LVL368
 17801 562b DA6F0000 		.4byte	0x6fda
 17802 562f 43560000 		.4byte	0x5643
 17803 5633 3D       		.uleb128 0x3d
ARM GAS  /tmp/ccZueut9.s 			page 319


 17804 5634 01       		.uleb128 0x1
 17805 5635 50       		.byte	0x50
 17806 5636 05       		.uleb128 0x5
 17807 5637 03       		.byte	0x3
 17808 5638 84030000 		.4byte	.LC30
 17809 563c 3D       		.uleb128 0x3d
 17810 563d 01       		.uleb128 0x1
 17811 563e 51       		.byte	0x51
 17812 563f 02       		.uleb128 0x2
 17813 5640 08       		.byte	0x8
 17814 5641 33       		.byte	0x33
 17815 5642 00       		.byte	0
 17816 5643 3A       		.uleb128 0x3a
 17817 5644 F81C0000 		.4byte	.LVL369
 17818 5648 E56F0000 		.4byte	0x6fe5
 17819 564c 3C       		.uleb128 0x3c
 17820 564d 041D0000 		.4byte	.LVL370
 17821 5651 DA6F0000 		.4byte	0x6fda
 17822 5655 69560000 		.4byte	0x5669
 17823 5659 3D       		.uleb128 0x3d
 17824 565a 01       		.uleb128 0x1
 17825 565b 50       		.byte	0x50
 17826 565c 05       		.uleb128 0x5
 17827 565d 03       		.byte	0x3
 17828 565e B8030000 		.4byte	.LC31
 17829 5662 3D       		.uleb128 0x3d
 17830 5663 01       		.uleb128 0x1
 17831 5664 51       		.byte	0x51
 17832 5665 02       		.uleb128 0x2
 17833 5666 08       		.byte	0x8
 17834 5667 21       		.byte	0x21
 17835 5668 00       		.byte	0
 17836 5669 3A       		.uleb128 0x3a
 17837 566a 081D0000 		.4byte	.LVL371
 17838 566e E56F0000 		.4byte	0x6fe5
 17839 5672 3C       		.uleb128 0x3c
 17840 5673 141D0000 		.4byte	.LVL372
 17841 5677 DA6F0000 		.4byte	0x6fda
 17842 567b 8E560000 		.4byte	0x568e
 17843 567f 3D       		.uleb128 0x3d
 17844 5680 01       		.uleb128 0x1
 17845 5681 50       		.byte	0x50
 17846 5682 05       		.uleb128 0x5
 17847 5683 03       		.byte	0x3
 17848 5684 DC030000 		.4byte	.LC32
 17849 5688 3D       		.uleb128 0x3d
 17850 5689 01       		.uleb128 0x1
 17851 568a 51       		.byte	0x51
 17852 568b 01       		.uleb128 0x1
 17853 568c 4D       		.byte	0x4d
 17854 568d 00       		.byte	0
 17855 568e 3A       		.uleb128 0x3a
 17856 568f 181D0000 		.4byte	.LVL373
 17857 5693 E56F0000 		.4byte	0x6fe5
 17858 5697 3C       		.uleb128 0x3c
 17859 5698 241D0000 		.4byte	.LVL374
 17860 569c DA6F0000 		.4byte	0x6fda
ARM GAS  /tmp/ccZueut9.s 			page 320


 17861 56a0 B4560000 		.4byte	0x56b4
 17862 56a4 3D       		.uleb128 0x3d
 17863 56a5 01       		.uleb128 0x1
 17864 56a6 50       		.byte	0x50
 17865 56a7 05       		.uleb128 0x5
 17866 56a8 03       		.byte	0x3
 17867 56a9 FC030000 		.4byte	.LC33
 17868 56ad 3D       		.uleb128 0x3d
 17869 56ae 01       		.uleb128 0x1
 17870 56af 51       		.byte	0x51
 17871 56b0 02       		.uleb128 0x2
 17872 56b1 08       		.byte	0x8
 17873 56b2 21       		.byte	0x21
 17874 56b3 00       		.byte	0
 17875 56b4 3A       		.uleb128 0x3a
 17876 56b5 281D0000 		.4byte	.LVL375
 17877 56b9 E56F0000 		.4byte	0x6fe5
 17878 56bd 3C       		.uleb128 0x3c
 17879 56be 341D0000 		.4byte	.LVL376
 17880 56c2 DA6F0000 		.4byte	0x6fda
 17881 56c6 DA560000 		.4byte	0x56da
 17882 56ca 3D       		.uleb128 0x3d
 17883 56cb 01       		.uleb128 0x1
 17884 56cc 50       		.byte	0x50
 17885 56cd 05       		.uleb128 0x5
 17886 56ce 03       		.byte	0x3
 17887 56cf 20040000 		.4byte	.LC34
 17888 56d3 3D       		.uleb128 0x3d
 17889 56d4 01       		.uleb128 0x1
 17890 56d5 51       		.byte	0x51
 17891 56d6 02       		.uleb128 0x2
 17892 56d7 08       		.byte	0x8
 17893 56d8 31       		.byte	0x31
 17894 56d9 00       		.byte	0
 17895 56da 3A       		.uleb128 0x3a
 17896 56db 381D0000 		.4byte	.LVL377
 17897 56df E56F0000 		.4byte	0x6fe5
 17898 56e3 3C       		.uleb128 0x3c
 17899 56e4 441D0000 		.4byte	.LVL378
 17900 56e8 DA6F0000 		.4byte	0x6fda
 17901 56ec 00570000 		.4byte	0x5700
 17902 56f0 3D       		.uleb128 0x3d
 17903 56f1 01       		.uleb128 0x1
 17904 56f2 50       		.byte	0x50
 17905 56f3 05       		.uleb128 0x5
 17906 56f4 03       		.byte	0x3
 17907 56f5 54040000 		.4byte	.LC35
 17908 56f9 3D       		.uleb128 0x3d
 17909 56fa 01       		.uleb128 0x1
 17910 56fb 51       		.byte	0x51
 17911 56fc 02       		.uleb128 0x2
 17912 56fd 08       		.byte	0x8
 17913 56fe 31       		.byte	0x31
 17914 56ff 00       		.byte	0
 17915 5700 3A       		.uleb128 0x3a
 17916 5701 481D0000 		.4byte	.LVL379
 17917 5705 E56F0000 		.4byte	0x6fe5
ARM GAS  /tmp/ccZueut9.s 			page 321


 17918 5709 3C       		.uleb128 0x3c
 17919 570a 541D0000 		.4byte	.LVL380
 17920 570e DA6F0000 		.4byte	0x6fda
 17921 5712 26570000 		.4byte	0x5726
 17922 5716 3D       		.uleb128 0x3d
 17923 5717 01       		.uleb128 0x1
 17924 5718 50       		.byte	0x50
 17925 5719 05       		.uleb128 0x5
 17926 571a 03       		.byte	0x3
 17927 571b 88040000 		.4byte	.LC36
 17928 571f 3D       		.uleb128 0x3d
 17929 5720 01       		.uleb128 0x1
 17930 5721 51       		.byte	0x51
 17931 5722 02       		.uleb128 0x2
 17932 5723 08       		.byte	0x8
 17933 5724 20       		.byte	0x20
 17934 5725 00       		.byte	0
 17935 5726 3A       		.uleb128 0x3a
 17936 5727 581D0000 		.4byte	.LVL381
 17937 572b E56F0000 		.4byte	0x6fe5
 17938 572f 3C       		.uleb128 0x3c
 17939 5730 641D0000 		.4byte	.LVL382
 17940 5734 DA6F0000 		.4byte	0x6fda
 17941 5738 4C570000 		.4byte	0x574c
 17942 573c 3D       		.uleb128 0x3d
 17943 573d 01       		.uleb128 0x1
 17944 573e 50       		.byte	0x50
 17945 573f 05       		.uleb128 0x5
 17946 5740 03       		.byte	0x3
 17947 5741 AC040000 		.4byte	.LC37
 17948 5745 3D       		.uleb128 0x3d
 17949 5746 01       		.uleb128 0x1
 17950 5747 51       		.byte	0x51
 17951 5748 02       		.uleb128 0x2
 17952 5749 08       		.byte	0x8
 17953 574a 31       		.byte	0x31
 17954 574b 00       		.byte	0
 17955 574c 3A       		.uleb128 0x3a
 17956 574d 681D0000 		.4byte	.LVL383
 17957 5751 E56F0000 		.4byte	0x6fe5
 17958 5755 3C       		.uleb128 0x3c
 17959 5756 741D0000 		.4byte	.LVL384
 17960 575a DA6F0000 		.4byte	0x6fda
 17961 575e 72570000 		.4byte	0x5772
 17962 5762 3D       		.uleb128 0x3d
 17963 5763 01       		.uleb128 0x1
 17964 5764 50       		.byte	0x50
 17965 5765 05       		.uleb128 0x5
 17966 5766 03       		.byte	0x3
 17967 5767 E0040000 		.4byte	.LC38
 17968 576b 3D       		.uleb128 0x3d
 17969 576c 01       		.uleb128 0x1
 17970 576d 51       		.byte	0x51
 17971 576e 02       		.uleb128 0x2
 17972 576f 08       		.byte	0x8
 17973 5770 32       		.byte	0x32
 17974 5771 00       		.byte	0
ARM GAS  /tmp/ccZueut9.s 			page 322


 17975 5772 3A       		.uleb128 0x3a
 17976 5773 781D0000 		.4byte	.LVL385
 17977 5777 E56F0000 		.4byte	0x6fe5
 17978 577b 3A       		.uleb128 0x3a
 17979 577c 801D0000 		.4byte	.LVL386
 17980 5780 3A710000 		.4byte	0x713a
 17981 5784 3C       		.uleb128 0x3c
 17982 5785 8E1D0000 		.4byte	.LVL387
 17983 5789 DA6F0000 		.4byte	0x6fda
 17984 578d A1570000 		.4byte	0x57a1
 17985 5791 3D       		.uleb128 0x3d
 17986 5792 01       		.uleb128 0x1
 17987 5793 50       		.byte	0x50
 17988 5794 05       		.uleb128 0x5
 17989 5795 03       		.byte	0x3
 17990 5796 34050000 		.4byte	.LC40
 17991 579a 3D       		.uleb128 0x3d
 17992 579b 01       		.uleb128 0x1
 17993 579c 51       		.byte	0x51
 17994 579d 02       		.uleb128 0x2
 17995 579e 08       		.byte	0x8
 17996 579f 2C       		.byte	0x2c
 17997 57a0 00       		.byte	0
 17998 57a1 3A       		.uleb128 0x3a
 17999 57a2 921D0000 		.4byte	.LVL388
 18000 57a6 E56F0000 		.4byte	0x6fe5
 18001 57aa 3C       		.uleb128 0x3c
 18002 57ab 9E1D0000 		.4byte	.LVL389
 18003 57af DA6F0000 		.4byte	0x6fda
 18004 57b3 C7570000 		.4byte	0x57c7
 18005 57b7 3D       		.uleb128 0x3d
 18006 57b8 01       		.uleb128 0x1
 18007 57b9 50       		.byte	0x50
 18008 57ba 05       		.uleb128 0x5
 18009 57bb 03       		.byte	0x3
 18010 57bc 64050000 		.4byte	.LC41
 18011 57c0 3D       		.uleb128 0x3d
 18012 57c1 01       		.uleb128 0x1
 18013 57c2 51       		.byte	0x51
 18014 57c3 02       		.uleb128 0x2
 18015 57c4 08       		.byte	0x8
 18016 57c5 25       		.byte	0x25
 18017 57c6 00       		.byte	0
 18018 57c7 3A       		.uleb128 0x3a
 18019 57c8 A21D0000 		.4byte	.LVL390
 18020 57cc E56F0000 		.4byte	0x6fe5
 18021 57d0 3C       		.uleb128 0x3c
 18022 57d1 AE1D0000 		.4byte	.LVL391
 18023 57d5 DA6F0000 		.4byte	0x6fda
 18024 57d9 ED570000 		.4byte	0x57ed
 18025 57dd 3D       		.uleb128 0x3d
 18026 57de 01       		.uleb128 0x1
 18027 57df 50       		.byte	0x50
 18028 57e0 05       		.uleb128 0x5
 18029 57e1 03       		.byte	0x3
 18030 57e2 8C050000 		.4byte	.LC42
 18031 57e6 3D       		.uleb128 0x3d
ARM GAS  /tmp/ccZueut9.s 			page 323


 18032 57e7 01       		.uleb128 0x1
 18033 57e8 51       		.byte	0x51
 18034 57e9 02       		.uleb128 0x2
 18035 57ea 08       		.byte	0x8
 18036 57eb 2B       		.byte	0x2b
 18037 57ec 00       		.byte	0
 18038 57ed 3A       		.uleb128 0x3a
 18039 57ee B21D0000 		.4byte	.LVL392
 18040 57f2 E56F0000 		.4byte	0x6fe5
 18041 57f6 3C       		.uleb128 0x3c
 18042 57f7 BE1D0000 		.4byte	.LVL393
 18043 57fb DA6F0000 		.4byte	0x6fda
 18044 57ff 13580000 		.4byte	0x5813
 18045 5803 3D       		.uleb128 0x3d
 18046 5804 01       		.uleb128 0x1
 18047 5805 50       		.byte	0x50
 18048 5806 05       		.uleb128 0x5
 18049 5807 03       		.byte	0x3
 18050 5808 B8050000 		.4byte	.LC43
 18051 580c 3D       		.uleb128 0x3d
 18052 580d 01       		.uleb128 0x1
 18053 580e 51       		.byte	0x51
 18054 580f 02       		.uleb128 0x2
 18055 5810 08       		.byte	0x8
 18056 5811 2A       		.byte	0x2a
 18057 5812 00       		.byte	0
 18058 5813 3A       		.uleb128 0x3a
 18059 5814 C21D0000 		.4byte	.LVL394
 18060 5818 E56F0000 		.4byte	0x6fe5
 18061 581c 3C       		.uleb128 0x3c
 18062 581d D61D0000 		.4byte	.LVL395
 18063 5821 1C700000 		.4byte	0x701c
 18064 5825 4B580000 		.4byte	0x584b
 18065 5829 3D       		.uleb128 0x3d
 18066 582a 01       		.uleb128 0x1
 18067 582b 50       		.byte	0x50
 18068 582c 02       		.uleb128 0x2
 18069 582d 78       		.byte	0x78
 18070 582e 00       		.sleb128 0
 18071 582f 3D       		.uleb128 0x3d
 18072 5830 01       		.uleb128 0x1
 18073 5831 51       		.byte	0x51
 18074 5832 05       		.uleb128 0x5
 18075 5833 03       		.byte	0x3
 18076 5834 9C000000 		.4byte	.LC7
 18077 5838 3D       		.uleb128 0x3d
 18078 5839 01       		.uleb128 0x1
 18079 583a 52       		.byte	0x52
 18080 583b 05       		.uleb128 0x5
 18081 583c 03       		.byte	0x3
 18082 583d 00000000 		.4byte	.LANCHOR7
 18083 5841 3D       		.uleb128 0x3d
 18084 5842 01       		.uleb128 0x1
 18085 5843 53       		.byte	0x53
 18086 5844 05       		.uleb128 0x5
 18087 5845 03       		.byte	0x3
 18088 5846 00000000 		.4byte	.LANCHOR6
ARM GAS  /tmp/ccZueut9.s 			page 324


 18089 584a 00       		.byte	0
 18090 584b 3A       		.uleb128 0x3a
 18091 584c DE1D0000 		.4byte	.LVL396
 18092 5850 E2700000 		.4byte	0x70e2
 18093 5854 3A       		.uleb128 0x3a
 18094 5855 E61D0000 		.4byte	.LVL397
 18095 5859 ED700000 		.4byte	0x70ed
 18096 585d 3C       		.uleb128 0x3c
 18097 585e FE1D0000 		.4byte	.LVL398
 18098 5862 DA6F0000 		.4byte	0x6fda
 18099 5866 79580000 		.4byte	0x5879
 18100 586a 3D       		.uleb128 0x3d
 18101 586b 01       		.uleb128 0x1
 18102 586c 50       		.byte	0x50
 18103 586d 05       		.uleb128 0x5
 18104 586e 03       		.byte	0x3
 18105 586f A8000000 		.4byte	.LC8
 18106 5873 3D       		.uleb128 0x3d
 18107 5874 01       		.uleb128 0x1
 18108 5875 51       		.byte	0x51
 18109 5876 01       		.uleb128 0x1
 18110 5877 33       		.byte	0x33
 18111 5878 00       		.byte	0
 18112 5879 3A       		.uleb128 0x3a
 18113 587a 021E0000 		.4byte	.LVL399
 18114 587e E56F0000 		.4byte	0x6fe5
 18115 5882 3C       		.uleb128 0x3c
 18116 5883 161E0000 		.4byte	.LVL400
 18117 5887 45710000 		.4byte	0x7145
 18118 588b 9E580000 		.4byte	0x589e
 18119 588f 3D       		.uleb128 0x3d
 18120 5890 01       		.uleb128 0x1
 18121 5891 50       		.byte	0x50
 18122 5892 03       		.uleb128 0x3
 18123 5893 0A       		.byte	0xa
 18124 5894 142B     		.2byte	0x2b14
 18125 5896 3D       		.uleb128 0x3d
 18126 5897 01       		.uleb128 0x1
 18127 5898 51       		.byte	0x51
 18128 5899 03       		.uleb128 0x3
 18129 589a 0A       		.byte	0xa
 18130 589b 501F     		.2byte	0x1f50
 18131 589d 00       		.byte	0
 18132 589e 3C       		.uleb128 0x3c
 18133 589f 2E1E0000 		.4byte	.LVL401
 18134 58a3 DA6F0000 		.4byte	0x6fda
 18135 58a7 BA580000 		.4byte	0x58ba
 18136 58ab 3D       		.uleb128 0x3d
 18137 58ac 01       		.uleb128 0x1
 18138 58ad 50       		.byte	0x50
 18139 58ae 05       		.uleb128 0x5
 18140 58af 03       		.byte	0x3
 18141 58b0 B00A0000 		.4byte	.LC84
 18142 58b4 3D       		.uleb128 0x3d
 18143 58b5 01       		.uleb128 0x1
 18144 58b6 51       		.byte	0x51
 18145 58b7 01       		.uleb128 0x1
ARM GAS  /tmp/ccZueut9.s 			page 325


 18146 58b8 33       		.byte	0x33
 18147 58b9 00       		.byte	0
 18148 58ba 3A       		.uleb128 0x3a
 18149 58bb 321E0000 		.4byte	.LVL402
 18150 58bf E56F0000 		.4byte	0x6fe5
 18151 58c3 3C       		.uleb128 0x3c
 18152 58c4 461E0000 		.4byte	.LVL403
 18153 58c8 45710000 		.4byte	0x7145
 18154 58cc DF580000 		.4byte	0x58df
 18155 58d0 3D       		.uleb128 0x3d
 18156 58d1 01       		.uleb128 0x1
 18157 58d2 50       		.byte	0x50
 18158 58d3 03       		.uleb128 0x3
 18159 58d4 0A       		.byte	0xa
 18160 58d5 7E1C     		.2byte	0x1c7e
 18161 58d7 3D       		.uleb128 0x3d
 18162 58d8 01       		.uleb128 0x1
 18163 58d9 51       		.byte	0x51
 18164 58da 03       		.uleb128 0x3
 18165 58db 0A       		.byte	0xa
 18166 58dc 940E     		.2byte	0xe94
 18167 58de 00       		.byte	0
 18168 58df 3C       		.uleb128 0x3c
 18169 58e0 521E0000 		.4byte	.LVL404
 18170 58e4 50710000 		.4byte	0x7150
 18171 58e8 FC580000 		.4byte	0x58fc
 18172 58ec 3D       		.uleb128 0x3d
 18173 58ed 01       		.uleb128 0x1
 18174 58ee 50       		.byte	0x50
 18175 58ef 01       		.uleb128 0x1
 18176 58f0 3B       		.byte	0x3b
 18177 58f1 3D       		.uleb128 0x3d
 18178 58f2 01       		.uleb128 0x1
 18179 58f3 51       		.byte	0x51
 18180 58f4 01       		.uleb128 0x1
 18181 58f5 32       		.byte	0x32
 18182 58f6 3D       		.uleb128 0x3d
 18183 58f7 01       		.uleb128 0x1
 18184 58f8 52       		.byte	0x52
 18185 58f9 01       		.uleb128 0x1
 18186 58fa 30       		.byte	0x30
 18187 58fb 00       		.byte	0
 18188 58fc 3C       		.uleb128 0x3c
 18189 58fd 5E1E0000 		.4byte	.LVL405
 18190 5901 50710000 		.4byte	0x7150
 18191 5905 19590000 		.4byte	0x5919
 18192 5909 3D       		.uleb128 0x3d
 18193 590a 01       		.uleb128 0x1
 18194 590b 50       		.byte	0x50
 18195 590c 01       		.uleb128 0x1
 18196 590d 34       		.byte	0x34
 18197 590e 3D       		.uleb128 0x3d
 18198 590f 01       		.uleb128 0x1
 18199 5910 51       		.byte	0x51
 18200 5911 01       		.uleb128 0x1
 18201 5912 32       		.byte	0x32
 18202 5913 3D       		.uleb128 0x3d
ARM GAS  /tmp/ccZueut9.s 			page 326


 18203 5914 01       		.uleb128 0x1
 18204 5915 52       		.byte	0x52
 18205 5916 01       		.uleb128 0x1
 18206 5917 30       		.byte	0x30
 18207 5918 00       		.byte	0
 18208 5919 3C       		.uleb128 0x3c
 18209 591a 6A1E0000 		.4byte	.LVL406
 18210 591e 50710000 		.4byte	0x7150
 18211 5922 36590000 		.4byte	0x5936
 18212 5926 3D       		.uleb128 0x3d
 18213 5927 01       		.uleb128 0x1
 18214 5928 50       		.byte	0x50
 18215 5929 01       		.uleb128 0x1
 18216 592a 33       		.byte	0x33
 18217 592b 3D       		.uleb128 0x3d
 18218 592c 01       		.uleb128 0x1
 18219 592d 51       		.byte	0x51
 18220 592e 01       		.uleb128 0x1
 18221 592f 32       		.byte	0x32
 18222 5930 3D       		.uleb128 0x3d
 18223 5931 01       		.uleb128 0x1
 18224 5932 52       		.byte	0x52
 18225 5933 01       		.uleb128 0x1
 18226 5934 30       		.byte	0x30
 18227 5935 00       		.byte	0
 18228 5936 3C       		.uleb128 0x3c
 18229 5937 841E0000 		.4byte	.LVL407
 18230 593b DA6F0000 		.4byte	0x6fda
 18231 593f 52590000 		.4byte	0x5952
 18232 5943 3D       		.uleb128 0x3d
 18233 5944 01       		.uleb128 0x1
 18234 5945 50       		.byte	0x50
 18235 5946 05       		.uleb128 0x5
 18236 5947 03       		.byte	0x3
 18237 5948 300B0000 		.4byte	.LC94
 18238 594c 3D       		.uleb128 0x3d
 18239 594d 01       		.uleb128 0x1
 18240 594e 51       		.byte	0x51
 18241 594f 01       		.uleb128 0x1
 18242 5950 45       		.byte	0x45
 18243 5951 00       		.byte	0
 18244 5952 3A       		.uleb128 0x3a
 18245 5953 881E0000 		.4byte	.LVL408
 18246 5957 E56F0000 		.4byte	0x6fe5
 18247 595b 3A       		.uleb128 0x3a
 18248 595c AE1E0000 		.4byte	.LVL409
 18249 5960 5B710000 		.4byte	0x715b
 18250 5964 3A       		.uleb128 0x3a
 18251 5965 B41E0000 		.4byte	.LVL410
 18252 5969 66710000 		.4byte	0x7166
 18253 596d 3C       		.uleb128 0x3c
 18254 596e C01E0000 		.4byte	.LVL411
 18255 5972 C46F0000 		.4byte	0x6fc4
 18256 5976 90590000 		.4byte	0x5990
 18257 597a 3D       		.uleb128 0x3d
 18258 597b 01       		.uleb128 0x1
 18259 597c 50       		.byte	0x50
ARM GAS  /tmp/ccZueut9.s 			page 327


 18260 597d 02       		.uleb128 0x2
 18261 597e 78       		.byte	0x78
 18262 597f 00       		.sleb128 0
 18263 5980 3D       		.uleb128 0x3d
 18264 5981 01       		.uleb128 0x1
 18265 5982 51       		.byte	0x51
 18266 5983 05       		.uleb128 0x5
 18267 5984 03       		.byte	0x3
 18268 5985 78000000 		.4byte	.LC3
 18269 5989 3D       		.uleb128 0x3d
 18270 598a 01       		.uleb128 0x1
 18271 598b 52       		.byte	0x52
 18272 598c 02       		.uleb128 0x2
 18273 598d 74       		.byte	0x74
 18274 598e 00       		.sleb128 0
 18275 598f 00       		.byte	0
 18276 5990 3C       		.uleb128 0x3c
 18277 5991 14230000 		.4byte	.LVL460
 18278 5995 C46F0000 		.4byte	0x6fc4
 18279 5999 AD590000 		.4byte	0x59ad
 18280 599d 3D       		.uleb128 0x3d
 18281 599e 01       		.uleb128 0x1
 18282 599f 50       		.byte	0x50
 18283 59a0 02       		.uleb128 0x2
 18284 59a1 78       		.byte	0x78
 18285 59a2 00       		.sleb128 0
 18286 59a3 3D       		.uleb128 0x3d
 18287 59a4 01       		.uleb128 0x1
 18288 59a5 51       		.byte	0x51
 18289 59a6 05       		.uleb128 0x5
 18290 59a7 03       		.byte	0x3
 18291 59a8 480B0000 		.4byte	.LC95
 18292 59ac 00       		.byte	0
 18293 59ad 3A       		.uleb128 0x3a
 18294 59ae 2E230000 		.4byte	.LVL461
 18295 59b2 5B710000 		.4byte	0x715b
 18296 59b6 3A       		.uleb128 0x3a
 18297 59b7 34230000 		.4byte	.LVL462
 18298 59bb 66710000 		.4byte	0x7166
 18299 59bf 3C       		.uleb128 0x3c
 18300 59c0 40230000 		.4byte	.LVL463
 18301 59c4 C46F0000 		.4byte	0x6fc4
 18302 59c8 E2590000 		.4byte	0x59e2
 18303 59cc 3D       		.uleb128 0x3d
 18304 59cd 01       		.uleb128 0x1
 18305 59ce 50       		.byte	0x50
 18306 59cf 02       		.uleb128 0x2
 18307 59d0 78       		.byte	0x78
 18308 59d1 00       		.sleb128 0
 18309 59d2 3D       		.uleb128 0x3d
 18310 59d3 01       		.uleb128 0x1
 18311 59d4 51       		.byte	0x51
 18312 59d5 05       		.uleb128 0x5
 18313 59d6 03       		.byte	0x3
 18314 59d7 78000000 		.4byte	.LC3
 18315 59db 3D       		.uleb128 0x3d
 18316 59dc 01       		.uleb128 0x1
ARM GAS  /tmp/ccZueut9.s 			page 328


 18317 59dd 52       		.byte	0x52
 18318 59de 02       		.uleb128 0x2
 18319 59df 74       		.byte	0x74
 18320 59e0 00       		.sleb128 0
 18321 59e1 00       		.byte	0
 18322 59e2 3C       		.uleb128 0x3c
 18323 59e3 56230000 		.4byte	.LVL465
 18324 59e7 DA6F0000 		.4byte	0x6fda
 18325 59eb F6590000 		.4byte	0x59f6
 18326 59ef 3D       		.uleb128 0x3d
 18327 59f0 01       		.uleb128 0x1
 18328 59f1 50       		.byte	0x50
 18329 59f2 02       		.uleb128 0x2
 18330 59f3 78       		.byte	0x78
 18331 59f4 00       		.sleb128 0
 18332 59f5 00       		.byte	0
 18333 59f6 3A       		.uleb128 0x3a
 18334 59f7 5A230000 		.4byte	.LVL466
 18335 59fb E56F0000 		.4byte	0x6fe5
 18336 59ff 3C       		.uleb128 0x3c
 18337 5a00 80230000 		.4byte	.LVL467
 18338 5a04 53700000 		.4byte	0x7053
 18339 5a08 175A0000 		.4byte	0x5a17
 18340 5a0c 3D       		.uleb128 0x3d
 18341 5a0d 01       		.uleb128 0x1
 18342 5a0e 50       		.byte	0x50
 18343 5a0f 01       		.uleb128 0x1
 18344 5a10 38       		.byte	0x38
 18345 5a11 3D       		.uleb128 0x3d
 18346 5a12 01       		.uleb128 0x1
 18347 5a13 51       		.byte	0x51
 18348 5a14 01       		.uleb128 0x1
 18349 5a15 31       		.byte	0x31
 18350 5a16 00       		.byte	0
 18351 5a17 3C       		.uleb128 0x3c
 18352 5a18 88230000 		.4byte	.LVL468
 18353 5a1c 5E700000 		.4byte	0x705e
 18354 5a20 2C5A0000 		.4byte	0x5a2c
 18355 5a24 3D       		.uleb128 0x3d
 18356 5a25 01       		.uleb128 0x1
 18357 5a26 50       		.byte	0x50
 18358 5a27 03       		.uleb128 0x3
 18359 5a28 0A       		.byte	0xa
 18360 5a29 9001     		.2byte	0x190
 18361 5a2b 00       		.byte	0
 18362 5a2c 3A       		.uleb128 0x3a
 18363 5a2d 8C230000 		.4byte	.LVL469
 18364 5a31 69700000 		.4byte	0x7069
 18365 5a35 3C       		.uleb128 0x3c
 18366 5a36 92230000 		.4byte	.LVL470
 18367 5a3a 5E700000 		.4byte	0x705e
 18368 5a3e 495A0000 		.4byte	0x5a49
 18369 5a42 3D       		.uleb128 0x3d
 18370 5a43 01       		.uleb128 0x1
 18371 5a44 50       		.byte	0x50
 18372 5a45 02       		.uleb128 0x2
 18373 5a46 08       		.byte	0x8
ARM GAS  /tmp/ccZueut9.s 			page 329


 18374 5a47 64       		.byte	0x64
 18375 5a48 00       		.byte	0
 18376 5a49 3A       		.uleb128 0x3a
 18377 5a4a 96230000 		.4byte	.LVL471
 18378 5a4e 74700000 		.4byte	0x7074
 18379 5a52 3A       		.uleb128 0x3a
 18380 5a53 A2230000 		.4byte	.LVL473
 18381 5a57 CF6F0000 		.4byte	0x6fcf
 18382 5a5b 3C       		.uleb128 0x3c
 18383 5a5c AA230000 		.4byte	.LVL474
 18384 5a60 71710000 		.4byte	0x7171
 18385 5a64 6F5A0000 		.4byte	0x5a6f
 18386 5a68 3D       		.uleb128 0x3d
 18387 5a69 01       		.uleb128 0x1
 18388 5a6a 50       		.byte	0x50
 18389 5a6b 02       		.uleb128 0x2
 18390 5a6c 74       		.byte	0x74
 18391 5a6d 00       		.sleb128 0
 18392 5a6e 00       		.byte	0
 18393 5a6f 3A       		.uleb128 0x3a
 18394 5a70 AE230000 		.4byte	.LVL475
 18395 5a74 7C710000 		.4byte	0x717c
 18396 5a78 3A       		.uleb128 0x3a
 18397 5a79 54240000 		.4byte	.LVL485
 18398 5a7d 71710000 		.4byte	0x7171
 18399 5a81 3A       		.uleb128 0x3a
 18400 5a82 58240000 		.4byte	.LVL486
 18401 5a86 7C710000 		.4byte	0x717c
 18402 5a8a 3C       		.uleb128 0x3c
 18403 5a8b 64240000 		.4byte	.LVL487
 18404 5a8f 53700000 		.4byte	0x7053
 18405 5a93 A25A0000 		.4byte	0x5aa2
 18406 5a97 3D       		.uleb128 0x3d
 18407 5a98 01       		.uleb128 0x1
 18408 5a99 50       		.byte	0x50
 18409 5a9a 01       		.uleb128 0x1
 18410 5a9b 38       		.byte	0x38
 18411 5a9c 3D       		.uleb128 0x3d
 18412 5a9d 01       		.uleb128 0x1
 18413 5a9e 51       		.byte	0x51
 18414 5a9f 01       		.uleb128 0x1
 18415 5aa0 31       		.byte	0x31
 18416 5aa1 00       		.byte	0
 18417 5aa2 3C       		.uleb128 0x3c
 18418 5aa3 6C240000 		.4byte	.LVL488
 18419 5aa7 5E700000 		.4byte	0x705e
 18420 5aab B75A0000 		.4byte	0x5ab7
 18421 5aaf 3D       		.uleb128 0x3d
 18422 5ab0 01       		.uleb128 0x1
 18423 5ab1 50       		.byte	0x50
 18424 5ab2 03       		.uleb128 0x3
 18425 5ab3 0A       		.byte	0xa
 18426 5ab4 9001     		.2byte	0x190
 18427 5ab6 00       		.byte	0
 18428 5ab7 3A       		.uleb128 0x3a
 18429 5ab8 70240000 		.4byte	.LVL489
 18430 5abc 69700000 		.4byte	0x7069
ARM GAS  /tmp/ccZueut9.s 			page 330


 18431 5ac0 3C       		.uleb128 0x3c
 18432 5ac1 76240000 		.4byte	.LVL490
 18433 5ac5 5E700000 		.4byte	0x705e
 18434 5ac9 D45A0000 		.4byte	0x5ad4
 18435 5acd 3D       		.uleb128 0x3d
 18436 5ace 01       		.uleb128 0x1
 18437 5acf 50       		.byte	0x50
 18438 5ad0 02       		.uleb128 0x2
 18439 5ad1 08       		.byte	0x8
 18440 5ad2 64       		.byte	0x64
 18441 5ad3 00       		.byte	0
 18442 5ad4 3A       		.uleb128 0x3a
 18443 5ad5 7A240000 		.4byte	.LVL491
 18444 5ad9 74700000 		.4byte	0x7074
 18445 5add 3C       		.uleb128 0x3c
 18446 5ade 82240000 		.4byte	.LVL492
 18447 5ae2 71710000 		.4byte	0x7171
 18448 5ae6 F95A0000 		.4byte	0x5af9
 18449 5aea 3D       		.uleb128 0x3d
 18450 5aeb 01       		.uleb128 0x1
 18451 5aec 50       		.byte	0x50
 18452 5aed 05       		.uleb128 0x5
 18453 5aee 03       		.byte	0x3
 18454 5aef 640B0000 		.4byte	.LC97
 18455 5af3 3D       		.uleb128 0x3d
 18456 5af4 01       		.uleb128 0x1
 18457 5af5 51       		.byte	0x51
 18458 5af6 01       		.uleb128 0x1
 18459 5af7 49       		.byte	0x49
 18460 5af8 00       		.byte	0
 18461 5af9 3A       		.uleb128 0x3a
 18462 5afa 86240000 		.4byte	.LVL493
 18463 5afe 7C710000 		.4byte	0x717c
 18464 5b02 3A       		.uleb128 0x3a
 18465 5b03 92240000 		.4byte	.LVL495
 18466 5b07 71710000 		.4byte	0x7171
 18467 5b0b 3A       		.uleb128 0x3a
 18468 5b0c 96240000 		.4byte	.LVL496
 18469 5b10 7C710000 		.4byte	0x717c
 18470 5b14 3C       		.uleb128 0x3c
 18471 5b15 A4240000 		.4byte	.LVL497
 18472 5b19 CF6F0000 		.4byte	0x6fcf
 18473 5b1d 285B0000 		.4byte	0x5b28
 18474 5b21 3D       		.uleb128 0x3d
 18475 5b22 01       		.uleb128 0x1
 18476 5b23 50       		.byte	0x50
 18477 5b24 02       		.uleb128 0x2
 18478 5b25 78       		.byte	0x78
 18479 5b26 00       		.sleb128 0
 18480 5b27 00       		.byte	0
 18481 5b28 3C       		.uleb128 0x3c
 18482 5b29 AC240000 		.4byte	.LVL498
 18483 5b2d 71710000 		.4byte	0x7171
 18484 5b31 3C5B0000 		.4byte	0x5b3c
 18485 5b35 3D       		.uleb128 0x3d
 18486 5b36 01       		.uleb128 0x1
 18487 5b37 50       		.byte	0x50
ARM GAS  /tmp/ccZueut9.s 			page 331


 18488 5b38 02       		.uleb128 0x2
 18489 5b39 78       		.byte	0x78
 18490 5b3a 00       		.sleb128 0
 18491 5b3b 00       		.byte	0
 18492 5b3c 3A       		.uleb128 0x3a
 18493 5b3d B0240000 		.4byte	.LVL499
 18494 5b41 7C710000 		.4byte	0x717c
 18495 5b45 3A       		.uleb128 0x3a
 18496 5b46 BC240000 		.4byte	.LVL500
 18497 5b4a 71710000 		.4byte	0x7171
 18498 5b4e 3A       		.uleb128 0x3a
 18499 5b4f C0240000 		.4byte	.LVL501
 18500 5b53 7C710000 		.4byte	0x717c
 18501 5b57 3A       		.uleb128 0x3a
 18502 5b58 CC240000 		.4byte	.LVL502
 18503 5b5c 71710000 		.4byte	0x7171
 18504 5b60 3A       		.uleb128 0x3a
 18505 5b61 D0240000 		.4byte	.LVL503
 18506 5b65 7C710000 		.4byte	0x717c
 18507 5b69 3A       		.uleb128 0x3a
 18508 5b6a DC240000 		.4byte	.LVL504
 18509 5b6e 71710000 		.4byte	0x7171
 18510 5b72 3A       		.uleb128 0x3a
 18511 5b73 E0240000 		.4byte	.LVL505
 18512 5b77 7C710000 		.4byte	0x717c
 18513 5b7b 3C       		.uleb128 0x3c
 18514 5b7c F0240000 		.4byte	.LVL506
 18515 5b80 C46F0000 		.4byte	0x6fc4
 18516 5b84 985B0000 		.4byte	0x5b98
 18517 5b88 3D       		.uleb128 0x3d
 18518 5b89 01       		.uleb128 0x1
 18519 5b8a 50       		.byte	0x50
 18520 5b8b 02       		.uleb128 0x2
 18521 5b8c 78       		.byte	0x78
 18522 5b8d 00       		.sleb128 0
 18523 5b8e 3D       		.uleb128 0x3d
 18524 5b8f 01       		.uleb128 0x1
 18525 5b90 51       		.byte	0x51
 18526 5b91 05       		.uleb128 0x5
 18527 5b92 03       		.byte	0x3
 18528 5b93 480B0000 		.4byte	.LC95
 18529 5b97 00       		.byte	0
 18530 5b98 3C       		.uleb128 0x3c
 18531 5b99 F6240000 		.4byte	.LVL507
 18532 5b9d CF6F0000 		.4byte	0x6fcf
 18533 5ba1 AC5B0000 		.4byte	0x5bac
 18534 5ba5 3D       		.uleb128 0x3d
 18535 5ba6 01       		.uleb128 0x1
 18536 5ba7 50       		.byte	0x50
 18537 5ba8 02       		.uleb128 0x2
 18538 5ba9 78       		.byte	0x78
 18539 5baa 00       		.sleb128 0
 18540 5bab 00       		.byte	0
 18541 5bac 3C       		.uleb128 0x3c
 18542 5bad FE240000 		.4byte	.LVL508
 18543 5bb1 71710000 		.4byte	0x7171
 18544 5bb5 C05B0000 		.4byte	0x5bc0
ARM GAS  /tmp/ccZueut9.s 			page 332


 18545 5bb9 3D       		.uleb128 0x3d
 18546 5bba 01       		.uleb128 0x1
 18547 5bbb 50       		.byte	0x50
 18548 5bbc 02       		.uleb128 0x2
 18549 5bbd 78       		.byte	0x78
 18550 5bbe 00       		.sleb128 0
 18551 5bbf 00       		.byte	0
 18552 5bc0 3A       		.uleb128 0x3a
 18553 5bc1 02250000 		.4byte	.LVL509
 18554 5bc5 7C710000 		.4byte	0x717c
 18555 5bc9 3C       		.uleb128 0x3c
 18556 5bca 10250000 		.4byte	.LVL510
 18557 5bce CF6F0000 		.4byte	0x6fcf
 18558 5bd2 DD5B0000 		.4byte	0x5bdd
 18559 5bd6 3D       		.uleb128 0x3d
 18560 5bd7 01       		.uleb128 0x1
 18561 5bd8 50       		.byte	0x50
 18562 5bd9 02       		.uleb128 0x2
 18563 5bda 78       		.byte	0x78
 18564 5bdb 00       		.sleb128 0
 18565 5bdc 00       		.byte	0
 18566 5bdd 3C       		.uleb128 0x3c
 18567 5bde 18250000 		.4byte	.LVL511
 18568 5be2 71710000 		.4byte	0x7171
 18569 5be6 F15B0000 		.4byte	0x5bf1
 18570 5bea 3D       		.uleb128 0x3d
 18571 5beb 01       		.uleb128 0x1
 18572 5bec 50       		.byte	0x50
 18573 5bed 02       		.uleb128 0x2
 18574 5bee 78       		.byte	0x78
 18575 5bef 00       		.sleb128 0
 18576 5bf0 00       		.byte	0
 18577 5bf1 3A       		.uleb128 0x3a
 18578 5bf2 1C250000 		.4byte	.LVL512
 18579 5bf6 7C710000 		.4byte	0x717c
 18580 5bfa 3A       		.uleb128 0x3a
 18581 5bfb 28250000 		.4byte	.LVL513
 18582 5bff 71710000 		.4byte	0x7171
 18583 5c03 3A       		.uleb128 0x3a
 18584 5c04 2C250000 		.4byte	.LVL514
 18585 5c08 7C710000 		.4byte	0x717c
 18586 5c0c 3C       		.uleb128 0x3c
 18587 5c0d 3A250000 		.4byte	.LVL515
 18588 5c11 CF6F0000 		.4byte	0x6fcf
 18589 5c15 205C0000 		.4byte	0x5c20
 18590 5c19 3D       		.uleb128 0x3d
 18591 5c1a 01       		.uleb128 0x1
 18592 5c1b 50       		.byte	0x50
 18593 5c1c 02       		.uleb128 0x2
 18594 5c1d 78       		.byte	0x78
 18595 5c1e 00       		.sleb128 0
 18596 5c1f 00       		.byte	0
 18597 5c20 3C       		.uleb128 0x3c
 18598 5c21 42250000 		.4byte	.LVL516
 18599 5c25 71710000 		.4byte	0x7171
 18600 5c29 345C0000 		.4byte	0x5c34
 18601 5c2d 3D       		.uleb128 0x3d
ARM GAS  /tmp/ccZueut9.s 			page 333


 18602 5c2e 01       		.uleb128 0x1
 18603 5c2f 50       		.byte	0x50
 18604 5c30 02       		.uleb128 0x2
 18605 5c31 78       		.byte	0x78
 18606 5c32 00       		.sleb128 0
 18607 5c33 00       		.byte	0
 18608 5c34 3A       		.uleb128 0x3a
 18609 5c35 46250000 		.4byte	.LVL517
 18610 5c39 7C710000 		.4byte	0x717c
 18611 5c3d 3A       		.uleb128 0x3a
 18612 5c3e 52250000 		.4byte	.LVL518
 18613 5c42 71710000 		.4byte	0x7171
 18614 5c46 3A       		.uleb128 0x3a
 18615 5c47 56250000 		.4byte	.LVL519
 18616 5c4b 7C710000 		.4byte	0x717c
 18617 5c4f 3A       		.uleb128 0x3a
 18618 5c50 62250000 		.4byte	.LVL520
 18619 5c54 71710000 		.4byte	0x7171
 18620 5c58 3A       		.uleb128 0x3a
 18621 5c59 66250000 		.4byte	.LVL521
 18622 5c5d 7C710000 		.4byte	0x717c
 18623 5c61 3A       		.uleb128 0x3a
 18624 5c62 72250000 		.4byte	.LVL522
 18625 5c66 71710000 		.4byte	0x7171
 18626 5c6a 3A       		.uleb128 0x3a
 18627 5c6b 76250000 		.4byte	.LVL523
 18628 5c6f 7C710000 		.4byte	0x717c
 18629 5c73 3A       		.uleb128 0x3a
 18630 5c74 82250000 		.4byte	.LVL524
 18631 5c78 71710000 		.4byte	0x7171
 18632 5c7c 3A       		.uleb128 0x3a
 18633 5c7d 86250000 		.4byte	.LVL525
 18634 5c81 7C710000 		.4byte	0x717c
 18635 5c85 3A       		.uleb128 0x3a
 18636 5c86 92250000 		.4byte	.LVL526
 18637 5c8a 71710000 		.4byte	0x7171
 18638 5c8e 3A       		.uleb128 0x3a
 18639 5c8f 96250000 		.4byte	.LVL527
 18640 5c93 7C710000 		.4byte	0x717c
 18641 5c97 3A       		.uleb128 0x3a
 18642 5c98 A2250000 		.4byte	.LVL528
 18643 5c9c 71710000 		.4byte	0x7171
 18644 5ca0 3A       		.uleb128 0x3a
 18645 5ca1 A6250000 		.4byte	.LVL529
 18646 5ca5 7C710000 		.4byte	0x717c
 18647 5ca9 3A       		.uleb128 0x3a
 18648 5caa B2250000 		.4byte	.LVL530
 18649 5cae 71710000 		.4byte	0x7171
 18650 5cb2 3A       		.uleb128 0x3a
 18651 5cb3 B6250000 		.4byte	.LVL531
 18652 5cb7 7C710000 		.4byte	0x717c
 18653 5cbb 3A       		.uleb128 0x3a
 18654 5cbc C2250000 		.4byte	.LVL532
 18655 5cc0 71710000 		.4byte	0x7171
 18656 5cc4 3A       		.uleb128 0x3a
 18657 5cc5 C6250000 		.4byte	.LVL533
 18658 5cc9 7C710000 		.4byte	0x717c
ARM GAS  /tmp/ccZueut9.s 			page 334


 18659 5ccd 3A       		.uleb128 0x3a
 18660 5cce D2250000 		.4byte	.LVL534
 18661 5cd2 71710000 		.4byte	0x7171
 18662 5cd6 3A       		.uleb128 0x3a
 18663 5cd7 D6250000 		.4byte	.LVL535
 18664 5cdb 7C710000 		.4byte	0x717c
 18665 5cdf 3A       		.uleb128 0x3a
 18666 5ce0 E2250000 		.4byte	.LVL536
 18667 5ce4 71710000 		.4byte	0x7171
 18668 5ce8 3A       		.uleb128 0x3a
 18669 5ce9 E6250000 		.4byte	.LVL537
 18670 5ced 7C710000 		.4byte	0x717c
 18671 5cf1 3A       		.uleb128 0x3a
 18672 5cf2 F2250000 		.4byte	.LVL538
 18673 5cf6 71710000 		.4byte	0x7171
 18674 5cfa 3A       		.uleb128 0x3a
 18675 5cfb F6250000 		.4byte	.LVL539
 18676 5cff 7C710000 		.4byte	0x717c
 18677 5d03 3A       		.uleb128 0x3a
 18678 5d04 28260000 		.4byte	.LVL540
 18679 5d08 71710000 		.4byte	0x7171
 18680 5d0c 3A       		.uleb128 0x3a
 18681 5d0d 2C260000 		.4byte	.LVL541
 18682 5d11 7C710000 		.4byte	0x717c
 18683 5d15 3A       		.uleb128 0x3a
 18684 5d16 34260000 		.4byte	.LVL542
 18685 5d1a 3A710000 		.4byte	0x713a
 18686 5d1e 3A       		.uleb128 0x3a
 18687 5d1f 3E260000 		.4byte	.LVL543
 18688 5d23 3A710000 		.4byte	0x713a
 18689 5d27 3C       		.uleb128 0x3c
 18690 5d28 4C260000 		.4byte	.LVL544
 18691 5d2c 71710000 		.4byte	0x7171
 18692 5d30 435D0000 		.4byte	0x5d43
 18693 5d34 3D       		.uleb128 0x3d
 18694 5d35 01       		.uleb128 0x1
 18695 5d36 50       		.byte	0x50
 18696 5d37 05       		.uleb128 0x5
 18697 5d38 03       		.byte	0x3
 18698 5d39 00060000 		.4byte	.LC45
 18699 5d3d 3D       		.uleb128 0x3d
 18700 5d3e 01       		.uleb128 0x1
 18701 5d3f 51       		.byte	0x51
 18702 5d40 01       		.uleb128 0x1
 18703 5d41 49       		.byte	0x49
 18704 5d42 00       		.byte	0
 18705 5d43 3A       		.uleb128 0x3a
 18706 5d44 50260000 		.4byte	.LVL545
 18707 5d48 7C710000 		.4byte	0x717c
 18708 5d4c 3C       		.uleb128 0x3c
 18709 5d4d 5C260000 		.4byte	.LVL546
 18710 5d51 71710000 		.4byte	0x7171
 18711 5d55 695D0000 		.4byte	0x5d69
 18712 5d59 3D       		.uleb128 0x3d
 18713 5d5a 01       		.uleb128 0x1
 18714 5d5b 50       		.byte	0x50
 18715 5d5c 05       		.uleb128 0x5
ARM GAS  /tmp/ccZueut9.s 			page 335


 18716 5d5d 03       		.byte	0x3
 18717 5d5e 44060000 		.4byte	.LC47
 18718 5d62 3D       		.uleb128 0x3d
 18719 5d63 01       		.uleb128 0x1
 18720 5d64 51       		.byte	0x51
 18721 5d65 02       		.uleb128 0x2
 18722 5d66 08       		.byte	0x8
 18723 5d67 2B       		.byte	0x2b
 18724 5d68 00       		.byte	0
 18725 5d69 3A       		.uleb128 0x3a
 18726 5d6a 60260000 		.4byte	.LVL547
 18727 5d6e 7C710000 		.4byte	0x717c
 18728 5d72 3C       		.uleb128 0x3c
 18729 5d73 6C260000 		.4byte	.LVL548
 18730 5d77 71710000 		.4byte	0x7171
 18731 5d7b 8E5D0000 		.4byte	0x5d8e
 18732 5d7f 3D       		.uleb128 0x3d
 18733 5d80 01       		.uleb128 0x1
 18734 5d81 50       		.byte	0x50
 18735 5d82 05       		.uleb128 0x5
 18736 5d83 03       		.byte	0x3
 18737 5d84 70060000 		.4byte	.LC48
 18738 5d88 3D       		.uleb128 0x3d
 18739 5d89 01       		.uleb128 0x1
 18740 5d8a 51       		.byte	0x51
 18741 5d8b 01       		.uleb128 0x1
 18742 5d8c 4D       		.byte	0x4d
 18743 5d8d 00       		.byte	0
 18744 5d8e 3A       		.uleb128 0x3a
 18745 5d8f 70260000 		.4byte	.LVL549
 18746 5d93 7C710000 		.4byte	0x717c
 18747 5d97 3C       		.uleb128 0x3c
 18748 5d98 7C260000 		.4byte	.LVL550
 18749 5d9c 71710000 		.4byte	0x7171
 18750 5da0 B45D0000 		.4byte	0x5db4
 18751 5da4 3D       		.uleb128 0x3d
 18752 5da5 01       		.uleb128 0x1
 18753 5da6 50       		.byte	0x50
 18754 5da7 05       		.uleb128 0x5
 18755 5da8 03       		.byte	0x3
 18756 5da9 90060000 		.4byte	.LC49
 18757 5dad 3D       		.uleb128 0x3d
 18758 5dae 01       		.uleb128 0x1
 18759 5daf 51       		.byte	0x51
 18760 5db0 02       		.uleb128 0x2
 18761 5db1 08       		.byte	0x8
 18762 5db2 26       		.byte	0x26
 18763 5db3 00       		.byte	0
 18764 5db4 3A       		.uleb128 0x3a
 18765 5db5 80260000 		.4byte	.LVL551
 18766 5db9 7C710000 		.4byte	0x717c
 18767 5dbd 3C       		.uleb128 0x3c
 18768 5dbe 8C260000 		.4byte	.LVL552
 18769 5dc2 71710000 		.4byte	0x7171
 18770 5dc6 DA5D0000 		.4byte	0x5dda
 18771 5dca 3D       		.uleb128 0x3d
 18772 5dcb 01       		.uleb128 0x1
ARM GAS  /tmp/ccZueut9.s 			page 336


 18773 5dcc 50       		.byte	0x50
 18774 5dcd 05       		.uleb128 0x5
 18775 5dce 03       		.byte	0x3
 18776 5dcf B8060000 		.4byte	.LC50
 18777 5dd3 3D       		.uleb128 0x3d
 18778 5dd4 01       		.uleb128 0x1
 18779 5dd5 51       		.byte	0x51
 18780 5dd6 02       		.uleb128 0x2
 18781 5dd7 08       		.byte	0x8
 18782 5dd8 26       		.byte	0x26
 18783 5dd9 00       		.byte	0
 18784 5dda 3A       		.uleb128 0x3a
 18785 5ddb 90260000 		.4byte	.LVL553
 18786 5ddf 7C710000 		.4byte	0x717c
 18787 5de3 3C       		.uleb128 0x3c
 18788 5de4 9C260000 		.4byte	.LVL554
 18789 5de8 71710000 		.4byte	0x7171
 18790 5dec 005E0000 		.4byte	0x5e00
 18791 5df0 3D       		.uleb128 0x3d
 18792 5df1 01       		.uleb128 0x1
 18793 5df2 50       		.byte	0x50
 18794 5df3 05       		.uleb128 0x5
 18795 5df4 03       		.byte	0x3
 18796 5df5 E0060000 		.4byte	.LC51
 18797 5df9 3D       		.uleb128 0x3d
 18798 5dfa 01       		.uleb128 0x1
 18799 5dfb 51       		.byte	0x51
 18800 5dfc 02       		.uleb128 0x2
 18801 5dfd 08       		.byte	0x8
 18802 5dfe 2C       		.byte	0x2c
 18803 5dff 00       		.byte	0
 18804 5e00 3A       		.uleb128 0x3a
 18805 5e01 A0260000 		.4byte	.LVL555
 18806 5e05 7C710000 		.4byte	0x717c
 18807 5e09 3C       		.uleb128 0x3c
 18808 5e0a AC260000 		.4byte	.LVL556
 18809 5e0e 71710000 		.4byte	0x7171
 18810 5e12 255E0000 		.4byte	0x5e25
 18811 5e16 3D       		.uleb128 0x3d
 18812 5e17 01       		.uleb128 0x1
 18813 5e18 50       		.byte	0x50
 18814 5e19 05       		.uleb128 0x5
 18815 5e1a 03       		.byte	0x3
 18816 5e1b 10070000 		.4byte	.LC52
 18817 5e1f 3D       		.uleb128 0x3d
 18818 5e20 01       		.uleb128 0x1
 18819 5e21 51       		.byte	0x51
 18820 5e22 01       		.uleb128 0x1
 18821 5e23 47       		.byte	0x47
 18822 5e24 00       		.byte	0
 18823 5e25 3A       		.uleb128 0x3a
 18824 5e26 B0260000 		.4byte	.LVL557
 18825 5e2a 7C710000 		.4byte	0x717c
 18826 5e2e 3C       		.uleb128 0x3c
 18827 5e2f BC260000 		.4byte	.LVL558
 18828 5e33 71710000 		.4byte	0x7171
 18829 5e37 4A5E0000 		.4byte	0x5e4a
ARM GAS  /tmp/ccZueut9.s 			page 337


 18830 5e3b 3D       		.uleb128 0x3d
 18831 5e3c 01       		.uleb128 0x1
 18832 5e3d 50       		.byte	0x50
 18833 5e3e 05       		.uleb128 0x5
 18834 5e3f 03       		.byte	0x3
 18835 5e40 28070000 		.4byte	.LC53
 18836 5e44 3D       		.uleb128 0x3d
 18837 5e45 01       		.uleb128 0x1
 18838 5e46 51       		.byte	0x51
 18839 5e47 01       		.uleb128 0x1
 18840 5e48 40       		.byte	0x40
 18841 5e49 00       		.byte	0
 18842 5e4a 3A       		.uleb128 0x3a
 18843 5e4b C0260000 		.4byte	.LVL559
 18844 5e4f 7C710000 		.4byte	0x717c
 18845 5e53 3C       		.uleb128 0x3c
 18846 5e54 CC260000 		.4byte	.LVL560
 18847 5e58 71710000 		.4byte	0x7171
 18848 5e5c 705E0000 		.4byte	0x5e70
 18849 5e60 3D       		.uleb128 0x3d
 18850 5e61 01       		.uleb128 0x1
 18851 5e62 50       		.byte	0x50
 18852 5e63 05       		.uleb128 0x5
 18853 5e64 03       		.byte	0x3
 18854 5e65 3C070000 		.4byte	.LC54
 18855 5e69 3D       		.uleb128 0x3d
 18856 5e6a 01       		.uleb128 0x1
 18857 5e6b 51       		.byte	0x51
 18858 5e6c 02       		.uleb128 0x2
 18859 5e6d 08       		.byte	0x8
 18860 5e6e 22       		.byte	0x22
 18861 5e6f 00       		.byte	0
 18862 5e70 3A       		.uleb128 0x3a
 18863 5e71 D0260000 		.4byte	.LVL561
 18864 5e75 7C710000 		.4byte	0x717c
 18865 5e79 3C       		.uleb128 0x3c
 18866 5e7a DC260000 		.4byte	.LVL562
 18867 5e7e 71710000 		.4byte	0x7171
 18868 5e82 965E0000 		.4byte	0x5e96
 18869 5e86 3D       		.uleb128 0x3d
 18870 5e87 01       		.uleb128 0x1
 18871 5e88 50       		.byte	0x50
 18872 5e89 05       		.uleb128 0x5
 18873 5e8a 03       		.byte	0x3
 18874 5e8b 60070000 		.4byte	.LC55
 18875 5e8f 3D       		.uleb128 0x3d
 18876 5e90 01       		.uleb128 0x1
 18877 5e91 51       		.byte	0x51
 18878 5e92 02       		.uleb128 0x2
 18879 5e93 08       		.byte	0x8
 18880 5e94 4D       		.byte	0x4d
 18881 5e95 00       		.byte	0
 18882 5e96 3A       		.uleb128 0x3a
 18883 5e97 E0260000 		.4byte	.LVL563
 18884 5e9b 7C710000 		.4byte	0x717c
 18885 5e9f 3C       		.uleb128 0x3c
 18886 5ea0 EC260000 		.4byte	.LVL564
ARM GAS  /tmp/ccZueut9.s 			page 338


 18887 5ea4 71710000 		.4byte	0x7171
 18888 5ea8 BC5E0000 		.4byte	0x5ebc
 18889 5eac 3D       		.uleb128 0x3d
 18890 5ead 01       		.uleb128 0x1
 18891 5eae 50       		.byte	0x50
 18892 5eaf 05       		.uleb128 0x5
 18893 5eb0 03       		.byte	0x3
 18894 5eb1 B0070000 		.4byte	.LC56
 18895 5eb5 3D       		.uleb128 0x3d
 18896 5eb6 01       		.uleb128 0x1
 18897 5eb7 51       		.byte	0x51
 18898 5eb8 02       		.uleb128 0x2
 18899 5eb9 08       		.byte	0x8
 18900 5eba 27       		.byte	0x27
 18901 5ebb 00       		.byte	0
 18902 5ebc 3A       		.uleb128 0x3a
 18903 5ebd F0260000 		.4byte	.LVL565
 18904 5ec1 7C710000 		.4byte	0x717c
 18905 5ec5 3C       		.uleb128 0x3c
 18906 5ec6 FC260000 		.4byte	.LVL566
 18907 5eca 71710000 		.4byte	0x7171
 18908 5ece E25E0000 		.4byte	0x5ee2
 18909 5ed2 3D       		.uleb128 0x3d
 18910 5ed3 01       		.uleb128 0x1
 18911 5ed4 50       		.byte	0x50
 18912 5ed5 05       		.uleb128 0x5
 18913 5ed6 03       		.byte	0x3
 18914 5ed7 D8070000 		.4byte	.LC57
 18915 5edb 3D       		.uleb128 0x3d
 18916 5edc 01       		.uleb128 0x1
 18917 5edd 51       		.byte	0x51
 18918 5ede 02       		.uleb128 0x2
 18919 5edf 08       		.byte	0x8
 18920 5ee0 2B       		.byte	0x2b
 18921 5ee1 00       		.byte	0
 18922 5ee2 3A       		.uleb128 0x3a
 18923 5ee3 00270000 		.4byte	.LVL567
 18924 5ee7 7C710000 		.4byte	0x717c
 18925 5eeb 3C       		.uleb128 0x3c
 18926 5eec 0C270000 		.4byte	.LVL568
 18927 5ef0 71710000 		.4byte	0x7171
 18928 5ef4 075F0000 		.4byte	0x5f07
 18929 5ef8 3D       		.uleb128 0x3d
 18930 5ef9 01       		.uleb128 0x1
 18931 5efa 50       		.byte	0x50
 18932 5efb 05       		.uleb128 0x5
 18933 5efc 03       		.byte	0x3
 18934 5efd 04080000 		.4byte	.LC58
 18935 5f01 3D       		.uleb128 0x3d
 18936 5f02 01       		.uleb128 0x1
 18937 5f03 51       		.byte	0x51
 18938 5f04 01       		.uleb128 0x1
 18939 5f05 49       		.byte	0x49
 18940 5f06 00       		.byte	0
 18941 5f07 3A       		.uleb128 0x3a
 18942 5f08 10270000 		.4byte	.LVL569
 18943 5f0c 7C710000 		.4byte	0x717c
ARM GAS  /tmp/ccZueut9.s 			page 339


 18944 5f10 3C       		.uleb128 0x3c
 18945 5f11 1C270000 		.4byte	.LVL570
 18946 5f15 71710000 		.4byte	0x7171
 18947 5f19 2C5F0000 		.4byte	0x5f2c
 18948 5f1d 3D       		.uleb128 0x3d
 18949 5f1e 01       		.uleb128 0x1
 18950 5f1f 50       		.byte	0x50
 18951 5f20 05       		.uleb128 0x5
 18952 5f21 03       		.byte	0x3
 18953 5f22 20080000 		.4byte	.LC59
 18954 5f26 3D       		.uleb128 0x3d
 18955 5f27 01       		.uleb128 0x1
 18956 5f28 51       		.byte	0x51
 18957 5f29 01       		.uleb128 0x1
 18958 5f2a 45       		.byte	0x45
 18959 5f2b 00       		.byte	0
 18960 5f2c 3A       		.uleb128 0x3a
 18961 5f2d 20270000 		.4byte	.LVL571
 18962 5f31 7C710000 		.4byte	0x717c
 18963 5f35 3C       		.uleb128 0x3c
 18964 5f36 2C270000 		.4byte	.LVL572
 18965 5f3a 71710000 		.4byte	0x7171
 18966 5f3e 515F0000 		.4byte	0x5f51
 18967 5f42 3D       		.uleb128 0x3d
 18968 5f43 01       		.uleb128 0x1
 18969 5f44 50       		.byte	0x50
 18970 5f45 05       		.uleb128 0x5
 18971 5f46 03       		.byte	0x3
 18972 5f47 38080000 		.4byte	.LC60
 18973 5f4b 3D       		.uleb128 0x3d
 18974 5f4c 01       		.uleb128 0x1
 18975 5f4d 51       		.byte	0x51
 18976 5f4e 01       		.uleb128 0x1
 18977 5f4f 49       		.byte	0x49
 18978 5f50 00       		.byte	0
 18979 5f51 3A       		.uleb128 0x3a
 18980 5f52 30270000 		.4byte	.LVL573
 18981 5f56 7C710000 		.4byte	0x717c
 18982 5f5a 3C       		.uleb128 0x3c
 18983 5f5b 3C270000 		.4byte	.LVL574
 18984 5f5f 71710000 		.4byte	0x7171
 18985 5f63 775F0000 		.4byte	0x5f77
 18986 5f67 3D       		.uleb128 0x3d
 18987 5f68 01       		.uleb128 0x1
 18988 5f69 50       		.byte	0x50
 18989 5f6a 05       		.uleb128 0x5
 18990 5f6b 03       		.byte	0x3
 18991 5f6c 54080000 		.4byte	.LC61
 18992 5f70 3D       		.uleb128 0x3d
 18993 5f71 01       		.uleb128 0x1
 18994 5f72 51       		.byte	0x51
 18995 5f73 02       		.uleb128 0x2
 18996 5f74 08       		.byte	0x8
 18997 5f75 29       		.byte	0x29
 18998 5f76 00       		.byte	0
 18999 5f77 3A       		.uleb128 0x3a
 19000 5f78 40270000 		.4byte	.LVL575
ARM GAS  /tmp/ccZueut9.s 			page 340


 19001 5f7c 7C710000 		.4byte	0x717c
 19002 5f80 3C       		.uleb128 0x3c
 19003 5f81 4C270000 		.4byte	.LVL576
 19004 5f85 71710000 		.4byte	0x7171
 19005 5f89 9D5F0000 		.4byte	0x5f9d
 19006 5f8d 3D       		.uleb128 0x3d
 19007 5f8e 01       		.uleb128 0x1
 19008 5f8f 50       		.byte	0x50
 19009 5f90 05       		.uleb128 0x5
 19010 5f91 03       		.byte	0x3
 19011 5f92 80080000 		.4byte	.LC62
 19012 5f96 3D       		.uleb128 0x3d
 19013 5f97 01       		.uleb128 0x1
 19014 5f98 51       		.byte	0x51
 19015 5f99 02       		.uleb128 0x2
 19016 5f9a 08       		.byte	0x8
 19017 5f9b 29       		.byte	0x29
 19018 5f9c 00       		.byte	0
 19019 5f9d 3A       		.uleb128 0x3a
 19020 5f9e 50270000 		.4byte	.LVL577
 19021 5fa2 7C710000 		.4byte	0x717c
 19022 5fa6 3C       		.uleb128 0x3c
 19023 5fa7 5C270000 		.4byte	.LVL578
 19024 5fab 71710000 		.4byte	0x7171
 19025 5faf C25F0000 		.4byte	0x5fc2
 19026 5fb3 3D       		.uleb128 0x3d
 19027 5fb4 01       		.uleb128 0x1
 19028 5fb5 50       		.byte	0x50
 19029 5fb6 05       		.uleb128 0x5
 19030 5fb7 03       		.byte	0x3
 19031 5fb8 AC080000 		.4byte	.LC63
 19032 5fbc 3D       		.uleb128 0x3d
 19033 5fbd 01       		.uleb128 0x1
 19034 5fbe 51       		.byte	0x51
 19035 5fbf 01       		.uleb128 0x1
 19036 5fc0 48       		.byte	0x48
 19037 5fc1 00       		.byte	0
 19038 5fc2 3A       		.uleb128 0x3a
 19039 5fc3 60270000 		.4byte	.LVL579
 19040 5fc7 7C710000 		.4byte	0x717c
 19041 5fcb 3C       		.uleb128 0x3c
 19042 5fcc 6C270000 		.4byte	.LVL580
 19043 5fd0 71710000 		.4byte	0x7171
 19044 5fd4 E85F0000 		.4byte	0x5fe8
 19045 5fd8 3D       		.uleb128 0x3d
 19046 5fd9 01       		.uleb128 0x1
 19047 5fda 50       		.byte	0x50
 19048 5fdb 05       		.uleb128 0x5
 19049 5fdc 03       		.byte	0x3
 19050 5fdd C8080000 		.4byte	.LC64
 19051 5fe1 3D       		.uleb128 0x3d
 19052 5fe2 01       		.uleb128 0x1
 19053 5fe3 51       		.byte	0x51
 19054 5fe4 02       		.uleb128 0x2
 19055 5fe5 08       		.byte	0x8
 19056 5fe6 29       		.byte	0x29
 19057 5fe7 00       		.byte	0
ARM GAS  /tmp/ccZueut9.s 			page 341


 19058 5fe8 3A       		.uleb128 0x3a
 19059 5fe9 70270000 		.4byte	.LVL581
 19060 5fed 7C710000 		.4byte	0x717c
 19061 5ff1 3C       		.uleb128 0x3c
 19062 5ff2 7C270000 		.4byte	.LVL582
 19063 5ff6 71710000 		.4byte	0x7171
 19064 5ffa 0E600000 		.4byte	0x600e
 19065 5ffe 3D       		.uleb128 0x3d
 19066 5fff 01       		.uleb128 0x1
 19067 6000 50       		.byte	0x50
 19068 6001 05       		.uleb128 0x5
 19069 6002 03       		.byte	0x3
 19070 6003 F4080000 		.4byte	.LC65
 19071 6007 3D       		.uleb128 0x3d
 19072 6008 01       		.uleb128 0x1
 19073 6009 51       		.byte	0x51
 19074 600a 02       		.uleb128 0x2
 19075 600b 08       		.byte	0x8
 19076 600c 2C       		.byte	0x2c
 19077 600d 00       		.byte	0
 19078 600e 3A       		.uleb128 0x3a
 19079 600f 80270000 		.4byte	.LVL583
 19080 6013 7C710000 		.4byte	0x717c
 19081 6017 3C       		.uleb128 0x3c
 19082 6018 8C270000 		.4byte	.LVL584
 19083 601c 71710000 		.4byte	0x7171
 19084 6020 34600000 		.4byte	0x6034
 19085 6024 3D       		.uleb128 0x3d
 19086 6025 01       		.uleb128 0x1
 19087 6026 50       		.byte	0x50
 19088 6027 05       		.uleb128 0x5
 19089 6028 03       		.byte	0x3
 19090 6029 24090000 		.4byte	.LC66
 19091 602d 3D       		.uleb128 0x3d
 19092 602e 01       		.uleb128 0x1
 19093 602f 51       		.byte	0x51
 19094 6030 02       		.uleb128 0x2
 19095 6031 08       		.byte	0x8
 19096 6032 24       		.byte	0x24
 19097 6033 00       		.byte	0
 19098 6034 3A       		.uleb128 0x3a
 19099 6035 90270000 		.4byte	.LVL585
 19100 6039 7C710000 		.4byte	0x717c
 19101 603d 3C       		.uleb128 0x3c
 19102 603e 9C270000 		.4byte	.LVL586
 19103 6042 71710000 		.4byte	0x7171
 19104 6046 59600000 		.4byte	0x6059
 19105 604a 3D       		.uleb128 0x3d
 19106 604b 01       		.uleb128 0x1
 19107 604c 50       		.byte	0x50
 19108 604d 05       		.uleb128 0x5
 19109 604e 03       		.byte	0x3
 19110 604f 4C090000 		.4byte	.LC67
 19111 6053 3D       		.uleb128 0x3d
 19112 6054 01       		.uleb128 0x1
 19113 6055 51       		.byte	0x51
 19114 6056 01       		.uleb128 0x1
ARM GAS  /tmp/ccZueut9.s 			page 342


 19115 6057 4D       		.byte	0x4d
 19116 6058 00       		.byte	0
 19117 6059 3A       		.uleb128 0x3a
 19118 605a A0270000 		.4byte	.LVL587
 19119 605e 7C710000 		.4byte	0x717c
 19120 6062 3C       		.uleb128 0x3c
 19121 6063 AC270000 		.4byte	.LVL588
 19122 6067 71710000 		.4byte	0x7171
 19123 606b 7F600000 		.4byte	0x607f
 19124 606f 3D       		.uleb128 0x3d
 19125 6070 01       		.uleb128 0x1
 19126 6071 50       		.byte	0x50
 19127 6072 05       		.uleb128 0x5
 19128 6073 03       		.byte	0x3
 19129 6074 6C090000 		.4byte	.LC68
 19130 6078 3D       		.uleb128 0x3d
 19131 6079 01       		.uleb128 0x1
 19132 607a 51       		.byte	0x51
 19133 607b 02       		.uleb128 0x2
 19134 607c 08       		.byte	0x8
 19135 607d 25       		.byte	0x25
 19136 607e 00       		.byte	0
 19137 607f 3A       		.uleb128 0x3a
 19138 6080 B0270000 		.4byte	.LVL589
 19139 6084 7C710000 		.4byte	0x717c
 19140 6088 3C       		.uleb128 0x3c
 19141 6089 BC270000 		.4byte	.LVL590
 19142 608d 71710000 		.4byte	0x7171
 19143 6091 A5600000 		.4byte	0x60a5
 19144 6095 3D       		.uleb128 0x3d
 19145 6096 01       		.uleb128 0x1
 19146 6097 50       		.byte	0x50
 19147 6098 05       		.uleb128 0x5
 19148 6099 03       		.byte	0x3
 19149 609a 94090000 		.4byte	.LC69
 19150 609e 3D       		.uleb128 0x3d
 19151 609f 01       		.uleb128 0x1
 19152 60a0 51       		.byte	0x51
 19153 60a1 02       		.uleb128 0x2
 19154 60a2 08       		.byte	0x8
 19155 60a3 24       		.byte	0x24
 19156 60a4 00       		.byte	0
 19157 60a5 3A       		.uleb128 0x3a
 19158 60a6 C0270000 		.4byte	.LVL591
 19159 60aa 7C710000 		.4byte	0x717c
 19160 60ae 3A       		.uleb128 0x3a
 19161 60af CC270000 		.4byte	.LVL592
 19162 60b3 71710000 		.4byte	0x7171
 19163 60b7 3A       		.uleb128 0x3a
 19164 60b8 D0270000 		.4byte	.LVL593
 19165 60bc 7C710000 		.4byte	0x717c
 19166 60c0 3A       		.uleb128 0x3a
 19167 60c1 DC270000 		.4byte	.LVL594
 19168 60c5 CF6F0000 		.4byte	0x6fcf
 19169 60c9 3C       		.uleb128 0x3c
 19170 60ca E4270000 		.4byte	.LVL595
 19171 60ce 71710000 		.4byte	0x7171
ARM GAS  /tmp/ccZueut9.s 			page 343


 19172 60d2 DD600000 		.4byte	0x60dd
 19173 60d6 3D       		.uleb128 0x3d
 19174 60d7 01       		.uleb128 0x1
 19175 60d8 50       		.byte	0x50
 19176 60d9 02       		.uleb128 0x2
 19177 60da 78       		.byte	0x78
 19178 60db 00       		.sleb128 0
 19179 60dc 00       		.byte	0
 19180 60dd 3A       		.uleb128 0x3a
 19181 60de E8270000 		.4byte	.LVL596
 19182 60e2 7C710000 		.4byte	0x717c
 19183 60e6 3A       		.uleb128 0x3a
 19184 60e7 F0270000 		.4byte	.LVL597
 19185 60eb FB6F0000 		.4byte	0x6ffb
 19186 60ef 3A       		.uleb128 0x3a
 19187 60f0 FC270000 		.4byte	.LVL598
 19188 60f4 06700000 		.4byte	0x7006
 19189 60f8 3A       		.uleb128 0x3a
 19190 60f9 06280000 		.4byte	.LVL599
 19191 60fd 11700000 		.4byte	0x7011
 19192 6101 3C       		.uleb128 0x3c
 19193 6102 10280000 		.4byte	.LVL600
 19194 6106 C46F0000 		.4byte	0x6fc4
 19195 610a 1E610000 		.4byte	0x611e
 19196 610e 3D       		.uleb128 0x3d
 19197 610f 01       		.uleb128 0x1
 19198 6110 50       		.byte	0x50
 19199 6111 02       		.uleb128 0x2
 19200 6112 78       		.byte	0x78
 19201 6113 00       		.sleb128 0
 19202 6114 3D       		.uleb128 0x3d
 19203 6115 01       		.uleb128 0x1
 19204 6116 51       		.byte	0x51
 19205 6117 05       		.uleb128 0x5
 19206 6118 03       		.byte	0x3
 19207 6119 5C0B0000 		.4byte	.LC96
 19208 611d 00       		.byte	0
 19209 611e 3C       		.uleb128 0x3c
 19210 611f 16280000 		.4byte	.LVL601
 19211 6123 CF6F0000 		.4byte	0x6fcf
 19212 6127 32610000 		.4byte	0x6132
 19213 612b 3D       		.uleb128 0x3d
 19214 612c 01       		.uleb128 0x1
 19215 612d 50       		.byte	0x50
 19216 612e 02       		.uleb128 0x2
 19217 612f 78       		.byte	0x78
 19218 6130 00       		.sleb128 0
 19219 6131 00       		.byte	0
 19220 6132 3C       		.uleb128 0x3c
 19221 6133 1E280000 		.4byte	.LVL602
 19222 6137 71710000 		.4byte	0x7171
 19223 613b 46610000 		.4byte	0x6146
 19224 613f 3D       		.uleb128 0x3d
 19225 6140 01       		.uleb128 0x1
 19226 6141 50       		.byte	0x50
 19227 6142 02       		.uleb128 0x2
 19228 6143 78       		.byte	0x78
ARM GAS  /tmp/ccZueut9.s 			page 344


 19229 6144 00       		.sleb128 0
 19230 6145 00       		.byte	0
 19231 6146 3A       		.uleb128 0x3a
 19232 6147 22280000 		.4byte	.LVL603
 19233 614b 7C710000 		.4byte	0x717c
 19234 614f 3A       		.uleb128 0x3a
 19235 6150 44280000 		.4byte	.LVL604
 19236 6154 CF6F0000 		.4byte	0x6fcf
 19237 6158 3C       		.uleb128 0x3c
 19238 6159 4C280000 		.4byte	.LVL605
 19239 615d 71710000 		.4byte	0x7171
 19240 6161 6C610000 		.4byte	0x616c
 19241 6165 3D       		.uleb128 0x3d
 19242 6166 01       		.uleb128 0x1
 19243 6167 50       		.byte	0x50
 19244 6168 02       		.uleb128 0x2
 19245 6169 78       		.byte	0x78
 19246 616a 00       		.sleb128 0
 19247 616b 00       		.byte	0
 19248 616c 3A       		.uleb128 0x3a
 19249 616d 50280000 		.4byte	.LVL606
 19250 6171 7C710000 		.4byte	0x717c
 19251 6175 3A       		.uleb128 0x3a
 19252 6176 5C280000 		.4byte	.LVL607
 19253 617a 71710000 		.4byte	0x7171
 19254 617e 3A       		.uleb128 0x3a
 19255 617f 60280000 		.4byte	.LVL608
 19256 6183 7C710000 		.4byte	0x717c
 19257 6187 3A       		.uleb128 0x3a
 19258 6188 6C280000 		.4byte	.LVL609
 19259 618c CF6F0000 		.4byte	0x6fcf
 19260 6190 3C       		.uleb128 0x3c
 19261 6191 74280000 		.4byte	.LVL610
 19262 6195 71710000 		.4byte	0x7171
 19263 6199 A4610000 		.4byte	0x61a4
 19264 619d 3D       		.uleb128 0x3d
 19265 619e 01       		.uleb128 0x1
 19266 619f 50       		.byte	0x50
 19267 61a0 02       		.uleb128 0x2
 19268 61a1 78       		.byte	0x78
 19269 61a2 00       		.sleb128 0
 19270 61a3 00       		.byte	0
 19271 61a4 3A       		.uleb128 0x3a
 19272 61a5 78280000 		.4byte	.LVL611
 19273 61a9 7C710000 		.4byte	0x717c
 19274 61ad 3A       		.uleb128 0x3a
 19275 61ae 84280000 		.4byte	.LVL612
 19276 61b2 87710000 		.4byte	0x7187
 19277 61b6 3A       		.uleb128 0x3a
 19278 61b7 88280000 		.4byte	.LVL613
 19279 61bb 92710000 		.4byte	0x7192
 19280 61bf 3A       		.uleb128 0x3a
 19281 61c0 96280000 		.4byte	.LVL614
 19282 61c4 71710000 		.4byte	0x7171
 19283 61c8 3A       		.uleb128 0x3a
 19284 61c9 9A280000 		.4byte	.LVL615
 19285 61cd 7C710000 		.4byte	0x717c
ARM GAS  /tmp/ccZueut9.s 			page 345


 19286 61d1 3C       		.uleb128 0x3c
 19287 61d2 AA280000 		.4byte	.LVL616
 19288 61d6 DA6F0000 		.4byte	0x6fda
 19289 61da EE610000 		.4byte	0x61ee
 19290 61de 3D       		.uleb128 0x3d
 19291 61df 01       		.uleb128 0x1
 19292 61e0 50       		.byte	0x50
 19293 61e1 05       		.uleb128 0x5
 19294 61e2 03       		.byte	0x3
 19295 61e3 94010000 		.4byte	.LC19
 19296 61e7 3D       		.uleb128 0x3d
 19297 61e8 01       		.uleb128 0x1
 19298 61e9 51       		.byte	0x51
 19299 61ea 02       		.uleb128 0x2
 19300 61eb 08       		.byte	0x8
 19301 61ec 2F       		.byte	0x2f
 19302 61ed 00       		.byte	0
 19303 61ee 3A       		.uleb128 0x3a
 19304 61ef AE280000 		.4byte	.LVL617
 19305 61f3 E56F0000 		.4byte	0x6fe5
 19306 61f7 3C       		.uleb128 0x3c
 19307 61f8 BE280000 		.4byte	.LVL618
 19308 61fc 71710000 		.4byte	0x7171
 19309 6200 14620000 		.4byte	0x6214
 19310 6204 3D       		.uleb128 0x3d
 19311 6205 01       		.uleb128 0x1
 19312 6206 50       		.byte	0x50
 19313 6207 05       		.uleb128 0x5
 19314 6208 03       		.byte	0x3
 19315 6209 1C060000 		.4byte	.LC46
 19316 620d 3D       		.uleb128 0x3d
 19317 620e 01       		.uleb128 0x1
 19318 620f 51       		.byte	0x51
 19319 6210 02       		.uleb128 0x2
 19320 6211 08       		.byte	0x8
 19321 6212 27       		.byte	0x27
 19322 6213 00       		.byte	0
 19323 6214 3A       		.uleb128 0x3a
 19324 6215 C2280000 		.4byte	.LVL619
 19325 6219 7C710000 		.4byte	0x717c
 19326 621d 3C       		.uleb128 0x3c
 19327 621e D0280000 		.4byte	.LVL620
 19328 6222 71710000 		.4byte	0x7171
 19329 6226 39620000 		.4byte	0x6239
 19330 622a 3D       		.uleb128 0x3d
 19331 622b 01       		.uleb128 0x1
 19332 622c 50       		.byte	0x50
 19333 622d 05       		.uleb128 0x5
 19334 622e 03       		.byte	0x3
 19335 622f E4050000 		.4byte	.LC44
 19336 6233 3D       		.uleb128 0x3d
 19337 6234 01       		.uleb128 0x1
 19338 6235 51       		.byte	0x51
 19339 6236 01       		.uleb128 0x1
 19340 6237 49       		.byte	0x49
 19341 6238 00       		.byte	0
 19342 6239 3A       		.uleb128 0x3a
ARM GAS  /tmp/ccZueut9.s 			page 346


 19343 623a D4280000 		.4byte	.LVL621
 19344 623e 7C710000 		.4byte	0x717c
 19345 6242 3C       		.uleb128 0x3c
 19346 6243 E2280000 		.4byte	.LVL622
 19347 6247 DA6F0000 		.4byte	0x6fda
 19348 624b 5E620000 		.4byte	0x625e
 19349 624f 3D       		.uleb128 0x3d
 19350 6250 01       		.uleb128 0x1
 19351 6251 50       		.byte	0x50
 19352 6252 05       		.uleb128 0x5
 19353 6253 03       		.byte	0x3
 19354 6254 14050000 		.4byte	.LC39
 19355 6258 3D       		.uleb128 0x3d
 19356 6259 01       		.uleb128 0x1
 19357 625a 51       		.byte	0x51
 19358 625b 01       		.uleb128 0x1
 19359 625c 4F       		.byte	0x4f
 19360 625d 00       		.byte	0
 19361 625e 3A       		.uleb128 0x3a
 19362 625f E6280000 		.4byte	.LVL623
 19363 6263 E56F0000 		.4byte	0x6fe5
 19364 6267 3C       		.uleb128 0x3c
 19365 6268 F6280000 		.4byte	.LVL624
 19366 626c DA6F0000 		.4byte	0x6fda
 19367 6270 83620000 		.4byte	0x6283
 19368 6274 3D       		.uleb128 0x3d
 19369 6275 01       		.uleb128 0x1
 19370 6276 50       		.byte	0x50
 19371 6277 05       		.uleb128 0x5
 19372 6278 03       		.byte	0x3
 19373 6279 A0020000 		.4byte	.LC25
 19374 627d 3D       		.uleb128 0x3d
 19375 627e 01       		.uleb128 0x1
 19376 627f 51       		.byte	0x51
 19377 6280 01       		.uleb128 0x1
 19378 6281 48       		.byte	0x48
 19379 6282 00       		.byte	0
 19380 6283 3A       		.uleb128 0x3a
 19381 6284 FA280000 		.4byte	.LVL625
 19382 6288 E56F0000 		.4byte	0x6fe5
 19383 628c 3A       		.uleb128 0x3a
 19384 628d 06290000 		.4byte	.LVL626
 19385 6291 5B710000 		.4byte	0x715b
 19386 6295 3A       		.uleb128 0x3a
 19387 6296 0C290000 		.4byte	.LVL627
 19388 629a 66710000 		.4byte	0x7166
 19389 629e 3E       		.uleb128 0x3e
 19390 629f 18290000 		.4byte	.LVL628
 19391 62a3 C46F0000 		.4byte	0x6fc4
 19392 62a7 3D       		.uleb128 0x3d
 19393 62a8 01       		.uleb128 0x1
 19394 62a9 50       		.byte	0x50
 19395 62aa 02       		.uleb128 0x2
 19396 62ab 78       		.byte	0x78
 19397 62ac 00       		.sleb128 0
 19398 62ad 3D       		.uleb128 0x3d
 19399 62ae 01       		.uleb128 0x1
ARM GAS  /tmp/ccZueut9.s 			page 347


 19400 62af 51       		.byte	0x51
 19401 62b0 05       		.uleb128 0x5
 19402 62b1 03       		.byte	0x3
 19403 62b2 78000000 		.4byte	.LC3
 19404 62b6 3D       		.uleb128 0x3d
 19405 62b7 01       		.uleb128 0x1
 19406 62b8 52       		.byte	0x52
 19407 62b9 02       		.uleb128 0x2
 19408 62ba 74       		.byte	0x74
 19409 62bb 00       		.sleb128 0
 19410 62bc 00       		.byte	0
 19411 62bd 00       		.byte	0
 19412 62be 3A       		.uleb128 0x3a
 19413 62bf 22000000 		.4byte	.LVL1
 19414 62c3 9D710000 		.4byte	0x719d
 19415 62c7 3A       		.uleb128 0x3a
 19416 62c8 26000000 		.4byte	.LVL2
 19417 62cc A8710000 		.4byte	0x71a8
 19418 62d0 3A       		.uleb128 0x3a
 19419 62d1 46000000 		.4byte	.LVL4
 19420 62d5 B3710000 		.4byte	0x71b3
 19421 62d9 3C       		.uleb128 0x3c
 19422 62da 68000000 		.4byte	.LVL5
 19423 62de BE710000 		.4byte	0x71be
 19424 62e2 02630000 		.4byte	0x6302
 19425 62e6 3D       		.uleb128 0x3d
 19426 62e7 01       		.uleb128 0x1
 19427 62e8 50       		.byte	0x50
 19428 62e9 02       		.uleb128 0x2
 19429 62ea 08       		.byte	0x8
 19430 62eb 7F       		.byte	0x7f
 19431 62ec 3D       		.uleb128 0x3d
 19432 62ed 01       		.uleb128 0x1
 19433 62ee 51       		.byte	0x51
 19434 62ef 03       		.uleb128 0x3
 19435 62f0 0A       		.byte	0xa
 19436 62f1 FEFF     		.2byte	0xfffe
 19437 62f3 3D       		.uleb128 0x3d
 19438 62f4 01       		.uleb128 0x1
 19439 62f5 52       		.byte	0x52
 19440 62f6 05       		.uleb128 0x5
 19441 62f7 03       		.byte	0x3
 19442 62f8 00000000 		.4byte	.LANCHOR0
 19443 62fc 3D       		.uleb128 0x3d
 19444 62fd 01       		.uleb128 0x1
 19445 62fe 53       		.byte	0x53
 19446 62ff 01       		.uleb128 0x1
 19447 6300 31       		.byte	0x31
 19448 6301 00       		.byte	0
 19449 6302 3C       		.uleb128 0x3c
 19450 6303 AA000000 		.4byte	.LVL10
 19451 6307 C9710000 		.4byte	0x71c9
 19452 630b 16630000 		.4byte	0x6316
 19453 630f 3D       		.uleb128 0x3d
 19454 6310 01       		.uleb128 0x1
 19455 6311 50       		.byte	0x50
 19456 6312 02       		.uleb128 0x2
ARM GAS  /tmp/ccZueut9.s 			page 348


 19457 6313 75       		.byte	0x75
 19458 6314 00       		.sleb128 0
 19459 6315 00       		.byte	0
 19460 6316 3A       		.uleb128 0x3a
 19461 6317 B2000000 		.4byte	.LVL11
 19462 631b B6700000 		.4byte	0x70b6
 19463 631f 3A       		.uleb128 0x3a
 19464 6320 B8000000 		.4byte	.LVL13
 19465 6324 AB700000 		.4byte	0x70ab
 19466 6328 3C       		.uleb128 0x3c
 19467 6329 06010000 		.4byte	.LVL15
 19468 632d C9710000 		.4byte	0x71c9
 19469 6331 3C630000 		.4byte	0x633c
 19470 6335 3D       		.uleb128 0x3d
 19471 6336 01       		.uleb128 0x1
 19472 6337 50       		.byte	0x50
 19473 6338 02       		.uleb128 0x2
 19474 6339 74       		.byte	0x74
 19475 633a 00       		.sleb128 0
 19476 633b 00       		.byte	0
 19477 633c 3C       		.uleb128 0x3c
 19478 633d 2E010000 		.4byte	.LVL16
 19479 6341 C9710000 		.4byte	0x71c9
 19480 6345 50630000 		.4byte	0x6350
 19481 6349 3D       		.uleb128 0x3d
 19482 634a 01       		.uleb128 0x1
 19483 634b 50       		.byte	0x50
 19484 634c 02       		.uleb128 0x2
 19485 634d 74       		.byte	0x74
 19486 634e 00       		.sleb128 0
 19487 634f 00       		.byte	0
 19488 6350 3C       		.uleb128 0x3c
 19489 6351 BC010000 		.4byte	.LVL27
 19490 6355 D4710000 		.4byte	0x71d4
 19491 6359 64630000 		.4byte	0x6364
 19492 635d 3D       		.uleb128 0x3d
 19493 635e 01       		.uleb128 0x1
 19494 635f 50       		.byte	0x50
 19495 6360 02       		.uleb128 0x2
 19496 6361 75       		.byte	0x75
 19497 6362 00       		.sleb128 0
 19498 6363 00       		.byte	0
 19499 6364 3A       		.uleb128 0x3a
 19500 6365 C6010000 		.4byte	.LVL28
 19501 6369 B6700000 		.4byte	0x70b6
 19502 636d 3A       		.uleb128 0x3a
 19503 636e CC010000 		.4byte	.LVL30
 19504 6372 AB700000 		.4byte	0x70ab
 19505 6376 3C       		.uleb128 0x3c
 19506 6377 FC010000 		.4byte	.LVL32
 19507 637b D4710000 		.4byte	0x71d4
 19508 637f 8A630000 		.4byte	0x638a
 19509 6383 3D       		.uleb128 0x3d
 19510 6384 01       		.uleb128 0x1
 19511 6385 50       		.byte	0x50
 19512 6386 02       		.uleb128 0x2
 19513 6387 74       		.byte	0x74
ARM GAS  /tmp/ccZueut9.s 			page 349


 19514 6388 00       		.sleb128 0
 19515 6389 00       		.byte	0
 19516 638a 3C       		.uleb128 0x3c
 19517 638b 24020000 		.4byte	.LVL33
 19518 638f D4710000 		.4byte	0x71d4
 19519 6393 9E630000 		.4byte	0x639e
 19520 6397 3D       		.uleb128 0x3d
 19521 6398 01       		.uleb128 0x1
 19522 6399 50       		.byte	0x50
 19523 639a 02       		.uleb128 0x2
 19524 639b 74       		.byte	0x74
 19525 639c 00       		.sleb128 0
 19526 639d 00       		.byte	0
 19527 639e 3C       		.uleb128 0x3c
 19528 639f 4E020000 		.4byte	.LVL36
 19529 63a3 E2700000 		.4byte	0x70e2
 19530 63a7 B2630000 		.4byte	0x63b2
 19531 63ab 3D       		.uleb128 0x3d
 19532 63ac 01       		.uleb128 0x1
 19533 63ad 50       		.byte	0x50
 19534 63ae 02       		.uleb128 0x2
 19535 63af 74       		.byte	0x74
 19536 63b0 00       		.sleb128 0
 19537 63b1 00       		.byte	0
 19538 63b2 3A       		.uleb128 0x3a
 19539 63b3 56020000 		.4byte	.LVL37
 19540 63b7 ED700000 		.4byte	0x70ed
 19541 63bb 3C       		.uleb128 0x3c
 19542 63bc 1C030000 		.4byte	.LVL40
 19543 63c0 45710000 		.4byte	0x7145
 19544 63c4 D7630000 		.4byte	0x63d7
 19545 63c8 3D       		.uleb128 0x3d
 19546 63c9 01       		.uleb128 0x1
 19547 63ca 50       		.byte	0x50
 19548 63cb 03       		.uleb128 0x3
 19549 63cc 0A       		.byte	0xa
 19550 63cd 142B     		.2byte	0x2b14
 19551 63cf 3D       		.uleb128 0x3d
 19552 63d0 01       		.uleb128 0x1
 19553 63d1 51       		.byte	0x51
 19554 63d2 03       		.uleb128 0x3
 19555 63d3 0A       		.byte	0xa
 19556 63d4 501F     		.2byte	0x1f50
 19557 63d6 00       		.byte	0
 19558 63d7 3C       		.uleb128 0x3c
 19559 63d8 36030000 		.4byte	.LVL43
 19560 63dc E2700000 		.4byte	0x70e2
 19561 63e0 EB630000 		.4byte	0x63eb
 19562 63e4 3D       		.uleb128 0x3d
 19563 63e5 01       		.uleb128 0x1
 19564 63e6 50       		.byte	0x50
 19565 63e7 02       		.uleb128 0x2
 19566 63e8 74       		.byte	0x74
 19567 63e9 00       		.sleb128 0
 19568 63ea 00       		.byte	0
 19569 63eb 3A       		.uleb128 0x3a
 19570 63ec 3E030000 		.4byte	.LVL44
ARM GAS  /tmp/ccZueut9.s 			page 350


 19571 63f0 ED700000 		.4byte	0x70ed
 19572 63f4 3C       		.uleb128 0x3c
 19573 63f5 BE030000 		.4byte	.LVL47
 19574 63f9 45710000 		.4byte	0x7145
 19575 63fd 10640000 		.4byte	0x6410
 19576 6401 3D       		.uleb128 0x3d
 19577 6402 01       		.uleb128 0x1
 19578 6403 50       		.byte	0x50
 19579 6404 03       		.uleb128 0x3
 19580 6405 0A       		.byte	0xa
 19581 6406 142B     		.2byte	0x2b14
 19582 6408 3D       		.uleb128 0x3d
 19583 6409 01       		.uleb128 0x1
 19584 640a 51       		.byte	0x51
 19585 640b 03       		.uleb128 0x3
 19586 640c 0A       		.byte	0xa
 19587 640d 501F     		.2byte	0x1f50
 19588 640f 00       		.byte	0
 19589 6410 3F       		.uleb128 0x3f
 19590 6411 DA040000 		.4byte	.LVL49
 19591 6415 26640000 		.4byte	0x6426
 19592 6419 3D       		.uleb128 0x3d
 19593 641a 01       		.uleb128 0x1
 19594 641b 51       		.byte	0x51
 19595 641c 03       		.uleb128 0x3
 19596 641d 91       		.byte	0x91
 19597 641e B87F     		.sleb128 -72
 19598 6420 3D       		.uleb128 0x3d
 19599 6421 01       		.uleb128 0x1
 19600 6422 52       		.byte	0x52
 19601 6423 01       		.uleb128 0x1
 19602 6424 31       		.byte	0x31
 19603 6425 00       		.byte	0
 19604 6426 3A       		.uleb128 0x3a
 19605 6427 DE040000 		.4byte	.LVL50
 19606 642b DF710000 		.4byte	0x71df
 19607 642f 3C       		.uleb128 0x3c
 19608 6430 0A050000 		.4byte	.LVL51
 19609 6434 C9710000 		.4byte	0x71c9
 19610 6438 43640000 		.4byte	0x6443
 19611 643c 3D       		.uleb128 0x3d
 19612 643d 01       		.uleb128 0x1
 19613 643e 50       		.byte	0x50
 19614 643f 02       		.uleb128 0x2
 19615 6440 76       		.byte	0x76
 19616 6441 00       		.sleb128 0
 19617 6442 00       		.byte	0
 19618 6443 3C       		.uleb128 0x3c
 19619 6444 20050000 		.4byte	.LVL52
 19620 6448 D4710000 		.4byte	0x71d4
 19621 644c 57640000 		.4byte	0x6457
 19622 6450 3D       		.uleb128 0x3d
 19623 6451 01       		.uleb128 0x1
 19624 6452 50       		.byte	0x50
 19625 6453 02       		.uleb128 0x2
 19626 6454 76       		.byte	0x76
 19627 6455 00       		.sleb128 0
ARM GAS  /tmp/ccZueut9.s 			page 351


 19628 6456 00       		.byte	0
 19629 6457 3C       		.uleb128 0x3c
 19630 6458 2A050000 		.4byte	.LVL53
 19631 645c D4710000 		.4byte	0x71d4
 19632 6460 6B640000 		.4byte	0x646b
 19633 6464 3D       		.uleb128 0x3d
 19634 6465 01       		.uleb128 0x1
 19635 6466 50       		.byte	0x50
 19636 6467 02       		.uleb128 0x2
 19637 6468 76       		.byte	0x76
 19638 6469 00       		.sleb128 0
 19639 646a 00       		.byte	0
 19640 646b 3A       		.uleb128 0x3a
 19641 646c 54050000 		.4byte	.LVL54
 19642 6470 C1700000 		.4byte	0x70c1
 19643 6474 3A       		.uleb128 0x3a
 19644 6475 6E050000 		.4byte	.LVL55
 19645 6479 CC700000 		.4byte	0x70cc
 19646 647d 3A       		.uleb128 0x3a
 19647 647e 90050000 		.4byte	.LVL56
 19648 6482 8A700000 		.4byte	0x708a
 19649 6486 3A       		.uleb128 0x3a
 19650 6487 C0050000 		.4byte	.LVL57
 19651 648b 95700000 		.4byte	0x7095
 19652 648f 3C       		.uleb128 0x3c
 19653 6490 FA050000 		.4byte	.LVL58
 19654 6494 C9710000 		.4byte	0x71c9
 19655 6498 A3640000 		.4byte	0x64a3
 19656 649c 3D       		.uleb128 0x3d
 19657 649d 01       		.uleb128 0x1
 19658 649e 50       		.byte	0x50
 19659 649f 02       		.uleb128 0x2
 19660 64a0 74       		.byte	0x74
 19661 64a1 00       		.sleb128 0
 19662 64a2 00       		.byte	0
 19663 64a3 3C       		.uleb128 0x3c
 19664 64a4 06060000 		.4byte	.LVL59
 19665 64a8 C9710000 		.4byte	0x71c9
 19666 64ac B7640000 		.4byte	0x64b7
 19667 64b0 3D       		.uleb128 0x3d
 19668 64b1 01       		.uleb128 0x1
 19669 64b2 50       		.byte	0x50
 19670 64b3 02       		.uleb128 0x2
 19671 64b4 74       		.byte	0x74
 19672 64b5 00       		.sleb128 0
 19673 64b6 00       		.byte	0
 19674 64b7 3C       		.uleb128 0x3c
 19675 64b8 22060000 		.4byte	.LVL60
 19676 64bc C9710000 		.4byte	0x71c9
 19677 64c0 CB640000 		.4byte	0x64cb
 19678 64c4 3D       		.uleb128 0x3d
 19679 64c5 01       		.uleb128 0x1
 19680 64c6 50       		.byte	0x50
 19681 64c7 02       		.uleb128 0x2
 19682 64c8 74       		.byte	0x74
 19683 64c9 00       		.sleb128 0
 19684 64ca 00       		.byte	0
ARM GAS  /tmp/ccZueut9.s 			page 352


 19685 64cb 3C       		.uleb128 0x3c
 19686 64cc 2E060000 		.4byte	.LVL61
 19687 64d0 C9710000 		.4byte	0x71c9
 19688 64d4 DF640000 		.4byte	0x64df
 19689 64d8 3D       		.uleb128 0x3d
 19690 64d9 01       		.uleb128 0x1
 19691 64da 50       		.byte	0x50
 19692 64db 02       		.uleb128 0x2
 19693 64dc 74       		.byte	0x74
 19694 64dd 00       		.sleb128 0
 19695 64de 00       		.byte	0
 19696 64df 3A       		.uleb128 0x3a
 19697 64e0 4C060000 		.4byte	.LVL62
 19698 64e4 24710000 		.4byte	0x7124
 19699 64e8 3A       		.uleb128 0x3a
 19700 64e9 52060000 		.4byte	.LVL63
 19701 64ed 2F710000 		.4byte	0x712f
 19702 64f1 3C       		.uleb128 0x3c
 19703 64f2 5A060000 		.4byte	.LVL64
 19704 64f6 D4710000 		.4byte	0x71d4
 19705 64fa 05650000 		.4byte	0x6505
 19706 64fe 3D       		.uleb128 0x3d
 19707 64ff 01       		.uleb128 0x1
 19708 6500 50       		.byte	0x50
 19709 6501 02       		.uleb128 0x2
 19710 6502 74       		.byte	0x74
 19711 6503 00       		.sleb128 0
 19712 6504 00       		.byte	0
 19713 6505 3C       		.uleb128 0x3c
 19714 6506 66060000 		.4byte	.LVL65
 19715 650a D4710000 		.4byte	0x71d4
 19716 650e 19650000 		.4byte	0x6519
 19717 6512 3D       		.uleb128 0x3d
 19718 6513 01       		.uleb128 0x1
 19719 6514 50       		.byte	0x50
 19720 6515 02       		.uleb128 0x2
 19721 6516 74       		.byte	0x74
 19722 6517 00       		.sleb128 0
 19723 6518 00       		.byte	0
 19724 6519 3C       		.uleb128 0x3c
 19725 651a 82060000 		.4byte	.LVL66
 19726 651e D4710000 		.4byte	0x71d4
 19727 6522 2D650000 		.4byte	0x652d
 19728 6526 3D       		.uleb128 0x3d
 19729 6527 01       		.uleb128 0x1
 19730 6528 50       		.byte	0x50
 19731 6529 02       		.uleb128 0x2
 19732 652a 74       		.byte	0x74
 19733 652b 00       		.sleb128 0
 19734 652c 00       		.byte	0
 19735 652d 3C       		.uleb128 0x3c
 19736 652e 8E060000 		.4byte	.LVL67
 19737 6532 D4710000 		.4byte	0x71d4
 19738 6536 41650000 		.4byte	0x6541
 19739 653a 3D       		.uleb128 0x3d
 19740 653b 01       		.uleb128 0x1
 19741 653c 50       		.byte	0x50
ARM GAS  /tmp/ccZueut9.s 			page 353


 19742 653d 02       		.uleb128 0x2
 19743 653e 74       		.byte	0x74
 19744 653f 00       		.sleb128 0
 19745 6540 00       		.byte	0
 19746 6541 3A       		.uleb128 0x3a
 19747 6542 A4060000 		.4byte	.LVL68
 19748 6546 D7700000 		.4byte	0x70d7
 19749 654a 3A       		.uleb128 0x3a
 19750 654b D2060000 		.4byte	.LVL69
 19751 654f D7700000 		.4byte	0x70d7
 19752 6553 3C       		.uleb128 0x3c
 19753 6554 FE060000 		.4byte	.LVL70
 19754 6558 32700000 		.4byte	0x7032
 19755 655c 66650000 		.4byte	0x6566
 19756 6560 3D       		.uleb128 0x3d
 19757 6561 01       		.uleb128 0x1
 19758 6562 50       		.byte	0x50
 19759 6563 01       		.uleb128 0x1
 19760 6564 30       		.byte	0x30
 19761 6565 00       		.byte	0
 19762 6566 3C       		.uleb128 0x3c
 19763 6567 1A070000 		.4byte	.LVL71
 19764 656b 32700000 		.4byte	0x7032
 19765 656f 79650000 		.4byte	0x6579
 19766 6573 3D       		.uleb128 0x3d
 19767 6574 01       		.uleb128 0x1
 19768 6575 50       		.byte	0x50
 19769 6576 01       		.uleb128 0x1
 19770 6577 31       		.byte	0x31
 19771 6578 00       		.byte	0
 19772 6579 3A       		.uleb128 0x3a
 19773 657a 36070000 		.4byte	.LVL72
 19774 657e 32700000 		.4byte	0x7032
 19775 6582 3A       		.uleb128 0x3a
 19776 6583 3C070000 		.4byte	.LVL73
 19777 6587 EA710000 		.4byte	0x71ea
 19778 658b 3A       		.uleb128 0x3a
 19779 658c 56070000 		.4byte	.LVL74
 19780 6590 5B710000 		.4byte	0x715b
 19781 6594 3C       		.uleb128 0x3c
 19782 6595 82070000 		.4byte	.LVL76
 19783 6599 C9710000 		.4byte	0x71c9
 19784 659d A8650000 		.4byte	0x65a8
 19785 65a1 3D       		.uleb128 0x3d
 19786 65a2 01       		.uleb128 0x1
 19787 65a3 50       		.byte	0x50
 19788 65a4 02       		.uleb128 0x2
 19789 65a5 74       		.byte	0x74
 19790 65a6 00       		.sleb128 0
 19791 65a7 00       		.byte	0
 19792 65a8 3C       		.uleb128 0x3c
 19793 65a9 8E070000 		.4byte	.LVL77
 19794 65ad C9710000 		.4byte	0x71c9
 19795 65b1 BC650000 		.4byte	0x65bc
 19796 65b5 3D       		.uleb128 0x3d
 19797 65b6 01       		.uleb128 0x1
 19798 65b7 50       		.byte	0x50
ARM GAS  /tmp/ccZueut9.s 			page 354


 19799 65b8 02       		.uleb128 0x2
 19800 65b9 74       		.byte	0x74
 19801 65ba 00       		.sleb128 0
 19802 65bb 00       		.byte	0
 19803 65bc 3C       		.uleb128 0x3c
 19804 65bd AA070000 		.4byte	.LVL78
 19805 65c1 C9710000 		.4byte	0x71c9
 19806 65c5 D0650000 		.4byte	0x65d0
 19807 65c9 3D       		.uleb128 0x3d
 19808 65ca 01       		.uleb128 0x1
 19809 65cb 50       		.byte	0x50
 19810 65cc 02       		.uleb128 0x2
 19811 65cd 74       		.byte	0x74
 19812 65ce 00       		.sleb128 0
 19813 65cf 00       		.byte	0
 19814 65d0 3C       		.uleb128 0x3c
 19815 65d1 B6070000 		.4byte	.LVL79
 19816 65d5 C9710000 		.4byte	0x71c9
 19817 65d9 E4650000 		.4byte	0x65e4
 19818 65dd 3D       		.uleb128 0x3d
 19819 65de 01       		.uleb128 0x1
 19820 65df 50       		.byte	0x50
 19821 65e0 02       		.uleb128 0x2
 19822 65e1 74       		.byte	0x74
 19823 65e2 00       		.sleb128 0
 19824 65e3 00       		.byte	0
 19825 65e4 3A       		.uleb128 0x3a
 19826 65e5 D4070000 		.4byte	.LVL80
 19827 65e9 E2700000 		.4byte	0x70e2
 19828 65ed 3A       		.uleb128 0x3a
 19829 65ee DA070000 		.4byte	.LVL81
 19830 65f2 ED700000 		.4byte	0x70ed
 19831 65f6 3C       		.uleb128 0x3c
 19832 65f7 E2070000 		.4byte	.LVL82
 19833 65fb D4710000 		.4byte	0x71d4
 19834 65ff 0A660000 		.4byte	0x660a
 19835 6603 3D       		.uleb128 0x3d
 19836 6604 01       		.uleb128 0x1
 19837 6605 50       		.byte	0x50
 19838 6606 02       		.uleb128 0x2
 19839 6607 74       		.byte	0x74
 19840 6608 00       		.sleb128 0
 19841 6609 00       		.byte	0
 19842 660a 3C       		.uleb128 0x3c
 19843 660b EE070000 		.4byte	.LVL83
 19844 660f D4710000 		.4byte	0x71d4
 19845 6613 1E660000 		.4byte	0x661e
 19846 6617 3D       		.uleb128 0x3d
 19847 6618 01       		.uleb128 0x1
 19848 6619 50       		.byte	0x50
 19849 661a 02       		.uleb128 0x2
 19850 661b 74       		.byte	0x74
 19851 661c 00       		.sleb128 0
 19852 661d 00       		.byte	0
 19853 661e 3C       		.uleb128 0x3c
 19854 661f 0A080000 		.4byte	.LVL84
 19855 6623 D4710000 		.4byte	0x71d4
ARM GAS  /tmp/ccZueut9.s 			page 355


 19856 6627 32660000 		.4byte	0x6632
 19857 662b 3D       		.uleb128 0x3d
 19858 662c 01       		.uleb128 0x1
 19859 662d 50       		.byte	0x50
 19860 662e 02       		.uleb128 0x2
 19861 662f 74       		.byte	0x74
 19862 6630 00       		.sleb128 0
 19863 6631 00       		.byte	0
 19864 6632 3C       		.uleb128 0x3c
 19865 6633 16080000 		.4byte	.LVL85
 19866 6637 D4710000 		.4byte	0x71d4
 19867 663b 46660000 		.4byte	0x6646
 19868 663f 3D       		.uleb128 0x3d
 19869 6640 01       		.uleb128 0x1
 19870 6641 50       		.byte	0x50
 19871 6642 02       		.uleb128 0x2
 19872 6643 74       		.byte	0x74
 19873 6644 00       		.sleb128 0
 19874 6645 00       		.byte	0
 19875 6646 3F       		.uleb128 0x3f
 19876 6647 34080000 		.4byte	.LVL86
 19877 664b 5C660000 		.4byte	0x665c
 19878 664f 3D       		.uleb128 0x3d
 19879 6650 01       		.uleb128 0x1
 19880 6651 51       		.byte	0x51
 19881 6652 03       		.uleb128 0x3
 19882 6653 91       		.byte	0x91
 19883 6654 B87F     		.sleb128 -72
 19884 6656 3D       		.uleb128 0x3d
 19885 6657 01       		.uleb128 0x1
 19886 6658 52       		.byte	0x52
 19887 6659 01       		.uleb128 0x1
 19888 665a 31       		.byte	0x31
 19889 665b 00       		.byte	0
 19890 665c 3A       		.uleb128 0x3a
 19891 665d 38080000 		.4byte	.LVL87
 19892 6661 DF710000 		.4byte	0x71df
 19893 6665 3A       		.uleb128 0x3a
 19894 6666 4C080000 		.4byte	.LVL88
 19895 666a F5710000 		.4byte	0x71f5
 19896 666e 3F       		.uleb128 0x3f
 19897 666f FC080000 		.4byte	.LVL97
 19898 6673 84660000 		.4byte	0x6684
 19899 6677 3D       		.uleb128 0x3d
 19900 6678 01       		.uleb128 0x1
 19901 6679 51       		.byte	0x51
 19902 667a 03       		.uleb128 0x3
 19903 667b 91       		.byte	0x91
 19904 667c B87F     		.sleb128 -72
 19905 667e 3D       		.uleb128 0x3d
 19906 667f 01       		.uleb128 0x1
 19907 6680 52       		.byte	0x52
 19908 6681 01       		.uleb128 0x1
 19909 6682 31       		.byte	0x31
 19910 6683 00       		.byte	0
 19911 6684 3A       		.uleb128 0x3a
 19912 6685 00090000 		.4byte	.LVL98
ARM GAS  /tmp/ccZueut9.s 			page 356


 19913 6689 DF710000 		.4byte	0x71df
 19914 668d 3A       		.uleb128 0x3a
 19915 668e 0C090000 		.4byte	.LVL99
 19916 6692 00720000 		.4byte	0x7200
 19917 6696 3C       		.uleb128 0x3c
 19918 6697 22090000 		.4byte	.LVL100
 19919 669b 0B720000 		.4byte	0x720b
 19920 669f A9660000 		.4byte	0x66a9
 19921 66a3 3D       		.uleb128 0x3d
 19922 66a4 01       		.uleb128 0x1
 19923 66a5 50       		.byte	0x50
 19924 66a6 01       		.uleb128 0x1
 19925 66a7 31       		.byte	0x31
 19926 66a8 00       		.byte	0
 19927 66a9 3A       		.uleb128 0x3a
 19928 66aa 38090000 		.4byte	.LVL101
 19929 66ae 16720000 		.4byte	0x7216
 19930 66b2 3C       		.uleb128 0x3c
 19931 66b3 DE090000 		.4byte	.LVL105
 19932 66b7 C9710000 		.4byte	0x71c9
 19933 66bb C6660000 		.4byte	0x66c6
 19934 66bf 3D       		.uleb128 0x3d
 19935 66c0 01       		.uleb128 0x1
 19936 66c1 50       		.byte	0x50
 19937 66c2 02       		.uleb128 0x2
 19938 66c3 74       		.byte	0x74
 19939 66c4 00       		.sleb128 0
 19940 66c5 00       		.byte	0
 19941 66c6 3C       		.uleb128 0x3c
 19942 66c7 EA090000 		.4byte	.LVL106
 19943 66cb C9710000 		.4byte	0x71c9
 19944 66cf DA660000 		.4byte	0x66da
 19945 66d3 3D       		.uleb128 0x3d
 19946 66d4 01       		.uleb128 0x1
 19947 66d5 50       		.byte	0x50
 19948 66d6 02       		.uleb128 0x2
 19949 66d7 74       		.byte	0x74
 19950 66d8 00       		.sleb128 0
 19951 66d9 00       		.byte	0
 19952 66da 3A       		.uleb128 0x3a
 19953 66db F2090000 		.4byte	.LVL107
 19954 66df FB6F0000 		.4byte	0x6ffb
 19955 66e3 3A       		.uleb128 0x3a
 19956 66e4 000A0000 		.4byte	.LVL108
 19957 66e8 06700000 		.4byte	0x7006
 19958 66ec 3A       		.uleb128 0x3a
 19959 66ed 060A0000 		.4byte	.LVL109
 19960 66f1 11700000 		.4byte	0x7011
 19961 66f5 3C       		.uleb128 0x3c
 19962 66f6 1E0A0000 		.4byte	.LVL110
 19963 66fa D4710000 		.4byte	0x71d4
 19964 66fe 09670000 		.4byte	0x6709
 19965 6702 3D       		.uleb128 0x3d
 19966 6703 01       		.uleb128 0x1
 19967 6704 50       		.byte	0x50
 19968 6705 02       		.uleb128 0x2
 19969 6706 74       		.byte	0x74
ARM GAS  /tmp/ccZueut9.s 			page 357


 19970 6707 00       		.sleb128 0
 19971 6708 00       		.byte	0
 19972 6709 3C       		.uleb128 0x3c
 19973 670a 2A0A0000 		.4byte	.LVL111
 19974 670e D4710000 		.4byte	0x71d4
 19975 6712 1D670000 		.4byte	0x671d
 19976 6716 3D       		.uleb128 0x3d
 19977 6717 01       		.uleb128 0x1
 19978 6718 50       		.byte	0x50
 19979 6719 02       		.uleb128 0x2
 19980 671a 74       		.byte	0x74
 19981 671b 00       		.sleb128 0
 19982 671c 00       		.byte	0
 19983 671d 3C       		.uleb128 0x3c
 19984 671e 840A0000 		.4byte	.LVL112
 19985 6722 C9710000 		.4byte	0x71c9
 19986 6726 31670000 		.4byte	0x6731
 19987 672a 3D       		.uleb128 0x3d
 19988 672b 01       		.uleb128 0x1
 19989 672c 50       		.byte	0x50
 19990 672d 02       		.uleb128 0x2
 19991 672e 74       		.byte	0x74
 19992 672f 00       		.sleb128 0
 19993 6730 00       		.byte	0
 19994 6731 3C       		.uleb128 0x3c
 19995 6732 900A0000 		.4byte	.LVL113
 19996 6736 C9710000 		.4byte	0x71c9
 19997 673a 45670000 		.4byte	0x6745
 19998 673e 3D       		.uleb128 0x3d
 19999 673f 01       		.uleb128 0x1
 20000 6740 50       		.byte	0x50
 20001 6741 02       		.uleb128 0x2
 20002 6742 74       		.byte	0x74
 20003 6743 00       		.sleb128 0
 20004 6744 00       		.byte	0
 20005 6745 3C       		.uleb128 0x3c
 20006 6746 9C0A0000 		.4byte	.LVL114
 20007 674a C9710000 		.4byte	0x71c9
 20008 674e 59670000 		.4byte	0x6759
 20009 6752 3D       		.uleb128 0x3d
 20010 6753 01       		.uleb128 0x1
 20011 6754 50       		.byte	0x50
 20012 6755 02       		.uleb128 0x2
 20013 6756 74       		.byte	0x74
 20014 6757 00       		.sleb128 0
 20015 6758 00       		.byte	0
 20016 6759 3A       		.uleb128 0x3a
 20017 675a A40A0000 		.4byte	.LVL115
 20018 675e FB6F0000 		.4byte	0x6ffb
 20019 6762 3A       		.uleb128 0x3a
 20020 6763 B40A0000 		.4byte	.LVL116
 20021 6767 27700000 		.4byte	0x7027
 20022 676b 3A       		.uleb128 0x3a
 20023 676c B80A0000 		.4byte	.LVL117
 20024 6770 11700000 		.4byte	0x7011
 20025 6774 3C       		.uleb128 0x3c
 20026 6775 C00A0000 		.4byte	.LVL118
ARM GAS  /tmp/ccZueut9.s 			page 358


 20027 6779 D4710000 		.4byte	0x71d4
 20028 677d 88670000 		.4byte	0x6788
 20029 6781 3D       		.uleb128 0x3d
 20030 6782 01       		.uleb128 0x1
 20031 6783 50       		.byte	0x50
 20032 6784 02       		.uleb128 0x2
 20033 6785 74       		.byte	0x74
 20034 6786 00       		.sleb128 0
 20035 6787 00       		.byte	0
 20036 6788 3C       		.uleb128 0x3c
 20037 6789 CC0A0000 		.4byte	.LVL119
 20038 678d D4710000 		.4byte	0x71d4
 20039 6791 9C670000 		.4byte	0x679c
 20040 6795 3D       		.uleb128 0x3d
 20041 6796 01       		.uleb128 0x1
 20042 6797 50       		.byte	0x50
 20043 6798 02       		.uleb128 0x2
 20044 6799 74       		.byte	0x74
 20045 679a 00       		.sleb128 0
 20046 679b 00       		.byte	0
 20047 679c 3C       		.uleb128 0x3c
 20048 679d D80A0000 		.4byte	.LVL120
 20049 67a1 D4710000 		.4byte	0x71d4
 20050 67a5 B0670000 		.4byte	0x67b0
 20051 67a9 3D       		.uleb128 0x3d
 20052 67aa 01       		.uleb128 0x1
 20053 67ab 50       		.byte	0x50
 20054 67ac 02       		.uleb128 0x2
 20055 67ad 74       		.byte	0x74
 20056 67ae 00       		.sleb128 0
 20057 67af 00       		.byte	0
 20058 67b0 3A       		.uleb128 0x3a
 20059 67b1 EC0A0000 		.4byte	.LVL121
 20060 67b5 21720000 		.4byte	0x7221
 20061 67b9 3C       		.uleb128 0x3c
 20062 67ba 000B0000 		.4byte	.LVL122
 20063 67be C9710000 		.4byte	0x71c9
 20064 67c2 CD670000 		.4byte	0x67cd
 20065 67c6 3D       		.uleb128 0x3d
 20066 67c7 01       		.uleb128 0x1
 20067 67c8 50       		.byte	0x50
 20068 67c9 02       		.uleb128 0x2
 20069 67ca 74       		.byte	0x74
 20070 67cb 00       		.sleb128 0
 20071 67cc 00       		.byte	0
 20072 67cd 3C       		.uleb128 0x3c
 20073 67ce 0C0B0000 		.4byte	.LVL123
 20074 67d2 C9710000 		.4byte	0x71c9
 20075 67d6 E1670000 		.4byte	0x67e1
 20076 67da 3D       		.uleb128 0x3d
 20077 67db 01       		.uleb128 0x1
 20078 67dc 50       		.byte	0x50
 20079 67dd 02       		.uleb128 0x2
 20080 67de 74       		.byte	0x74
 20081 67df 00       		.sleb128 0
 20082 67e0 00       		.byte	0
 20083 67e1 3A       		.uleb128 0x3a
ARM GAS  /tmp/ccZueut9.s 			page 359


 20084 67e2 280B0000 		.4byte	.LVL124
 20085 67e6 19710000 		.4byte	0x7119
 20086 67ea 3C       		.uleb128 0x3c
 20087 67eb 300B0000 		.4byte	.LVL125
 20088 67ef D4710000 		.4byte	0x71d4
 20089 67f3 FE670000 		.4byte	0x67fe
 20090 67f7 3D       		.uleb128 0x3d
 20091 67f8 01       		.uleb128 0x1
 20092 67f9 50       		.byte	0x50
 20093 67fa 02       		.uleb128 0x2
 20094 67fb 74       		.byte	0x74
 20095 67fc 00       		.sleb128 0
 20096 67fd 00       		.byte	0
 20097 67fe 3C       		.uleb128 0x3c
 20098 67ff 3C0B0000 		.4byte	.LVL126
 20099 6803 D4710000 		.4byte	0x71d4
 20100 6807 12680000 		.4byte	0x6812
 20101 680b 3D       		.uleb128 0x3d
 20102 680c 01       		.uleb128 0x1
 20103 680d 50       		.byte	0x50
 20104 680e 02       		.uleb128 0x2
 20105 680f 74       		.byte	0x74
 20106 6810 00       		.sleb128 0
 20107 6811 00       		.byte	0
 20108 6812 3F       		.uleb128 0x3f
 20109 6813 A80B0000 		.4byte	.LVL127
 20110 6817 28680000 		.4byte	0x6828
 20111 681b 3D       		.uleb128 0x3d
 20112 681c 01       		.uleb128 0x1
 20113 681d 51       		.byte	0x51
 20114 681e 03       		.uleb128 0x3
 20115 681f 91       		.byte	0x91
 20116 6820 B87F     		.sleb128 -72
 20117 6822 3D       		.uleb128 0x3d
 20118 6823 01       		.uleb128 0x1
 20119 6824 52       		.byte	0x52
 20120 6825 01       		.uleb128 0x1
 20121 6826 43       		.byte	0x43
 20122 6827 00       		.byte	0
 20123 6828 3A       		.uleb128 0x3a
 20124 6829 AC0B0000 		.4byte	.LVL128
 20125 682d DF710000 		.4byte	0x71df
 20126 6831 3A       		.uleb128 0x3a
 20127 6832 C60B0000 		.4byte	.LVL129
 20128 6836 2C720000 		.4byte	0x722c
 20129 683a 3A       		.uleb128 0x3a
 20130 683b F40B0000 		.4byte	.LVL130
 20131 683f 24710000 		.4byte	0x7124
 20132 6843 3A       		.uleb128 0x3a
 20133 6844 FA0B0000 		.4byte	.LVL131
 20134 6848 2F710000 		.4byte	0x712f
 20135 684c 3A       		.uleb128 0x3a
 20136 684d 0E0C0000 		.4byte	.LVL132
 20137 6851 37720000 		.4byte	0x7237
 20138 6855 3A       		.uleb128 0x3a
 20139 6856 220C0000 		.4byte	.LVL133
 20140 685a 37720000 		.4byte	0x7237
ARM GAS  /tmp/ccZueut9.s 			page 360


 20141 685e 3C       		.uleb128 0x3c
 20142 685f 340C0000 		.4byte	.LVL134
 20143 6863 37720000 		.4byte	0x7237
 20144 6867 71680000 		.4byte	0x6871
 20145 686b 3D       		.uleb128 0x3d
 20146 686c 01       		.uleb128 0x1
 20147 686d 50       		.byte	0x50
 20148 686e 01       		.uleb128 0x1
 20149 686f 32       		.byte	0x32
 20150 6870 00       		.byte	0
 20151 6871 3C       		.uleb128 0x3c
 20152 6872 460C0000 		.4byte	.LVL135
 20153 6876 37720000 		.4byte	0x7237
 20154 687a 84680000 		.4byte	0x6884
 20155 687e 3D       		.uleb128 0x3d
 20156 687f 01       		.uleb128 0x1
 20157 6880 50       		.byte	0x50
 20158 6881 01       		.uleb128 0x1
 20159 6882 33       		.byte	0x33
 20160 6883 00       		.byte	0
 20161 6884 3A       		.uleb128 0x3a
 20162 6885 560C0000 		.4byte	.LVL136
 20163 6889 42720000 		.4byte	0x7242
 20164 688d 3A       		.uleb128 0x3a
 20165 688e 660C0000 		.4byte	.LVL137
 20166 6892 4D720000 		.4byte	0x724d
 20167 6896 3C       		.uleb128 0x3c
 20168 6897 780C0000 		.4byte	.LVL138
 20169 689b 58720000 		.4byte	0x7258
 20170 689f A9680000 		.4byte	0x68a9
 20171 68a3 3D       		.uleb128 0x3d
 20172 68a4 01       		.uleb128 0x1
 20173 68a5 50       		.byte	0x50
 20174 68a6 01       		.uleb128 0x1
 20175 68a7 30       		.byte	0x30
 20176 68a8 00       		.byte	0
 20177 68a9 3C       		.uleb128 0x3c
 20178 68aa 8A0C0000 		.4byte	.LVL139
 20179 68ae 58720000 		.4byte	0x7258
 20180 68b2 BC680000 		.4byte	0x68bc
 20181 68b6 3D       		.uleb128 0x3d
 20182 68b7 01       		.uleb128 0x1
 20183 68b8 50       		.byte	0x50
 20184 68b9 01       		.uleb128 0x1
 20185 68ba 31       		.byte	0x31
 20186 68bb 00       		.byte	0
 20187 68bc 3C       		.uleb128 0x3c
 20188 68bd 9C0C0000 		.4byte	.LVL140
 20189 68c1 58720000 		.4byte	0x7258
 20190 68c5 CF680000 		.4byte	0x68cf
 20191 68c9 3D       		.uleb128 0x3d
 20192 68ca 01       		.uleb128 0x1
 20193 68cb 50       		.byte	0x50
 20194 68cc 01       		.uleb128 0x1
 20195 68cd 32       		.byte	0x32
 20196 68ce 00       		.byte	0
 20197 68cf 3C       		.uleb128 0x3c
ARM GAS  /tmp/ccZueut9.s 			page 361


 20198 68d0 AE0C0000 		.4byte	.LVL141
 20199 68d4 58720000 		.4byte	0x7258
 20200 68d8 E2680000 		.4byte	0x68e2
 20201 68dc 3D       		.uleb128 0x3d
 20202 68dd 01       		.uleb128 0x1
 20203 68de 50       		.byte	0x50
 20204 68df 01       		.uleb128 0x1
 20205 68e0 33       		.byte	0x33
 20206 68e1 00       		.byte	0
 20207 68e2 3A       		.uleb128 0x3a
 20208 68e3 DA0C0000 		.4byte	.LVL142
 20209 68e7 87710000 		.4byte	0x7187
 20210 68eb 3A       		.uleb128 0x3a
 20211 68ec DE0C0000 		.4byte	.LVL143
 20212 68f0 92710000 		.4byte	0x7192
 20213 68f4 3C       		.uleb128 0x3c
 20214 68f5 E60C0000 		.4byte	.LVL144
 20215 68f9 32700000 		.4byte	0x7032
 20216 68fd 07690000 		.4byte	0x6907
 20217 6901 3D       		.uleb128 0x3d
 20218 6902 01       		.uleb128 0x1
 20219 6903 50       		.byte	0x50
 20220 6904 01       		.uleb128 0x1
 20221 6905 30       		.byte	0x30
 20222 6906 00       		.byte	0
 20223 6907 3C       		.uleb128 0x3c
 20224 6908 020D0000 		.4byte	.LVL145
 20225 690c 32700000 		.4byte	0x7032
 20226 6910 1A690000 		.4byte	0x691a
 20227 6914 3D       		.uleb128 0x3d
 20228 6915 01       		.uleb128 0x1
 20229 6916 50       		.byte	0x50
 20230 6917 01       		.uleb128 0x1
 20231 6918 31       		.byte	0x31
 20232 6919 00       		.byte	0
 20233 691a 3C       		.uleb128 0x3c
 20234 691b 1E0D0000 		.4byte	.LVL146
 20235 691f 32700000 		.4byte	0x7032
 20236 6923 2D690000 		.4byte	0x692d
 20237 6927 3D       		.uleb128 0x3d
 20238 6928 01       		.uleb128 0x1
 20239 6929 50       		.byte	0x50
 20240 692a 01       		.uleb128 0x1
 20241 692b 32       		.byte	0x32
 20242 692c 00       		.byte	0
 20243 692d 3A       		.uleb128 0x3a
 20244 692e 4C0D0000 		.4byte	.LVL147
 20245 6932 C9710000 		.4byte	0x71c9
 20246 6936 3C       		.uleb128 0x3c
 20247 6937 720D0000 		.4byte	.LVL148
 20248 693b 58720000 		.4byte	0x7258
 20249 693f 49690000 		.4byte	0x6949
 20250 6943 3D       		.uleb128 0x3d
 20251 6944 01       		.uleb128 0x1
 20252 6945 50       		.byte	0x50
 20253 6946 01       		.uleb128 0x1
 20254 6947 30       		.byte	0x30
ARM GAS  /tmp/ccZueut9.s 			page 362


 20255 6948 00       		.byte	0
 20256 6949 3C       		.uleb128 0x3c
 20257 694a 7E0D0000 		.4byte	.LVL149
 20258 694e 58720000 		.4byte	0x7258
 20259 6952 5C690000 		.4byte	0x695c
 20260 6956 3D       		.uleb128 0x3d
 20261 6957 01       		.uleb128 0x1
 20262 6958 50       		.byte	0x50
 20263 6959 01       		.uleb128 0x1
 20264 695a 31       		.byte	0x31
 20265 695b 00       		.byte	0
 20266 695c 3C       		.uleb128 0x3c
 20267 695d 8A0D0000 		.4byte	.LVL150
 20268 6961 58720000 		.4byte	0x7258
 20269 6965 6F690000 		.4byte	0x696f
 20270 6969 3D       		.uleb128 0x3d
 20271 696a 01       		.uleb128 0x1
 20272 696b 50       		.byte	0x50
 20273 696c 01       		.uleb128 0x1
 20274 696d 32       		.byte	0x32
 20275 696e 00       		.byte	0
 20276 696f 3C       		.uleb128 0x3c
 20277 6970 960D0000 		.4byte	.LVL151
 20278 6974 58720000 		.4byte	0x7258
 20279 6978 82690000 		.4byte	0x6982
 20280 697c 3D       		.uleb128 0x3d
 20281 697d 01       		.uleb128 0x1
 20282 697e 50       		.byte	0x50
 20283 697f 01       		.uleb128 0x1
 20284 6980 33       		.byte	0x33
 20285 6981 00       		.byte	0
 20286 6982 3A       		.uleb128 0x3a
 20287 6983 A60D0000 		.4byte	.LVL152
 20288 6987 D4710000 		.4byte	0x71d4
 20289 698b 3A       		.uleb128 0x3a
 20290 698c 940E0000 		.4byte	.LVL159
 20291 6990 63720000 		.4byte	0x7263
 20292 6994 3A       		.uleb128 0x3a
 20293 6995 E00E0000 		.4byte	.LVL162
 20294 6999 95700000 		.4byte	0x7095
 20295 699d 3A       		.uleb128 0x3a
 20296 699e 0E0F0000 		.4byte	.LVL163
 20297 69a2 8A700000 		.4byte	0x708a
 20298 69a6 3C       		.uleb128 0x3c
 20299 69a7 4E0F0000 		.4byte	.LVL164
 20300 69ab 32700000 		.4byte	0x7032
 20301 69af B9690000 		.4byte	0x69b9
 20302 69b3 3D       		.uleb128 0x3d
 20303 69b4 01       		.uleb128 0x1
 20304 69b5 50       		.byte	0x50
 20305 69b6 01       		.uleb128 0x1
 20306 69b7 30       		.byte	0x30
 20307 69b8 00       		.byte	0
 20308 69b9 3C       		.uleb128 0x3c
 20309 69ba 6A0F0000 		.4byte	.LVL165
 20310 69be 32700000 		.4byte	0x7032
 20311 69c2 CC690000 		.4byte	0x69cc
ARM GAS  /tmp/ccZueut9.s 			page 363


 20312 69c6 3D       		.uleb128 0x3d
 20313 69c7 01       		.uleb128 0x1
 20314 69c8 50       		.byte	0x50
 20315 69c9 01       		.uleb128 0x1
 20316 69ca 31       		.byte	0x31
 20317 69cb 00       		.byte	0
 20318 69cc 3C       		.uleb128 0x3c
 20319 69cd 860F0000 		.4byte	.LVL166
 20320 69d1 32700000 		.4byte	0x7032
 20321 69d5 DF690000 		.4byte	0x69df
 20322 69d9 3D       		.uleb128 0x3d
 20323 69da 01       		.uleb128 0x1
 20324 69db 50       		.byte	0x50
 20325 69dc 01       		.uleb128 0x1
 20326 69dd 32       		.byte	0x32
 20327 69de 00       		.byte	0
 20328 69df 3C       		.uleb128 0x3c
 20329 69e0 A20F0000 		.4byte	.LVL167
 20330 69e4 32700000 		.4byte	0x7032
 20331 69e8 F2690000 		.4byte	0x69f2
 20332 69ec 3D       		.uleb128 0x3d
 20333 69ed 01       		.uleb128 0x1
 20334 69ee 50       		.byte	0x50
 20335 69ef 01       		.uleb128 0x1
 20336 69f0 33       		.byte	0x33
 20337 69f1 00       		.byte	0
 20338 69f2 3A       		.uleb128 0x3a
 20339 69f3 BC0F0000 		.4byte	.LVL168
 20340 69f7 C1700000 		.4byte	0x70c1
 20341 69fb 3A       		.uleb128 0x3a
 20342 69fc D60F0000 		.4byte	.LVL169
 20343 6a00 CC700000 		.4byte	0x70cc
 20344 6a04 3A       		.uleb128 0x3a
 20345 6a05 F00F0000 		.4byte	.LVL170
 20346 6a09 5B710000 		.4byte	0x715b
 20347 6a0d 3A       		.uleb128 0x3a
 20348 6a0e 0A100000 		.4byte	.LVL171
 20349 6a12 EA710000 		.4byte	0x71ea
 20350 6a16 3A       		.uleb128 0x3a
 20351 6a17 24100000 		.4byte	.LVL172
 20352 6a1b A0700000 		.4byte	0x70a0
 20353 6a1f 3A       		.uleb128 0x3a
 20354 6a20 38100000 		.4byte	.LVL173
 20355 6a24 AB700000 		.4byte	0x70ab
 20356 6a28 3A       		.uleb128 0x3a
 20357 6a29 4A100000 		.4byte	.LVL174
 20358 6a2d B6700000 		.4byte	0x70b6
 20359 6a31 3A       		.uleb128 0x3a
 20360 6a32 92100000 		.4byte	.LVL175
 20361 6a36 D7700000 		.4byte	0x70d7
 20362 6a3a 3A       		.uleb128 0x3a
 20363 6a3b C0100000 		.4byte	.LVL176
 20364 6a3f 6E720000 		.4byte	0x726e
 20365 6a43 3A       		.uleb128 0x3a
 20366 6a44 00110000 		.4byte	.LVL178
 20367 6a48 FB6F0000 		.4byte	0x6ffb
 20368 6a4c 3A       		.uleb128 0x3a
ARM GAS  /tmp/ccZueut9.s 			page 364


 20369 6a4d 18110000 		.4byte	.LVL179
 20370 6a51 C9710000 		.4byte	0x71c9
 20371 6a55 3A       		.uleb128 0x3a
 20372 6a56 44110000 		.4byte	.LVL180
 20373 6a5a C9710000 		.4byte	0x71c9
 20374 6a5e 3A       		.uleb128 0x3a
 20375 6a5f 8E110000 		.4byte	.LVL181
 20376 6a63 C9710000 		.4byte	0x71c9
 20377 6a67 3C       		.uleb128 0x3c
 20378 6a68 B8110000 		.4byte	.LVL182
 20379 6a6c 27700000 		.4byte	0x7027
 20380 6a70 7B6A0000 		.4byte	0x6a7b
 20381 6a74 3D       		.uleb128 0x3d
 20382 6a75 01       		.uleb128 0x1
 20383 6a76 50       		.byte	0x50
 20384 6a77 02       		.uleb128 0x2
 20385 6a78 09       		.byte	0x9
 20386 6a79 B0       		.byte	0xb0
 20387 6a7a 00       		.byte	0
 20388 6a7b 3C       		.uleb128 0x3c
 20389 6a7c E2110000 		.4byte	.LVL183
 20390 6a80 27700000 		.4byte	0x7027
 20391 6a84 8F6A0000 		.4byte	0x6a8f
 20392 6a88 3D       		.uleb128 0x3d
 20393 6a89 01       		.uleb128 0x1
 20394 6a8a 50       		.byte	0x50
 20395 6a8b 02       		.uleb128 0x2
 20396 6a8c 09       		.byte	0x9
 20397 6a8d B0       		.byte	0xb0
 20398 6a8e 00       		.byte	0
 20399 6a8f 3C       		.uleb128 0x3c
 20400 6a90 0C120000 		.4byte	.LVL184
 20401 6a94 27700000 		.4byte	0x7027
 20402 6a98 A36A0000 		.4byte	0x6aa3
 20403 6a9c 3D       		.uleb128 0x3d
 20404 6a9d 01       		.uleb128 0x1
 20405 6a9e 50       		.byte	0x50
 20406 6a9f 02       		.uleb128 0x2
 20407 6aa0 09       		.byte	0x9
 20408 6aa1 B0       		.byte	0xb0
 20409 6aa2 00       		.byte	0
 20410 6aa3 3C       		.uleb128 0x3c
 20411 6aa4 24120000 		.4byte	.LVL185
 20412 6aa8 27700000 		.4byte	0x7027
 20413 6aac C26A0000 		.4byte	0x6ac2
 20414 6ab0 3D       		.uleb128 0x3d
 20415 6ab1 01       		.uleb128 0x1
 20416 6ab2 50       		.byte	0x50
 20417 6ab3 02       		.uleb128 0x2
 20418 6ab4 09       		.byte	0x9
 20419 6ab5 B0       		.byte	0xb0
 20420 6ab6 3D       		.uleb128 0x3d
 20421 6ab7 01       		.uleb128 0x1
 20422 6ab8 51       		.byte	0x51
 20423 6ab9 02       		.uleb128 0x2
 20424 6aba 09       		.byte	0x9
 20425 6abb 91       		.byte	0x91
ARM GAS  /tmp/ccZueut9.s 			page 365


 20426 6abc 3D       		.uleb128 0x3d
 20427 6abd 01       		.uleb128 0x1
 20428 6abe 52       		.byte	0x52
 20429 6abf 01       		.uleb128 0x1
 20430 6ac0 31       		.byte	0x31
 20431 6ac1 00       		.byte	0
 20432 6ac2 3A       		.uleb128 0x3a
 20433 6ac3 28120000 		.4byte	.LVL186
 20434 6ac7 11700000 		.4byte	0x7011
 20435 6acb 3C       		.uleb128 0x3c
 20436 6acc 56120000 		.4byte	.LVL187
 20437 6ad0 DA6F0000 		.4byte	0x6fda
 20438 6ad4 DF6A0000 		.4byte	0x6adf
 20439 6ad8 3D       		.uleb128 0x3d
 20440 6ad9 01       		.uleb128 0x1
 20441 6ada 50       		.byte	0x50
 20442 6adb 02       		.uleb128 0x2
 20443 6adc 78       		.byte	0x78
 20444 6add 00       		.sleb128 0
 20445 6ade 00       		.byte	0
 20446 6adf 3A       		.uleb128 0x3a
 20447 6ae0 5A120000 		.4byte	.LVL188
 20448 6ae4 E56F0000 		.4byte	0x6fe5
 20449 6ae8 3C       		.uleb128 0x3c
 20450 6ae9 46150000 		.4byte	.LVL232
 20451 6aed CF6F0000 		.4byte	0x6fcf
 20452 6af1 FC6A0000 		.4byte	0x6afc
 20453 6af5 3D       		.uleb128 0x3d
 20454 6af6 01       		.uleb128 0x1
 20455 6af7 50       		.byte	0x50
 20456 6af8 02       		.uleb128 0x2
 20457 6af9 78       		.byte	0x78
 20458 6afa 00       		.sleb128 0
 20459 6afb 00       		.byte	0
 20460 6afc 3C       		.uleb128 0x3c
 20461 6afd 1C160000 		.4byte	.LVL238
 20462 6b01 CF6F0000 		.4byte	0x6fcf
 20463 6b05 106B0000 		.4byte	0x6b10
 20464 6b09 3D       		.uleb128 0x3d
 20465 6b0a 01       		.uleb128 0x1
 20466 6b0b 50       		.byte	0x50
 20467 6b0c 02       		.uleb128 0x2
 20468 6b0d 78       		.byte	0x78
 20469 6b0e 00       		.sleb128 0
 20470 6b0f 00       		.byte	0
 20471 6b10 3C       		.uleb128 0x3c
 20472 6b11 7E170000 		.4byte	.LVL271
 20473 6b15 CF6F0000 		.4byte	0x6fcf
 20474 6b19 246B0000 		.4byte	0x6b24
 20475 6b1d 3D       		.uleb128 0x3d
 20476 6b1e 01       		.uleb128 0x1
 20477 6b1f 50       		.byte	0x50
 20478 6b20 02       		.uleb128 0x2
 20479 6b21 78       		.byte	0x78
 20480 6b22 00       		.sleb128 0
 20481 6b23 00       		.byte	0
 20482 6b24 3C       		.uleb128 0x3c
ARM GAS  /tmp/ccZueut9.s 			page 366


 20483 6b25 04180000 		.4byte	.LVL283
 20484 6b29 CF6F0000 		.4byte	0x6fcf
 20485 6b2d 386B0000 		.4byte	0x6b38
 20486 6b31 3D       		.uleb128 0x3d
 20487 6b32 01       		.uleb128 0x1
 20488 6b33 50       		.byte	0x50
 20489 6b34 02       		.uleb128 0x2
 20490 6b35 78       		.byte	0x78
 20491 6b36 00       		.sleb128 0
 20492 6b37 00       		.byte	0
 20493 6b38 3C       		.uleb128 0x3c
 20494 6b39 4C180000 		.4byte	.LVL290
 20495 6b3d CF6F0000 		.4byte	0x6fcf
 20496 6b41 4C6B0000 		.4byte	0x6b4c
 20497 6b45 3D       		.uleb128 0x3d
 20498 6b46 01       		.uleb128 0x1
 20499 6b47 50       		.byte	0x50
 20500 6b48 02       		.uleb128 0x2
 20501 6b49 78       		.byte	0x78
 20502 6b4a 00       		.sleb128 0
 20503 6b4b 00       		.byte	0
 20504 6b4c 3C       		.uleb128 0x3c
 20505 6b4d 8C180000 		.4byte	.LVL296
 20506 6b51 CF6F0000 		.4byte	0x6fcf
 20507 6b55 606B0000 		.4byte	0x6b60
 20508 6b59 3D       		.uleb128 0x3d
 20509 6b5a 01       		.uleb128 0x1
 20510 6b5b 50       		.byte	0x50
 20511 6b5c 02       		.uleb128 0x2
 20512 6b5d 78       		.byte	0x78
 20513 6b5e 00       		.sleb128 0
 20514 6b5f 00       		.byte	0
 20515 6b60 3C       		.uleb128 0x3c
 20516 6b61 BE190000 		.4byte	.LVL313
 20517 6b65 CF6F0000 		.4byte	0x6fcf
 20518 6b69 746B0000 		.4byte	0x6b74
 20519 6b6d 3D       		.uleb128 0x3d
 20520 6b6e 01       		.uleb128 0x1
 20521 6b6f 50       		.byte	0x50
 20522 6b70 02       		.uleb128 0x2
 20523 6b71 78       		.byte	0x78
 20524 6b72 00       		.sleb128 0
 20525 6b73 00       		.byte	0
 20526 6b74 3A       		.uleb128 0x3a
 20527 6b75 C81E0000 		.4byte	.LVL412
 20528 6b79 79720000 		.4byte	0x7279
 20529 6b7d 3C       		.uleb128 0x3c
 20530 6b7e EE1E0000 		.4byte	.LVL416
 20531 6b82 71710000 		.4byte	0x7171
 20532 6b86 916B0000 		.4byte	0x6b91
 20533 6b8a 3D       		.uleb128 0x3d
 20534 6b8b 01       		.uleb128 0x1
 20535 6b8c 50       		.byte	0x50
 20536 6b8d 02       		.uleb128 0x2
 20537 6b8e 78       		.byte	0x78
 20538 6b8f 00       		.sleb128 0
 20539 6b90 00       		.byte	0
ARM GAS  /tmp/ccZueut9.s 			page 367


 20540 6b91 3A       		.uleb128 0x3a
 20541 6b92 F21E0000 		.4byte	.LVL417
 20542 6b96 7C710000 		.4byte	0x717c
 20543 6b9a 3A       		.uleb128 0x3a
 20544 6b9b B41F0000 		.4byte	.LVL419
 20545 6b9f 3D700000 		.4byte	0x703d
 20546 6ba3 3A       		.uleb128 0x3a
 20547 6ba4 C21F0000 		.4byte	.LVL421
 20548 6ba8 3D700000 		.4byte	0x703d
 20549 6bac 3A       		.uleb128 0x3a
 20550 6bad D41F0000 		.4byte	.LVL423
 20551 6bb1 84720000 		.4byte	0x7284
 20552 6bb5 3A       		.uleb128 0x3a
 20553 6bb6 D81F0000 		.4byte	.LVL424
 20554 6bba 8F720000 		.4byte	0x728f
 20555 6bbe 3C       		.uleb128 0x3c
 20556 6bbf E81F0000 		.4byte	.LVL425
 20557 6bc3 9A720000 		.4byte	0x729a
 20558 6bc7 D76B0000 		.4byte	0x6bd7
 20559 6bcb 3D       		.uleb128 0x3d
 20560 6bcc 01       		.uleb128 0x1
 20561 6bcd 50       		.byte	0x50
 20562 6bce 07       		.uleb128 0x7
 20563 6bcf 78       		.byte	0x78
 20564 6bd0 00       		.sleb128 0
 20565 6bd1 91       		.byte	0x91
 20566 6bd2 A47F     		.sleb128 -92
 20567 6bd4 06       		.byte	0x6
 20568 6bd5 22       		.byte	0x22
 20569 6bd6 00       		.byte	0
 20570 6bd7 3A       		.uleb128 0x3a
 20571 6bd8 F81F0000 		.4byte	.LVL426
 20572 6bdc 53700000 		.4byte	0x7053
 20573 6be0 3A       		.uleb128 0x3a
 20574 6be1 00200000 		.4byte	.LVL427
 20575 6be5 48700000 		.4byte	0x7048
 20576 6be9 3A       		.uleb128 0x3a
 20577 6bea 08200000 		.4byte	.LVL428
 20578 6bee E2700000 		.4byte	0x70e2
 20579 6bf2 3A       		.uleb128 0x3a
 20580 6bf3 10200000 		.4byte	.LVL429
 20581 6bf7 ED700000 		.4byte	0x70ed
 20582 6bfb 3A       		.uleb128 0x3a
 20583 6bfc 18200000 		.4byte	.LVL430
 20584 6c00 A9720000 		.4byte	0x72a9
 20585 6c04 3A       		.uleb128 0x3a
 20586 6c05 20200000 		.4byte	.LVL431
 20587 6c09 B4720000 		.4byte	0x72b4
 20588 6c0d 3A       		.uleb128 0x3a
 20589 6c0e 28200000 		.4byte	.LVL432
 20590 6c12 BF720000 		.4byte	0x72bf
 20591 6c16 3A       		.uleb128 0x3a
 20592 6c17 68200000 		.4byte	.LVL433
 20593 6c1b BF720000 		.4byte	0x72bf
 20594 6c1f 3C       		.uleb128 0x3c
 20595 6c20 B0200000 		.4byte	.LVL434
 20596 6c24 CA720000 		.4byte	0x72ca
ARM GAS  /tmp/ccZueut9.s 			page 368


 20597 6c28 336C0000 		.4byte	0x6c33
 20598 6c2c 3D       		.uleb128 0x3d
 20599 6c2d 01       		.uleb128 0x1
 20600 6c2e 50       		.byte	0x50
 20601 6c2f 02       		.uleb128 0x2
 20602 6c30 75       		.byte	0x75
 20603 6c31 00       		.sleb128 0
 20604 6c32 00       		.byte	0
 20605 6c33 3C       		.uleb128 0x3c
 20606 6c34 BA200000 		.4byte	.LVL435
 20607 6c38 CA720000 		.4byte	0x72ca
 20608 6c3c 466C0000 		.4byte	0x6c46
 20609 6c40 3D       		.uleb128 0x3d
 20610 6c41 01       		.uleb128 0x1
 20611 6c42 50       		.byte	0x50
 20612 6c43 01       		.uleb128 0x1
 20613 6c44 31       		.byte	0x31
 20614 6c45 00       		.byte	0
 20615 6c46 3C       		.uleb128 0x3c
 20616 6c47 C4200000 		.4byte	.LVL436
 20617 6c4b CA720000 		.4byte	0x72ca
 20618 6c4f 596C0000 		.4byte	0x6c59
 20619 6c53 3D       		.uleb128 0x3d
 20620 6c54 01       		.uleb128 0x1
 20621 6c55 50       		.byte	0x50
 20622 6c56 01       		.uleb128 0x1
 20623 6c57 32       		.byte	0x32
 20624 6c58 00       		.byte	0
 20625 6c59 3A       		.uleb128 0x3a
 20626 6c5a EE200000 		.4byte	.LVL438
 20627 6c5e D5720000 		.4byte	0x72d5
 20628 6c62 3A       		.uleb128 0x3a
 20629 6c63 06210000 		.4byte	.LVL439
 20630 6c67 E0720000 		.4byte	0x72e0
 20631 6c6b 3A       		.uleb128 0x3a
 20632 6c6c 12210000 		.4byte	.LVL440
 20633 6c70 EB720000 		.4byte	0x72eb
 20634 6c74 3A       		.uleb128 0x3a
 20635 6c75 30210000 		.4byte	.LVL442
 20636 6c79 F06F0000 		.4byte	0x6ff0
 20637 6c7d 3C       		.uleb128 0x3c
 20638 6c7e 4C210000 		.4byte	.LVL443
 20639 6c82 F6720000 		.4byte	0x72f6
 20640 6c86 A66C0000 		.4byte	0x6ca6
 20641 6c8a 3D       		.uleb128 0x3d
 20642 6c8b 01       		.uleb128 0x1
 20643 6c8c 50       		.byte	0x50
 20644 6c8d 05       		.uleb128 0x5
 20645 6c8e 03       		.byte	0x3
 20646 6c8f 00000000 		.4byte	.LANCHOR16
 20647 6c93 3D       		.uleb128 0x3d
 20648 6c94 01       		.uleb128 0x1
 20649 6c95 51       		.byte	0x51
 20650 6c96 05       		.uleb128 0x5
 20651 6c97 03       		.byte	0x3
 20652 6c98 00000000 		.4byte	.LANCHOR15
 20653 6c9c 3D       		.uleb128 0x3d
ARM GAS  /tmp/ccZueut9.s 			page 369


 20654 6c9d 01       		.uleb128 0x1
 20655 6c9e 52       		.byte	0x52
 20656 6c9f 05       		.uleb128 0x5
 20657 6ca0 03       		.byte	0x3
 20658 6ca1 00000000 		.4byte	.LANCHOR14
 20659 6ca5 00       		.byte	0
 20660 6ca6 3C       		.uleb128 0x3c
 20661 6ca7 88210000 		.4byte	.LVL445
 20662 6cab F6720000 		.4byte	0x72f6
 20663 6caf CF6C0000 		.4byte	0x6ccf
 20664 6cb3 3D       		.uleb128 0x3d
 20665 6cb4 01       		.uleb128 0x1
 20666 6cb5 50       		.byte	0x50
 20667 6cb6 05       		.uleb128 0x5
 20668 6cb7 03       		.byte	0x3
 20669 6cb8 00000000 		.4byte	.LANCHOR16
 20670 6cbc 3D       		.uleb128 0x3d
 20671 6cbd 01       		.uleb128 0x1
 20672 6cbe 51       		.byte	0x51
 20673 6cbf 05       		.uleb128 0x5
 20674 6cc0 03       		.byte	0x3
 20675 6cc1 00000000 		.4byte	.LANCHOR15
 20676 6cc5 3D       		.uleb128 0x3d
 20677 6cc6 01       		.uleb128 0x1
 20678 6cc7 52       		.byte	0x52
 20679 6cc8 05       		.uleb128 0x5
 20680 6cc9 03       		.byte	0x3
 20681 6cca 00000000 		.4byte	.LANCHOR14
 20682 6cce 00       		.byte	0
 20683 6ccf 3C       		.uleb128 0x3c
 20684 6cd0 C2210000 		.4byte	.LVL446
 20685 6cd4 7F700000 		.4byte	0x707f
 20686 6cd8 E86C0000 		.4byte	0x6ce8
 20687 6cdc 3D       		.uleb128 0x3d
 20688 6cdd 01       		.uleb128 0x1
 20689 6cde 50       		.byte	0x50
 20690 6cdf 02       		.uleb128 0x2
 20691 6ce0 75       		.byte	0x75
 20692 6ce1 00       		.sleb128 0
 20693 6ce2 3D       		.uleb128 0x3d
 20694 6ce3 01       		.uleb128 0x1
 20695 6ce4 51       		.byte	0x51
 20696 6ce5 01       		.uleb128 0x1
 20697 6ce6 31       		.byte	0x31
 20698 6ce7 00       		.byte	0
 20699 6ce8 3C       		.uleb128 0x3c
 20700 6ce9 CE210000 		.4byte	.LVL447
 20701 6ced 7F700000 		.4byte	0x707f
 20702 6cf1 006D0000 		.4byte	0x6d00
 20703 6cf5 3D       		.uleb128 0x3d
 20704 6cf6 01       		.uleb128 0x1
 20705 6cf7 50       		.byte	0x50
 20706 6cf8 01       		.uleb128 0x1
 20707 6cf9 31       		.byte	0x31
 20708 6cfa 3D       		.uleb128 0x3d
 20709 6cfb 01       		.uleb128 0x1
 20710 6cfc 51       		.byte	0x51
ARM GAS  /tmp/ccZueut9.s 			page 370


 20711 6cfd 01       		.uleb128 0x1
 20712 6cfe 31       		.byte	0x31
 20713 6cff 00       		.byte	0
 20714 6d00 3C       		.uleb128 0x3c
 20715 6d01 DA210000 		.4byte	.LVL448
 20716 6d05 7F700000 		.4byte	0x707f
 20717 6d09 186D0000 		.4byte	0x6d18
 20718 6d0d 3D       		.uleb128 0x3d
 20719 6d0e 01       		.uleb128 0x1
 20720 6d0f 50       		.byte	0x50
 20721 6d10 01       		.uleb128 0x1
 20722 6d11 32       		.byte	0x32
 20723 6d12 3D       		.uleb128 0x3d
 20724 6d13 01       		.uleb128 0x1
 20725 6d14 51       		.byte	0x51
 20726 6d15 01       		.uleb128 0x1
 20727 6d16 31       		.byte	0x31
 20728 6d17 00       		.byte	0
 20729 6d18 3A       		.uleb128 0x3a
 20730 6d19 04220000 		.4byte	.LVL449
 20731 6d1d EB720000 		.4byte	0x72eb
 20732 6d21 3A       		.uleb128 0x3a
 20733 6d22 22220000 		.4byte	.LVL450
 20734 6d26 D5720000 		.4byte	0x72d5
 20735 6d2a 3A       		.uleb128 0x3a
 20736 6d2b 3A220000 		.4byte	.LVL451
 20737 6d2f E0720000 		.4byte	0x72e0
 20738 6d33 3A       		.uleb128 0x3a
 20739 6d34 42220000 		.4byte	.LVL452
 20740 6d38 F06F0000 		.4byte	0x6ff0
 20741 6d3c 3C       		.uleb128 0x3c
 20742 6d3d 60220000 		.4byte	.LVL453
 20743 6d41 50710000 		.4byte	0x7150
 20744 6d45 596D0000 		.4byte	0x6d59
 20745 6d49 3D       		.uleb128 0x3d
 20746 6d4a 01       		.uleb128 0x1
 20747 6d4b 50       		.byte	0x50
 20748 6d4c 01       		.uleb128 0x1
 20749 6d4d 33       		.byte	0x33
 20750 6d4e 3D       		.uleb128 0x3d
 20751 6d4f 01       		.uleb128 0x1
 20752 6d50 51       		.byte	0x51
 20753 6d51 01       		.uleb128 0x1
 20754 6d52 32       		.byte	0x32
 20755 6d53 3D       		.uleb128 0x3d
 20756 6d54 01       		.uleb128 0x1
 20757 6d55 52       		.byte	0x52
 20758 6d56 01       		.uleb128 0x1
 20759 6d57 30       		.byte	0x30
 20760 6d58 00       		.byte	0
 20761 6d59 3C       		.uleb128 0x3c
 20762 6d5a 74220000 		.4byte	.LVL454
 20763 6d5e 50710000 		.4byte	0x7150
 20764 6d62 766D0000 		.4byte	0x6d76
 20765 6d66 3D       		.uleb128 0x3d
 20766 6d67 01       		.uleb128 0x1
 20767 6d68 50       		.byte	0x50
ARM GAS  /tmp/ccZueut9.s 			page 371


 20768 6d69 01       		.uleb128 0x1
 20769 6d6a 34       		.byte	0x34
 20770 6d6b 3D       		.uleb128 0x3d
 20771 6d6c 01       		.uleb128 0x1
 20772 6d6d 51       		.byte	0x51
 20773 6d6e 01       		.uleb128 0x1
 20774 6d6f 32       		.byte	0x32
 20775 6d70 3D       		.uleb128 0x3d
 20776 6d71 01       		.uleb128 0x1
 20777 6d72 52       		.byte	0x52
 20778 6d73 01       		.uleb128 0x1
 20779 6d74 30       		.byte	0x30
 20780 6d75 00       		.byte	0
 20781 6d76 3C       		.uleb128 0x3c
 20782 6d77 88220000 		.4byte	.LVL455
 20783 6d7b 50710000 		.4byte	0x7150
 20784 6d7f 936D0000 		.4byte	0x6d93
 20785 6d83 3D       		.uleb128 0x3d
 20786 6d84 01       		.uleb128 0x1
 20787 6d85 50       		.byte	0x50
 20788 6d86 01       		.uleb128 0x1
 20789 6d87 3B       		.byte	0x3b
 20790 6d88 3D       		.uleb128 0x3d
 20791 6d89 01       		.uleb128 0x1
 20792 6d8a 51       		.byte	0x51
 20793 6d8b 01       		.uleb128 0x1
 20794 6d8c 32       		.byte	0x32
 20795 6d8d 3D       		.uleb128 0x3d
 20796 6d8e 01       		.uleb128 0x1
 20797 6d8f 52       		.byte	0x52
 20798 6d90 01       		.uleb128 0x1
 20799 6d91 30       		.byte	0x30
 20800 6d92 00       		.byte	0
 20801 6d93 3C       		.uleb128 0x3c
 20802 6d94 9E220000 		.4byte	.LVL456
 20803 6d98 45710000 		.4byte	0x7145
 20804 6d9c AF6D0000 		.4byte	0x6daf
 20805 6da0 3D       		.uleb128 0x3d
 20806 6da1 01       		.uleb128 0x1
 20807 6da2 50       		.byte	0x50
 20808 6da3 03       		.uleb128 0x3
 20809 6da4 0A       		.byte	0xa
 20810 6da5 7E1C     		.2byte	0x1c7e
 20811 6da7 3D       		.uleb128 0x3d
 20812 6da8 01       		.uleb128 0x1
 20813 6da9 51       		.byte	0x51
 20814 6daa 03       		.uleb128 0x3
 20815 6dab 0A       		.byte	0xa
 20816 6dac 940E     		.2byte	0xe94
 20817 6dae 00       		.byte	0
 20818 6daf 3C       		.uleb128 0x3c
 20819 6db0 B4220000 		.4byte	.LVL457
 20820 6db4 45710000 		.4byte	0x7145
 20821 6db8 CB6D0000 		.4byte	0x6dcb
 20822 6dbc 3D       		.uleb128 0x3d
 20823 6dbd 01       		.uleb128 0x1
 20824 6dbe 50       		.byte	0x50
ARM GAS  /tmp/ccZueut9.s 			page 372


 20825 6dbf 03       		.uleb128 0x3
 20826 6dc0 0A       		.byte	0xa
 20827 6dc1 142B     		.2byte	0x2b14
 20828 6dc3 3D       		.uleb128 0x3d
 20829 6dc4 01       		.uleb128 0x1
 20830 6dc5 51       		.byte	0x51
 20831 6dc6 03       		.uleb128 0x3
 20832 6dc7 0A       		.byte	0xa
 20833 6dc8 501F     		.2byte	0x1f50
 20834 6dca 00       		.byte	0
 20835 6dcb 3A       		.uleb128 0x3a
 20836 6dcc F8220000 		.4byte	.LVL458
 20837 6dd0 01730000 		.4byte	0x7301
 20838 6dd4 3A       		.uleb128 0x3a
 20839 6dd5 04230000 		.4byte	.LVL459
 20840 6dd9 0C730000 		.4byte	0x730c
 20841 6ddd 3C       		.uleb128 0x3c
 20842 6dde 46230000 		.4byte	.LVL464
 20843 6de2 CF6F0000 		.4byte	0x6fcf
 20844 6de6 F16D0000 		.4byte	0x6df1
 20845 6dea 3D       		.uleb128 0x3d
 20846 6deb 01       		.uleb128 0x1
 20847 6dec 50       		.byte	0x50
 20848 6ded 02       		.uleb128 0x2
 20849 6dee 78       		.byte	0x78
 20850 6def 00       		.sleb128 0
 20851 6df0 00       		.byte	0
 20852 6df1 3C       		.uleb128 0x3c
 20853 6df2 BC230000 		.4byte	.LVL476
 20854 6df6 0B720000 		.4byte	0x720b
 20855 6dfa 056E0000 		.4byte	0x6e05
 20856 6dfe 3D       		.uleb128 0x3d
 20857 6dff 01       		.uleb128 0x1
 20858 6e00 50       		.byte	0x50
 20859 6e01 02       		.uleb128 0x2
 20860 6e02 74       		.byte	0x74
 20861 6e03 00       		.sleb128 0
 20862 6e04 00       		.byte	0
 20863 6e05 3F       		.uleb128 0x3f
 20864 6e06 DA230000 		.4byte	.LVL477
 20865 6e0a 1B6E0000 		.4byte	0x6e1b
 20866 6e0e 3D       		.uleb128 0x3d
 20867 6e0f 01       		.uleb128 0x1
 20868 6e10 51       		.byte	0x51
 20869 6e11 03       		.uleb128 0x3
 20870 6e12 91       		.byte	0x91
 20871 6e13 B87F     		.sleb128 -72
 20872 6e15 3D       		.uleb128 0x3d
 20873 6e16 01       		.uleb128 0x1
 20874 6e17 52       		.byte	0x52
 20875 6e18 01       		.uleb128 0x1
 20876 6e19 43       		.byte	0x43
 20877 6e1a 00       		.byte	0
 20878 6e1b 3C       		.uleb128 0x3c
 20879 6e1c E0230000 		.4byte	.LVL478
 20880 6e20 5E700000 		.4byte	0x705e
 20881 6e24 2E6E0000 		.4byte	0x6e2e
ARM GAS  /tmp/ccZueut9.s 			page 373


 20882 6e28 3D       		.uleb128 0x3d
 20883 6e29 01       		.uleb128 0x1
 20884 6e2a 50       		.byte	0x50
 20885 6e2b 01       		.uleb128 0x1
 20886 6e2c 3A       		.byte	0x3a
 20887 6e2d 00       		.byte	0
 20888 6e2e 3F       		.uleb128 0x3f
 20889 6e2f FE230000 		.4byte	.LVL479
 20890 6e33 446E0000 		.4byte	0x6e44
 20891 6e37 3D       		.uleb128 0x3d
 20892 6e38 01       		.uleb128 0x1
 20893 6e39 51       		.byte	0x51
 20894 6e3a 03       		.uleb128 0x3
 20895 6e3b 91       		.byte	0x91
 20896 6e3c B87F     		.sleb128 -72
 20897 6e3e 3D       		.uleb128 0x3d
 20898 6e3f 01       		.uleb128 0x1
 20899 6e40 52       		.byte	0x52
 20900 6e41 01       		.uleb128 0x1
 20901 6e42 31       		.byte	0x31
 20902 6e43 00       		.byte	0
 20903 6e44 3C       		.uleb128 0x3c
 20904 6e45 04240000 		.4byte	.LVL480
 20905 6e49 5E700000 		.4byte	0x705e
 20906 6e4d 576E0000 		.4byte	0x6e57
 20907 6e51 3D       		.uleb128 0x3d
 20908 6e52 01       		.uleb128 0x1
 20909 6e53 50       		.byte	0x50
 20910 6e54 01       		.uleb128 0x1
 20911 6e55 3A       		.byte	0x3a
 20912 6e56 00       		.byte	0
 20913 6e57 3F       		.uleb128 0x3f
 20914 6e58 22240000 		.4byte	.LVL481
 20915 6e5c 6D6E0000 		.4byte	0x6e6d
 20916 6e60 3D       		.uleb128 0x3d
 20917 6e61 01       		.uleb128 0x1
 20918 6e62 51       		.byte	0x51
 20919 6e63 03       		.uleb128 0x3
 20920 6e64 91       		.byte	0x91
 20921 6e65 B87F     		.sleb128 -72
 20922 6e67 3D       		.uleb128 0x3d
 20923 6e68 01       		.uleb128 0x1
 20924 6e69 52       		.byte	0x52
 20925 6e6a 01       		.uleb128 0x1
 20926 6e6b 31       		.byte	0x31
 20927 6e6c 00       		.byte	0
 20928 6e6d 3C       		.uleb128 0x3c
 20929 6e6e 28240000 		.4byte	.LVL482
 20930 6e72 5E700000 		.4byte	0x705e
 20931 6e76 806E0000 		.4byte	0x6e80
 20932 6e7a 3D       		.uleb128 0x3d
 20933 6e7b 01       		.uleb128 0x1
 20934 6e7c 50       		.byte	0x50
 20935 6e7d 01       		.uleb128 0x1
 20936 6e7e 3A       		.byte	0x3a
 20937 6e7f 00       		.byte	0
 20938 6e80 3F       		.uleb128 0x3f
ARM GAS  /tmp/ccZueut9.s 			page 374


 20939 6e81 46240000 		.4byte	.LVL483
 20940 6e85 966E0000 		.4byte	0x6e96
 20941 6e89 3D       		.uleb128 0x3d
 20942 6e8a 01       		.uleb128 0x1
 20943 6e8b 51       		.byte	0x51
 20944 6e8c 03       		.uleb128 0x3
 20945 6e8d 91       		.byte	0x91
 20946 6e8e B87F     		.sleb128 -72
 20947 6e90 3D       		.uleb128 0x3d
 20948 6e91 01       		.uleb128 0x1
 20949 6e92 52       		.byte	0x52
 20950 6e93 01       		.uleb128 0x1
 20951 6e94 31       		.byte	0x31
 20952 6e95 00       		.byte	0
 20953 6e96 3C       		.uleb128 0x3c
 20954 6e97 4C240000 		.4byte	.LVL484
 20955 6e9b 5E700000 		.4byte	0x705e
 20956 6e9f A96E0000 		.4byte	0x6ea9
 20957 6ea3 3D       		.uleb128 0x3d
 20958 6ea4 01       		.uleb128 0x1
 20959 6ea5 50       		.byte	0x50
 20960 6ea6 01       		.uleb128 0x1
 20961 6ea7 3A       		.byte	0x3a
 20962 6ea8 00       		.byte	0
 20963 6ea9 3A       		.uleb128 0x3a
 20964 6eaa BC290000 		.4byte	.LVL631
 20965 6eae 17730000 		.4byte	0x7317
 20966 6eb2 3A       		.uleb128 0x3a
 20967 6eb3 C6290000 		.4byte	.LVL632
 20968 6eb7 B3710000 		.4byte	0x71b3
 20969 6ebb 3C       		.uleb128 0x3c
 20970 6ebc DA290000 		.4byte	.LVL633
 20971 6ec0 BE710000 		.4byte	0x71be
 20972 6ec4 E46E0000 		.4byte	0x6ee4
 20973 6ec8 3D       		.uleb128 0x3d
 20974 6ec9 01       		.uleb128 0x1
 20975 6eca 50       		.byte	0x50
 20976 6ecb 02       		.uleb128 0x2
 20977 6ecc 08       		.byte	0x8
 20978 6ecd 7F       		.byte	0x7f
 20979 6ece 3D       		.uleb128 0x3d
 20980 6ecf 01       		.uleb128 0x1
 20981 6ed0 51       		.byte	0x51
 20982 6ed1 03       		.uleb128 0x3
 20983 6ed2 0A       		.byte	0xa
 20984 6ed3 FEFF     		.2byte	0xfffe
 20985 6ed5 3D       		.uleb128 0x3d
 20986 6ed6 01       		.uleb128 0x1
 20987 6ed7 52       		.byte	0x52
 20988 6ed8 05       		.uleb128 0x5
 20989 6ed9 03       		.byte	0x3
 20990 6eda 00000000 		.4byte	.LANCHOR0
 20991 6ede 3D       		.uleb128 0x3d
 20992 6edf 01       		.uleb128 0x1
 20993 6ee0 53       		.byte	0x53
 20994 6ee1 01       		.uleb128 0x1
 20995 6ee2 31       		.byte	0x31
ARM GAS  /tmp/ccZueut9.s 			page 375


 20996 6ee3 00       		.byte	0
 20997 6ee4 3A       		.uleb128 0x3a
 20998 6ee5 062A0000 		.4byte	.LVL634
 20999 6ee9 F8700000 		.4byte	0x70f8
 21000 6eed 3C       		.uleb128 0x3c
 21001 6eee 342A0000 		.4byte	.LVL635
 21002 6ef2 03710000 		.4byte	0x7103
 21003 6ef6 106F0000 		.4byte	0x6f10
 21004 6efa 3D       		.uleb128 0x3d
 21005 6efb 02       		.uleb128 0x2
 21006 6efc 7D       		.byte	0x7d
 21007 6efd 00       		.sleb128 0
 21008 6efe 02       		.uleb128 0x2
 21009 6eff 75       		.byte	0x75
 21010 6f00 00       		.sleb128 0
 21011 6f01 3D       		.uleb128 0x3d
 21012 6f02 02       		.uleb128 0x2
 21013 6f03 7D       		.byte	0x7d
 21014 6f04 04       		.sleb128 4
 21015 6f05 02       		.uleb128 0x2
 21016 6f06 75       		.byte	0x75
 21017 6f07 00       		.sleb128 0
 21018 6f08 3D       		.uleb128 0x3d
 21019 6f09 02       		.uleb128 0x2
 21020 6f0a 7D       		.byte	0x7d
 21021 6f0b 08       		.sleb128 8
 21022 6f0c 02       		.uleb128 0x2
 21023 6f0d 74       		.byte	0x74
 21024 6f0e 00       		.sleb128 0
 21025 6f0f 00       		.byte	0
 21026 6f10 3A       		.uleb128 0x3a
 21027 6f11 382A0000 		.4byte	.LVL636
 21028 6f15 0E710000 		.4byte	0x710e
 21029 6f19 3A       		.uleb128 0x3a
 21030 6f1a 402A0000 		.4byte	.LVL637
 21031 6f1e 22730000 		.4byte	0x7322
 21032 6f22 3C       		.uleb128 0x3c
 21033 6f23 482A0000 		.4byte	.LVL638
 21034 6f27 DA6F0000 		.4byte	0x6fda
 21035 6f2b 3F6F0000 		.4byte	0x6f3f
 21036 6f2f 3D       		.uleb128 0x3d
 21037 6f30 01       		.uleb128 0x1
 21038 6f31 50       		.byte	0x50
 21039 6f32 05       		.uleb128 0x5
 21040 6f33 03       		.byte	0x3
 21041 6f34 00000000 		.4byte	.LC0
 21042 6f38 3D       		.uleb128 0x3d
 21043 6f39 01       		.uleb128 0x1
 21044 6f3a 51       		.byte	0x51
 21045 6f3b 02       		.uleb128 0x2
 21046 6f3c 08       		.byte	0x8
 21047 6f3d 58       		.byte	0x58
 21048 6f3e 00       		.byte	0
 21049 6f3f 3A       		.uleb128 0x3a
 21050 6f40 4C2A0000 		.4byte	.LVL639
 21051 6f44 E56F0000 		.4byte	0x6fe5
 21052 6f48 3A       		.uleb128 0x3a
ARM GAS  /tmp/ccZueut9.s 			page 376


 21053 6f49 5A2A0000 		.4byte	.LVL640
 21054 6f4d 22730000 		.4byte	0x7322
 21055 6f51 3C       		.uleb128 0x3c
 21056 6f52 622A0000 		.4byte	.LVL641
 21057 6f56 71710000 		.4byte	0x7171
 21058 6f5a 6E6F0000 		.4byte	0x6f6e
 21059 6f5e 3D       		.uleb128 0x3d
 21060 6f5f 01       		.uleb128 0x1
 21061 6f60 50       		.byte	0x50
 21062 6f61 05       		.uleb128 0x5
 21063 6f62 03       		.byte	0x3
 21064 6f63 00000000 		.4byte	.LC0
 21065 6f67 3D       		.uleb128 0x3d
 21066 6f68 01       		.uleb128 0x1
 21067 6f69 51       		.byte	0x51
 21068 6f6a 02       		.uleb128 0x2
 21069 6f6b 08       		.byte	0x8
 21070 6f6c 58       		.byte	0x58
 21071 6f6d 00       		.byte	0
 21072 6f6e 3A       		.uleb128 0x3a
 21073 6f6f 662A0000 		.4byte	.LVL642
 21074 6f73 7C710000 		.4byte	0x717c
 21075 6f77 00       		.byte	0
 21076 6f78 13       		.uleb128 0x13
 21077 6f79 20110000 		.4byte	0x1120
 21078 6f7d 886F0000 		.4byte	0x6f88
 21079 6f81 14       		.uleb128 0x14
 21080 6f82 37000000 		.4byte	0x37
 21081 6f86 0B       		.byte	0xb
 21082 6f87 00       		.byte	0
 21083 6f88 13       		.uleb128 0x13
 21084 6f89 D5000000 		.4byte	0xd5
 21085 6f8d 986F0000 		.4byte	0x6f98
 21086 6f91 14       		.uleb128 0x14
 21087 6f92 37000000 		.4byte	0x37
 21088 6f96 12       		.byte	0x12
 21089 6f97 00       		.byte	0
 21090 6f98 40       		.uleb128 0x40
 21091 6f99 801E0000 		.4byte	.LASF973
 21092 6f9d 801E0000 		.4byte	.LASF973
 21093 6fa1 3F       		.byte	0x3f
 21094 6fa2 45       		.byte	0x45
 21095 6fa3 40       		.uleb128 0x40
 21096 6fa4 9D0D0000 		.4byte	.LASF974
 21097 6fa8 9D0D0000 		.4byte	.LASF974
 21098 6fac 41       		.byte	0x41
 21099 6fad 17       		.byte	0x17
 21100 6fae 40       		.uleb128 0x40
 21101 6faf B1210000 		.4byte	.LASF975
 21102 6fb3 B1210000 		.4byte	.LASF975
 21103 6fb7 41       		.byte	0x41
 21104 6fb8 19       		.byte	0x19
 21105 6fb9 40       		.uleb128 0x40
 21106 6fba 7C000000 		.4byte	.LASF976
 21107 6fbe 7C000000 		.4byte	.LASF976
 21108 6fc2 41       		.byte	0x41
 21109 6fc3 1B       		.byte	0x1b
ARM GAS  /tmp/ccZueut9.s 			page 377


 21110 6fc4 40       		.uleb128 0x40
 21111 6fc5 BB090000 		.4byte	.LASF977
 21112 6fc9 BB090000 		.4byte	.LASF977
 21113 6fcd 42       		.byte	0x42
 21114 6fce F4       		.byte	0xf4
 21115 6fcf 40       		.uleb128 0x40
 21116 6fd0 FD1F0000 		.4byte	.LASF978
 21117 6fd4 FD1F0000 		.4byte	.LASF978
 21118 6fd8 43       		.byte	0x43
 21119 6fd9 29       		.byte	0x29
 21120 6fda 40       		.uleb128 0x40
 21121 6fdb 0B230000 		.4byte	.LASF979
 21122 6fdf 0B230000 		.4byte	.LASF979
 21123 6fe3 44       		.byte	0x44
 21124 6fe4 71       		.byte	0x71
 21125 6fe5 40       		.uleb128 0x40
 21126 6fe6 D4150000 		.4byte	.LASF980
 21127 6fea D4150000 		.4byte	.LASF980
 21128 6fee 44       		.byte	0x44
 21129 6fef 76       		.byte	0x76
 21130 6ff0 40       		.uleb128 0x40
 21131 6ff1 8F280000 		.4byte	.LASF981
 21132 6ff5 8F280000 		.4byte	.LASF981
 21133 6ff9 41       		.byte	0x41
 21134 6ffa 15       		.byte	0x15
 21135 6ffb 40       		.uleb128 0x40
 21136 6ffc 04170000 		.4byte	.LASF982
 21137 7000 04170000 		.4byte	.LASF982
 21138 7004 45       		.byte	0x45
 21139 7005 29       		.byte	0x29
 21140 7006 40       		.uleb128 0x40
 21141 7007 A81D0000 		.4byte	.LASF983
 21142 700b A81D0000 		.4byte	.LASF983
 21143 700f 45       		.byte	0x45
 21144 7010 28       		.byte	0x28
 21145 7011 40       		.uleb128 0x40
 21146 7012 FC080000 		.4byte	.LASF984
 21147 7016 FC080000 		.4byte	.LASF984
 21148 701a 45       		.byte	0x45
 21149 701b 2A       		.byte	0x2a
 21150 701c 40       		.uleb128 0x40
 21151 701d 890B0000 		.4byte	.LASF985
 21152 7021 890B0000 		.4byte	.LASF985
 21153 7025 42       		.byte	0x42
 21154 7026 CC       		.byte	0xcc
 21155 7027 40       		.uleb128 0x40
 21156 7028 E2050000 		.4byte	.LASF986
 21157 702c E2050000 		.4byte	.LASF986
 21158 7030 45       		.byte	0x45
 21159 7031 27       		.byte	0x27
 21160 7032 40       		.uleb128 0x40
 21161 7033 D0280000 		.4byte	.LASF987
 21162 7037 D0280000 		.4byte	.LASF987
 21163 703b 46       		.byte	0x46
 21164 703c 26       		.byte	0x26
 21165 703d 40       		.uleb128 0x40
 21166 703e 99030000 		.4byte	.LASF988
ARM GAS  /tmp/ccZueut9.s 			page 378


 21167 7042 99030000 		.4byte	.LASF988
 21168 7046 47       		.byte	0x47
 21169 7047 67       		.byte	0x67
 21170 7048 40       		.uleb128 0x40
 21171 7049 FD2B0000 		.4byte	.LASF989
 21172 704d FD2B0000 		.4byte	.LASF989
 21173 7051 48       		.byte	0x48
 21174 7052 46       		.byte	0x46
 21175 7053 40       		.uleb128 0x40
 21176 7054 EA040000 		.4byte	.LASF990
 21177 7058 EA040000 		.4byte	.LASF990
 21178 705c 48       		.byte	0x48
 21179 705d 3A       		.byte	0x3a
 21180 705e 40       		.uleb128 0x40
 21181 705f C8250000 		.4byte	.LASF991
 21182 7063 C8250000 		.4byte	.LASF991
 21183 7067 49       		.byte	0x49
 21184 7068 96       		.byte	0x96
 21185 7069 40       		.uleb128 0x40
 21186 706a DC1C0000 		.4byte	.LASF992
 21187 706e DC1C0000 		.4byte	.LASF992
 21188 7072 48       		.byte	0x48
 21189 7073 3B       		.byte	0x3b
 21190 7074 40       		.uleb128 0x40
 21191 7075 63040000 		.4byte	.LASF993
 21192 7079 63040000 		.4byte	.LASF993
 21193 707d 4A       		.byte	0x4a
 21194 707e 0B       		.byte	0xb
 21195 707f 40       		.uleb128 0x40
 21196 7080 C8140000 		.4byte	.LASF994
 21197 7084 C8140000 		.4byte	.LASF994
 21198 7088 40       		.byte	0x40
 21199 7089 42       		.byte	0x42
 21200 708a 40       		.uleb128 0x40
 21201 708b A9010000 		.4byte	.LASF995
 21202 708f A9010000 		.4byte	.LASF995
 21203 7093 4A       		.byte	0x4a
 21204 7094 30       		.byte	0x30
 21205 7095 40       		.uleb128 0x40
 21206 7096 4C1A0000 		.4byte	.LASF996
 21207 709a 4C1A0000 		.4byte	.LASF996
 21208 709e 4A       		.byte	0x4a
 21209 709f 27       		.byte	0x27
 21210 70a0 40       		.uleb128 0x40
 21211 70a1 291A0000 		.4byte	.LASF997
 21212 70a5 291A0000 		.4byte	.LASF997
 21213 70a9 4B       		.byte	0x4b
 21214 70aa 72       		.byte	0x72
 21215 70ab 40       		.uleb128 0x40
 21216 70ac 050E0000 		.4byte	.LASF998
 21217 70b0 050E0000 		.4byte	.LASF998
 21218 70b4 4B       		.byte	0x4b
 21219 70b5 73       		.byte	0x73
 21220 70b6 40       		.uleb128 0x40
 21221 70b7 49050000 		.4byte	.LASF999
 21222 70bb 49050000 		.4byte	.LASF999
 21223 70bf 4B       		.byte	0x4b
ARM GAS  /tmp/ccZueut9.s 			page 379


 21224 70c0 74       		.byte	0x74
 21225 70c1 40       		.uleb128 0x40
 21226 70c2 DB000000 		.4byte	.LASF1000
 21227 70c6 DB000000 		.4byte	.LASF1000
 21228 70ca 4C       		.byte	0x4c
 21229 70cb 40       		.byte	0x40
 21230 70cc 40       		.uleb128 0x40
 21231 70cd E9170000 		.4byte	.LASF1001
 21232 70d1 E9170000 		.4byte	.LASF1001
 21233 70d5 4C       		.byte	0x4c
 21234 70d6 41       		.byte	0x41
 21235 70d7 40       		.uleb128 0x40
 21236 70d8 B6030000 		.4byte	.LASF1002
 21237 70dc B6030000 		.4byte	.LASF1002
 21238 70e0 4D       		.byte	0x4d
 21239 70e1 26       		.byte	0x26
 21240 70e2 40       		.uleb128 0x40
 21241 70e3 A70A0000 		.4byte	.LASF1003
 21242 70e7 A70A0000 		.4byte	.LASF1003
 21243 70eb 4C       		.byte	0x4c
 21244 70ec 39       		.byte	0x39
 21245 70ed 40       		.uleb128 0x40
 21246 70ee AB1E0000 		.4byte	.LASF1004
 21247 70f2 AB1E0000 		.4byte	.LASF1004
 21248 70f6 4C       		.byte	0x4c
 21249 70f7 3A       		.byte	0x3a
 21250 70f8 40       		.uleb128 0x40
 21251 70f9 C3240000 		.4byte	.LASF1005
 21252 70fd C3240000 		.4byte	.LASF1005
 21253 7101 4E       		.byte	0x4e
 21254 7102 22       		.byte	0x22
 21255 7103 40       		.uleb128 0x40
 21256 7104 82080000 		.4byte	.LASF1006
 21257 7108 82080000 		.4byte	.LASF1006
 21258 710c 4E       		.byte	0x4e
 21259 710d 1D       		.byte	0x1d
 21260 710e 40       		.uleb128 0x40
 21261 710f C51E0000 		.4byte	.LASF1007
 21262 7113 C51E0000 		.4byte	.LASF1007
 21263 7117 4E       		.byte	0x4e
 21264 7118 25       		.byte	0x25
 21265 7119 40       		.uleb128 0x40
 21266 711a 7F160000 		.4byte	.LASF1008
 21267 711e 7F160000 		.4byte	.LASF1008
 21268 7122 48       		.byte	0x48
 21269 7123 47       		.byte	0x47
 21270 7124 40       		.uleb128 0x40
 21271 7125 272C0000 		.4byte	.LASF1009
 21272 7129 272C0000 		.4byte	.LASF1009
 21273 712d 4C       		.byte	0x4c
 21274 712e 3D       		.byte	0x3d
 21275 712f 40       		.uleb128 0x40
 21276 7130 7C200000 		.4byte	.LASF1010
 21277 7134 7C200000 		.4byte	.LASF1010
 21278 7138 4C       		.byte	0x4c
 21279 7139 3E       		.byte	0x3e
 21280 713a 40       		.uleb128 0x40
ARM GAS  /tmp/ccZueut9.s 			page 380


 21281 713b EB160000 		.4byte	.LASF1011
 21282 713f EB160000 		.4byte	.LASF1011
 21283 7143 4F       		.byte	0x4f
 21284 7144 23       		.byte	0x23
 21285 7145 40       		.uleb128 0x40
 21286 7146 2C170000 		.4byte	.LASF1012
 21287 714a 2C170000 		.4byte	.LASF1012
 21288 714e 47       		.byte	0x47
 21289 714f 68       		.byte	0x68
 21290 7150 40       		.uleb128 0x40
 21291 7151 7A210000 		.4byte	.LASF1013
 21292 7155 7A210000 		.4byte	.LASF1013
 21293 7159 3D       		.byte	0x3d
 21294 715a A2       		.byte	0xa2
 21295 715b 40       		.uleb128 0x40
 21296 715c 610D0000 		.4byte	.LASF1014
 21297 7160 610D0000 		.4byte	.LASF1014
 21298 7164 50       		.byte	0x50
 21299 7165 0B       		.byte	0xb
 21300 7166 40       		.uleb128 0x40
 21301 7167 BF260000 		.4byte	.LASF1015
 21302 716b BF260000 		.4byte	.LASF1015
 21303 716f 50       		.byte	0x50
 21304 7170 0D       		.byte	0xd
 21305 7171 40       		.uleb128 0x40
 21306 7172 1E220000 		.4byte	.LASF1016
 21307 7176 1E220000 		.4byte	.LASF1016
 21308 717a 44       		.byte	0x44
 21309 717b 8A       		.byte	0x8a
 21310 717c 40       		.uleb128 0x40
 21311 717d 86010000 		.4byte	.LASF1017
 21312 7181 86010000 		.4byte	.LASF1017
 21313 7185 44       		.byte	0x44
 21314 7186 8F       		.byte	0x8f
 21315 7187 40       		.uleb128 0x40
 21316 7188 0B150000 		.4byte	.LASF1018
 21317 718c 0B150000 		.4byte	.LASF1018
 21318 7190 47       		.byte	0x47
 21319 7191 69       		.byte	0x69
 21320 7192 40       		.uleb128 0x40
 21321 7193 36140000 		.4byte	.LASF1019
 21322 7197 36140000 		.4byte	.LASF1019
 21323 719b 3D       		.byte	0x3d
 21324 719c AF       		.byte	0xaf
 21325 719d 40       		.uleb128 0x40
 21326 719e A90B0000 		.4byte	.LASF1020
 21327 71a2 A90B0000 		.4byte	.LASF1020
 21328 71a6 4C       		.byte	0x4c
 21329 71a7 37       		.byte	0x37
 21330 71a8 40       		.uleb128 0x40
 21331 71a9 48190000 		.4byte	.LASF1021
 21332 71ad 48190000 		.4byte	.LASF1021
 21333 71b1 50       		.byte	0x50
 21334 71b2 0A       		.byte	0xa
 21335 71b3 40       		.uleb128 0x40
 21336 71b4 481F0000 		.4byte	.LASF1022
 21337 71b8 481F0000 		.4byte	.LASF1022
ARM GAS  /tmp/ccZueut9.s 			page 381


 21338 71bc 4B       		.byte	0x4b
 21339 71bd 6F       		.byte	0x6f
 21340 71be 40       		.uleb128 0x40
 21341 71bf D31B0000 		.4byte	.LASF1023
 21342 71c3 D31B0000 		.4byte	.LASF1023
 21343 71c7 51       		.byte	0x51
 21344 71c8 12       		.byte	0x12
 21345 71c9 40       		.uleb128 0x40
 21346 71ca 81170000 		.4byte	.LASF1024
 21347 71ce 81170000 		.4byte	.LASF1024
 21348 71d2 44       		.byte	0x44
 21349 71d3 6B       		.byte	0x6b
 21350 71d4 40       		.uleb128 0x40
 21351 71d5 F8250000 		.4byte	.LASF1025
 21352 71d9 F8250000 		.4byte	.LASF1025
 21353 71dd 44       		.byte	0x44
 21354 71de 84       		.byte	0x84
 21355 71df 40       		.uleb128 0x40
 21356 71e0 A81F0000 		.4byte	.LASF1026
 21357 71e4 A81F0000 		.4byte	.LASF1026
 21358 71e8 52       		.byte	0x52
 21359 71e9 08       		.byte	0x8
 21360 71ea 40       		.uleb128 0x40
 21361 71eb 591C0000 		.4byte	.LASF1027
 21362 71ef 591C0000 		.4byte	.LASF1027
 21363 71f3 53       		.byte	0x53
 21364 71f4 15       		.byte	0x15
 21365 71f5 40       		.uleb128 0x40
 21366 71f6 4E070000 		.4byte	.LASF1028
 21367 71fa 4E070000 		.4byte	.LASF1028
 21368 71fe 54       		.byte	0x54
 21369 71ff 4A       		.byte	0x4a
 21370 7200 40       		.uleb128 0x40
 21371 7201 721F0000 		.4byte	.LASF1029
 21372 7205 721F0000 		.4byte	.LASF1029
 21373 7209 55       		.byte	0x55
 21374 720a 29       		.byte	0x29
 21375 720b 40       		.uleb128 0x40
 21376 720c E10A0000 		.4byte	.LASF1030
 21377 7210 E10A0000 		.4byte	.LASF1030
 21378 7214 55       		.byte	0x55
 21379 7215 24       		.byte	0x24
 21380 7216 40       		.uleb128 0x40
 21381 7217 17200000 		.4byte	.LASF1031
 21382 721b 17200000 		.4byte	.LASF1031
 21383 721f 4E       		.byte	0x4e
 21384 7220 27       		.byte	0x27
 21385 7221 40       		.uleb128 0x40
 21386 7222 7E1D0000 		.4byte	.LASF1032
 21387 7226 7E1D0000 		.4byte	.LASF1032
 21388 722a 56       		.byte	0x56
 21389 722b 08       		.byte	0x8
 21390 722c 40       		.uleb128 0x40
 21391 722d 1A050000 		.4byte	.LASF1033
 21392 7231 1A050000 		.4byte	.LASF1033
 21393 7235 57       		.byte	0x57
 21394 7236 0B       		.byte	0xb
ARM GAS  /tmp/ccZueut9.s 			page 382


 21395 7237 40       		.uleb128 0x40
 21396 7238 1C140000 		.4byte	.LASF1034
 21397 723c 1C140000 		.4byte	.LASF1034
 21398 7240 3E       		.byte	0x3e
 21399 7241 30       		.byte	0x30
 21400 7242 40       		.uleb128 0x40
 21401 7243 52170000 		.4byte	.LASF1035
 21402 7247 52170000 		.4byte	.LASF1035
 21403 724b 3E       		.byte	0x3e
 21404 724c 39       		.byte	0x39
 21405 724d 40       		.uleb128 0x40
 21406 724e 4A0D0000 		.4byte	.LASF1036
 21407 7252 4A0D0000 		.4byte	.LASF1036
 21408 7256 3E       		.byte	0x3e
 21409 7257 3A       		.byte	0x3a
 21410 7258 40       		.uleb128 0x40
 21411 7259 78270000 		.4byte	.LASF1037
 21412 725d 78270000 		.4byte	.LASF1037
 21413 7261 3E       		.byte	0x3e
 21414 7262 3E       		.byte	0x3e
 21415 7263 40       		.uleb128 0x40
 21416 7264 50020000 		.4byte	.LASF1038
 21417 7268 50020000 		.4byte	.LASF1038
 21418 726c 58       		.byte	0x58
 21419 726d AA       		.byte	0xaa
 21420 726e 40       		.uleb128 0x40
 21421 726f 97050000 		.4byte	.LASF1039
 21422 7273 97050000 		.4byte	.LASF1039
 21423 7277 4D       		.byte	0x4d
 21424 7278 30       		.byte	0x30
 21425 7279 40       		.uleb128 0x40
 21426 727a 70190000 		.4byte	.LASF1040
 21427 727e 70190000 		.4byte	.LASF1040
 21428 7282 52       		.byte	0x52
 21429 7283 09       		.byte	0x9
 21430 7284 40       		.uleb128 0x40
 21431 7285 3B100000 		.4byte	.LASF1041
 21432 7289 3B100000 		.4byte	.LASF1041
 21433 728d 4E       		.byte	0x4e
 21434 728e 29       		.byte	0x29
 21435 728f 40       		.uleb128 0x40
 21436 7290 A62A0000 		.4byte	.LASF1042
 21437 7294 A62A0000 		.4byte	.LASF1042
 21438 7298 59       		.byte	0x59
 21439 7299 88       		.byte	0x88
 21440 729a 41       		.uleb128 0x41
 21441 729b 72050000 		.4byte	.LASF1059
 21442 729f 43230000 		.4byte	.LASF1060
 21443 72a3 5B       		.byte	0x5b
 21444 72a4 00       		.byte	0
 21445 72a5 72050000 		.4byte	.LASF1059
 21446 72a9 40       		.uleb128 0x40
 21447 72aa FE010000 		.4byte	.LASF1043
 21448 72ae FE010000 		.4byte	.LASF1043
 21449 72b2 57       		.byte	0x57
 21450 72b3 10       		.byte	0x10
 21451 72b4 40       		.uleb128 0x40
ARM GAS  /tmp/ccZueut9.s 			page 383


 21452 72b5 10220000 		.4byte	.LASF1044
 21453 72b9 10220000 		.4byte	.LASF1044
 21454 72bd 54       		.byte	0x54
 21455 72be 44       		.byte	0x44
 21456 72bf 40       		.uleb128 0x40
 21457 72c0 96010000 		.4byte	.LASF1045
 21458 72c4 96010000 		.4byte	.LASF1045
 21459 72c8 40       		.byte	0x40
 21460 72c9 4F       		.byte	0x4f
 21461 72ca 40       		.uleb128 0x40
 21462 72cb 50160000 		.4byte	.LASF1046
 21463 72cf 50160000 		.4byte	.LASF1046
 21464 72d3 40       		.byte	0x40
 21465 72d4 3B       		.byte	0x3b
 21466 72d5 40       		.uleb128 0x40
 21467 72d6 E6200000 		.4byte	.LASF1047
 21468 72da E6200000 		.4byte	.LASF1047
 21469 72de 53       		.byte	0x53
 21470 72df 1F       		.byte	0x1f
 21471 72e0 40       		.uleb128 0x40
 21472 72e1 82220000 		.4byte	.LASF1048
 21473 72e5 82220000 		.4byte	.LASF1048
 21474 72e9 53       		.byte	0x53
 21475 72ea 29       		.byte	0x29
 21476 72eb 40       		.uleb128 0x40
 21477 72ec 89000000 		.4byte	.LASF1049
 21478 72f0 89000000 		.4byte	.LASF1049
 21479 72f4 54       		.byte	0x54
 21480 72f5 51       		.byte	0x51
 21481 72f6 40       		.uleb128 0x40
 21482 72f7 A1240000 		.4byte	.LASF1050
 21483 72fb A1240000 		.4byte	.LASF1050
 21484 72ff 41       		.byte	0x41
 21485 7300 12       		.byte	0x12
 21486 7301 40       		.uleb128 0x40
 21487 7302 051C0000 		.4byte	.LASF1051
 21488 7306 051C0000 		.4byte	.LASF1051
 21489 730a 55       		.byte	0x55
 21490 730b 2E       		.byte	0x2e
 21491 730c 40       		.uleb128 0x40
 21492 730d 000F0000 		.4byte	.LASF1052
 21493 7311 000F0000 		.4byte	.LASF1052
 21494 7315 5A       		.byte	0x5a
 21495 7316 35       		.byte	0x35
 21496 7317 40       		.uleb128 0x40
 21497 7318 AD0E0000 		.4byte	.LASF1053
 21498 731c AD0E0000 		.4byte	.LASF1053
 21499 7320 45       		.byte	0x45
 21500 7321 25       		.byte	0x25
 21501 7322 40       		.uleb128 0x40
 21502 7323 0A030000 		.4byte	.LASF1054
 21503 7327 0A030000 		.4byte	.LASF1054
 21504 732b 40       		.byte	0x40
 21505 732c 49       		.byte	0x49
 21506 732d 00       		.byte	0
 21507              		.section	.debug_abbrev,"",%progbits
 21508              	.Ldebug_abbrev0:
ARM GAS  /tmp/ccZueut9.s 			page 384


 21509 0000 01       		.uleb128 0x1
 21510 0001 11       		.uleb128 0x11
 21511 0002 01       		.byte	0x1
 21512 0003 25       		.uleb128 0x25
 21513 0004 0E       		.uleb128 0xe
 21514 0005 13       		.uleb128 0x13
 21515 0006 0B       		.uleb128 0xb
 21516 0007 03       		.uleb128 0x3
 21517 0008 0E       		.uleb128 0xe
 21518 0009 1B       		.uleb128 0x1b
 21519 000a 0E       		.uleb128 0xe
 21520 000b 55       		.uleb128 0x55
 21521 000c 17       		.uleb128 0x17
 21522 000d 11       		.uleb128 0x11
 21523 000e 01       		.uleb128 0x1
 21524 000f 10       		.uleb128 0x10
 21525 0010 17       		.uleb128 0x17
 21526 0011 00       		.byte	0
 21527 0012 00       		.byte	0
 21528 0013 02       		.uleb128 0x2
 21529 0014 24       		.uleb128 0x24
 21530 0015 00       		.byte	0
 21531 0016 0B       		.uleb128 0xb
 21532 0017 0B       		.uleb128 0xb
 21533 0018 3E       		.uleb128 0x3e
 21534 0019 0B       		.uleb128 0xb
 21535 001a 03       		.uleb128 0x3
 21536 001b 08       		.uleb128 0x8
 21537 001c 00       		.byte	0
 21538 001d 00       		.byte	0
 21539 001e 03       		.uleb128 0x3
 21540 001f 16       		.uleb128 0x16
 21541 0020 00       		.byte	0
 21542 0021 03       		.uleb128 0x3
 21543 0022 0E       		.uleb128 0xe
 21544 0023 3A       		.uleb128 0x3a
 21545 0024 0B       		.uleb128 0xb
 21546 0025 3B       		.uleb128 0x3b
 21547 0026 0B       		.uleb128 0xb
 21548 0027 49       		.uleb128 0x49
 21549 0028 13       		.uleb128 0x13
 21550 0029 00       		.byte	0
 21551 002a 00       		.byte	0
 21552 002b 04       		.uleb128 0x4
 21553 002c 24       		.uleb128 0x24
 21554 002d 00       		.byte	0
 21555 002e 0B       		.uleb128 0xb
 21556 002f 0B       		.uleb128 0xb
 21557 0030 3E       		.uleb128 0x3e
 21558 0031 0B       		.uleb128 0xb
 21559 0032 03       		.uleb128 0x3
 21560 0033 0E       		.uleb128 0xe
 21561 0034 00       		.byte	0
 21562 0035 00       		.byte	0
 21563 0036 05       		.uleb128 0x5
 21564 0037 26       		.uleb128 0x26
 21565 0038 00       		.byte	0
ARM GAS  /tmp/ccZueut9.s 			page 385


 21566 0039 49       		.uleb128 0x49
 21567 003a 13       		.uleb128 0x13
 21568 003b 00       		.byte	0
 21569 003c 00       		.byte	0
 21570 003d 06       		.uleb128 0x6
 21571 003e 35       		.uleb128 0x35
 21572 003f 00       		.byte	0
 21573 0040 49       		.uleb128 0x49
 21574 0041 13       		.uleb128 0x13
 21575 0042 00       		.byte	0
 21576 0043 00       		.byte	0
 21577 0044 07       		.uleb128 0x7
 21578 0045 13       		.uleb128 0x13
 21579 0046 01       		.byte	0x1
 21580 0047 03       		.uleb128 0x3
 21581 0048 0E       		.uleb128 0xe
 21582 0049 0B       		.uleb128 0xb
 21583 004a 0B       		.uleb128 0xb
 21584 004b 3A       		.uleb128 0x3a
 21585 004c 0B       		.uleb128 0xb
 21586 004d 3B       		.uleb128 0x3b
 21587 004e 0B       		.uleb128 0xb
 21588 004f 01       		.uleb128 0x1
 21589 0050 13       		.uleb128 0x13
 21590 0051 00       		.byte	0
 21591 0052 00       		.byte	0
 21592 0053 08       		.uleb128 0x8
 21593 0054 0D       		.uleb128 0xd
 21594 0055 00       		.byte	0
 21595 0056 03       		.uleb128 0x3
 21596 0057 0E       		.uleb128 0xe
 21597 0058 3A       		.uleb128 0x3a
 21598 0059 0B       		.uleb128 0xb
 21599 005a 3B       		.uleb128 0x3b
 21600 005b 0B       		.uleb128 0xb
 21601 005c 49       		.uleb128 0x49
 21602 005d 13       		.uleb128 0x13
 21603 005e 38       		.uleb128 0x38
 21604 005f 0B       		.uleb128 0xb
 21605 0060 00       		.byte	0
 21606 0061 00       		.byte	0
 21607 0062 09       		.uleb128 0x9
 21608 0063 0D       		.uleb128 0xd
 21609 0064 00       		.byte	0
 21610 0065 03       		.uleb128 0x3
 21611 0066 08       		.uleb128 0x8
 21612 0067 3A       		.uleb128 0x3a
 21613 0068 0B       		.uleb128 0xb
 21614 0069 3B       		.uleb128 0x3b
 21615 006a 05       		.uleb128 0x5
 21616 006b 49       		.uleb128 0x49
 21617 006c 13       		.uleb128 0x13
 21618 006d 38       		.uleb128 0x38
 21619 006e 0B       		.uleb128 0xb
 21620 006f 00       		.byte	0
 21621 0070 00       		.byte	0
 21622 0071 0A       		.uleb128 0xa
ARM GAS  /tmp/ccZueut9.s 			page 386


 21623 0072 0D       		.uleb128 0xd
 21624 0073 00       		.byte	0
 21625 0074 03       		.uleb128 0x3
 21626 0075 0E       		.uleb128 0xe
 21627 0076 3A       		.uleb128 0x3a
 21628 0077 0B       		.uleb128 0xb
 21629 0078 3B       		.uleb128 0x3b
 21630 0079 05       		.uleb128 0x5
 21631 007a 49       		.uleb128 0x49
 21632 007b 13       		.uleb128 0x13
 21633 007c 38       		.uleb128 0x38
 21634 007d 0B       		.uleb128 0xb
 21635 007e 00       		.byte	0
 21636 007f 00       		.byte	0
 21637 0080 0B       		.uleb128 0xb
 21638 0081 0F       		.uleb128 0xf
 21639 0082 00       		.byte	0
 21640 0083 0B       		.uleb128 0xb
 21641 0084 0B       		.uleb128 0xb
 21642 0085 49       		.uleb128 0x49
 21643 0086 13       		.uleb128 0x13
 21644 0087 00       		.byte	0
 21645 0088 00       		.byte	0
 21646 0089 0C       		.uleb128 0xc
 21647 008a 13       		.uleb128 0x13
 21648 008b 01       		.byte	0x1
 21649 008c 03       		.uleb128 0x3
 21650 008d 0E       		.uleb128 0xe
 21651 008e 0B       		.uleb128 0xb
 21652 008f 0B       		.uleb128 0xb
 21653 0090 3A       		.uleb128 0x3a
 21654 0091 0B       		.uleb128 0xb
 21655 0092 3B       		.uleb128 0x3b
 21656 0093 05       		.uleb128 0x5
 21657 0094 01       		.uleb128 0x1
 21658 0095 13       		.uleb128 0x13
 21659 0096 00       		.byte	0
 21660 0097 00       		.byte	0
 21661 0098 0D       		.uleb128 0xd
 21662 0099 15       		.uleb128 0x15
 21663 009a 01       		.byte	0x1
 21664 009b 27       		.uleb128 0x27
 21665 009c 19       		.uleb128 0x19
 21666 009d 01       		.uleb128 0x1
 21667 009e 13       		.uleb128 0x13
 21668 009f 00       		.byte	0
 21669 00a0 00       		.byte	0
 21670 00a1 0E       		.uleb128 0xe
 21671 00a2 05       		.uleb128 0x5
 21672 00a3 00       		.byte	0
 21673 00a4 49       		.uleb128 0x49
 21674 00a5 13       		.uleb128 0x13
 21675 00a6 00       		.byte	0
 21676 00a7 00       		.byte	0
 21677 00a8 0F       		.uleb128 0xf
 21678 00a9 0F       		.uleb128 0xf
 21679 00aa 00       		.byte	0
ARM GAS  /tmp/ccZueut9.s 			page 387


 21680 00ab 0B       		.uleb128 0xb
 21681 00ac 0B       		.uleb128 0xb
 21682 00ad 00       		.byte	0
 21683 00ae 00       		.byte	0
 21684 00af 10       		.uleb128 0x10
 21685 00b0 13       		.uleb128 0x13
 21686 00b1 01       		.byte	0x1
 21687 00b2 03       		.uleb128 0x3
 21688 00b3 0E       		.uleb128 0xe
 21689 00b4 0B       		.uleb128 0xb
 21690 00b5 05       		.uleb128 0x5
 21691 00b6 3A       		.uleb128 0x3a
 21692 00b7 0B       		.uleb128 0xb
 21693 00b8 3B       		.uleb128 0x3b
 21694 00b9 05       		.uleb128 0x5
 21695 00ba 01       		.uleb128 0x1
 21696 00bb 13       		.uleb128 0x13
 21697 00bc 00       		.byte	0
 21698 00bd 00       		.byte	0
 21699 00be 11       		.uleb128 0x11
 21700 00bf 0D       		.uleb128 0xd
 21701 00c0 00       		.byte	0
 21702 00c1 03       		.uleb128 0x3
 21703 00c2 0E       		.uleb128 0xe
 21704 00c3 3A       		.uleb128 0x3a
 21705 00c4 0B       		.uleb128 0xb
 21706 00c5 3B       		.uleb128 0x3b
 21707 00c6 05       		.uleb128 0x5
 21708 00c7 49       		.uleb128 0x49
 21709 00c8 13       		.uleb128 0x13
 21710 00c9 38       		.uleb128 0x38
 21711 00ca 05       		.uleb128 0x5
 21712 00cb 00       		.byte	0
 21713 00cc 00       		.byte	0
 21714 00cd 12       		.uleb128 0x12
 21715 00ce 0D       		.uleb128 0xd
 21716 00cf 00       		.byte	0
 21717 00d0 03       		.uleb128 0x3
 21718 00d1 08       		.uleb128 0x8
 21719 00d2 3A       		.uleb128 0x3a
 21720 00d3 0B       		.uleb128 0xb
 21721 00d4 3B       		.uleb128 0x3b
 21722 00d5 05       		.uleb128 0x5
 21723 00d6 49       		.uleb128 0x49
 21724 00d7 13       		.uleb128 0x13
 21725 00d8 38       		.uleb128 0x38
 21726 00d9 05       		.uleb128 0x5
 21727 00da 00       		.byte	0
 21728 00db 00       		.byte	0
 21729 00dc 13       		.uleb128 0x13
 21730 00dd 01       		.uleb128 0x1
 21731 00de 01       		.byte	0x1
 21732 00df 49       		.uleb128 0x49
 21733 00e0 13       		.uleb128 0x13
 21734 00e1 01       		.uleb128 0x1
 21735 00e2 13       		.uleb128 0x13
 21736 00e3 00       		.byte	0
ARM GAS  /tmp/ccZueut9.s 			page 388


 21737 00e4 00       		.byte	0
 21738 00e5 14       		.uleb128 0x14
 21739 00e6 21       		.uleb128 0x21
 21740 00e7 00       		.byte	0
 21741 00e8 49       		.uleb128 0x49
 21742 00e9 13       		.uleb128 0x13
 21743 00ea 2F       		.uleb128 0x2f
 21744 00eb 0B       		.uleb128 0xb
 21745 00ec 00       		.byte	0
 21746 00ed 00       		.byte	0
 21747 00ee 15       		.uleb128 0x15
 21748 00ef 34       		.uleb128 0x34
 21749 00f0 00       		.byte	0
 21750 00f1 03       		.uleb128 0x3
 21751 00f2 0E       		.uleb128 0xe
 21752 00f3 3A       		.uleb128 0x3a
 21753 00f4 0B       		.uleb128 0xb
 21754 00f5 3B       		.uleb128 0x3b
 21755 00f6 05       		.uleb128 0x5
 21756 00f7 49       		.uleb128 0x49
 21757 00f8 13       		.uleb128 0x13
 21758 00f9 3F       		.uleb128 0x3f
 21759 00fa 19       		.uleb128 0x19
 21760 00fb 3C       		.uleb128 0x3c
 21761 00fc 19       		.uleb128 0x19
 21762 00fd 00       		.byte	0
 21763 00fe 00       		.byte	0
 21764 00ff 16       		.uleb128 0x16
 21765 0100 34       		.uleb128 0x34
 21766 0101 00       		.byte	0
 21767 0102 03       		.uleb128 0x3
 21768 0103 0E       		.uleb128 0xe
 21769 0104 3A       		.uleb128 0x3a
 21770 0105 0B       		.uleb128 0xb
 21771 0106 3B       		.uleb128 0x3b
 21772 0107 0B       		.uleb128 0xb
 21773 0108 49       		.uleb128 0x49
 21774 0109 13       		.uleb128 0x13
 21775 010a 3F       		.uleb128 0x3f
 21776 010b 19       		.uleb128 0x19
 21777 010c 3C       		.uleb128 0x3c
 21778 010d 19       		.uleb128 0x19
 21779 010e 00       		.byte	0
 21780 010f 00       		.byte	0
 21781 0110 17       		.uleb128 0x17
 21782 0111 13       		.uleb128 0x13
 21783 0112 01       		.byte	0x1
 21784 0113 0B       		.uleb128 0xb
 21785 0114 0B       		.uleb128 0xb
 21786 0115 3A       		.uleb128 0x3a
 21787 0116 0B       		.uleb128 0xb
 21788 0117 3B       		.uleb128 0x3b
 21789 0118 0B       		.uleb128 0xb
 21790 0119 01       		.uleb128 0x1
 21791 011a 13       		.uleb128 0x13
 21792 011b 00       		.byte	0
 21793 011c 00       		.byte	0
ARM GAS  /tmp/ccZueut9.s 			page 389


 21794 011d 18       		.uleb128 0x18
 21795 011e 0D       		.uleb128 0xd
 21796 011f 00       		.byte	0
 21797 0120 03       		.uleb128 0x3
 21798 0121 08       		.uleb128 0x8
 21799 0122 3A       		.uleb128 0x3a
 21800 0123 0B       		.uleb128 0xb
 21801 0124 3B       		.uleb128 0x3b
 21802 0125 0B       		.uleb128 0xb
 21803 0126 49       		.uleb128 0x49
 21804 0127 13       		.uleb128 0x13
 21805 0128 38       		.uleb128 0x38
 21806 0129 0B       		.uleb128 0xb
 21807 012a 00       		.byte	0
 21808 012b 00       		.byte	0
 21809 012c 19       		.uleb128 0x19
 21810 012d 13       		.uleb128 0x13
 21811 012e 01       		.byte	0x1
 21812 012f 0B       		.uleb128 0xb
 21813 0130 0B       		.uleb128 0xb
 21814 0131 3A       		.uleb128 0x3a
 21815 0132 0B       		.uleb128 0xb
 21816 0133 3B       		.uleb128 0x3b
 21817 0134 05       		.uleb128 0x5
 21818 0135 01       		.uleb128 0x1
 21819 0136 13       		.uleb128 0x13
 21820 0137 00       		.byte	0
 21821 0138 00       		.byte	0
 21822 0139 1A       		.uleb128 0x1a
 21823 013a 16       		.uleb128 0x16
 21824 013b 00       		.byte	0
 21825 013c 03       		.uleb128 0x3
 21826 013d 0E       		.uleb128 0xe
 21827 013e 3A       		.uleb128 0x3a
 21828 013f 0B       		.uleb128 0xb
 21829 0140 3B       		.uleb128 0x3b
 21830 0141 05       		.uleb128 0x5
 21831 0142 49       		.uleb128 0x49
 21832 0143 13       		.uleb128 0x13
 21833 0144 00       		.byte	0
 21834 0145 00       		.byte	0
 21835 0146 1B       		.uleb128 0x1b
 21836 0147 13       		.uleb128 0x13
 21837 0148 01       		.byte	0x1
 21838 0149 0B       		.uleb128 0xb
 21839 014a 05       		.uleb128 0x5
 21840 014b 3A       		.uleb128 0x3a
 21841 014c 0B       		.uleb128 0xb
 21842 014d 3B       		.uleb128 0x3b
 21843 014e 05       		.uleb128 0x5
 21844 014f 01       		.uleb128 0x1
 21845 0150 13       		.uleb128 0x13
 21846 0151 00       		.byte	0
 21847 0152 00       		.byte	0
 21848 0153 1C       		.uleb128 0x1c
 21849 0154 13       		.uleb128 0x13
 21850 0155 01       		.byte	0x1
ARM GAS  /tmp/ccZueut9.s 			page 390


 21851 0156 0B       		.uleb128 0xb
 21852 0157 05       		.uleb128 0x5
 21853 0158 3A       		.uleb128 0x3a
 21854 0159 0B       		.uleb128 0xb
 21855 015a 3B       		.uleb128 0x3b
 21856 015b 0B       		.uleb128 0xb
 21857 015c 01       		.uleb128 0x1
 21858 015d 13       		.uleb128 0x13
 21859 015e 00       		.byte	0
 21860 015f 00       		.byte	0
 21861 0160 1D       		.uleb128 0x1d
 21862 0161 17       		.uleb128 0x17
 21863 0162 01       		.byte	0x1
 21864 0163 0B       		.uleb128 0xb
 21865 0164 0B       		.uleb128 0xb
 21866 0165 3A       		.uleb128 0x3a
 21867 0166 0B       		.uleb128 0xb
 21868 0167 3B       		.uleb128 0x3b
 21869 0168 0B       		.uleb128 0xb
 21870 0169 01       		.uleb128 0x1
 21871 016a 13       		.uleb128 0x13
 21872 016b 00       		.byte	0
 21873 016c 00       		.byte	0
 21874 016d 1E       		.uleb128 0x1e
 21875 016e 0D       		.uleb128 0xd
 21876 016f 00       		.byte	0
 21877 0170 03       		.uleb128 0x3
 21878 0171 0E       		.uleb128 0xe
 21879 0172 3A       		.uleb128 0x3a
 21880 0173 0B       		.uleb128 0xb
 21881 0174 3B       		.uleb128 0x3b
 21882 0175 05       		.uleb128 0x5
 21883 0176 49       		.uleb128 0x49
 21884 0177 13       		.uleb128 0x13
 21885 0178 00       		.byte	0
 21886 0179 00       		.byte	0
 21887 017a 1F       		.uleb128 0x1f
 21888 017b 34       		.uleb128 0x34
 21889 017c 00       		.byte	0
 21890 017d 03       		.uleb128 0x3
 21891 017e 08       		.uleb128 0x8
 21892 017f 3A       		.uleb128 0x3a
 21893 0180 0B       		.uleb128 0xb
 21894 0181 3B       		.uleb128 0x3b
 21895 0182 05       		.uleb128 0x5
 21896 0183 49       		.uleb128 0x49
 21897 0184 13       		.uleb128 0x13
 21898 0185 3F       		.uleb128 0x3f
 21899 0186 19       		.uleb128 0x19
 21900 0187 3C       		.uleb128 0x3c
 21901 0188 19       		.uleb128 0x19
 21902 0189 00       		.byte	0
 21903 018a 00       		.byte	0
 21904 018b 20       		.uleb128 0x20
 21905 018c 15       		.uleb128 0x15
 21906 018d 01       		.byte	0x1
 21907 018e 27       		.uleb128 0x27
ARM GAS  /tmp/ccZueut9.s 			page 391


 21908 018f 19       		.uleb128 0x19
 21909 0190 49       		.uleb128 0x49
 21910 0191 13       		.uleb128 0x13
 21911 0192 01       		.uleb128 0x1
 21912 0193 13       		.uleb128 0x13
 21913 0194 00       		.byte	0
 21914 0195 00       		.byte	0
 21915 0196 21       		.uleb128 0x21
 21916 0197 04       		.uleb128 0x4
 21917 0198 01       		.byte	0x1
 21918 0199 3E       		.uleb128 0x3e
 21919 019a 0B       		.uleb128 0xb
 21920 019b 0B       		.uleb128 0xb
 21921 019c 0B       		.uleb128 0xb
 21922 019d 49       		.uleb128 0x49
 21923 019e 13       		.uleb128 0x13
 21924 019f 3A       		.uleb128 0x3a
 21925 01a0 0B       		.uleb128 0xb
 21926 01a1 3B       		.uleb128 0x3b
 21927 01a2 0B       		.uleb128 0xb
 21928 01a3 01       		.uleb128 0x1
 21929 01a4 13       		.uleb128 0x13
 21930 01a5 00       		.byte	0
 21931 01a6 00       		.byte	0
 21932 01a7 22       		.uleb128 0x22
 21933 01a8 28       		.uleb128 0x28
 21934 01a9 00       		.byte	0
 21935 01aa 03       		.uleb128 0x3
 21936 01ab 0E       		.uleb128 0xe
 21937 01ac 1C       		.uleb128 0x1c
 21938 01ad 0B       		.uleb128 0xb
 21939 01ae 00       		.byte	0
 21940 01af 00       		.byte	0
 21941 01b0 23       		.uleb128 0x23
 21942 01b1 0D       		.uleb128 0xd
 21943 01b2 00       		.byte	0
 21944 01b3 03       		.uleb128 0x3
 21945 01b4 08       		.uleb128 0x8
 21946 01b5 3A       		.uleb128 0x3a
 21947 01b6 0B       		.uleb128 0xb
 21948 01b7 3B       		.uleb128 0x3b
 21949 01b8 0B       		.uleb128 0xb
 21950 01b9 49       		.uleb128 0x49
 21951 01ba 13       		.uleb128 0x13
 21952 01bb 00       		.byte	0
 21953 01bc 00       		.byte	0
 21954 01bd 24       		.uleb128 0x24
 21955 01be 04       		.uleb128 0x4
 21956 01bf 01       		.byte	0x1
 21957 01c0 3E       		.uleb128 0x3e
 21958 01c1 0B       		.uleb128 0xb
 21959 01c2 0B       		.uleb128 0xb
 21960 01c3 0B       		.uleb128 0xb
 21961 01c4 49       		.uleb128 0x49
 21962 01c5 13       		.uleb128 0x13
 21963 01c6 3A       		.uleb128 0x3a
 21964 01c7 0B       		.uleb128 0xb
ARM GAS  /tmp/ccZueut9.s 			page 392


 21965 01c8 3B       		.uleb128 0x3b
 21966 01c9 05       		.uleb128 0x5
 21967 01ca 01       		.uleb128 0x1
 21968 01cb 13       		.uleb128 0x13
 21969 01cc 00       		.byte	0
 21970 01cd 00       		.byte	0
 21971 01ce 25       		.uleb128 0x25
 21972 01cf 26       		.uleb128 0x26
 21973 01d0 00       		.byte	0
 21974 01d1 00       		.byte	0
 21975 01d2 00       		.byte	0
 21976 01d3 26       		.uleb128 0x26
 21977 01d4 13       		.uleb128 0x13
 21978 01d5 01       		.byte	0x1
 21979 01d6 03       		.uleb128 0x3
 21980 01d7 0E       		.uleb128 0xe
 21981 01d8 0B       		.uleb128 0xb
 21982 01d9 05       		.uleb128 0x5
 21983 01da 3A       		.uleb128 0x3a
 21984 01db 0B       		.uleb128 0xb
 21985 01dc 3B       		.uleb128 0x3b
 21986 01dd 0B       		.uleb128 0xb
 21987 01de 01       		.uleb128 0x1
 21988 01df 13       		.uleb128 0x13
 21989 01e0 00       		.byte	0
 21990 01e1 00       		.byte	0
 21991 01e2 27       		.uleb128 0x27
 21992 01e3 0D       		.uleb128 0xd
 21993 01e4 00       		.byte	0
 21994 01e5 03       		.uleb128 0x3
 21995 01e6 0E       		.uleb128 0xe
 21996 01e7 3A       		.uleb128 0x3a
 21997 01e8 0B       		.uleb128 0xb
 21998 01e9 3B       		.uleb128 0x3b
 21999 01ea 0B       		.uleb128 0xb
 22000 01eb 49       		.uleb128 0x49
 22001 01ec 13       		.uleb128 0x13
 22002 01ed 38       		.uleb128 0x38
 22003 01ee 05       		.uleb128 0x5
 22004 01ef 00       		.byte	0
 22005 01f0 00       		.byte	0
 22006 01f1 28       		.uleb128 0x28
 22007 01f2 13       		.uleb128 0x13
 22008 01f3 01       		.byte	0x1
 22009 01f4 0B       		.uleb128 0xb
 22010 01f5 06       		.uleb128 0x6
 22011 01f6 3A       		.uleb128 0x3a
 22012 01f7 0B       		.uleb128 0xb
 22013 01f8 3B       		.uleb128 0x3b
 22014 01f9 0B       		.uleb128 0xb
 22015 01fa 01       		.uleb128 0x1
 22016 01fb 13       		.uleb128 0x13
 22017 01fc 00       		.byte	0
 22018 01fd 00       		.byte	0
 22019 01fe 29       		.uleb128 0x29
 22020 01ff 0D       		.uleb128 0xd
 22021 0200 00       		.byte	0
ARM GAS  /tmp/ccZueut9.s 			page 393


 22022 0201 03       		.uleb128 0x3
 22023 0202 08       		.uleb128 0x8
 22024 0203 3A       		.uleb128 0x3a
 22025 0204 0B       		.uleb128 0xb
 22026 0205 3B       		.uleb128 0x3b
 22027 0206 0B       		.uleb128 0xb
 22028 0207 49       		.uleb128 0x49
 22029 0208 13       		.uleb128 0x13
 22030 0209 38       		.uleb128 0x38
 22031 020a 05       		.uleb128 0x5
 22032 020b 00       		.byte	0
 22033 020c 00       		.byte	0
 22034 020d 2A       		.uleb128 0x2a
 22035 020e 21       		.uleb128 0x21
 22036 020f 00       		.byte	0
 22037 0210 49       		.uleb128 0x49
 22038 0211 13       		.uleb128 0x13
 22039 0212 2F       		.uleb128 0x2f
 22040 0213 05       		.uleb128 0x5
 22041 0214 00       		.byte	0
 22042 0215 00       		.byte	0
 22043 0216 2B       		.uleb128 0x2b
 22044 0217 0D       		.uleb128 0xd
 22045 0218 00       		.byte	0
 22046 0219 03       		.uleb128 0x3
 22047 021a 0E       		.uleb128 0xe
 22048 021b 3A       		.uleb128 0x3a
 22049 021c 0B       		.uleb128 0xb
 22050 021d 3B       		.uleb128 0x3b
 22051 021e 0B       		.uleb128 0xb
 22052 021f 49       		.uleb128 0x49
 22053 0220 13       		.uleb128 0x13
 22054 0221 00       		.byte	0
 22055 0222 00       		.byte	0
 22056 0223 2C       		.uleb128 0x2c
 22057 0224 17       		.uleb128 0x17
 22058 0225 01       		.byte	0x1
 22059 0226 0B       		.uleb128 0xb
 22060 0227 0B       		.uleb128 0xb
 22061 0228 3A       		.uleb128 0x3a
 22062 0229 0B       		.uleb128 0xb
 22063 022a 3B       		.uleb128 0x3b
 22064 022b 05       		.uleb128 0x5
 22065 022c 01       		.uleb128 0x1
 22066 022d 13       		.uleb128 0x13
 22067 022e 00       		.byte	0
 22068 022f 00       		.byte	0
 22069 0230 2D       		.uleb128 0x2d
 22070 0231 13       		.uleb128 0x13
 22071 0232 00       		.byte	0
 22072 0233 03       		.uleb128 0x3
 22073 0234 0E       		.uleb128 0xe
 22074 0235 3C       		.uleb128 0x3c
 22075 0236 19       		.uleb128 0x19
 22076 0237 00       		.byte	0
 22077 0238 00       		.byte	0
 22078 0239 2E       		.uleb128 0x2e
ARM GAS  /tmp/ccZueut9.s 			page 394


 22079 023a 15       		.uleb128 0x15
 22080 023b 00       		.byte	0
 22081 023c 27       		.uleb128 0x27
 22082 023d 19       		.uleb128 0x19
 22083 023e 00       		.byte	0
 22084 023f 00       		.byte	0
 22085 0240 2F       		.uleb128 0x2f
 22086 0241 34       		.uleb128 0x34
 22087 0242 00       		.byte	0
 22088 0243 03       		.uleb128 0x3
 22089 0244 08       		.uleb128 0x8
 22090 0245 3A       		.uleb128 0x3a
 22091 0246 0B       		.uleb128 0xb
 22092 0247 3B       		.uleb128 0x3b
 22093 0248 0B       		.uleb128 0xb
 22094 0249 49       		.uleb128 0x49
 22095 024a 13       		.uleb128 0x13
 22096 024b 3F       		.uleb128 0x3f
 22097 024c 19       		.uleb128 0x19
 22098 024d 3C       		.uleb128 0x3c
 22099 024e 19       		.uleb128 0x19
 22100 024f 00       		.byte	0
 22101 0250 00       		.byte	0
 22102 0251 30       		.uleb128 0x30
 22103 0252 21       		.uleb128 0x21
 22104 0253 00       		.byte	0
 22105 0254 00       		.byte	0
 22106 0255 00       		.byte	0
 22107 0256 31       		.uleb128 0x31
 22108 0257 2E       		.uleb128 0x2e
 22109 0258 01       		.byte	0x1
 22110 0259 3F       		.uleb128 0x3f
 22111 025a 19       		.uleb128 0x19
 22112 025b 03       		.uleb128 0x3
 22113 025c 0E       		.uleb128 0xe
 22114 025d 3A       		.uleb128 0x3a
 22115 025e 0B       		.uleb128 0xb
 22116 025f 3B       		.uleb128 0x3b
 22117 0260 0B       		.uleb128 0xb
 22118 0261 27       		.uleb128 0x27
 22119 0262 19       		.uleb128 0x19
 22120 0263 49       		.uleb128 0x49
 22121 0264 13       		.uleb128 0x13
 22122 0265 11       		.uleb128 0x11
 22123 0266 01       		.uleb128 0x1
 22124 0267 12       		.uleb128 0x12
 22125 0268 06       		.uleb128 0x6
 22126 0269 40       		.uleb128 0x40
 22127 026a 18       		.uleb128 0x18
 22128 026b 9742     		.uleb128 0x2117
 22129 026d 19       		.uleb128 0x19
 22130 026e 01       		.uleb128 0x1
 22131 026f 13       		.uleb128 0x13
 22132 0270 00       		.byte	0
 22133 0271 00       		.byte	0
 22134 0272 32       		.uleb128 0x32
 22135 0273 34       		.uleb128 0x34
ARM GAS  /tmp/ccZueut9.s 			page 395


 22136 0274 00       		.byte	0
 22137 0275 03       		.uleb128 0x3
 22138 0276 08       		.uleb128 0x8
 22139 0277 3A       		.uleb128 0x3a
 22140 0278 0B       		.uleb128 0xb
 22141 0279 3B       		.uleb128 0x3b
 22142 027a 0B       		.uleb128 0xb
 22143 027b 49       		.uleb128 0x49
 22144 027c 13       		.uleb128 0x13
 22145 027d 02       		.uleb128 0x2
 22146 027e 18       		.uleb128 0x18
 22147 027f 00       		.byte	0
 22148 0280 00       		.byte	0
 22149 0281 33       		.uleb128 0x33
 22150 0282 34       		.uleb128 0x34
 22151 0283 00       		.byte	0
 22152 0284 03       		.uleb128 0x3
 22153 0285 0E       		.uleb128 0xe
 22154 0286 3A       		.uleb128 0x3a
 22155 0287 0B       		.uleb128 0xb
 22156 0288 3B       		.uleb128 0x3b
 22157 0289 0B       		.uleb128 0xb
 22158 028a 49       		.uleb128 0x49
 22159 028b 13       		.uleb128 0x13
 22160 028c 02       		.uleb128 0x2
 22161 028d 18       		.uleb128 0x18
 22162 028e 00       		.byte	0
 22163 028f 00       		.byte	0
 22164 0290 34       		.uleb128 0x34
 22165 0291 34       		.uleb128 0x34
 22166 0292 00       		.byte	0
 22167 0293 03       		.uleb128 0x3
 22168 0294 08       		.uleb128 0x8
 22169 0295 3A       		.uleb128 0x3a
 22170 0296 0B       		.uleb128 0xb
 22171 0297 3B       		.uleb128 0x3b
 22172 0298 0B       		.uleb128 0xb
 22173 0299 49       		.uleb128 0x49
 22174 029a 13       		.uleb128 0x13
 22175 029b 00       		.byte	0
 22176 029c 00       		.byte	0
 22177 029d 35       		.uleb128 0x35
 22178 029e 34       		.uleb128 0x34
 22179 029f 00       		.byte	0
 22180 02a0 03       		.uleb128 0x3
 22181 02a1 08       		.uleb128 0x8
 22182 02a2 3A       		.uleb128 0x3a
 22183 02a3 0B       		.uleb128 0xb
 22184 02a4 3B       		.uleb128 0x3b
 22185 02a5 0B       		.uleb128 0xb
 22186 02a6 49       		.uleb128 0x49
 22187 02a7 13       		.uleb128 0x13
 22188 02a8 02       		.uleb128 0x2
 22189 02a9 17       		.uleb128 0x17
 22190 02aa 00       		.byte	0
 22191 02ab 00       		.byte	0
 22192 02ac 36       		.uleb128 0x36
ARM GAS  /tmp/ccZueut9.s 			page 396


 22193 02ad 34       		.uleb128 0x34
 22194 02ae 00       		.byte	0
 22195 02af 03       		.uleb128 0x3
 22196 02b0 0E       		.uleb128 0xe
 22197 02b1 3A       		.uleb128 0x3a
 22198 02b2 0B       		.uleb128 0xb
 22199 02b3 3B       		.uleb128 0x3b
 22200 02b4 0B       		.uleb128 0xb
 22201 02b5 49       		.uleb128 0x49
 22202 02b6 13       		.uleb128 0x13
 22203 02b7 02       		.uleb128 0x2
 22204 02b8 17       		.uleb128 0x17
 22205 02b9 00       		.byte	0
 22206 02ba 00       		.byte	0
 22207 02bb 37       		.uleb128 0x37
 22208 02bc 34       		.uleb128 0x34
 22209 02bd 00       		.byte	0
 22210 02be 03       		.uleb128 0x3
 22211 02bf 0E       		.uleb128 0xe
 22212 02c0 3A       		.uleb128 0x3a
 22213 02c1 0B       		.uleb128 0xb
 22214 02c2 3B       		.uleb128 0x3b
 22215 02c3 0B       		.uleb128 0xb
 22216 02c4 49       		.uleb128 0x49
 22217 02c5 13       		.uleb128 0x13
 22218 02c6 1C       		.uleb128 0x1c
 22219 02c7 0B       		.uleb128 0xb
 22220 02c8 00       		.byte	0
 22221 02c9 00       		.byte	0
 22222 02ca 38       		.uleb128 0x38
 22223 02cb 0B       		.uleb128 0xb
 22224 02cc 01       		.byte	0x1
 22225 02cd 11       		.uleb128 0x11
 22226 02ce 01       		.uleb128 0x1
 22227 02cf 12       		.uleb128 0x12
 22228 02d0 06       		.uleb128 0x6
 22229 02d1 01       		.uleb128 0x1
 22230 02d2 13       		.uleb128 0x13
 22231 02d3 00       		.byte	0
 22232 02d4 00       		.byte	0
 22233 02d5 39       		.uleb128 0x39
 22234 02d6 34       		.uleb128 0x34
 22235 02d7 00       		.byte	0
 22236 02d8 03       		.uleb128 0x3
 22237 02d9 08       		.uleb128 0x8
 22238 02da 3A       		.uleb128 0x3a
 22239 02db 0B       		.uleb128 0xb
 22240 02dc 3B       		.uleb128 0x3b
 22241 02dd 05       		.uleb128 0x5
 22242 02de 49       		.uleb128 0x49
 22243 02df 13       		.uleb128 0x13
 22244 02e0 02       		.uleb128 0x2
 22245 02e1 17       		.uleb128 0x17
 22246 02e2 00       		.byte	0
 22247 02e3 00       		.byte	0
 22248 02e4 3A       		.uleb128 0x3a
 22249 02e5 898201   		.uleb128 0x4109
ARM GAS  /tmp/ccZueut9.s 			page 397


 22250 02e8 00       		.byte	0
 22251 02e9 11       		.uleb128 0x11
 22252 02ea 01       		.uleb128 0x1
 22253 02eb 31       		.uleb128 0x31
 22254 02ec 13       		.uleb128 0x13
 22255 02ed 00       		.byte	0
 22256 02ee 00       		.byte	0
 22257 02ef 3B       		.uleb128 0x3b
 22258 02f0 0B       		.uleb128 0xb
 22259 02f1 01       		.byte	0x1
 22260 02f2 55       		.uleb128 0x55
 22261 02f3 17       		.uleb128 0x17
 22262 02f4 01       		.uleb128 0x1
 22263 02f5 13       		.uleb128 0x13
 22264 02f6 00       		.byte	0
 22265 02f7 00       		.byte	0
 22266 02f8 3C       		.uleb128 0x3c
 22267 02f9 898201   		.uleb128 0x4109
 22268 02fc 01       		.byte	0x1
 22269 02fd 11       		.uleb128 0x11
 22270 02fe 01       		.uleb128 0x1
 22271 02ff 31       		.uleb128 0x31
 22272 0300 13       		.uleb128 0x13
 22273 0301 01       		.uleb128 0x1
 22274 0302 13       		.uleb128 0x13
 22275 0303 00       		.byte	0
 22276 0304 00       		.byte	0
 22277 0305 3D       		.uleb128 0x3d
 22278 0306 8A8201   		.uleb128 0x410a
 22279 0309 00       		.byte	0
 22280 030a 02       		.uleb128 0x2
 22281 030b 18       		.uleb128 0x18
 22282 030c 9142     		.uleb128 0x2111
 22283 030e 18       		.uleb128 0x18
 22284 030f 00       		.byte	0
 22285 0310 00       		.byte	0
 22286 0311 3E       		.uleb128 0x3e
 22287 0312 898201   		.uleb128 0x4109
 22288 0315 01       		.byte	0x1
 22289 0316 11       		.uleb128 0x11
 22290 0317 01       		.uleb128 0x1
 22291 0318 31       		.uleb128 0x31
 22292 0319 13       		.uleb128 0x13
 22293 031a 00       		.byte	0
 22294 031b 00       		.byte	0
 22295 031c 3F       		.uleb128 0x3f
 22296 031d 898201   		.uleb128 0x4109
 22297 0320 01       		.byte	0x1
 22298 0321 11       		.uleb128 0x11
 22299 0322 01       		.uleb128 0x1
 22300 0323 01       		.uleb128 0x1
 22301 0324 13       		.uleb128 0x13
 22302 0325 00       		.byte	0
 22303 0326 00       		.byte	0
 22304 0327 40       		.uleb128 0x40
 22305 0328 2E       		.uleb128 0x2e
 22306 0329 00       		.byte	0
ARM GAS  /tmp/ccZueut9.s 			page 398


 22307 032a 3F       		.uleb128 0x3f
 22308 032b 19       		.uleb128 0x19
 22309 032c 3C       		.uleb128 0x3c
 22310 032d 19       		.uleb128 0x19
 22311 032e 6E       		.uleb128 0x6e
 22312 032f 0E       		.uleb128 0xe
 22313 0330 03       		.uleb128 0x3
 22314 0331 0E       		.uleb128 0xe
 22315 0332 3A       		.uleb128 0x3a
 22316 0333 0B       		.uleb128 0xb
 22317 0334 3B       		.uleb128 0x3b
 22318 0335 0B       		.uleb128 0xb
 22319 0336 00       		.byte	0
 22320 0337 00       		.byte	0
 22321 0338 41       		.uleb128 0x41
 22322 0339 2E       		.uleb128 0x2e
 22323 033a 00       		.byte	0
 22324 033b 3F       		.uleb128 0x3f
 22325 033c 19       		.uleb128 0x19
 22326 033d 3C       		.uleb128 0x3c
 22327 033e 19       		.uleb128 0x19
 22328 033f 6E       		.uleb128 0x6e
 22329 0340 0E       		.uleb128 0xe
 22330 0341 03       		.uleb128 0x3
 22331 0342 0E       		.uleb128 0xe
 22332 0343 3A       		.uleb128 0x3a
 22333 0344 0B       		.uleb128 0xb
 22334 0345 3B       		.uleb128 0x3b
 22335 0346 0B       		.uleb128 0xb
 22336 0347 6E       		.uleb128 0x6e
 22337 0348 0E       		.uleb128 0xe
 22338 0349 00       		.byte	0
 22339 034a 00       		.byte	0
 22340 034b 00       		.byte	0
 22341              		.section	.debug_loc,"",%progbits
 22342              	.Ldebug_loc0:
 22343              	.LLST0:
 22344 0000 7A080000 		.4byte	.LVL89
 22345 0004 86080000 		.4byte	.LVL90
 22346 0008 0600     		.2byte	0x6
 22347 000a 03       		.byte	0x3
 22348 000b 00000000 		.4byte	accelero.13481
 22349 000f 9F       		.byte	0x9f
 22350 0010 86080000 		.4byte	.LVL90
 22351 0014 B0080000 		.4byte	.LVL91
 22352 0018 0600     		.2byte	0x6
 22353 001a 03       		.byte	0x3
 22354 001b 01000000 		.4byte	accelero.13481+1
 22355 001f 9F       		.byte	0x9f
 22356 0020 B0080000 		.4byte	.LVL91
 22357 0024 B4080000 		.4byte	.LVL92
 22358 0028 0600     		.2byte	0x6
 22359 002a 03       		.byte	0x3
 22360 002b 02000000 		.4byte	accelero.13481+2
 22361 002f 9F       		.byte	0x9f
 22362 0030 B4080000 		.4byte	.LVL92
 22363 0034 B6080000 		.4byte	.LVL93
ARM GAS  /tmp/ccZueut9.s 			page 399


 22364 0038 0600     		.2byte	0x6
 22365 003a 03       		.byte	0x3
 22366 003b 04000000 		.4byte	accelero.13481+4
 22367 003f 9F       		.byte	0x9f
 22368 0040 B6080000 		.4byte	.LVL93
 22369 0044 B8080000 		.4byte	.LVL94
 22370 0048 0600     		.2byte	0x6
 22371 004a 03       		.byte	0x3
 22372 004b 05000000 		.4byte	accelero.13481+5
 22373 004f 9F       		.byte	0x9f
 22374 0050 B8080000 		.4byte	.LVL94
 22375 0054 BA080000 		.4byte	.LVL95
 22376 0058 0600     		.2byte	0x6
 22377 005a 03       		.byte	0x3
 22378 005b 0A000000 		.4byte	accelero.13481+10
 22379 005f 9F       		.byte	0x9f
 22380 0060 BA080000 		.4byte	.LVL95
 22381 0064 E4080000 		.4byte	.LVL96
 22382 0068 0600     		.2byte	0x6
 22383 006a 03       		.byte	0x3
 22384 006b 0B000000 		.4byte	accelero.13481+11
 22385 006f 9F       		.byte	0x9f
 22386 0070 280E0000 		.4byte	.LVL153
 22387 0074 300E0000 		.4byte	.LVL154
 22388 0078 0600     		.2byte	0x6
 22389 007a 03       		.byte	0x3
 22390 007b 00000000 		.4byte	accelero.13481
 22391 007f 9F       		.byte	0x9f
 22392 0080 300E0000 		.4byte	.LVL154
 22393 0084 5C0E0000 		.4byte	.LVL155
 22394 0088 0600     		.2byte	0x6
 22395 008a 03       		.byte	0x3
 22396 008b 01000000 		.4byte	accelero.13481+1
 22397 008f 9F       		.byte	0x9f
 22398 0090 5C0E0000 		.4byte	.LVL155
 22399 0094 600E0000 		.4byte	.LVL156
 22400 0098 0600     		.2byte	0x6
 22401 009a 03       		.byte	0x3
 22402 009b 02000000 		.4byte	accelero.13481+2
 22403 009f 9F       		.byte	0x9f
 22404 00a0 600E0000 		.4byte	.LVL156
 22405 00a4 640E0000 		.4byte	.LVL157
 22406 00a8 0600     		.2byte	0x6
 22407 00aa 03       		.byte	0x3
 22408 00ab 03000000 		.4byte	accelero.13481+3
 22409 00af 9F       		.byte	0x9f
 22410 00b0 640E0000 		.4byte	.LVL157
 22411 00b4 660E0000 		.4byte	.LVL158
 22412 00b8 0600     		.2byte	0x6
 22413 00ba 03       		.byte	0x3
 22414 00bb 0A000000 		.4byte	accelero.13481+10
 22415 00bf 9F       		.byte	0x9f
 22416 00c0 660E0000 		.4byte	.LVL158
 22417 00c4 F6100000 		.4byte	.LVL177
 22418 00c8 0600     		.2byte	0x6
 22419 00ca 03       		.byte	0x3
 22420 00cb 0B000000 		.4byte	accelero.13481+11
ARM GAS  /tmp/ccZueut9.s 			page 400


 22421 00cf 9F       		.byte	0x9f
 22422 00d0 EA200000 		.4byte	.LVL437
 22423 00d4 7E210000 		.4byte	.LVL444
 22424 00d8 0600     		.2byte	0x6
 22425 00da 03       		.byte	0x3
 22426 00db 0B000000 		.4byte	accelero.13481+11
 22427 00df 9F       		.byte	0x9f
 22428 00e0 00000000 		.4byte	0
 22429 00e4 00000000 		.4byte	0
 22430              	.LLST1:
 22431 00e8 10000000 		.4byte	.LVL0
 22432 00ec 94000000 		.4byte	.LVL7
 22433 00f0 0200     		.2byte	0x2
 22434 00f2 30       		.byte	0x30
 22435 00f3 9F       		.byte	0x9f
 22436 00f4 B4000000 		.4byte	.LVL12
 22437 00f8 E2000000 		.4byte	.LVL14
 22438 00fc 0100     		.2byte	0x1
 22439 00fe 56       		.byte	0x56
 22440 00ff C8010000 		.4byte	.LVL29
 22441 0103 F6010000 		.4byte	.LVL31
 22442 0107 0100     		.2byte	0x1
 22443 0109 56       		.byte	0x56
 22444 010a 3A020000 		.4byte	.LVL34
 22445 010e C4030000 		.4byte	.LVL48
 22446 0112 0100     		.2byte	0x1
 22447 0114 56       		.byte	0x56
 22448 0115 CC1E0000 		.4byte	.LVL413
 22449 0119 E81E0000 		.4byte	.LVL415
 22450 011d 0100     		.2byte	0x1
 22451 011f 56       		.byte	0x56
 22452 0120 B01F0000 		.4byte	.LVL418
 22453 0124 CC1F0000 		.4byte	.LVL422
 22454 0128 0100     		.2byte	0x1
 22455 012a 56       		.byte	0x56
 22456 012b B4290000 		.4byte	.LVL629
 22457 012f 942A0000 		.4byte	.LFE259
 22458 0133 0200     		.2byte	0x2
 22459 0135 30       		.byte	0x30
 22460 0136 9F       		.byte	0x9f
 22461 0137 00000000 		.4byte	0
 22462 013b 00000000 		.4byte	0
 22463              	.LLST2:
 22464 013f 10000000 		.4byte	.LVL0
 22465 0143 94000000 		.4byte	.LVL7
 22466 0147 0200     		.2byte	0x2
 22467 0149 30       		.byte	0x30
 22468 014a 9F       		.byte	0x9f
 22469 014b B8000000 		.4byte	.LVL13
 22470 014f E2000000 		.4byte	.LVL14
 22471 0153 0100     		.2byte	0x1
 22472 0155 50       		.byte	0x50
 22473 0156 CC010000 		.4byte	.LVL30
 22474 015a F6010000 		.4byte	.LVL31
 22475 015e 0100     		.2byte	0x1
 22476 0160 50       		.byte	0x50
 22477 0161 3A020000 		.4byte	.LVL34
ARM GAS  /tmp/ccZueut9.s 			page 401


 22478 0165 48020000 		.4byte	.LVL35
 22479 0169 0100     		.2byte	0x1
 22480 016b 50       		.byte	0x50
 22481 016c 5A020000 		.4byte	.LVL38
 22482 0170 10030000 		.4byte	.LVL39
 22483 0174 0100     		.2byte	0x1
 22484 0176 50       		.byte	0x50
 22485 0177 22030000 		.4byte	.LVL41
 22486 017b 30030000 		.4byte	.LVL42
 22487 017f 0100     		.2byte	0x1
 22488 0181 50       		.byte	0x50
 22489 0182 42030000 		.4byte	.LVL45
 22490 0186 B2030000 		.4byte	.LVL46
 22491 018a 0100     		.2byte	0x1
 22492 018c 50       		.byte	0x50
 22493 018d CC1E0000 		.4byte	.LVL413
 22494 0191 E81E0000 		.4byte	.LVL415
 22495 0195 0100     		.2byte	0x1
 22496 0197 50       		.byte	0x50
 22497 0198 B01F0000 		.4byte	.LVL418
 22498 019c B31F0000 		.4byte	.LVL419-1
 22499 01a0 0100     		.2byte	0x1
 22500 01a2 50       		.byte	0x50
 22501 01a3 BE1F0000 		.4byte	.LVL420
 22502 01a7 C11F0000 		.4byte	.LVL421-1
 22503 01ab 0100     		.2byte	0x1
 22504 01ad 50       		.byte	0x50
 22505 01ae B4290000 		.4byte	.LVL629
 22506 01b2 942A0000 		.4byte	.LFE259
 22507 01b6 0200     		.2byte	0x2
 22508 01b8 30       		.byte	0x30
 22509 01b9 9F       		.byte	0x9f
 22510 01ba 00000000 		.4byte	0
 22511 01be 00000000 		.4byte	0
 22512              	.LLST3:
 22513 01c2 10000000 		.4byte	.LVL0
 22514 01c6 94000000 		.4byte	.LVL7
 22515 01ca 0200     		.2byte	0x2
 22516 01cc 30       		.byte	0x30
 22517 01cd 9F       		.byte	0x9f
 22518 01ce 94000000 		.4byte	.LVL7
 22519 01d2 48020000 		.4byte	.LVL35
 22520 01d6 0300     		.2byte	0x3
 22521 01d8 91       		.byte	0x91
 22522 01d9 807F     		.sleb128 -128
 22523 01db 48020000 		.4byte	.LVL35
 22524 01df 5A020000 		.4byte	.LVL38
 22525 01e3 0100     		.2byte	0x1
 22526 01e5 56       		.byte	0x56
 22527 01e6 5A020000 		.4byte	.LVL38
 22528 01ea 30030000 		.4byte	.LVL42
 22529 01ee 0300     		.2byte	0x3
 22530 01f0 91       		.byte	0x91
 22531 01f1 807F     		.sleb128 -128
 22532 01f3 30030000 		.4byte	.LVL42
 22533 01f7 42030000 		.4byte	.LVL45
 22534 01fb 0100     		.2byte	0x1
ARM GAS  /tmp/ccZueut9.s 			page 402


 22535 01fd 56       		.byte	0x56
 22536 01fe 42030000 		.4byte	.LVL45
 22537 0202 B4290000 		.4byte	.LVL629
 22538 0206 0300     		.2byte	0x3
 22539 0208 91       		.byte	0x91
 22540 0209 807F     		.sleb128 -128
 22541 020b B4290000 		.4byte	.LVL629
 22542 020f 942A0000 		.4byte	.LFE259
 22543 0213 0200     		.2byte	0x2
 22544 0215 30       		.byte	0x30
 22545 0216 9F       		.byte	0x9f
 22546 0217 00000000 		.4byte	0
 22547 021b 00000000 		.4byte	0
 22548              	.LLST4:
 22549 021f 10000000 		.4byte	.LVL0
 22550 0223 3E000000 		.4byte	.LVL3
 22551 0227 0200     		.2byte	0x2
 22552 0229 30       		.byte	0x30
 22553 022a 9F       		.byte	0x9f
 22554 022b 3E000000 		.4byte	.LVL3
 22555 022f 45000000 		.4byte	.LVL4-1
 22556 0233 0100     		.2byte	0x1
 22557 0235 53       		.byte	0x53
 22558 0236 45000000 		.4byte	.LVL4-1
 22559 023a 80000000 		.4byte	.LVL6
 22560 023e 0300     		.2byte	0x3
 22561 0240 91       		.byte	0x91
 22562 0241 847F     		.sleb128 -124
 22563 0243 B4290000 		.4byte	.LVL629
 22564 0247 B8290000 		.4byte	.LVL630
 22565 024b 0200     		.2byte	0x2
 22566 024d 30       		.byte	0x30
 22567 024e 9F       		.byte	0x9f
 22568 024f B8290000 		.4byte	.LVL630
 22569 0253 622A0000 		.4byte	.LVL641
 22570 0257 0300     		.2byte	0x3
 22571 0259 91       		.byte	0x91
 22572 025a 847F     		.sleb128 -124
 22573 025c 00000000 		.4byte	0
 22574 0260 00000000 		.4byte	0
 22575              	.LLST5:
 22576 0264 10000000 		.4byte	.LVL0
 22577 0268 94000000 		.4byte	.LVL7
 22578 026c 0200     		.2byte	0x2
 22579 026e 30       		.byte	0x30
 22580 026f 9F       		.byte	0x9f
 22581 0270 56070000 		.4byte	.LVL74
 22582 0274 6E070000 		.4byte	.LVL75
 22583 0278 0100     		.2byte	0x1
 22584 027a 50       		.byte	0x50
 22585 027b F00F0000 		.4byte	.LVL170
 22586 027f 09100000 		.4byte	.LVL171-1
 22587 0283 0100     		.2byte	0x1
 22588 0285 50       		.byte	0x50
 22589 0286 B4290000 		.4byte	.LVL629
 22590 028a 942A0000 		.4byte	.LFE259
 22591 028e 0200     		.2byte	0x2
ARM GAS  /tmp/ccZueut9.s 			page 403


 22592 0290 30       		.byte	0x30
 22593 0291 9F       		.byte	0x9f
 22594 0292 00000000 		.4byte	0
 22595 0296 00000000 		.4byte	0
 22596              	.LLST6:
 22597 029a 10000000 		.4byte	.LVL0
 22598 029e 94000000 		.4byte	.LVL7
 22599 02a2 0200     		.2byte	0x2
 22600 02a4 30       		.byte	0x30
 22601 02a5 9F       		.byte	0x9f
 22602 02a6 94000000 		.4byte	.LVL7
 22603 02aa E2000000 		.4byte	.LVL14
 22604 02ae 0300     		.2byte	0x3
 22605 02b0 91       		.byte	0x91
 22606 02b1 A47F     		.sleb128 -92
 22607 02b3 AC010000 		.4byte	.LVL24
 22608 02b7 B4010000 		.4byte	.LVL25
 22609 02bb 0300     		.2byte	0x3
 22610 02bd 91       		.byte	0x91
 22611 02be A47F     		.sleb128 -92
 22612 02c0 3A020000 		.4byte	.LVL34
 22613 02c4 22030000 		.4byte	.LVL41
 22614 02c8 0300     		.2byte	0x3
 22615 02ca 91       		.byte	0x91
 22616 02cb A47F     		.sleb128 -92
 22617 02cd 60090000 		.4byte	.LVL102
 22618 02d1 62090000 		.4byte	.LVL103
 22619 02d5 0100     		.2byte	0x1
 22620 02d7 52       		.byte	0x52
 22621 02d8 62090000 		.4byte	.LVL103
 22622 02dc 6A090000 		.4byte	.LVL104
 22623 02e0 0300     		.2byte	0x3
 22624 02e2 91       		.byte	0x91
 22625 02e3 A47F     		.sleb128 -92
 22626 02e5 CC1E0000 		.4byte	.LVL413
 22627 02e9 DA1E0000 		.4byte	.LVL414
 22628 02ed 0300     		.2byte	0x3
 22629 02ef 91       		.byte	0x91
 22630 02f0 A47F     		.sleb128 -92
 22631 02f2 B01F0000 		.4byte	.LVL418
 22632 02f6 BE1F0000 		.4byte	.LVL420
 22633 02fa 0300     		.2byte	0x3
 22634 02fc 91       		.byte	0x91
 22635 02fd A47F     		.sleb128 -92
 22636 02ff B4290000 		.4byte	.LVL629
 22637 0303 942A0000 		.4byte	.LFE259
 22638 0307 0200     		.2byte	0x2
 22639 0309 30       		.byte	0x30
 22640 030a 9F       		.byte	0x9f
 22641 030b 00000000 		.4byte	0
 22642 030f 00000000 		.4byte	0
 22643              	.LLST7:
 22644 0313 10000000 		.4byte	.LVL0
 22645 0317 94000000 		.4byte	.LVL7
 22646 031b 0600     		.2byte	0x6
 22647 031d 9E       		.byte	0x9e
 22648 031e 04       		.uleb128 0x4
ARM GAS  /tmp/ccZueut9.s 			page 404


 22649 031f 00000000 		.4byte	0
 22650 0323 940E0000 		.4byte	.LVL159
 22651 0327 D60E0000 		.4byte	.LVL161
 22652 032b 0200     		.2byte	0x2
 22653 032d 90       		.byte	0x90
 22654 032e 40       		.uleb128 0x40
 22655 032f 2C210000 		.4byte	.LVL441
 22656 0333 2F210000 		.4byte	.LVL442-1
 22657 0337 0200     		.2byte	0x2
 22658 0339 90       		.byte	0x90
 22659 033a 40       		.uleb128 0x40
 22660 033b B4290000 		.4byte	.LVL629
 22661 033f 942A0000 		.4byte	.LFE259
 22662 0343 0600     		.2byte	0x6
 22663 0345 9E       		.byte	0x9e
 22664 0346 04       		.uleb128 0x4
 22665 0347 00000000 		.4byte	0
 22666 034b 00000000 		.4byte	0
 22667 034f 00000000 		.4byte	0
 22668              	.LLST8:
 22669 0353 10000000 		.4byte	.LVL0
 22670 0357 94000000 		.4byte	.LVL7
 22671 035b 0200     		.2byte	0x2
 22672 035d 30       		.byte	0x30
 22673 035e 9F       		.byte	0x9f
 22674 035f A00E0000 		.4byte	.LVL160
 22675 0363 D60E0000 		.4byte	.LVL161
 22676 0367 0200     		.2byte	0x2
 22677 0369 90       		.byte	0x90
 22678 036a 40       		.uleb128 0x40
 22679 036b 2C210000 		.4byte	.LVL441
 22680 036f 2F210000 		.4byte	.LVL442-1
 22681 0373 0200     		.2byte	0x2
 22682 0375 90       		.byte	0x90
 22683 0376 40       		.uleb128 0x40
 22684 0377 B4290000 		.4byte	.LVL629
 22685 037b 942A0000 		.4byte	.LFE259
 22686 037f 0200     		.2byte	0x2
 22687 0381 30       		.byte	0x30
 22688 0382 9F       		.byte	0x9f
 22689 0383 00000000 		.4byte	0
 22690 0387 00000000 		.4byte	0
 22691              	.LLST10:
 22692 038b 62120000 		.4byte	.LVL189
 22693 038f 74120000 		.4byte	.LVL191
 22694 0393 0100     		.2byte	0x1
 22695 0395 54       		.byte	0x54
 22696 0396 00000000 		.4byte	0
 22697 039a 00000000 		.4byte	0
 22698              	.LLST9:
 22699 039e 96160000 		.4byte	.LVL247
 22700 03a2 C0160000 		.4byte	.LVL254
 22701 03a6 0200     		.2byte	0x2
 22702 03a8 30       		.byte	0x30
 22703 03a9 9F       		.byte	0x9f
 22704 03aa 80230000 		.4byte	.LVL467
 22705 03ae 9A230000 		.4byte	.LVL472
ARM GAS  /tmp/ccZueut9.s 			page 405


 22706 03b2 0200     		.2byte	0x2
 22707 03b4 30       		.byte	0x30
 22708 03b5 9F       		.byte	0x9f
 22709 03b6 64240000 		.4byte	.LVL487
 22710 03ba 8E240000 		.4byte	.LVL494
 22711 03be 0200     		.2byte	0x2
 22712 03c0 30       		.byte	0x30
 22713 03c1 9F       		.byte	0x9f
 22714 03c2 00000000 		.4byte	0
 22715 03c6 00000000 		.4byte	0
 22716              		.section	.debug_aranges,"",%progbits
 22717 0000 1C000000 		.4byte	0x1c
 22718 0004 0200     		.2byte	0x2
 22719 0006 00000000 		.4byte	.Ldebug_info0
 22720 000a 04       		.byte	0x4
 22721 000b 00       		.byte	0
 22722 000c 0000     		.2byte	0
 22723 000e 0000     		.2byte	0
 22724 0010 00000000 		.4byte	.LFB259
 22725 0014 942A0000 		.4byte	.LFE259-.LFB259
 22726 0018 00000000 		.4byte	0
 22727 001c 00000000 		.4byte	0
 22728              		.section	.debug_ranges,"",%progbits
 22729              	.Ldebug_ranges0:
 22730 0000 68010000 		.4byte	.LBB2
 22731 0004 AC010000 		.4byte	.LBE2
 22732 0008 5C130000 		.4byte	.LBB4
 22733 000c 901E0000 		.4byte	.LBE4
 22734 0010 AA1E0000 		.4byte	.LBB5
 22735 0014 C41E0000 		.4byte	.LBE5
 22736 0018 08230000 		.4byte	.LBB6
 22737 001c B6230000 		.4byte	.LBE6
 22738 0020 50240000 		.4byte	.LBB7
 22739 0024 B4290000 		.4byte	.LBE7
 22740 0028 00000000 		.4byte	0
 22741 002c 00000000 		.4byte	0
 22742 0030 00000000 		.4byte	.LFB259
 22743 0034 942A0000 		.4byte	.LFE259
 22744 0038 00000000 		.4byte	0
 22745 003c 00000000 		.4byte	0
 22746              		.section	.debug_line,"",%progbits
 22747              	.Ldebug_line0:
 22748 0000 8F1A0000 		.section	.debug_str,"MS",%progbits,1
 22748      02008A0D 
 22748      00000201 
 22748      FB0E0D00 
 22748      01010101 
 22749              	.LASF582:
 22750 0000 5553425F 		.ascii	"USB_STOP\000"
 22750      53544F50 
 22750      00
 22751              	.LASF195:
 22752 0009 706F7274 		.ascii	"port_intctx\000"
 22752      5F696E74 
 22752      63747800 
 22753              	.LASF204:
 22754 0015 63685F74 		.ascii	"ch_trace_buffer_t\000"
ARM GAS  /tmp/ccZueut9.s 			page 406


 22754      72616365 
 22754      5F627566 
 22754      6665725F 
 22754      7400
 22755              	.LASF237:
 22756 0027 63685F70 		.ascii	"ch_ptrsize\000"
 22756      74727369 
 22756      7A6500
 22757              	.LASF757:
 22758 0032 6D657373 		.ascii	"messagebus_watcher_s\000"
 22758      61676562 
 22758      75735F77 
 22758      61746368 
 22758      65725F73 
 22759              	.LASF518:
 22760 0047 6576656E 		.ascii	"event\000"
 22760      7400
 22761              	.LASF854:
 22762 004d 5F6D6272 		.ascii	"_mbrtowc_state\000"
 22762      746F7763 
 22762      5F737461 
 22762      746500
 22763              	.LASF920:
 22764 005c 53414E44 		.ascii	"SANDSTORMS\000"
 22764      53544F52 
 22764      4D5300
 22765              	.LASF368:
 22766 0067 43414E5F 		.ascii	"CAN_STARTING\000"
 22766      53544152 
 22766      54494E47 
 22766      00
 22767              	.LASF943:
 22768 0074 4C45445F 		.ascii	"LED_nbr\000"
 22768      6E627200 
 22769              	.LASF976:
 22770 007c 6765745A 		.ascii	"getZAxisGyro\000"
 22770      41786973 
 22770      4779726F 
 22770      00
 22771              	.LASF1049:
 22772 0089 564C3533 		.ascii	"VL53L0X_get_dist_mm\000"
 22772      4C30585F 
 22772      6765745F 
 22772      64697374 
 22772      5F6D6D00 
 22773              	.LASF894:
 22774 009d 44434D49 		.ascii	"DCMI_ACTIVE_ONESHOT\000"
 22774      5F414354 
 22774      4956455F 
 22774      4F4E4553 
 22774      484F5400 
 22775              	.LASF32:
 22776 00b1 6D73675F 		.ascii	"msg_t\000"
 22776      7400
 22777              	.LASF313:
 22778 00b7 61667268 		.ascii	"afrh\000"
 22778      00
ARM GAS  /tmp/ccZueut9.s 			page 407


 22779              	.LASF461:
 22780 00bc 4F504D4F 		.ascii	"OPMODE_SMBUS_DEVICE\000"
 22780      44455F53 
 22780      4D425553 
 22780      5F444556 
 22780      49434500 
 22781              	.LASF215:
 22782 00d0 6D5F6372 		.ascii	"m_crit_isr\000"
 22782      69745F69 
 22782      737200
 22783              	.LASF1000:
 22784 00db 655F6765 		.ascii	"e_get_steps_left\000"
 22784      745F7374 
 22784      6570735F 
 22784      6C656674 
 22784      00
 22785              	.LASF942:
 22786 00ec 706F7369 		.ascii	"positionl\000"
 22786      74696F6E 
 22786      6C00
 22787              	.LASF941:
 22788 00f6 706F7369 		.ascii	"positionr\000"
 22788      74696F6E 
 22788      7200
 22789              	.LASF966:
 22790 0100 62617474 		.ascii	"battValue\000"
 22790      56616C75 
 22790      6500
 22791              	.LASF885:
 22792 010a 76656374 		.ascii	"vect\000"
 22792      00
 22793              	.LASF641:
 22794 010f 44494550 		.ascii	"DIEPTXF0\000"
 22794      54584630 
 22794      00
 22795              	.LASF717:
 22796 0118 55534244 		.ascii	"USBD1\000"
 22796      3100
 22797              	.LASF367:
 22798 011e 43414E5F 		.ascii	"CAN_STOP\000"
 22798      53544F50 
 22798      00
 22799              	.LASF250:
 22800 0127 63665F6F 		.ascii	"cf_off_time\000"
 22800      66665F74 
 22800      696D6500 
 22801              	.LASF91:
 22802 0133 63685F73 		.ascii	"ch_system_t\000"
 22802      79737465 
 22802      6D5F7400 
 22803              	.LASF6:
 22804 013f 5F5F7569 		.ascii	"__uint8_t\000"
 22804      6E74385F 
 22804      7400
 22805              	.LASF221:
 22806 0149 77747365 		.ascii	"wtsemp\000"
 22806      6D7000
ARM GAS  /tmp/ccZueut9.s 			page 408


 22807              	.LASF924:
 22808 0150 4D4C5F53 		.ascii	"ML_SIMPLE_PLAY\000"
 22808      494D504C 
 22808      455F504C 
 22808      415900
 22809              	.LASF297:
 22810 015f 5F426F6F 		.ascii	"_Bool\000"
 22810      6C00
 22811              	.LASF409:
 22812 0165 64617461 		.ascii	"datamode\000"
 22812      6D6F6465 
 22812      00
 22813              	.LASF477:
 22814 016e 646D6172 		.ascii	"dmarx\000"
 22814      7800
 22815              	.LASF482:
 22816 0174 4932535F 		.ascii	"I2S_READY\000"
 22816      52454144 
 22816      5900
 22817              	.LASF787:
 22818 017e 5F617465 		.ascii	"_atexit\000"
 22818      78697400 
 22819              	.LASF1017:
 22820 0186 655F7561 		.ascii	"e_uart2_sending\000"
 22820      7274325F 
 22820      73656E64 
 22820      696E6700 
 22821              	.LASF1045:
 22822 0196 655F7265 		.ascii	"e_read_acc_spheric\000"
 22822      61645F61 
 22822      63635F73 
 22822      70686572 
 22822      696300
 22823              	.LASF995:
 22824 01a9 655F6765 		.ascii	"e_get_ambient_light\000"
 22824      745F616D 
 22824      6269656E 
 22824      745F6C69 
 22824      67687400 
 22825              	.LASF869:
 22826 01bd 6368616E 		.ascii	"changed_cnt\000"
 22826      6765645F 
 22826      636E7400 
 22827              	.LASF866:
 22828 01c9 7375626F 		.ascii	"suboptarg\000"
 22828      70746172 
 22828      6700
 22829              	.LASF357:
 22830 01d3 73717231 		.ascii	"sqr1\000"
 22830      00
 22831              	.LASF754:
 22832 01d8 7075626C 		.ascii	"published\000"
 22832      69736865 
 22832      6400
 22833              	.LASF284:
 22834 01e2 424C4B5F 		.ascii	"BLK_UNINIT\000"
 22834      554E494E 
ARM GAS  /tmp/ccZueut9.s 			page 409


 22834      495400
 22835              	.LASF489:
 22836 01ed 72785F62 		.ascii	"rx_buffer\000"
 22836      75666665 
 22836      7200
 22837              	.LASF473:
 22838 01f7 6572726F 		.ascii	"errors\000"
 22838      727300
 22839              	.LASF1043:
 22840 01fe 64697361 		.ascii	"disable_obstacle_avoidance\000"
 22840      626C655F 
 22840      6F627374 
 22840      61636C65 
 22840      5F61766F 
 22841              	.LASF967:
 22842 0219 67756D73 		.ascii	"gumstix_connected\000"
 22842      7469785F 
 22842      636F6E6E 
 22842      65637465 
 22842      6400
 22843              	.LASF208:
 22844 022b 776F7273 		.ascii	"worst\000"
 22844      7400
 22845              	.LASF84:
 22846 0231 76745F73 		.ascii	"vt_systime\000"
 22846      79737469 
 22846      6D6500
 22847              	.LASF150:
 22848 023c 444F5231 		.ascii	"DOR1\000"
 22848      00
 22849              	.LASF151:
 22850 0241 444F5232 		.ascii	"DOR2\000"
 22850      00
 22851              	.LASF488:
 22852 0246 74785F62 		.ascii	"tx_buffer\000"
 22852      75666665 
 22852      7200
 22853              	.LASF1038:
 22854 0250 6765745F 		.ascii	"get_magnetic_field\000"
 22854      6D61676E 
 22854      65746963 
 22854      5F666965 
 22854      6C6400
 22855              	.LASF777:
 22856 0263 5F5F746D 		.ascii	"__tm_mon\000"
 22856      5F6D6F6E 
 22856      00
 22857              	.LASF785:
 22858 026c 5F666E74 		.ascii	"_fntypes\000"
 22858      79706573 
 22858      00
 22859              	.LASF230:
 22860 0275 6D5F6E65 		.ascii	"m_next\000"
 22860      787400
 22861              	.LASF317:
 22862 027c 50434461 		.ascii	"PCData\000"
 22862      746100
ARM GAS  /tmp/ccZueut9.s 			page 410


 22863              	.LASF815:
 22864 0283 5F696E63 		.ascii	"_inc\000"
 22864      00
 22865              	.LASF788:
 22866 0288 5F696E64 		.ascii	"_ind\000"
 22866      00
 22867              	.LASF180:
 22868 028d 4D41534B 		.ascii	"MASK\000"
 22868      00
 22869              	.LASF342:
 22870 0292 73616D70 		.ascii	"samples\000"
 22870      6C657300 
 22871              	.LASF645:
 22872 029a 47434346 		.ascii	"GCCFG\000"
 22872      4700
 22873              	.LASF909:
 22874 02a0 57455F41 		.ascii	"WE_ARE_THE_CHAMPIONS\000"
 22874      52455F54 
 22874      48455F43 
 22874      48414D50 
 22874      494F4E53 
 22875              	.LASF438:
 22876 02b5 42445452 		.ascii	"BDTR\000"
 22876      00
 22877              	.LASF391:
 22878 02ba 7265676D 		.ascii	"regmask\000"
 22878      61736B00 
 22879              	.LASF955:
 22880 02c2 63616D5F 		.ascii	"cam_zoom\000"
 22880      7A6F6F6D 
 22880      00
 22881              	.LASF471:
 22882 02cb 49324343 		.ascii	"I2CConfig\000"
 22882      6F6E6669 
 22882      6700
 22883              	.LASF21:
 22884 02d5 75696E74 		.ascii	"uint16_t\000"
 22884      31365F74 
 22884      00
 22885              	.LASF478:
 22886 02de 646D6174 		.ascii	"dmatx\000"
 22886      7800
 22887              	.LASF715:
 22888 02e4 736F665F 		.ascii	"sof_cb\000"
 22888      636200
 22889              	.LASF414:
 22890 02eb 4558545F 		.ascii	"EXT_ACTIVE\000"
 22890      41435449 
 22890      564500
 22891              	.LASF794:
 22892 02f6 5F666C61 		.ascii	"_flags\000"
 22892      677300
 22893              	.LASF756:
 22894 02fd 6E657874 		.ascii	"next\000"
 22894      00
 22895              	.LASF310:
 22896 0302 6F737065 		.ascii	"ospeedr\000"
ARM GAS  /tmp/ccZueut9.s 			page 411


 22896      65647200 
 22897              	.LASF1054:
 22898 030a 655F6163 		.ascii	"e_acc_calibr\000"
 22898      635F6361 
 22898      6C696272 
 22898      00
 22899              	.LASF648:
 22900 0317 44494550 		.ascii	"DIEPTXF\000"
 22900      54584600 
 22901              	.LASF256:
 22902 031f 656C5F6E 		.ascii	"el_next\000"
 22902      65787400 
 22903              	.LASF935:
 22904 0327 696E636C 		.ascii	"inclination\000"
 22904      696E6174 
 22904      696F6E00 
 22905              	.LASF337:
 22906 0333 4144435F 		.ascii	"ADC_ERR_OVERFLOW\000"
 22906      4552525F 
 22906      4F564552 
 22906      464C4F57 
 22906      00
 22907              	.LASF722:
 22908 0344 53657269 		.ascii	"SerialUSBDriver\000"
 22908      616C5553 
 22908      42447269 
 22908      76657200 
 22909              	.LASF825:
 22910 0354 5F637674 		.ascii	"_cvtlen\000"
 22910      6C656E00 
 22911              	.LASF934:
 22912 035c 6F726965 		.ascii	"orientation\000"
 22912      6E746174 
 22912      696F6E00 
 22913              	.LASF89:
 22914 0368 6C6F636B 		.ascii	"lock_cnt\000"
 22914      5F636E74 
 22914      00
 22915              	.LASF65:
 22916 0371 63685F74 		.ascii	"ch_threads_queue\000"
 22916      68726561 
 22916      64735F71 
 22916      75657565 
 22916      00
 22917              	.LASF829:
 22918 0382 5F736967 		.ascii	"_sig_func\000"
 22918      5F66756E 
 22918      6300
 22919              	.LASF43:
 22920 038c 705F6E65 		.ascii	"p_newer\000"
 22920      77657200 
 22921              	.LASF658:
 22922 0394 48505254 		.ascii	"HPRT\000"
 22922      00
 22923              	.LASF988:
 22924 0399 655F696E 		.ascii	"e_init_sound\000"
 22924      69745F73 
ARM GAS  /tmp/ccZueut9.s 			page 412


 22924      6F756E64 
 22924      00
 22925              	.LASF612:
 22926 03a6 4843494E 		.ascii	"HCINT\000"
 22926      5400
 22927              	.LASF960:
 22928 03ac 7267625F 		.ascii	"rgb_value\000"
 22928      76616C75 
 22928      6500
 22929              	.LASF1002:
 22930 03b6 6765745F 		.ascii	"get_ground_prox\000"
 22930      67726F75 
 22930      6E645F70 
 22930      726F7800 
 22931              	.LASF100:
 22932 03c6 534D5052 		.ascii	"SMPR1\000"
 22932      3100
 22933              	.LASF101:
 22934 03cc 534D5052 		.ascii	"SMPR2\000"
 22934      3200
 22935              	.LASF247:
 22936 03d2 63665F6F 		.ascii	"cf_off_flags\000"
 22936      66665F66 
 22936      6C616773 
 22936      00
 22937              	.LASF807:
 22938 03df 5F6C6F63 		.ascii	"_lock\000"
 22938      6B00
 22939              	.LASF803:
 22940 03e5 5F6E6275 		.ascii	"_nbuf\000"
 22940      6600
 22941              	.LASF551:
 22942 03eb 5350495F 		.ascii	"SPI_STOP\000"
 22942      53544F50 
 22942      00
 22943              	.LASF505:
 22944 03f4 70776D63 		.ascii	"pwmchnmsk_t\000"
 22944      686E6D73 
 22944      6B5F7400 
 22945              	.LASF908:
 22946 0400 494D504F 		.ascii	"IMPOSSIBLE_MISSION\000"
 22946      53534942 
 22946      4C455F4D 
 22946      49535349 
 22946      4F4E00
 22947              	.LASF316:
 22948 0413 50424461 		.ascii	"PBData\000"
 22948      746100
 22949              	.LASF235:
 22950 041a 63685F73 		.ascii	"ch_size\000"
 22950      697A6500 
 22951              	.LASF891:
 22952 0422 44434D49 		.ascii	"DCMI_STOP\000"
 22952      5F53544F 
 22952      5000
 22953              	.LASF654:
 22954 042c 48505458 		.ascii	"HPTXSTS\000"
ARM GAS  /tmp/ccZueut9.s 			page 413


 22954      53545300 
 22955              	.LASF309:
 22956 0434 6F747970 		.ascii	"otyper\000"
 22956      657200
 22957              	.LASF300:
 22958 043b 4F545950 		.ascii	"OTYPER\000"
 22958      455200
 22959              	.LASF393:
 22960 0442 64616370 		.ascii	"dacparams_t\000"
 22960      6172616D 
 22960      735F7400 
 22961              	.LASF529:
 22962 044e 5344435F 		.ascii	"SDC_MODE_1BIT\000"
 22962      4D4F4445 
 22962      5F314249 
 22962      5400
 22963              	.LASF610:
 22964 045c 48434348 		.ascii	"HCCHAR\000"
 22964      415200
 22965              	.LASF993:
 22966 0463 655F6361 		.ascii	"e_calibrate_ir\000"
 22966      6C696272 
 22966      6174655F 
 22966      697200
 22967              	.LASF784:
 22968 0472 5F64736F 		.ascii	"_dso_handle\000"
 22968      5F68616E 
 22968      646C6500 
 22969              	.LASF455:
 22970 047e 4932435F 		.ascii	"I2C_ACTIVE_RX\000"
 22970      41435449 
 22970      56455F52 
 22970      5800
 22971              	.LASF38:
 22972 048c 74687265 		.ascii	"thread_t\000"
 22972      61645F74 
 22972      00
 22973              	.LASF258:
 22974 0495 656C5F65 		.ascii	"el_events\000"
 22974      76656E74 
 22974      7300
 22975              	.LASF498:
 22976 049f 70776D73 		.ascii	"pwmstate_t\000"
 22976      74617465 
 22976      5F7400
 22977              	.LASF378:
 22978 04aa 736C6565 		.ascii	"sleep_event\000"
 22978      705F6576 
 22978      656E7400 
 22979              	.LASF83:
 22980 04b6 63685F76 		.ascii	"ch_virtual_timers_list\000"
 22980      69727475 
 22980      616C5F74 
 22980      696D6572 
 22980      735F6C69 
 22981              	.LASF281:
 22982 04cd 76656374 		.ascii	"vector\000"
ARM GAS  /tmp/ccZueut9.s 			page 414


 22982      6F7200
 22983              	.LASF22:
 22984 04d4 696E7433 		.ascii	"int32_t\000"
 22984      325F7400 
 22985              	.LASF849:
 22986 04dc 5F776374 		.ascii	"_wctomb_state\000"
 22986      6F6D625F 
 22986      73746174 
 22986      6500
 22987              	.LASF990:
 22988 04ea 655F7365 		.ascii	"e_set_led\000"
 22988      745F6C65 
 22988      6400
 22989              	.LASF469:
 22990 04f4 636C6F63 		.ascii	"clock_speed\000"
 22990      6B5F7370 
 22990      65656400 
 22991              	.LASF37:
 22992 0500 73797374 		.ascii	"systime_t\000"
 22992      696D655F 
 22992      7400
 22993              	.LASF411:
 22994 050a 44414344 		.ascii	"DACD2\000"
 22994      3200
 22995              	.LASF380:
 22996 0510 43414E44 		.ascii	"CANDriver\000"
 22996      72697665 
 22996      7200
 22997              	.LASF1033:
 22998 051a 656E6162 		.ascii	"enable_obstacle_avoidance\000"
 22998      6C655F6F 
 22998      62737461 
 22998      636C655F 
 22998      61766F69 
 22999              	.LASF245:
 23000 0534 63665F6F 		.ascii	"cf_off_stklimit\000"
 23000      66665F73 
 23000      746B6C69 
 23000      6D697400 
 23001              	.LASF161:
 23002 0544 4D304152 		.ascii	"M0AR\000"
 23002      00
 23003              	.LASF999:
 23004 0549 655F6765 		.ascii	"e_get_data\000"
 23004      745F6461 
 23004      746100
 23005              	.LASF617:
 23006 0554 72657376 		.ascii	"resvd1c\000"
 23006      64316300 
 23007              	.LASF459:
 23008 055c 69326366 		.ascii	"i2cflags_t\000"
 23008      6C616773 
 23008      5F7400
 23009              	.LASF655:
 23010 0567 4841494E 		.ascii	"HAINT\000"
 23010      5400
 23011              	.LASF136:
ARM GAS  /tmp/ccZueut9.s 			page 415


 23012 056d 46413152 		.ascii	"FA1R\000"
 23012      00
 23013              	.LASF1059:
 23014 0572 6D656D63 		.ascii	"memcpy\000"
 23014      707900
 23015              	.LASF159:
 23016 0579 44434D49 		.ascii	"DCMI_TypeDef\000"
 23016      5F547970 
 23016      65446566 
 23016      00
 23017              	.LASF899:
 23018 0586 44434D49 		.ascii	"DCMIDriver\000"
 23018      44726976 
 23018      657200
 23019              	.LASF652:
 23020 0591 48464E55 		.ascii	"HFNUM\000"
 23020      4D00
 23021              	.LASF1039:
 23022 0597 6765745F 		.ascii	"get_ground_ambient_light\000"
 23022      67726F75 
 23022      6E645F61 
 23022      6D626965 
 23022      6E745F6C 
 23023              	.LASF274:
 23024 05b0 716E6F74 		.ascii	"qnotify_t\000"
 23024      6966795F 
 23024      7400
 23025              	.LASF333:
 23026 05ba 61646373 		.ascii	"adcstate_t\000"
 23026      74617465 
 23026      5F7400
 23027              	.LASF764:
 23028 05c5 7075626C 		.ascii	"published_topic\000"
 23028      69736865 
 23028      645F746F 
 23028      70696300 
 23029              	.LASF907:
 23030 05d5 44434D49 		.ascii	"DCMID\000"
 23030      4400
 23031              	.LASF279:
 23032 05db 69736869 		.ascii	"ishift\000"
 23032      667400
 23033              	.LASF986:
 23034 05e2 655F6932 		.ascii	"e_i2cp_write\000"
 23034      63705F77 
 23034      72697465 
 23034      00
 23035              	.LASF428:
 23036 05ef 4750545F 		.ascii	"GPT_ONESHOT\000"
 23036      4F4E4553 
 23036      484F5400 
 23037              	.LASF269:
 23038 05fb 715F746F 		.ascii	"q_top\000"
 23038      7000
 23039              	.LASF796:
 23040 0601 5F6C6266 		.ascii	"_lbfsize\000"
 23040      73697A65 
ARM GAS  /tmp/ccZueut9.s 			page 416


 23040      00
 23041              	.LASF603:
 23042 060a 75645F73 		.ascii	"ud_string\000"
 23042      7472696E 
 23042      6700
 23043              	.LASF472:
 23044 0614 49324344 		.ascii	"I2CDriver\000"
 23044      72697665 
 23044      7200
 23045              	.LASF454:
 23046 061e 4932435F 		.ascii	"I2C_ACTIVE_TX\000"
 23046      41435449 
 23046      56455F54 
 23046      5800
 23047              	.LASF524:
 23048 062c 72656164 		.ascii	"read\000"
 23048      00
 23049              	.LASF460:
 23050 0631 4F504D4F 		.ascii	"OPMODE_I2C\000"
 23050      44455F49 
 23050      324300
 23051              	.LASF664:
 23052 063c 72657376 		.ascii	"resvd80C\000"
 23052      64383043 
 23052      00
 23053              	.LASF712:
 23054 0645 6576656E 		.ascii	"event_cb\000"
 23054      745F6362 
 23054      00
 23055              	.LASF827:
 23056 064e 5F6E6577 		.ascii	"_new\000"
 23056      00
 23057              	.LASF631:
 23058 0653 474F5447 		.ascii	"GOTGCTL\000"
 23058      43544C00 
 23059              	.LASF971:
 23060 065b 72785F62 		.ascii	"rx_buff\000"
 23060      75666600 
 23061              	.LASF725:
 23062 0663 62756C6B 		.ascii	"bulk_out\000"
 23062      5F6F7574 
 23062      00
 23063              	.LASF606:
 23064 066c 75736265 		.ascii	"usbepcallback_t\000"
 23064      7063616C 
 23064      6C626163 
 23064      6B5F7400 
 23065              	.LASF458:
 23066 067c 69326361 		.ascii	"i2caddr_t\000"
 23066      6464725F 
 23066      7400
 23067              	.LASF94:
 23068 0686 76746C69 		.ascii	"vtlist\000"
 23068      737400
 23069              	.LASF166:
 23070 068d 54524953 		.ascii	"TRISE\000"
 23070      4500
ARM GAS  /tmp/ccZueut9.s 			page 417


 23071              	.LASF670:
 23072 0693 72657376 		.ascii	"resvd824\000"
 23072      64383234 
 23072      00
 23073              	.LASF52:
 23074 069c 705F7761 		.ascii	"p_waiting\000"
 23074      6974696E 
 23074      6700
 23075              	.LASF216:
 23076 06a6 6B65726E 		.ascii	"kernel_stats_t\000"
 23076      656C5F73 
 23076      74617473 
 23076      5F7400
 23077              	.LASF962:
 23078 06b5 69725F61 		.ascii	"ir_address\000"
 23078      64647265 
 23078      737300
 23079              	.LASF266:
 23080 06c0 715F7761 		.ascii	"q_waiting\000"
 23080      6974696E 
 23080      6700
 23081              	.LASF118:
 23082 06ca 43414E5F 		.ascii	"CAN_TxMailBox_TypeDef\000"
 23082      54784D61 
 23082      696C426F 
 23082      785F5479 
 23082      70654465 
 23083              	.LASF93:
 23084 06e0 726C6973 		.ascii	"rlist\000"
 23084      7400
 23085              	.LASF61:
 23086 06e6 74687265 		.ascii	"threads_list_t\000"
 23086      6164735F 
 23086      6C697374 
 23086      5F7400
 23087              	.LASF241:
 23088 06f5 63665F6F 		.ascii	"cf_off_ctx\000"
 23088      66665F63 
 23088      747800
 23089              	.LASF275:
 23090 0700 696E7075 		.ascii	"input_queue_t\000"
 23090      745F7175 
 23090      6575655F 
 23090      7400
 23091              	.LASF360:
 23092 070e 41444343 		.ascii	"ADCConversionGroup\000"
 23092      6F6E7665 
 23092      7273696F 
 23092      6E47726F 
 23092      757000
 23093              	.LASF961:
 23094 0721 69725F6D 		.ascii	"ir_move\000"
 23094      6F766500 
 23095              	.LASF663:
 23096 0729 44535453 		.ascii	"DSTS\000"
 23096      00
 23097              	.LASF862:
ARM GAS  /tmp/ccZueut9.s 			page 418


 23098 072e 5F5F6C6F 		.ascii	"__lock\000"
 23098      636B00
 23099              	.LASF464:
 23100 0735 5354445F 		.ascii	"STD_DUTY_CYCLE\000"
 23100      44555459 
 23100      5F435943 
 23100      4C4500
 23101              	.LASF369:
 23102 0744 43414E5F 		.ascii	"CAN_READY\000"
 23102      52454144 
 23102      5900
 23103              	.LASF1028:
 23104 074e 564C3533 		.ascii	"VL53L0X_stop\000"
 23104      4C30585F 
 23104      73746F70 
 23104      00
 23105              	.LASF243:
 23106 075b 63665F6F 		.ascii	"cf_off_older\000"
 23106      66665F6F 
 23106      6C646572 
 23106      00
 23107              	.LASF26:
 23108 0768 72747469 		.ascii	"rttime_t\000"
 23108      6D655F74 
 23108      00
 23109              	.LASF423:
 23110 0771 45585444 		.ascii	"EXTD1\000"
 23110      3100
 23111              	.LASF697:
 23112 0777 72787175 		.ascii	"rxqueued\000"
 23112      65756564 
 23112      00
 23113              	.LASF371:
 23114 0780 63616E73 		.ascii	"canstate_t\000"
 23114      74617465 
 23114      5F7400
 23115              	.LASF138:
 23116 078b 7346696C 		.ascii	"sFilterRegister\000"
 23116      74657252 
 23116      65676973 
 23116      74657200 
 23117              	.LASF831:
 23118 079b 5F5F7366 		.ascii	"__sf\000"
 23118      00
 23119              	.LASF938:
 23120 07a0 77616974 		.ascii	"wait_cam\000"
 23120      5F63616D 
 23120      00
 23121              	.LASF669:
 23122 07a9 72657376 		.ascii	"resvd820\000"
 23122      64383230 
 23122      00
 23123              	.LASF172:
 23124 07b2 52455350 		.ascii	"RESP1\000"
 23124      3100
 23125              	.LASF173:
 23126 07b8 52455350 		.ascii	"RESP2\000"
ARM GAS  /tmp/ccZueut9.s 			page 419


 23126      3200
 23127              	.LASF174:
 23128 07be 52455350 		.ascii	"RESP3\000"
 23128      3300
 23129              	.LASF175:
 23130 07c4 52455350 		.ascii	"RESP4\000"
 23130      3400
 23131              	.LASF848:
 23132 07ca 5F6D6274 		.ascii	"_mbtowc_state\000"
 23132      6F77635F 
 23132      73746174 
 23132      6500
 23133              	.LASF451:
 23134 07d8 4932435F 		.ascii	"I2C_UNINIT\000"
 23134      554E494E 
 23134      495400
 23135              	.LASF608:
 23136 07e3 75736272 		.ascii	"usbreqhandler_t\000"
 23136      65716861 
 23136      6E646C65 
 23136      725F7400 
 23137              	.LASF331:
 23138 07f3 4144435F 		.ascii	"ADC_COMPLETE\000"
 23138      434F4D50 
 23138      4C455445 
 23138      00
 23139              	.LASF447:
 23140 0800 47505443 		.ascii	"GPTConfig\000"
 23140      6F6E6669 
 23140      6700
 23141              	.LASF513:
 23142 080a 53445F55 		.ascii	"SD_UNINIT\000"
 23142      4E494E49 
 23142      5400
 23143              	.LASF890:
 23144 0814 44434D49 		.ascii	"DCMI_UNINIT\000"
 23144      5F554E49 
 23144      4E495400 
 23145              	.LASF31:
 23146 0820 74707269 		.ascii	"tprio_t\000"
 23146      6F5F7400 
 23147              	.LASF212:
 23148 0828 6E5F6972 		.ascii	"n_irq\000"
 23148      7100
 23149              	.LASF752:
 23150 082e 636F6E64 		.ascii	"condvar\000"
 23150      76617200 
 23151              	.LASF492:
 23152 0836 69327370 		.ascii	"i2spr\000"
 23152      7200
 23153              	.LASF673:
 23154 083c 72657376 		.ascii	"resvd830\000"
 23154      64383330 
 23154      00
 23155              	.LASF453:
 23156 0845 4932435F 		.ascii	"I2C_READY\000"
 23156      52454144 
ARM GAS  /tmp/ccZueut9.s 			page 420


 23156      5900
 23157              	.LASF675:
 23158 084f 72657376 		.ascii	"resvd838\000"
 23158      64383338 
 23158      00
 23159              	.LASF467:
 23160 0858 69326364 		.ascii	"i2cdutycycle_t\000"
 23160      75747963 
 23160      79636C65 
 23160      5F7400
 23161              	.LASF721:
 23162 0867 73647573 		.ascii	"sdustate_t\000"
 23162      74617465 
 23162      5F7400
 23163              	.LASF743:
 23164 0872 6F707461 		.ascii	"optarg\000"
 23164      726700
 23165              	.LASF676:
 23166 0879 72657376 		.ascii	"resvd83C\000"
 23166      64383343 
 23166      00
 23167              	.LASF1006:
 23168 0882 655F706F 		.ascii	"e_poxxxx_config_cam\000"
 23168      78787878 
 23168      5F636F6E 
 23168      6669675F 
 23168      63616D00 
 23169              	.LASF345:
 23170 0896 74687265 		.ascii	"thread\000"
 23170      616400
 23171              	.LASF390:
 23172 089d 72656773 		.ascii	"regshift\000"
 23172      68696674 
 23172      00
 23173              	.LASF571:
 23174 08a6 73657475 		.ascii	"setup\000"
 23174      7000
 23175              	.LASF550:
 23176 08ac 5350495F 		.ascii	"SPI_UNINIT\000"
 23176      554E494E 
 23176      495400
 23177              	.LASF624:
 23178 08b7 44545846 		.ascii	"DTXFSTS\000"
 23178      53545300 
 23179              	.LASF294:
 23180 08bf 626C6B5F 		.ascii	"blk_size\000"
 23180      73697A65 
 23180      00
 23181              	.LASF780:
 23182 08c8 5F5F746D 		.ascii	"__tm_yday\000"
 23182      5F796461 
 23182      7900
 23183              	.LASF565:
 23184 08d2 696E5F70 		.ascii	"in_params\000"
 23184      6172616D 
 23184      7300
 23185              	.LASF437:
ARM GAS  /tmp/ccZueut9.s 			page 421


 23186 08dc 43434552 		.ascii	"CCER\000"
 23186      00
 23187              	.LASF188:
 23188 08e1 49325350 		.ascii	"I2SPR\000"
 23188      5200
 23189              	.LASF495:
 23190 08e7 50574D5F 		.ascii	"PWM_UNINIT\000"
 23190      554E494E 
 23190      495400
 23191              	.LASF207:
 23192 08f2 62657374 		.ascii	"best\000"
 23192      00
 23193              	.LASF877:
 23194 08f7 74797065 		.ascii	"type\000"
 23194      00
 23195              	.LASF984:
 23196 08fc 655F6932 		.ascii	"e_i2cp_disable\000"
 23196      63705F64 
 23196      69736162 
 23196      6C6500
 23197              	.LASF633:
 23198 090b 47414842 		.ascii	"GAHBCFG\000"
 23198      43464700 
 23199              	.LASF400:
 23200 0913 64616363 		.ascii	"daccallback_t\000"
 23200      616C6C62 
 23200      61636B5F 
 23200      7400
 23201              	.LASF720:
 23202 0921 5344555F 		.ascii	"SDU_READY\000"
 23202      52454144 
 23202      5900
 23203              	.LASF732:
 23204 092b 5F4C4F43 		.ascii	"_LOCK_T\000"
 23204      4B5F5400 
 23205              	.LASF677:
 23206 0933 72657376 		.ascii	"resvd840\000"
 23206      64383430 
 23206      00
 23207              	.LASF913:
 23208 093c 4D415249 		.ascii	"MARIO_START\000"
 23208      4F5F5354 
 23208      41525400 
 23209              	.LASF184:
 23210 0948 43524350 		.ascii	"CRCPR\000"
 23210      5200
 23211              	.LASF289:
 23212 094e 424C4B5F 		.ascii	"BLK_READY\000"
 23212      52454144 
 23212      5900
 23213              	.LASF8:
 23214 0958 5F5F696E 		.ascii	"__int16_t\000"
 23214      7431365F 
 23214      7400
 23215              	.LASF10:
 23216 0962 5F5F7569 		.ascii	"__uint16_t\000"
 23216      6E743136 
ARM GAS  /tmp/ccZueut9.s 			page 422


 23216      5F7400
 23217              	.LASF427:
 23218 096d 4750545F 		.ascii	"GPT_CONTINUOUS\000"
 23218      434F4E54 
 23218      494E554F 
 23218      555300
 23219              	.LASF691:
 23220 097c 74787175 		.ascii	"txqueued\000"
 23220      65756564 
 23220      00
 23221              	.LASF54:
 23222 0985 705F6D73 		.ascii	"p_msg\000"
 23222      6700
 23223              	.LASF840:
 23224 098b 5F756E75 		.ascii	"_unused_rand\000"
 23224      7365645F 
 23224      72616E64 
 23224      00
 23225              	.LASF630:
 23226 0998 73746D33 		.ascii	"stm32_otg_out_ep_t\000"
 23226      325F6F74 
 23226      675F6F75 
 23226      745F6570 
 23226      5F7400
 23227              	.LASF639:
 23228 09ab 47525853 		.ascii	"GRXSTSP\000"
 23228      54535000 
 23229              	.LASF638:
 23230 09b3 47525853 		.ascii	"GRXSTSR\000"
 23230      54535200 
 23231              	.LASF977:
 23232 09bb 73707269 		.ascii	"sprintf\000"
 23232      6E746600 
 23233              	.LASF218:
 23234 09c3 65786974 		.ascii	"exitcode\000"
 23234      636F6465 
 23234      00
 23235              	.LASF162:
 23236 09cc 4D314152 		.ascii	"M1AR\000"
 23236      00
 23237              	.LASF578:
 23238 09d1 77616974 		.ascii	"wait\000"
 23238      00
 23239              	.LASF163:
 23240 09d6 444D415F 		.ascii	"DMA_Stream_TypeDef\000"
 23240      53747265 
 23240      616D5F54 
 23240      79706544 
 23240      656600
 23241              	.LASF585:
 23242 09e9 5553425F 		.ascii	"USB_ACTIVE\000"
 23242      41435449 
 23242      564500
 23243              	.LASF747:
 23244 09f4 6F707472 		.ascii	"optreset\000"
 23244      65736574 
 23244      00
ARM GAS  /tmp/ccZueut9.s 			page 423


 23245              	.LASF626:
 23246 09fd 73746D33 		.ascii	"stm32_otg_in_ep_t\000"
 23246      325F6F74 
 23246      675F696E 
 23246      5F65705F 
 23246      7400
 23247              	.LASF699:
 23248 0a0f 7278636E 		.ascii	"rxcnt\000"
 23248      7400
 23249              	.LASF327:
 23250 0a15 4144435F 		.ascii	"ADC_UNINIT\000"
 23250      554E494E 
 23250      495400
 23251              	.LASF475:
 23252 0a20 7278646D 		.ascii	"rxdmamode\000"
 23252      616D6F64 
 23252      6500
 23253              	.LASF822:
 23254 0a2a 5F726573 		.ascii	"_result_k\000"
 23254      756C745F 
 23254      6B00
 23255              	.LASF419:
 23256 0a34 6D6F6465 		.ascii	"mode\000"
 23256      00
 23257              	.LASF814:
 23258 0a39 5F737464 		.ascii	"_stderr\000"
 23258      65727200 
 23259              	.LASF821:
 23260 0a41 5F726573 		.ascii	"_result\000"
 23260      756C7400 
 23261              	.LASF231:
 23262 0a49 6D5F636E 		.ascii	"m_cnt\000"
 23262      7400
 23263              	.LASF416:
 23264 0a4f 45585444 		.ascii	"EXTDriver\000"
 23264      72697665 
 23264      7200
 23265              	.LASF246:
 23266 0a59 63665F6F 		.ascii	"cf_off_state\000"
 23266      66665F73 
 23266      74617465 
 23266      00
 23267              	.LASF487:
 23268 0a66 69327363 		.ascii	"i2scallback_t\000"
 23268      616C6C62 
 23268      61636B5F 
 23268      7400
 23269              	.LASF559:
 23270 0a74 73737061 		.ascii	"sspad\000"
 23270      6400
 23271              	.LASF476:
 23272 0a7a 7478646D 		.ascii	"txdmamode\000"
 23272      616D6F64 
 23272      6500
 23273              	.LASF882:
 23274 0a84 6275665F 		.ascii	"buf_dim\000"
 23274      64696D00 
ARM GAS  /tmp/ccZueut9.s 			page 424


 23275              	.LASF443:
 23276 0a8c 67707466 		.ascii	"gptfreq_t\000"
 23276      7265715F 
 23276      7400
 23277              	.LASF965:
 23278 0a96 7573655F 		.ascii	"use_bt\000"
 23278      627400
 23279              	.LASF779:
 23280 0a9d 5F5F746D 		.ascii	"__tm_wday\000"
 23280      5F776461 
 23280      7900
 23281              	.LASF1003:
 23282 0aa7 655F7365 		.ascii	"e_set_speed_left\000"
 23282      745F7370 
 23282      6565645F 
 23282      6C656674 
 23282      00
 23283              	.LASF776:
 23284 0ab8 5F5F746D 		.ascii	"__tm_mday\000"
 23284      5F6D6461 
 23284      7900
 23285              	.LASF729:
 23286 0ac2 75736263 		.ascii	"usbcfg\000"
 23286      666700
 23287              	.LASF684:
 23288 0ac9 72785F66 		.ascii	"rx_fifo_size\000"
 23288      69666F5F 
 23288      73697A65 
 23288      00
 23289              	.LASF193:
 23290 0ad6 73746B61 		.ascii	"stkalign_t\000"
 23290      6C69676E 
 23290      5F7400
 23291              	.LASF1030:
 23292 0ae1 70726F78 		.ascii	"proximity_start\000"
 23292      696D6974 
 23292      795F7374 
 23292      61727400 
 23293              	.LASF398:
 23294 0af1 4441435F 		.ascii	"DAC_ERR_UNDERFLOW\000"
 23294      4552525F 
 23294      554E4445 
 23294      52464C4F 
 23294      5700
 23295              	.LASF379:
 23296 0b03 77616B65 		.ascii	"wakeup_event\000"
 23296      75705F65 
 23296      76656E74 
 23296      00
 23297              	.LASF78:
 23298 0b10 76745F70 		.ascii	"vt_prev\000"
 23298      72657600 
 23299              	.LASF353:
 23300 0b18 656E645F 		.ascii	"end_cb\000"
 23300      636200
 23301              	.LASF702:
 23302 0b1f 73657475 		.ascii	"setup_cb\000"
ARM GAS  /tmp/ccZueut9.s 			page 425


 23302      705F6362 
 23302      00
 23303              	.LASF7:
 23304 0b28 756E7369 		.ascii	"unsigned char\000"
 23304      676E6564 
 23304      20636861 
 23304      7200
 23305              	.LASF813:
 23306 0b36 5F737464 		.ascii	"_stdout\000"
 23306      6F757400 
 23307              	.LASF182:
 23308 0b3e 4649464F 		.ascii	"FIFO\000"
 23308      00
 23309              	.LASF203:
 23310 0b43 74625F62 		.ascii	"tb_buffer\000"
 23310      75666665 
 23310      7200
 23311              	.LASF373:
 23312 0b4d 74787175 		.ascii	"txqueue\000"
 23312      65756500 
 23313              	.LASF153:
 23314 0b55 52495352 		.ascii	"RISR\000"
 23314      00
 23315              	.LASF226:
 23316 0b5a 735F636E 		.ascii	"s_cnt\000"
 23316      7400
 23317              	.LASF66:
 23318 0b60 72656164 		.ascii	"ready_list_t\000"
 23318      795F6C69 
 23318      73745F74 
 23318      00
 23319              	.LASF62:
 23320 0b6d 63685F74 		.ascii	"ch_thread\000"
 23320      68726561 
 23320      6400
 23321              	.LASF462:
 23322 0b77 4F504D4F 		.ascii	"OPMODE_SMBUS_HOST\000"
 23322      44455F53 
 23322      4D425553 
 23322      5F484F53 
 23322      5400
 23323              	.LASF985:
 23324 0b89 73736361 		.ascii	"sscanf\000"
 23324      6E6600
 23325              	.LASF855:
 23326 0b90 5F6D6273 		.ascii	"_mbsrtowcs_state\000"
 23326      72746F77 
 23326      63735F73 
 23326      74617465 
 23326      00
 23327              	.LASF580:
 23328 0ba1 75736265 		.ascii	"usbep_t\000"
 23328      705F7400 
 23329              	.LASF1020:
 23330 0ba9 655F696E 		.ascii	"e_init_motors\000"
 23330      69745F6D 
 23330      6F746F72 
ARM GAS  /tmp/ccZueut9.s 			page 426


 23330      7300
 23331              	.LASF771:
 23332 0bb7 5F776473 		.ascii	"_wds\000"
 23332      00
 23333              	.LASF883:
 23334 0bbc 666C6F61 		.ascii	"float\000"
 23334      7400
 23335              	.LASF919:
 23336 0bc2 53544152 		.ascii	"STARWARS\000"
 23336      57415253 
 23336      00
 23337              	.LASF412:
 23338 0bcb 4558545F 		.ascii	"EXT_UNINIT\000"
 23338      554E494E 
 23338      495400
 23339              	.LASF370:
 23340 0bd6 43414E5F 		.ascii	"CAN_SLEEP\000"
 23340      534C4545 
 23340      5000
 23341              	.LASF199:
 23342 0be0 73655F73 		.ascii	"se_state\000"
 23342      74617465 
 23342      00
 23343              	.LASF366:
 23344 0be9 43414E5F 		.ascii	"CAN_UNINIT\000"
 23344      554E494E 
 23344      495400
 23345              	.LASF549:
 23346 0bf4 53444344 		.ascii	"SDCD1\000"
 23346      3100
 23347              	.LASF85:
 23348 0bfa 73797374 		.ascii	"system_debug_t\000"
 23348      656D5F64 
 23348      65627567 
 23348      5F7400
 23349              	.LASF143:
 23350 0c09 44485238 		.ascii	"DHR8R1\000"
 23350      523100
 23351              	.LASF146:
 23352 0c10 44485238 		.ascii	"DHR8R2\000"
 23352      523200
 23353              	.LASF434:
 23354 0c17 44494552 		.ascii	"DIER\000"
 23354      00
 23355              	.LASF760:
 23356 0c1c 68656164 		.ascii	"head\000"
 23356      00
 23357              	.LASF945:
 23358 0c21 61636378 		.ascii	"accx\000"
 23358      00
 23359              	.LASF946:
 23360 0c26 61636379 		.ascii	"accy\000"
 23360      00
 23361              	.LASF42:
 23362 0c2b 705F6374 		.ascii	"p_ctx\000"
 23362      7800
 23363              	.LASF81:
ARM GAS  /tmp/ccZueut9.s 			page 427


 23364 0c31 76745F70 		.ascii	"vt_par\000"
 23364      617200
 23365              	.LASF102:
 23366 0c38 4A4F4652 		.ascii	"JOFR1\000"
 23366      3100
 23367              	.LASF103:
 23368 0c3e 4A4F4652 		.ascii	"JOFR2\000"
 23368      3200
 23369              	.LASF104:
 23370 0c44 4A4F4652 		.ascii	"JOFR3\000"
 23370      3300
 23371              	.LASF105:
 23372 0c4a 4A4F4652 		.ascii	"JOFR4\000"
 23372      3400
 23373              	.LASF910:
 23374 0c50 52555353 		.ascii	"RUSSIA\000"
 23374      494100
 23375              	.LASF73:
 23376 0c57 725F6375 		.ascii	"r_current\000"
 23376      7272656E 
 23376      7400
 23377              	.LASF792:
 23378 0c61 5F73697A 		.ascii	"_size\000"
 23378      6500
 23379              	.LASF799:
 23380 0c67 5F777269 		.ascii	"_write\000"
 23380      746500
 23381              	.LASF186:
 23382 0c6e 54584352 		.ascii	"TXCRCR\000"
 23382      435200
 23383              	.LASF405:
 23384 0c75 64616364 		.ascii	"dacdhrmode_t\000"
 23384      68726D6F 
 23384      64655F74 
 23384      00
 23385              	.LASF347:
 23386 0c82 646D6173 		.ascii	"dmastp\000"
 23386      747000
 23387              	.LASF751:
 23388 0c89 6C6F636B 		.ascii	"lock\000"
 23388      00
 23389              	.LASF466:
 23390 0c8e 46415354 		.ascii	"FAST_DUTY_CYCLE_16_9\000"
 23390      5F445554 
 23390      595F4359 
 23390      434C455F 
 23390      31365F39 
 23391              	.LASF24:
 23392 0ca3 75696E74 		.ascii	"uint64_t\000"
 23392      36345F74 
 23392      00
 23393              	.LASF213:
 23394 0cac 6E5F6374 		.ascii	"n_ctxswc\000"
 23394      78737763 
 23394      00
 23395              	.LASF956:
 23396 0cb5 63616D5F 		.ascii	"cam_size\000"
ARM GAS  /tmp/ccZueut9.s 			page 428


 23396      73697A65 
 23396      00
 23397              	.LASF252:
 23398 0cbe 63685F64 		.ascii	"ch_debug\000"
 23398      65627567 
 23398      00
 23399              	.LASF408:
 23400 0cc7 696E6974 		.ascii	"init\000"
 23400      00
 23401              	.LASF130:
 23402 0ccc 464D3152 		.ascii	"FM1R\000"
 23402      00
 23403              	.LASF774:
 23404 0cd1 5F5F746D 		.ascii	"__tm_min\000"
 23404      5F6D696E 
 23404      00
 23405              	.LASF324:
 23406 0cda 50414C43 		.ascii	"PALConfig\000"
 23406      6F6E6669 
 23406      6700
 23407              	.LASF693:
 23408 0ce4 7478636E 		.ascii	"txcnt\000"
 23408      7400
 23409              	.LASF871:
 23410 0cea 73756273 		.ascii	"subspaces\000"
 23410      70616365 
 23410      7300
 23411              	.LASF607:
 23412 0cf4 75736265 		.ascii	"usbeventcb_t\000"
 23412      76656E74 
 23412      63625F74 
 23412      00
 23413              	.LASF286:
 23414 0d01 424C4B5F 		.ascii	"BLK_ACTIVE\000"
 23414      41435449 
 23414      564500
 23415              	.LASF778:
 23416 0d0c 5F5F746D 		.ascii	"__tm_year\000"
 23416      5F796561 
 23416      7200
 23417              	.LASF254:
 23418 0d16 6576656E 		.ascii	"event_listener_t\000"
 23418      745F6C69 
 23418      7374656E 
 23418      65725F74 
 23418      00
 23419              	.LASF1058:
 23420 0d27 72756E5F 		.ascii	"run_asercom2\000"
 23420      61736572 
 23420      636F6D32 
 23420      00
 23421              	.LASF804:
 23422 0d34 5F626C6B 		.ascii	"_blksize\000"
 23422      73697A65 
 23422      00
 23423              	.LASF685:
 23424 0d3d 6F74675F 		.ascii	"otg_ram_size\000"
ARM GAS  /tmp/ccZueut9.s 			page 429


 23424      72616D5F 
 23424      73697A65 
 23424      00
 23425              	.LASF1036:
 23426 0d4a 7365745F 		.ascii	"set_front_led\000"
 23426      66726F6E 
 23426      745F6C65 
 23426      6400
 23427              	.LASF937:
 23428 0d58 73656C65 		.ascii	"selector\000"
 23428      63746F72 
 23428      00
 23429              	.LASF1014:
 23430 0d61 67657442 		.ascii	"getBatteryValueRaw\000"
 23430      61747465 
 23430      72795661 
 23430      6C756552 
 23430      617700
 23431              	.LASF687:
 23432 0d74 73746D33 		.ascii	"stm32_otg_params_t\000"
 23432      325F6F74 
 23432      675F7061 
 23432      72616D73 
 23432      5F7400
 23433              	.LASF680:
 23434 0d87 72657376 		.ascii	"resvdD00\000"
 23434      64443030 
 23434      00
 23435              	.LASF185:
 23436 0d90 52584352 		.ascii	"RXCRCR\000"
 23436      435200
 23437              	.LASF696:
 23438 0d97 72786275 		.ascii	"rxbuf\000"
 23438      6600
 23439              	.LASF974:
 23440 0d9d 67657458 		.ascii	"getXAxisGyro\000"
 23440      41786973 
 23440      4779726F 
 23440      00
 23441              	.LASF636:
 23442 0daa 47494E54 		.ascii	"GINTSTS\000"
 23442      53545300 
 23443              	.LASF914:
 23444 0db2 4D415249 		.ascii	"MARIO_DEATH\000"
 23444      4F5F4445 
 23444      41544800 
 23445              	.LASF227:
 23446 0dbe 63685F6D 		.ascii	"ch_mutex\000"
 23446      75746578 
 23446      00
 23447              	.LASF376:
 23448 0dc7 7478656D 		.ascii	"txempty_event\000"
 23448      7074795F 
 23448      6576656E 
 23448      7400
 23449              	.LASF718:
 23450 0dd5 5344555F 		.ascii	"SDU_UNINIT\000"
ARM GAS  /tmp/ccZueut9.s 			page 430


 23450      554E494E 
 23450      495400
 23451              	.LASF499:
 23452 0de0 50574D44 		.ascii	"PWMDriver\000"
 23452      72697665 
 23452      7200
 23453              	.LASF321:
 23454 0dea 50474461 		.ascii	"PGData\000"
 23454      746100
 23455              	.LASF508:
 23456 0df1 50574D43 		.ascii	"PWMConfig\000"
 23456      6F6E6669 
 23456      6700
 23457              	.LASF730:
 23458 0dfb 73657275 		.ascii	"serusbcfg\000"
 23458      73626366 
 23458      6700
 23459              	.LASF998:
 23460 0e05 655F6765 		.ascii	"e_get_address\000"
 23460      745F6164 
 23460      64726573 
 23460      7300
 23461              	.LASF878:
 23462 0e13 76616C75 		.ascii	"value\000"
 23462      6500
 23463              	.LASF242:
 23464 0e19 63665F6F 		.ascii	"cf_off_newer\000"
 23464      66665F6E 
 23464      65776572 
 23464      00
 23465              	.LASF665:
 23466 0e26 44494550 		.ascii	"DIEPMSK\000"
 23466      4D534B00 
 23467              	.LASF632:
 23468 0e2e 474F5447 		.ascii	"GOTGINT\000"
 23468      494E5400 
 23469              	.LASF947:
 23470 0e36 6163637A 		.ascii	"accz\000"
 23470      00
 23471              	.LASF704:
 23472 0e3b 6F75745F 		.ascii	"out_cb\000"
 23472      636200
 23473              	.LASF656:
 23474 0e42 4841494E 		.ascii	"HAINTMSK\000"
 23474      544D534B 
 23474      00
 23475              	.LASF566:
 23476 0e4b 6F75745F 		.ascii	"out_params\000"
 23476      70617261 
 23476      6D7300
 23477              	.LASF198:
 23478 0e56 73655F77 		.ascii	"se_wtobjp\000"
 23478      746F626A 
 23478      7000
 23479              	.LASF109:
 23480 0e60 4A535152 		.ascii	"JSQR\000"
 23480      00
ARM GAS  /tmp/ccZueut9.s 			page 431


 23481              	.LASF812:
 23482 0e65 5F737464 		.ascii	"_stdin\000"
 23482      696E00
 23483              	.LASF860:
 23484 0e6c 5F6E6D61 		.ascii	"_nmalloc\000"
 23484      6C6C6F63 
 23484      00
 23485              	.LASF446:
 23486 0e75 64696572 		.ascii	"dier\000"
 23486      00
 23487              	.LASF544:
 23488 0e7a 69735F70 		.ascii	"is_protected\000"
 23488      726F7465 
 23488      63746564 
 23488      00
 23489              	.LASF953:
 23490 0e87 63616D5F 		.ascii	"cam_width\000"
 23490      77696474 
 23490      6800
 23491              	.LASF75:
 23492 0e91 76697274 		.ascii	"virtual_timer_t\000"
 23492      75616C5F 
 23492      74696D65 
 23492      725F7400 
 23493              	.LASF706:
 23494 0ea1 6F75745F 		.ascii	"out_maxsize\000"
 23494      6D617873 
 23494      697A6500 
 23495              	.LASF1053:
 23496 0ead 655F6932 		.ascii	"e_i2cp_init\000"
 23496      63705F69 
 23496      6E697400 
 23497              	.LASF70:
 23498 0eb9 725F6374 		.ascii	"r_ctx\000"
 23498      7800
 23499              	.LASF77:
 23500 0ebf 76745F6E 		.ascii	"vt_next\000"
 23500      65787400 
 23501              	.LASF481:
 23502 0ec7 4932535F 		.ascii	"I2S_STOP\000"
 23502      53544F50 
 23502      00
 23503              	.LASF496:
 23504 0ed0 50574D5F 		.ascii	"PWM_STOP\000"
 23504      53544F50 
 23504      00
 23505              	.LASF25:
 23506 0ed9 7274636E 		.ascii	"rtcnt_t\000"
 23506      745F7400 
 23507              	.LASF346:
 23508 0ee1 6D757465 		.ascii	"mutex\000"
 23508      7800
 23509              	.LASF490:
 23510 0ee7 73697A65 		.ascii	"size\000"
 23510      00
 23511              	.LASF394:
 23512 0eec 44414344 		.ascii	"DACDriver\000"
ARM GAS  /tmp/ccZueut9.s 			page 432


 23512      72697665 
 23512      7200
 23513              	.LASF410:
 23514 0ef6 44414343 		.ascii	"DACConfig\000"
 23514      6F6E6669 
 23514      6700
 23515              	.LASF1052:
 23516 0f00 6D707539 		.ascii	"mpu9250_magnetometer_setup\000"
 23516      3235305F 
 23516      6D61676E 
 23516      65746F6D 
 23516      65746572 
 23517              	.LASF577:
 23518 0f1b 74787065 		.ascii	"txpending\000"
 23518      6E64696E 
 23518      6700
 23519              	.LASF431:
 23520 0f25 636C6F63 		.ascii	"clock\000"
 23520      6B00
 23521              	.LASF298:
 23522 0f2b 636C6561 		.ascii	"clear\000"
 23522      7200
 23523              	.LASF441:
 23524 0f31 43435852 		.ascii	"CCXR\000"
 23524      00
 23525              	.LASF139:
 23526 0f36 43414E5F 		.ascii	"CAN_TypeDef\000"
 23526      54797065 
 23526      44656600 
 23527              	.LASF733:
 23528 0f42 5F6F6666 		.ascii	"_off_t\000"
 23528      5F7400
 23529              	.LASF200:
 23530 0f49 63685F73 		.ascii	"ch_swc_event_t\000"
 23530      77635F65 
 23530      76656E74 
 23530      5F7400
 23531              	.LASF514:
 23532 0f58 53445F53 		.ascii	"SD_STOP\000"
 23532      544F5000 
 23533              	.LASF611:
 23534 0f60 72657376 		.ascii	"resvd8\000"
 23534      643800
 23535              	.LASF3:
 23536 0f67 73697A65 		.ascii	"size_t\000"
 23536      5F7400
 23537              	.LASF96:
 23538 0f6e 6B65726E 		.ascii	"kernel_stats\000"
 23538      656C5F73 
 23538      74617473 
 23538      00
 23539              	.LASF678:
 23540 0f7b 72657376 		.ascii	"resvd880\000"
 23540      64383830 
 23540      00
 23541              	.LASF916:
 23542 0f84 57414C4B 		.ascii	"WALKING\000"
ARM GAS  /tmp/ccZueut9.s 			page 433


 23542      494E4700 
 23543              	.LASF886:
 23544 0f8c 70617261 		.ascii	"parameter_root\000"
 23544      6D657465 
 23544      725F726F 
 23544      6F7400
 23545              	.LASF738:
 23546 0f9b 5F5F636F 		.ascii	"__count\000"
 23546      756E7400 
 23547              	.LASF19:
 23548 0fa3 75696E74 		.ascii	"uint8_t\000"
 23548      385F7400 
 23549              	.LASF950:
 23550 0fab 6779726F 		.ascii	"gyroy\000"
 23550      7900
 23551              	.LASF615:
 23552 0fb1 72657376 		.ascii	"resvd14\000"
 23552      64313400 
 23553              	.LASF616:
 23554 0fb9 72657376 		.ascii	"resvd18\000"
 23554      64313800 
 23555              	.LASF72:
 23556 0fc1 725F6F6C 		.ascii	"r_older\000"
 23556      64657200 
 23557              	.LASF40:
 23558 0fc9 705F7072 		.ascii	"p_prev\000"
 23558      657600
 23559              	.LASF244:
 23560 0fd0 63665F6F 		.ascii	"cf_off_name\000"
 23560      66665F6E 
 23560      616D6500 
 23561              	.LASF507:
 23562 0fdc 50574D43 		.ascii	"PWMChannelConfig\000"
 23562      68616E6E 
 23562      656C436F 
 23562      6E666967 
 23562      00
 23563              	.LASF506:
 23564 0fed 70776D63 		.ascii	"pwmcnt_t\000"
 23564      6E745F74 
 23564      00
 23565              	.LASF674:
 23566 0ff6 44494550 		.ascii	"DIEPEMPMSK\000"
 23566      454D504D 
 23566      534B00
 23567              	.LASF901:
 23568 1001 64636D69 		.ascii	"dcmicallback_t\000"
 23568      63616C6C 
 23568      6261636B 
 23568      5F7400
 23569              	.LASF619:
 23570 1010 44494550 		.ascii	"DIEPCTL\000"
 23570      43544C00 
 23571              	.LASF260:
 23572 1018 656C5F77 		.ascii	"el_wflags\000"
 23572      666C6167 
 23572      7300
ARM GAS  /tmp/ccZueut9.s 			page 434


 23573              	.LASF575:
 23574 1022 6F746770 		.ascii	"otgparams\000"
 23574      6172616D 
 23574      7300
 23575              	.LASF201:
 23576 102c 74625F73 		.ascii	"tb_size\000"
 23576      697A6500 
 23577              	.LASF318:
 23578 1034 50444461 		.ascii	"PDData\000"
 23578      746100
 23579              	.LASF1041:
 23580 103b 655F706F 		.ascii	"e_poxxxx_wait_img_ready\000"
 23580      78787878 
 23580      5F776169 
 23580      745F696D 
 23580      675F7265 
 23581              	.LASF539:
 23582 1053 73637261 		.ascii	"scratchpad\000"
 23582      74636870 
 23582      616400
 23583              	.LASF826:
 23584 105e 5F637674 		.ascii	"_cvtbuf\000"
 23584      62756600 
 23585              	.LASF708:
 23586 1066 6F75745F 		.ascii	"out_state\000"
 23586      73746174 
 23586      6500
 23587              	.LASF264:
 23588 1070 696F5F71 		.ascii	"io_queue_t\000"
 23588      75657565 
 23588      5F7400
 23589              	.LASF816:
 23590 107b 5F656D65 		.ascii	"_emergency\000"
 23590      7267656E 
 23590      637900
 23591              	.LASF555:
 23592 1086 73706973 		.ascii	"spistate_t\000"
 23592      74617465 
 23592      5F7400
 23593              	.LASF933:
 23594 1091 61636365 		.ascii	"acceleration\000"
 23594      6C657261 
 23594      74696F6E 
 23594      00
 23595              	.LASF452:
 23596 109e 4932435F 		.ascii	"I2C_STOP\000"
 23596      53544F50 
 23596      00
 23597              	.LASF474:
 23598 10a7 61646472 		.ascii	"addr\000"
 23598      00
 23599              	.LASF923:
 23600 10ac 45585445 		.ascii	"EXTERNAL_SONG\000"
 23600      524E414C 
 23600      5F534F4E 
 23600      4700
 23601              	.LASF124:
ARM GAS  /tmp/ccZueut9.s 			page 435


 23602 10ba 52463052 		.ascii	"RF0R\000"
 23602      00
 23603              	.LASF336:
 23604 10bf 4144435F 		.ascii	"ADC_ERR_DMAFAILURE\000"
 23604      4552525F 
 23604      444D4146 
 23604      41494C55 
 23604      524500
 23605              	.LASF553:
 23606 10d2 5350495F 		.ascii	"SPI_ACTIVE\000"
 23606      41435449 
 23606      564500
 23607              	.LASF742:
 23608 10dd 656E7669 		.ascii	"environ\000"
 23608      726F6E00 
 23609              	.LASF420:
 23610 10e5 45585443 		.ascii	"EXTChannelConfig\000"
 23610      68616E6E 
 23610      656C436F 
 23610      6E666967 
 23610      00
 23611              	.LASF301:
 23612 10f6 4F535045 		.ascii	"OSPEEDR\000"
 23612      45445200 
 23613              	.LASF384:
 23614 10fe 4441435F 		.ascii	"DAC_READY\000"
 23614      52454144 
 23614      5900
 23615              	.LASF643:
 23616 1108 72657376 		.ascii	"resvd30\000"
 23616      64333000 
 23617              	.LASF737:
 23618 1110 5F5F7763 		.ascii	"__wchb\000"
 23618      686200
 23619              	.LASF644:
 23620 1117 72657376 		.ascii	"resvd34\000"
 23620      64333400 
 23621              	.LASF672:
 23622 111f 44564255 		.ascii	"DVBUSPULSE\000"
 23622      5350554C 
 23622      534500
 23623              	.LASF775:
 23624 112a 5F5F746D 		.ascii	"__tm_hour\000"
 23624      5F686F75 
 23624      7200
 23625              	.LASF959:
 23626 1134 66697273 		.ascii	"first\000"
 23626      7400
 23627              	.LASF285:
 23628 113a 424C4B5F 		.ascii	"BLK_STOP\000"
 23628      53544F50 
 23628      00
 23629              	.LASF522:
 23630 1143 53657269 		.ascii	"SerialDriverVMT\000"
 23630      616C4472 
 23630      69766572 
 23630      564D5400 
ARM GAS  /tmp/ccZueut9.s 			page 436


 23631              	.LASF593:
 23632 1153 5553425F 		.ascii	"USB_EP0_ERROR\000"
 23632      4550305F 
 23632      4552524F 
 23632      5200
 23633              	.LASF735:
 23634 1161 77696E74 		.ascii	"wint_t\000"
 23634      5F7400
 23635              	.LASF545:
 23636 1168 636F6E6E 		.ascii	"connect\000"
 23636      65637400 
 23637              	.LASF125:
 23638 1170 52463152 		.ascii	"RF1R\000"
 23638      00
 23639              	.LASF339:
 23640 1175 41444344 		.ascii	"ADCDriver\000"
 23640      72697665 
 23640      7200
 23641              	.LASF686:
 23642 117f 6E756D5F 		.ascii	"num_endpoints\000"
 23642      656E6470 
 23642      6F696E74 
 23642      7300
 23643              	.LASF362:
 23644 118d 41444343 		.ascii	"ADCConfig\000"
 23644      6F6E6669 
 23644      6700
 23645              	.LASF694:
 23646 1197 746F7473 		.ascii	"totsize\000"
 23646      697A6500 
 23647              	.LASF884:
 23648 119f 5F706172 		.ascii	"_param_val_matrix_s\000"
 23648      616D5F76 
 23648      616C5F6D 
 23648      61747269 
 23648      785F7300 
 23649              	.LASF834:
 23650 11b3 5F6E696F 		.ascii	"_niobs\000"
 23650      627300
 23651              	.LASF515:
 23652 11ba 53445F52 		.ascii	"SD_READY\000"
 23652      45414459 
 23652      00
 23653              	.LASF609:
 23654 11c3 75736267 		.ascii	"usbgetdescriptor_t\000"
 23654      65746465 
 23654      73637269 
 23654      70746F72 
 23654      5F7400
 23655              	.LASF1055:
 23656 11d6 474E5520 		.ascii	"GNU C11 7.2.1 20170904 (release) [ARM/embedded-7-br"
 23656      43313120 
 23656      372E322E 
 23656      31203230 
 23656      31373039 
 23657 1209 616E6368 		.ascii	"anch revision 255204] -mcpu=cortex-m4 -mfloat-abi=h"
 23657      20726576 
ARM GAS  /tmp/ccZueut9.s 			page 437


 23657      6973696F 
 23657      6E203235 
 23657      35323034 
 23658 123c 61726420 		.ascii	"ard -mfpu=fpv4-sp-d16 -mno-thumb-interwork -mthumb "
 23658      2D6D6670 
 23658      753D6670 
 23658      76342D73 
 23658      702D6431 
 23659 126f 2D676764 		.ascii	"-ggdb -O2 -fomit-frame-pointer -falign-functions=16"
 23659      62202D4F 
 23659      32202D66 
 23659      6F6D6974 
 23659      2D667261 
 23660 12a2 202D666E 		.ascii	" -fno-strict-aliasing -fstack-protector-all -ffunct"
 23660      6F2D7374 
 23660      72696374 
 23660      2D616C69 
 23660      6173696E 
 23661 12d5 696F6E2D 		.ascii	"ion-sections -fdata-sections -fno-common -fsingle-p"
 23661      73656374 
 23661      696F6E73 
 23661      202D6664 
 23661      6174612D 
 23662 1308 72656369 		.ascii	"recision-constant\000"
 23662      73696F6E 
 23662      2D636F6E 
 23662      7374616E 
 23662      7400
 23663              	.LASF387:
 23664 131a 4441435F 		.ascii	"DAC_ERROR\000"
 23664      4552524F 
 23664      5200
 23665              	.LASF811:
 23666 1324 5F657272 		.ascii	"_errno\000"
 23666      6E6F00
 23667              	.LASF762:
 23668 132b 6D657373 		.ascii	"messagebus_t\000"
 23668      61676562 
 23668      75735F74 
 23668      00
 23669              	.LASF588:
 23670 1338 5553425F 		.ascii	"USB_EP0_TX\000"
 23670      4550305F 
 23670      545800
 23671              	.LASF567:
 23672 1343 65703073 		.ascii	"ep0state\000"
 23672      74617465 
 23672      00
 23673              	.LASF874:
 23674 134c 70617261 		.ascii	"parameter_s\000"
 23674      6D657465 
 23674      725F7300 
 23675              	.LASF748:
 23676 1358 746F7069 		.ascii	"topic_s\000"
 23676      635F7300 
 23677              	.LASF278:
 23678 1360 69666372 		.ascii	"ifcr\000"
ARM GAS  /tmp/ccZueut9.s 			page 438


 23678      00
 23679              	.LASF921:
 23680 1365 53455645 		.ascii	"SEVEN_NATION_ARMY\000"
 23680      4E5F4E41 
 23680      54494F4E 
 23680      5F41524D 
 23680      5900
 23681              	.LASF480:
 23682 1377 4932535F 		.ascii	"I2S_UNINIT\000"
 23682      554E494E 
 23682      495400
 23683              	.LASF724:
 23684 1382 62756C6B 		.ascii	"bulk_in\000"
 23684      5F696E00 
 23685              	.LASF307:
 23686 138a 73746D33 		.ascii	"stm32_gpio_t\000"
 23686      325F6770 
 23686      696F5F74 
 23686      00
 23687              	.LASF217:
 23688 1397 7264796D 		.ascii	"rdymsg\000"
 23688      736700
 23689              	.LASF783:
 23690 139e 5F666E61 		.ascii	"_fnargs\000"
 23690      72677300 
 23691              	.LASF497:
 23692 13a6 50574D5F 		.ascii	"PWM_READY\000"
 23692      52454144 
 23692      5900
 23693              	.LASF115:
 23694 13b0 54445452 		.ascii	"TDTR\000"
 23694      00
 23695              	.LASF123:
 23696 13b5 43414E5F 		.ascii	"CAN_FilterRegister_TypeDef\000"
 23696      46696C74 
 23696      65725265 
 23696      67697374 
 23696      65725F54 
 23697              	.LASF377:
 23698 13d0 6572726F 		.ascii	"error_event\000"
 23698      725F6576 
 23698      656E7400 
 23699              	.LASF352:
 23700 13dc 6E756D5F 		.ascii	"num_channels\000"
 23700      6368616E 
 23700      6E656C73 
 23700      00
 23701              	.LASF646:
 23702 13e9 72657376 		.ascii	"resvd58\000"
 23702      64353800 
 23703              	.LASF695:
 23704 13f1 55534249 		.ascii	"USBInEndpointState\000"
 23704      6E456E64 
 23704      706F696E 
 23704      74537461 
 23704      746500
 23705              	.LASF41:
ARM GAS  /tmp/ccZueut9.s 			page 439


 23706 1404 705F7072 		.ascii	"p_prio\000"
 23706      696F00
 23707              	.LASF876:
 23708 140b 64656669 		.ascii	"defined\000"
 23708      6E656400 
 23709              	.LASF265:
 23710 1413 696F5F71 		.ascii	"io_queue\000"
 23710      75657565 
 23710      00
 23711              	.LASF1034:
 23712 141c 7365745F 		.ascii	"set_led\000"
 23712      6C656400 
 23713              	.LASF315:
 23714 1424 50414461 		.ascii	"PAData\000"
 23714      746100
 23715              	.LASF16:
 23716 142b 5F5F7569 		.ascii	"__uint64_t\000"
 23716      6E743634 
 23716      5F7400
 23717              	.LASF1019:
 23718 1436 73746F70 		.ascii	"stopCurrentMelody\000"
 23718      43757272 
 23718      656E744D 
 23718      656C6F64 
 23718      7900
 23719              	.LASF768:
 23720 1448 5F6E6578 		.ascii	"_next\000"
 23720      7400
 23721              	.LASF731:
 23722 144e 53445531 		.ascii	"SDU1\000"
 23722      00
 23723              	.LASF957:
 23724 1453 63616D5F 		.ascii	"cam_x1\000"
 23724      783100
 23725              	.LASF502:
 23726 145a 70776D63 		.ascii	"pwmcallback_t\000"
 23726      616C6C62 
 23726      61636B5F 
 23726      7400
 23727              	.LASF931:
 23728 1468 4E554D5F 		.ascii	"NUM_LED\000"
 23728      4C454400 
 23729              	.LASF1056:
 23730 1470 2E2E2F65 		.ascii	"../e-puck2_main-processor/src/epuck1x/Asercom2.c\000"
 23730      2D707563 
 23730      6B325F6D 
 23730      61696E2D 
 23730      70726F63 
 23731              	.LASF395:
 23732 14a1 70617261 		.ascii	"params\000"
 23732      6D7300
 23733              	.LASF592:
 23734 14a8 5553425F 		.ascii	"USB_EP0_SENDING_STS\000"
 23734      4550305F 
 23734      53454E44 
 23734      494E475F 
 23734      53545300 
ARM GAS  /tmp/ccZueut9.s 			page 440


 23735              	.LASF851:
 23736 14bc 5F736967 		.ascii	"_signal_buf\000"
 23736      6E616C5F 
 23736      62756600 
 23737              	.LASF994:
 23738 14c8 655F6765 		.ascii	"e_get_acc_filtered\000"
 23738      745F6163 
 23738      635F6669 
 23738      6C746572 
 23738      656400
 23739              	.LASF726:
 23740 14db 696E745F 		.ascii	"int_in\000"
 23740      696E00
 23741              	.LASF457:
 23742 14e2 69326373 		.ascii	"i2cstate_t\000"
 23742      74617465 
 23742      5F7400
 23743              	.LASF797:
 23744 14ed 5F636F6F 		.ascii	"_cookie\000"
 23744      6B696500 
 23745              	.LASF867:
 23746 14f5 70617261 		.ascii	"parameter_namespace_t\000"
 23746      6D657465 
 23746      725F6E61 
 23746      6D657370 
 23746      6163655F 
 23747              	.LASF1018:
 23748 150b 655F636C 		.ascii	"e_close_sound\000"
 23748      6F73655F 
 23748      736F756E 
 23748      6400
 23749              	.LASF594:
 23750 1519 75736265 		.ascii	"usbep0state_t\000"
 23750      70307374 
 23750      6174655F 
 23750      7400
 23751              	.LASF399:
 23752 1527 64616365 		.ascii	"dacerror_t\000"
 23752      72726F72 
 23752      5F7400
 23753              	.LASF127:
 23754 1532 7354784D 		.ascii	"sTxMailBox\000"
 23754      61696C42 
 23754      6F7800
 23755              	.LASF334:
 23756 153d 61646373 		.ascii	"adcsample_t\000"
 23756      616D706C 
 23756      655F7400 
 23757              	.LASF432:
 23758 1549 67707463 		.ascii	"gptcallback_t\000"
 23758      616C6C62 
 23758      61636B5F 
 23758      7400
 23759              	.LASF268:
 23760 1557 715F6275 		.ascii	"q_buffer\000"
 23760      66666572 
 23760      00
ARM GAS  /tmp/ccZueut9.s 			page 441


 23761              	.LASF39:
 23762 1560 705F6E65 		.ascii	"p_next\000"
 23762      787400
 23763              	.LASF479:
 23764 1567 49324344 		.ascii	"I2CD1\000"
 23764      3100
 23765              	.LASF620:
 23766 156d 72657376 		.ascii	"resvd4\000"
 23766      643400
 23767              	.LASF562:
 23768 1574 55534244 		.ascii	"USBDriver\000"
 23768      72697665 
 23768      7200
 23769              	.LASF679:
 23770 157e 72657376 		.ascii	"resvd8C0\000"
 23770      64384330 
 23770      00
 23771              	.LASF716:
 23772 1587 55534243 		.ascii	"USBConfig\000"
 23772      6F6E6669 
 23772      6700
 23773              	.LASF622:
 23774 1591 72657376 		.ascii	"resvdC\000"
 23774      644300
 23775              	.LASF509:
 23776 1598 50574D44 		.ascii	"PWMD2\000"
 23776      3200
 23777              	.LASF510:
 23778 159e 50574D44 		.ascii	"PWMD3\000"
 23778      3300
 23779              	.LASF511:
 23780 15a4 50574D44 		.ascii	"PWMD4\000"
 23780      3400
 23781              	.LASF512:
 23782 15aa 50574D44 		.ascii	"PWMD5\000"
 23782      3500
 23783              	.LASF963:
 23784 15b0 69725F6C 		.ascii	"ir_last_move\000"
 23784      6173745F 
 23784      6D6F7665 
 23784      00
 23785              	.LASF520:
 23786 15bd 6F717565 		.ascii	"oqueue\000"
 23786      756500
 23787              	.LASF29:
 23788 15c4 74726566 		.ascii	"trefs_t\000"
 23788      735F7400 
 23789              	.LASF58:
 23790 15cc 705F6D70 		.ascii	"p_mpool\000"
 23790      6F6F6C00 
 23791              	.LASF980:
 23792 15d4 655F7561 		.ascii	"e_uart1_sending\000"
 23792      7274315F 
 23792      73656E64 
 23792      696E6700 
 23793              	.LASF407:
 23794 15e4 44414343 		.ascii	"DACConversionGroup\000"
ARM GAS  /tmp/ccZueut9.s 			page 442


 23794      6F6E7665 
 23794      7273696F 
 23794      6E47726F 
 23794      757000
 23795              	.LASF157:
 23796 15f7 43575354 		.ascii	"CWSTRTR\000"
 23796      52545200 
 23797              	.LASF773:
 23798 15ff 5F5F746D 		.ascii	"__tm_sec\000"
 23798      5F736563 
 23798      00
 23799              	.LASF709:
 23800 1608 696E5F6D 		.ascii	"in_multiplier\000"
 23800      756C7469 
 23800      706C6965 
 23800      7200
 23801              	.LASF332:
 23802 1616 4144435F 		.ascii	"ADC_ERROR\000"
 23802      4552524F 
 23802      5200
 23803              	.LASF782:
 23804 1620 5F6F6E5F 		.ascii	"_on_exit_args\000"
 23804      65786974 
 23804      5F617267 
 23804      7300
 23805              	.LASF843:
 23806 162e 5F6C6F63 		.ascii	"_localtime_buf\000"
 23806      616C7469 
 23806      6D655F62 
 23806      756600
 23807              	.LASF27:
 23808 163d 746D6F64 		.ascii	"tmode_t\000"
 23808      655F7400 
 23809              	.LASF896:
 23810 1645 44434D49 		.ascii	"DCMI_ERROR\000"
 23810      5F455252 
 23810      4F5200
 23811              	.LASF1046:
 23812 1650 655F6765 		.ascii	"e_get_acc\000"
 23812      745F6163 
 23812      6300
 23813              	.LASF330:
 23814 165a 4144435F 		.ascii	"ADC_ACTIVE\000"
 23814      41435449 
 23814      564500
 23815              	.LASF791:
 23816 1665 5F626173 		.ascii	"_base\000"
 23816      6500
 23817              	.LASF106:
 23818 166b 53515231 		.ascii	"SQR1\000"
 23818      00
 23819              	.LASF107:
 23820 1670 53515232 		.ascii	"SQR2\000"
 23820      00
 23821              	.LASF108:
 23822 1675 53515233 		.ascii	"SQR3\000"
 23822      00
ARM GAS  /tmp/ccZueut9.s 			page 443


 23823              	.LASF303:
 23824 167a 42535252 		.ascii	"BSRR\000"
 23824      00
 23825              	.LASF1008:
 23826 167f 655F7365 		.ascii	"e_set_front_led\000"
 23826      745F6672 
 23826      6F6E745F 
 23826      6C656400 
 23827              	.LASF282:
 23828 168f 73746D33 		.ascii	"stm32_dma_stream_t\000"
 23828      325F646D 
 23828      615F7374 
 23828      7265616D 
 23828      5F7400
 23829              	.LASF714:
 23830 16a2 72657175 		.ascii	"requests_hook_cb\000"
 23830      65737473 
 23830      5F686F6F 
 23830      6B5F6362 
 23830      00
 23831              	.LASF856:
 23832 16b3 5F776372 		.ascii	"_wcrtomb_state\000"
 23832      746F6D62 
 23832      5F737461 
 23832      746500
 23833              	.LASF531:
 23834 16c2 5344435F 		.ascii	"SDC_MODE_8BIT\000"
 23834      4D4F4445 
 23834      5F384249 
 23834      5400
 23835              	.LASF692:
 23836 16d0 74787369 		.ascii	"txsize\000"
 23836      7A6500
 23837              	.LASF403:
 23838 16d7 4441435F 		.ascii	"DAC_DHRM_12BIT_LEFT\000"
 23838      4448524D 
 23838      5F313242 
 23838      49545F4C 
 23838      45465400 
 23839              	.LASF1011:
 23840 16eb 69734570 		.ascii	"isEpuckVersion1_3\000"
 23840      75636B56 
 23840      65727369 
 23840      6F6E315F 
 23840      3300
 23841              	.LASF500:
 23842 16fd 70657269 		.ascii	"period\000"
 23842      6F6400
 23843              	.LASF982:
 23844 1704 655F6932 		.ascii	"e_i2cp_enable\000"
 23844      63705F65 
 23844      6E61626C 
 23844      6500
 23845              	.LASF456:
 23846 1712 4932435F 		.ascii	"I2C_LOCKED\000"
 23846      4C4F434B 
 23846      454400
ARM GAS  /tmp/ccZueut9.s 			page 444


 23847              	.LASF940:
 23848 171d 73706565 		.ascii	"speedl\000"
 23848      646C00
 23849              	.LASF88:
 23850 1724 6973725F 		.ascii	"isr_cnt\000"
 23850      636E7400 
 23851              	.LASF1012:
 23852 172c 655F706C 		.ascii	"e_play_sound\000"
 23852      61795F73 
 23852      6F756E64 
 23852      00
 23853              	.LASF939:
 23854 1739 73706565 		.ascii	"speedr\000"
 23854      647200
 23855              	.LASF830:
 23856 1740 5F5F7367 		.ascii	"__sglue\000"
 23856      6C756500 
 23857              	.LASF583:
 23858 1748 5553425F 		.ascii	"USB_READY\000"
 23858      52454144 
 23858      5900
 23859              	.LASF1035:
 23860 1752 7365745F 		.ascii	"set_body_led\000"
 23860      626F6479 
 23860      5F6C6564 
 23860      00
 23861              	.LASF528:
 23862 175f 72656164 		.ascii	"readt\000"
 23862      7400
 23863              	.LASF808:
 23864 1765 5F6D6273 		.ascii	"_mbstate\000"
 23864      74617465 
 23864      00
 23865              	.LASF635:
 23866 176e 47525354 		.ascii	"GRSTCTL\000"
 23866      43544C00 
 23867              	.LASF429:
 23868 1776 67707473 		.ascii	"gptstate_t\000"
 23868      74617465 
 23868      5F7400
 23869              	.LASF1024:
 23870 1781 655F6765 		.ascii	"e_getchar_uart1\000"
 23870      74636861 
 23870      725F7561 
 23870      72743100 
 23871              	.LASF18:
 23872 1791 696E7438 		.ascii	"int8_t\000"
 23872      5F7400
 23873              	.LASF766:
 23874 1798 5F5F554C 		.ascii	"__ULong\000"
 23874      6F6E6700 
 23875              	.LASF87:
 23876 17a0 70616E69 		.ascii	"panic_msg\000"
 23876      635F6D73 
 23876      6700
 23877              	.LASF554:
 23878 17aa 5350495F 		.ascii	"SPI_COMPLETE\000"
ARM GAS  /tmp/ccZueut9.s 			page 445


 23878      434F4D50 
 23878      4C455445 
 23878      00
 23879              	.LASF176:
 23880 17b7 4454494D 		.ascii	"DTIMER\000"
 23880      455200
 23881              	.LASF71:
 23882 17be 725F6E65 		.ascii	"r_newer\000"
 23882      77657200 
 23883              	.LASF600:
 23884 17c6 5553425F 		.ascii	"USB_EVENT_STALLED\000"
 23884      4556454E 
 23884      545F5354 
 23884      414C4C45 
 23884      4400
 23885              	.LASF251:
 23886 17d8 63686465 		.ascii	"chdebug_t\000"
 23886      6275675F 
 23886      7400
 23887              	.LASF698:
 23888 17e2 72787369 		.ascii	"rxsize\000"
 23888      7A6500
 23889              	.LASF1001:
 23890 17e9 655F6765 		.ascii	"e_get_steps_right\000"
 23890      745F7374 
 23890      6570735F 
 23890      72696768 
 23890      7400
 23891              	.LASF614:
 23892 17fb 48435453 		.ascii	"HCTSIZ\000"
 23892      495A00
 23893              	.LASF597:
 23894 1802 5553425F 		.ascii	"USB_EVENT_CONFIGURED\000"
 23894      4556454E 
 23894      545F434F 
 23894      4E464947 
 23894      55524544 
 23895              	.LASF546:
 23896 1817 64697363 		.ascii	"disconnect\000"
 23896      6F6E6E65 
 23896      637400
 23897              	.LASF746:
 23898 1822 6F70746F 		.ascii	"optopt\000"
 23898      707400
 23899              	.LASF525:
 23900 1829 70757474 		.ascii	"putt\000"
 23900      00
 23901              	.LASF30:
 23902 182e 74736C69 		.ascii	"tslices_t\000"
 23902      6365735F 
 23902      7400
 23903              	.LASF841:
 23904 1838 5F737472 		.ascii	"_strtok_last\000"
 23904      746F6B5F 
 23904      6C617374 
 23904      00
 23905              	.LASF238:
ARM GAS  /tmp/ccZueut9.s 			page 446


 23906 1845 63685F74 		.ascii	"ch_timesize\000"
 23906      696D6573 
 23906      697A6500 
 23907              	.LASF579:
 23908 1851 77615F70 		.ascii	"wa_pump\000"
 23908      756D7000 
 23909              	.LASF181:
 23910 1859 4649464F 		.ascii	"FIFOCNT\000"
 23910      434E5400 
 23911              	.LASF263:
 23912 1861 6576656E 		.ascii	"event_source_t\000"
 23912      745F736F 
 23912      75726365 
 23912      5F7400
 23913              	.LASF649:
 23914 1870 72657376 		.ascii	"resvd140\000"
 23914      64313430 
 23914      00
 23915              	.LASF79:
 23916 1879 76745F64 		.ascii	"vt_delta\000"
 23916      656C7461 
 23916      00
 23917              	.LASF837:
 23918 1882 5F736565 		.ascii	"_seed\000"
 23918      6400
 23919              	.LASF202:
 23920 1888 74625F70 		.ascii	"tb_ptr\000"
 23920      747200
 23921              	.LASF406:
 23922 188f 74726967 		.ascii	"trigger\000"
 23922      67657200 
 23923              	.LASF800:
 23924 1897 5F736565 		.ascii	"_seek\000"
 23924      6B00
 23925              	.LASF598:
 23926 189d 5553425F 		.ascii	"USB_EVENT_SUSPEND\000"
 23926      4556454E 
 23926      545F5355 
 23926      5350454E 
 23926      4400
 23927              	.LASF20:
 23928 18af 696E7431 		.ascii	"int16_t\000"
 23928      365F7400 
 23929              	.LASF425:
 23930 18b7 4750545F 		.ascii	"GPT_STOP\000"
 23930      53544F50 
 23930      00
 23931              	.LASF114:
 23932 18c0 4144435F 		.ascii	"ADC_TypeDef\000"
 23932      54797065 
 23932      44656600 
 23933              	.LASF11:
 23934 18cc 73686F72 		.ascii	"short unsigned int\000"
 23934      7420756E 
 23934      7369676E 
 23934      65642069 
 23934      6E7400
ARM GAS  /tmp/ccZueut9.s 			page 447


 23935              	.LASF468:
 23936 18df 6F705F6D 		.ascii	"op_mode\000"
 23936      6F646500 
 23937              	.LASF5:
 23938 18e7 7369676E 		.ascii	"signed char\000"
 23938      65642063 
 23938      68617200 
 23939              	.LASF873:
 23940 18f3 70617261 		.ascii	"parameter_t\000"
 23940      6D657465 
 23940      725F7400 
 23941              	.LASF537:
 23942 18ff 63617264 		.ascii	"cardmode\000"
 23942      6D6F6465 
 23942      00
 23943              	.LASF50:
 23944 1908 705F7072 		.ascii	"p_preempt\000"
 23944      65656D70 
 23944      7400
 23945              	.LASF36:
 23946 1912 75636E74 		.ascii	"ucnt_t\000"
 23946      5F7400
 23947              	.LASF117:
 23948 1919 54444852 		.ascii	"TDHR\000"
 23948      00
 23949              	.LASF328:
 23950 191e 4144435F 		.ascii	"ADC_STOP\000"
 23950      53544F50 
 23950      00
 23951              	.LASF591:
 23952 1927 5553425F 		.ascii	"USB_EP0_RX\000"
 23952      4550305F 
 23952      525800
 23953              	.LASF503:
 23954 1932 70776D6D 		.ascii	"pwmmode_t\000"
 23954      6F64655F 
 23954      7400
 23955              	.LASF572:
 23956 193c 73746174 		.ascii	"status\000"
 23956      757300
 23957              	.LASF177:
 23958 1943 444C454E 		.ascii	"DLEN\000"
 23958      00
 23959              	.LASF1021:
 23960 1948 67657473 		.ascii	"getselector\000"
 23960      656C6563 
 23960      746F7200 
 23961              	.LASF530:
 23962 1954 5344435F 		.ascii	"SDC_MODE_4BIT\000"
 23962      4D4F4445 
 23962      5F344249 
 23962      5400
 23963              	.LASF604:
 23964 1962 55534244 		.ascii	"USBDescriptor\000"
 23964      65736372 
 23964      6970746F 
 23964      7200
ARM GAS  /tmp/ccZueut9.s 			page 448


 23965              	.LASF1040:
 23966 1970 73657269 		.ascii	"serial_clear_last_errors\000"
 23966      616C5F63 
 23966      6C656172 
 23966      5F6C6173 
 23966      745F6572 
 23967              	.LASF557:
 23968 1989 73706963 		.ascii	"spicallback_t\000"
 23968      616C6C62 
 23968      61636B5F 
 23968      7400
 23969              	.LASF824:
 23970 1997 5F667265 		.ascii	"_freelist\000"
 23970      656C6973 
 23970      7400
 23971              	.LASF573:
 23972 19a1 61646472 		.ascii	"address\000"
 23972      65737300 
 23973              	.LASF53:
 23974 19a9 705F6D73 		.ascii	"p_msgqueue\000"
 23974      67717565 
 23974      756500
 23975              	.LASF248:
 23976 19b4 63665F6F 		.ascii	"cf_off_refs\000"
 23976      66665F72 
 23976      65667300 
 23977              	.LASF541:
 23978 19c0 53444343 		.ascii	"SDCConfig\000"
 23978      6F6E6669 
 23978      6700
 23979              	.LASF229:
 23980 19ca 6D5F6F77 		.ascii	"m_owner\000"
 23980      6E657200 
 23981              	.LASF805:
 23982 19d2 5F6F6666 		.ascii	"_offset\000"
 23982      73657400 
 23983              	.LASF881:
 23984 19da 5F706172 		.ascii	"_param_val_vector_s\000"
 23984      616D5F76 
 23984      616C5F76 
 23984      6563746F 
 23984      725F7300 
 23985              	.LASF99:
 23986 19ee 53797374 		.ascii	"SystemCoreClock\000"
 23986      656D436F 
 23986      7265436C 
 23986      6F636B00 
 23987              	.LASF350:
 23988 19fe 61646365 		.ascii	"adcerrorcallback_t\000"
 23988      72726F72 
 23988      63616C6C 
 23988      6261636B 
 23988      5F7400
 23989              	.LASF385:
 23990 1a11 4441435F 		.ascii	"DAC_ACTIVE\000"
 23990      41435449 
 23990      564500
ARM GAS  /tmp/ccZueut9.s 			page 449


 23991              	.LASF958:
 23992 1a1c 63616D5F 		.ascii	"cam_y1\000"
 23992      793100
 23993              	.LASF340:
 23994 1a23 73746174 		.ascii	"state\000"
 23994      6500
 23995              	.LASF997:
 23996 1a29 655F6765 		.ascii	"e_get_check\000"
 23996      745F6368 
 23996      65636B00 
 23997              	.LASF236:
 23998 1a35 63685F76 		.ascii	"ch_version\000"
 23998      65727369 
 23998      6F6E00
 23999              	.LASF790:
 24000 1a40 5F5F7362 		.ascii	"__sbuf\000"
 24000      756600
 24001              	.LASF538:
 24002 1a47 7364696F 		.ascii	"sdio\000"
 24002      00
 24003              	.LASF996:
 24004 1a4c 655F6765 		.ascii	"e_get_calibrated_prox\000"
 24004      745F6361 
 24004      6C696272 
 24004      61746564 
 24004      5F70726F 
 24005              	.LASF140:
 24006 1a62 53575452 		.ascii	"SWTRIGR\000"
 24006      49475200 
 24007              	.LASF590:
 24008 1a6a 5553425F 		.ascii	"USB_EP0_WAITING_STS\000"
 24008      4550305F 
 24008      57414954 
 24008      494E475F 
 24008      53545300 
 24009              	.LASF168:
 24010 1a7e 4932435F 		.ascii	"I2C_TypeDef\000"
 24010      54797065 
 24010      44656600 
 24011              	.LASF121:
 24012 1a8a 52444852 		.ascii	"RDHR\000"
 24012      00
 24013              	.LASF745:
 24014 1a8f 6F707465 		.ascii	"opterr\000"
 24014      727200
 24015              	.LASF839:
 24016 1a96 5F616464 		.ascii	"_add\000"
 24016      00
 24017              	.LASF439:
 24018 1a9b 444D4152 		.ascii	"DMAR\000"
 24018      00
 24019              	.LASF445:
 24020 1aa0 63616C6C 		.ascii	"callback\000"
 24020      6261636B 
 24020      00
 24021              	.LASF92:
 24022 1aa9 63685F73 		.ascii	"ch_system\000"
ARM GAS  /tmp/ccZueut9.s 			page 450


 24022      79737465 
 24022      6D00
 24023              	.LASF169:
 24024 1ab3 504F5745 		.ascii	"POWER\000"
 24024      5200
 24025              	.LASF810:
 24026 1ab9 5F726565 		.ascii	"_reent\000"
 24026      6E7400
 24027              	.LASF90:
 24028 1ac0 74726163 		.ascii	"trace_buffer\000"
 24028      655F6275 
 24028      66666572 
 24028      00
 24029              	.LASF850:
 24030 1acd 5F6C3634 		.ascii	"_l64a_buf\000"
 24030      615F6275 
 24030      6600
 24031              	.LASF842:
 24032 1ad7 5F617363 		.ascii	"_asctime_buf\000"
 24032      74696D65 
 24032      5F627566 
 24032      00
 24033              	.LASF404:
 24034 1ae4 4441435F 		.ascii	"DAC_DHRM_8BIT_RIGHT\000"
 24034      4448524D 
 24034      5F384249 
 24034      545F5249 
 24034      47485400 
 24035              	.LASF424:
 24036 1af8 4750545F 		.ascii	"GPT_UNINIT\000"
 24036      554E494E 
 24036      495400
 24037              	.LASF736:
 24038 1b03 5F5F7763 		.ascii	"__wch\000"
 24038      6800
 24039              	.LASF739:
 24040 1b09 5F5F7661 		.ascii	"__value\000"
 24040      6C756500 
 24041              	.LASF224:
 24042 1b11 63685F73 		.ascii	"ch_semaphore\000"
 24042      656D6170 
 24042      686F7265 
 24042      00
 24043              	.LASF932:
 24044 1b1e 5F637479 		.ascii	"_ctype_\000"
 24044      70655F00 
 24045              	.LASF857:
 24046 1b26 5F776373 		.ascii	"_wcsrtombs_state\000"
 24046      72746F6D 
 24046      62735F73 
 24046      74617465 
 24046      00
 24047              	.LASF728:
 24048 1b37 53657269 		.ascii	"SerialUSBDriverVMT\000"
 24048      616C5553 
 24048      42447269 
 24048      76657256 
ARM GAS  /tmp/ccZueut9.s 			page 451


 24048      4D5400
 24049              	.LASF898:
 24050 1b4a 64636D69 		.ascii	"dcmistate_t\000"
 24050      73746174 
 24050      655F7400 
 24051              	.LASF623:
 24052 1b56 44494550 		.ascii	"DIEPTSIZ\000"
 24052      5453495A 
 24052      00
 24053              	.LASF879:
 24054 1b5f 5F706172 		.ascii	"_param_val_str_s\000"
 24054      616D5F76 
 24054      616C5F73 
 24054      74725F73 
 24054      00
 24055              	.LASF355:
 24056 1b70 736D7072 		.ascii	"smpr1\000"
 24056      3100
 24057              	.LASF356:
 24058 1b76 736D7072 		.ascii	"smpr2\000"
 24058      3200
 24059              	.LASF64:
 24060 1b7c 74687265 		.ascii	"threads_queue_t\000"
 24060      6164735F 
 24060      71756575 
 24060      655F7400 
 24061              	.LASF293:
 24062 1b8c 626C6B73 		.ascii	"blkstate_t\000"
 24062      74617465 
 24062      5F7400
 24063              	.LASF51:
 24064 1b97 705F7469 		.ascii	"p_time\000"
 24064      6D6500
 24065              	.LASF49:
 24066 1b9e 705F7265 		.ascii	"p_refs\000"
 24066      667300
 24067              	.LASF701:
 24068 1ba5 65705F6D 		.ascii	"ep_mode\000"
 24068      6F646500 
 24069              	.LASF504:
 24070 1bad 70776D63 		.ascii	"pwmchannel_t\000"
 24070      68616E6E 
 24070      656C5F74 
 24070      00
 24071              	.LASF116:
 24072 1bba 54444C52 		.ascii	"TDLR\000"
 24072      00
 24073              	.LASF13:
 24074 1bbf 6C6F6E67 		.ascii	"long int\000"
 24074      20696E74 
 24074      00
 24075              	.LASF95:
 24076 1bc8 6D61696E 		.ascii	"mainthread\000"
 24076      74687265 
 24076      616400
 24077              	.LASF1023:
 24078 1bd3 52656164 		.ascii	"ReadEE\000"
ARM GAS  /tmp/ccZueut9.s 			page 452


 24078      454500
 24079              	.LASF569:
 24080 1bda 6570306E 		.ascii	"ep0n\000"
 24080      00
 24081              	.LASF682:
 24082 1bdf 72657376 		.ascii	"resvdE04\000"
 24082      64453034 
 24082      00
 24083              	.LASF228:
 24084 1be8 6D5F7175 		.ascii	"m_queue\000"
 24084      65756500 
 24085              	.LASF392:
 24086 1bf0 646D6169 		.ascii	"dmairqprio\000"
 24086      72717072 
 24086      696F00
 24087              	.LASF430:
 24088 1bfb 47505444 		.ascii	"GPTDriver\000"
 24088      72697665 
 24088      7200
 24089              	.LASF1051:
 24090 1c05 63616C69 		.ascii	"calibrate_ir\000"
 24090      62726174 
 24090      655F6972 
 24090      00
 24091              	.LASF534:
 24092 1c12 73646366 		.ascii	"sdcflags_t\000"
 24092      6C616773 
 24092      5F7400
 24093              	.LASF322:
 24094 1c1d 50484461 		.ascii	"PHData\000"
 24094      746100
 24095              	.LASF325:
 24096 1c24 696F706F 		.ascii	"ioportid_t\000"
 24096      72746964 
 24096      5F7400
 24097              	.LASF759:
 24098 1c2f 6D657373 		.ascii	"messagebus_topic_t\000"
 24098      61676562 
 24098      75735F74 
 24098      6F706963 
 24098      5F7400
 24099              	.LASF363:
 24100 1c42 41444344 		.ascii	"ADCD1\000"
 24100      3100
 24101              	.LASF364:
 24102 1c48 41444344 		.ascii	"ADCD2\000"
 24102      3200
 24103              	.LASF365:
 24104 1c4e 41444344 		.ascii	"ADCD3\000"
 24104      3300
 24105              	.LASF650:
 24106 1c54 48434647 		.ascii	"HCFG\000"
 24106      00
 24107              	.LASF1027:
 24108 1c59 7364696F 		.ascii	"sdio_is_present\000"
 24108      5F69735F 
 24108      70726573 
ARM GAS  /tmp/ccZueut9.s 			page 453


 24108      656E7400 
 24109              	.LASF348:
 24110 1c69 646D616D 		.ascii	"dmamode\000"
 24110      6F646500 
 24111              	.LASF210:
 24112 1c71 63756D75 		.ascii	"cumulative\000"
 24112      6C617469 
 24112      766500
 24113              	.LASF835:
 24114 1c7c 5F696F62 		.ascii	"_iobs\000"
 24114      7300
 24115              	.LASF561:
 24116 1c82 53504944 		.ascii	"SPID1\000"
 24116      3100
 24117              	.LASF526:
 24118 1c88 67657474 		.ascii	"gett\000"
 24118      00
 24119              	.LASF853:
 24120 1c8d 5F6D6272 		.ascii	"_mbrlen_state\000"
 24120      6C656E5F 
 24120      73746174 
 24120      6500
 24121              	.LASF220:
 24122 1c9b 77747472 		.ascii	"wttrp\000"
 24122      7000
 24123              	.LASF271:
 24124 1ca1 715F7264 		.ascii	"q_rdptr\000"
 24124      70747200 
 24125              	.LASF194:
 24126 1ca9 636F6E74 		.ascii	"context\000"
 24126      65787400 
 24127              	.LASF523:
 24128 1cb1 77726974 		.ascii	"write\000"
 24128      6500
 24129              	.LASF845:
 24130 1cb7 5F72616E 		.ascii	"_rand_next\000"
 24130      645F6E65 
 24130      787400
 24131              	.LASF519:
 24132 1cc2 69717565 		.ascii	"iqueue\000"
 24132      756500
 24133              	.LASF703:
 24134 1cc9 696E5F63 		.ascii	"in_cb\000"
 24134      6200
 24135              	.LASF628:
 24136 1ccf 444F4550 		.ascii	"DOEPINT\000"
 24136      494E5400 
 24137              	.LASF209:
 24138 1cd7 6C617374 		.ascii	"last\000"
 24138      00
 24139              	.LASF992:
 24140 1cdc 655F6C65 		.ascii	"e_led_clear\000"
 24140      645F636C 
 24140      65617200 
 24141              	.LASF304:
 24142 1ce8 4C434B52 		.ascii	"LCKR\000"
 24142      00
ARM GAS  /tmp/ccZueut9.s 			page 454


 24143              	.LASF516:
 24144 1ced 73647374 		.ascii	"sdstate_t\000"
 24144      6174655F 
 24144      7400
 24145              	.LASF23:
 24146 1cf7 75696E74 		.ascii	"uint32_t\000"
 24146      33325F74 
 24146      00
 24147              	.LASF389:
 24148 1d00 64617461 		.ascii	"dataoffset\000"
 24148      6F666673 
 24148      657400
 24149              	.LASF769:
 24150 1d0b 5F6D6178 		.ascii	"_maxwds\000"
 24150      77647300 
 24151              	.LASF291:
 24152 1d13 424C4B5F 		.ascii	"BLK_WRITING\000"
 24152      57524954 
 24152      494E4700 
 24153              	.LASF120:
 24154 1d1f 52444C52 		.ascii	"RDLR\000"
 24154      00
 24155              	.LASF750:
 24156 1d24 62756666 		.ascii	"buffer_len\000"
 24156      65725F6C 
 24156      656E00
 24157              	.LASF770:
 24158 1d2f 5F736967 		.ascii	"_sign\000"
 24158      6E00
 24159              	.LASF911:
 24160 1d35 4D415249 		.ascii	"MARIO\000"
 24160      4F00
 24161              	.LASF2:
 24162 1d3b 6C6F6E67 		.ascii	"long double\000"
 24162      20646F75 
 24162      626C6500 
 24163              	.LASF192:
 24164 1d47 72656761 		.ascii	"regarm_t\000"
 24164      726D5F74 
 24164      00
 24165              	.LASF33:
 24166 1d50 6576656E 		.ascii	"eventmask_t\000"
 24166      746D6173 
 24166      6B5F7400 
 24167              	.LASF952:
 24168 1d5c 63616D5F 		.ascii	"cam_mode\000"
 24168      6D6F6465 
 24168      00
 24169              	.LASF343:
 24170 1d65 64657074 		.ascii	"depth\000"
 24170      6800
 24171              	.LASF134:
 24172 1d6b 46464131 		.ascii	"FFA1R\000"
 24172      5200
 24173              	.LASF584:
 24174 1d71 5553425F 		.ascii	"USB_SELECTED\000"
 24174      53454C45 
ARM GAS  /tmp/ccZueut9.s 			page 455


 24174      43544544 
 24174      00
 24175              	.LASF1032:
 24176 1d7e 62757474 		.ascii	"button_get_state\000"
 24176      6F6E5F67 
 24176      65745F73 
 24176      74617465 
 24176      00
 24177              	.LASF15:
 24178 1d8f 6C6F6E67 		.ascii	"long unsigned int\000"
 24178      20756E73 
 24178      69676E65 
 24178      6420696E 
 24178      7400
 24179              	.LASF576:
 24180 1da1 706D6E65 		.ascii	"pmnext\000"
 24180      787400
 24181              	.LASF983:
 24182 1da8 655F6932 		.ascii	"e_i2cp_read\000"
 24182      63705F72 
 24182      65616400 
 24183              	.LASF483:
 24184 1db4 4932535F 		.ascii	"I2S_ACTIVE\000"
 24184      41435449 
 24184      564500
 24185              	.LASF426:
 24186 1dbf 4750545F 		.ascii	"GPT_READY\000"
 24186      52454144 
 24186      5900
 24187              	.LASF388:
 24188 1dc9 64616373 		.ascii	"dacstate_t\000"
 24188      74617465 
 24188      5F7400
 24189              	.LASF897:
 24190 1dd4 44434D49 		.ascii	"DCMI_TIMEOUT\000"
 24190      5F54494D 
 24190      454F5554 
 24190      00
 24191              	.LASF197:
 24192 1de1 73655F74 		.ascii	"se_tp\000"
 24192      7000
 24193              	.LASF270:
 24194 1de7 715F7772 		.ascii	"q_wrptr\000"
 24194      70747200 
 24195              	.LASF396:
 24196 1def 64616373 		.ascii	"dacsample_t\000"
 24196      616D706C 
 24196      655F7400 
 24197              	.LASF596:
 24198 1dfb 5553425F 		.ascii	"USB_EVENT_ADDRESS\000"
 24198      4556454E 
 24198      545F4144 
 24198      44524553 
 24198      5300
 24199              	.LASF491:
 24200 1e0d 69327363 		.ascii	"i2scfgr\000"
 24200      66677200 
ARM GAS  /tmp/ccZueut9.s 			page 456


 24201              	.LASF719:
 24202 1e15 5344555F 		.ascii	"SDU_STOP\000"
 24202      53544F50 
 24202      00
 24203              	.LASF171:
 24204 1e1e 52455350 		.ascii	"RESPCMD\000"
 24204      434D4400 
 24205              	.LASF375:
 24206 1e26 72786675 		.ascii	"rxfull_event\000"
 24206      6C6C5F65 
 24206      76656E74 
 24206      00
 24207              	.LASF601:
 24208 1e33 75736265 		.ascii	"usbevent_t\000"
 24208      76656E74 
 24208      5F7400
 24209              	.LASF801:
 24210 1e3e 5F636C6F 		.ascii	"_close\000"
 24210      736500
 24211              	.LASF232:
 24212 1e45 63686172 		.ascii	"char\000"
 24212      00
 24213              	.LASF888:
 24214 1e4a 44434D49 		.ascii	"DCMI_ERR_OVERFLOW\000"
 24214      5F455252 
 24214      5F4F5645 
 24214      52464C4F 
 24214      5700
 24215              	.LASF155:
 24216 1e5c 45534352 		.ascii	"ESCR\000"
 24216      00
 24217              	.LASF372:
 24218 1e61 43414E43 		.ascii	"CANConfig\000"
 24218      6F6E6669 
 24218      6700
 24219              	.LASF319:
 24220 1e6b 50454461 		.ascii	"PEData\000"
 24220      746100
 24221              	.LASF68:
 24222 1e72 725F7175 		.ascii	"r_queue\000"
 24222      65756500 
 24223              	.LASF833:
 24224 1e7a 5F676C75 		.ascii	"_glue\000"
 24224      6500
 24225              	.LASF973:
 24226 1e80 5F5F6C6F 		.ascii	"__locale_ctype_ptr\000"
 24226      63616C65 
 24226      5F637479 
 24226      70655F70 
 24226      747200
 24227              	.LASF763:
 24228 1e93 6D657373 		.ascii	"messagebus_watchgroup_s\000"
 24228      61676562 
 24228      75735F77 
 24228      61746368 
 24228      67726F75 
 24229              	.LASF1004:
ARM GAS  /tmp/ccZueut9.s 			page 457


 24230 1eab 655F7365 		.ascii	"e_set_speed_right\000"
 24230      745F7370 
 24230      6565645F 
 24230      72696768 
 24230      7400
 24231              	.LASF501:
 24232 1ebd 656E6162 		.ascii	"enabled\000"
 24232      6C656400 
 24233              	.LASF1007:
 24234 1ec5 655F706F 		.ascii	"e_poxxxx_write_cam_registers\000"
 24234      78787878 
 24234      5F777269 
 24234      74655F63 
 24234      616D5F72 
 24235              	.LASF397:
 24236 1ee2 4441435F 		.ascii	"DAC_ERR_DMAFAILURE\000"
 24236      4552525F 
 24236      444D4146 
 24236      41494C55 
 24236      524500
 24237              	.LASF640:
 24238 1ef5 47525846 		.ascii	"GRXFSIZ\000"
 24238      53495A00 
 24239              	.LASF917:
 24240 1efd 50495241 		.ascii	"PIRATES_OF_THE_CARIBBEAN\000"
 24240      5445535F 
 24240      4F465F54 
 24240      48455F43 
 24240      41524942 
 24241              	.LASF547:
 24242 1f16 73796E63 		.ascii	"sync\000"
 24242      00
 24243              	.LASF521:
 24244 1f1b 75736172 		.ascii	"usart\000"
 24244      7400
 24245              	.LASF158:
 24246 1f21 43575349 		.ascii	"CWSIZER\000"
 24246      5A455200 
 24247              	.LASF533:
 24248 1f29 7364636D 		.ascii	"sdcmode_t\000"
 24248      6F64655F 
 24248      7400
 24249              	.LASF273:
 24250 1f33 715F6C69 		.ascii	"q_link\000"
 24250      6E6B00
 24251              	.LASF895:
 24252 1f3a 44434D49 		.ascii	"DCMI_COMPLETE\000"
 24252      5F434F4D 
 24252      504C4554 
 24252      4500
 24253              	.LASF1022:
 24254 1f48 655F696E 		.ascii	"e_init_remote_control\000"
 24254      69745F72 
 24254      656D6F74 
 24254      655F636F 
 24254      6E74726F 
 24255              	.LASF902:
ARM GAS  /tmp/ccZueut9.s 			page 458


 24256 1f5e 64636D69 		.ascii	"dcmierrorcallback_t\000"
 24256      6572726F 
 24256      7263616C 
 24256      6C626163 
 24256      6B5F7400 
 24257              	.LASF1029:
 24258 1f72 70726F78 		.ascii	"proximity_stop\000"
 24258      696D6974 
 24258      795F7374 
 24258      6F7000
 24259              	.LASF661:
 24260 1f81 44434647 		.ascii	"DCFG\000"
 24260      00
 24261              	.LASF767:
 24262 1f86 5F426967 		.ascii	"_Bigint\000"
 24262      696E7400 
 24263              	.LASF671:
 24264 1f8e 44564255 		.ascii	"DVBUSDIS\000"
 24264      53444953 
 24264      00
 24265              	.LASF637:
 24266 1f97 47494E54 		.ascii	"GINTMSK\000"
 24266      4D534B00 
 24267              	.LASF642:
 24268 1f9f 484E5054 		.ascii	"HNPTXSTS\000"
 24268      58535453 
 24268      00
 24269              	.LASF1026:
 24270 1fa8 73657269 		.ascii	"serial_get_last_errors\000"
 24270      616C5F67 
 24270      65745F6C 
 24270      6173745F 
 24270      6572726F 
 24271              	.LASF574:
 24272 1fbf 636F6E66 		.ascii	"configuration\000"
 24272      69677572 
 24272      6174696F 
 24272      6E00
 24273              	.LASF828:
 24274 1fcd 5F617465 		.ascii	"_atexit0\000"
 24274      78697430 
 24274      00
 24275              	.LASF927:
 24276 1fd6 4C454431 		.ascii	"LED1\000"
 24276      00
 24277              	.LASF928:
 24278 1fdb 4C454433 		.ascii	"LED3\000"
 24278      00
 24279              	.LASF929:
 24280 1fe0 4C454435 		.ascii	"LED5\000"
 24280      00
 24281              	.LASF930:
 24282 1fe5 4C454437 		.ascii	"LED7\000"
 24282      00
 24283              	.LASF314:
 24284 1fea 73746D33 		.ascii	"stm32_gpio_setup_t\000"
 24284      325F6770 
ARM GAS  /tmp/ccZueut9.s 			page 459


 24284      696F5F73 
 24284      65747570 
 24284      5F7400
 24285              	.LASF978:
 24286 1ffd 7374726C 		.ascii	"strlen\000"
 24286      656E00
 24287              	.LASF925:
 24288 2004 4D4C5F57 		.ascii	"ML_WAIT_AND_CHANGE\000"
 24288      4149545F 
 24288      414E445F 
 24288      4348414E 
 24288      474500
 24289              	.LASF1031:
 24290 2017 655F706F 		.ascii	"e_poxxxx_launch_capture\000"
 24290      78787878 
 24290      5F6C6175 
 24290      6E63685F 
 24290      63617074 
 24291              	.LASF283:
 24292 202f 5F73746D 		.ascii	"_stm32_dma_streams\000"
 24292      33325F64 
 24292      6D615F73 
 24292      74726561 
 24292      6D7300
 24293              	.LASF142:
 24294 2042 44485231 		.ascii	"DHR12L1\000"
 24294      324C3100 
 24295              	.LASF145:
 24296 204a 44485231 		.ascii	"DHR12L2\000"
 24296      324C3200 
 24297              	.LASF852:
 24298 2052 5F676574 		.ascii	"_getdate_err\000"
 24298      64617465 
 24298      5F657272 
 24298      00
 24299              	.LASF968:
 24300 205f 63616D5F 		.ascii	"cam_start_index\000"
 24300      73746172 
 24300      745F696E 
 24300      64657800 
 24301              	.LASF532:
 24302 206f 73646362 		.ascii	"sdcbusmode_t\000"
 24302      75736D6F 
 24302      64655F74 
 24302      00
 24303              	.LASF1010:
 24304 207c 655F7365 		.ascii	"e_set_steps_right\000"
 24304      745F7374 
 24304      6570735F 
 24304      72696768 
 24304      7400
 24305              	.LASF964:
 24306 208e 61636365 		.ascii	"accelero\000"
 24306      6C65726F 
 24306      00
 24307              	.LASF772:
 24308 2097 5F5F746D 		.ascii	"__tm\000"
ARM GAS  /tmp/ccZueut9.s 			page 460


 24308      00
 24309              	.LASF148:
 24310 209c 44485231 		.ascii	"DHR12LD\000"
 24310      324C4400 
 24311              	.LASF349:
 24312 20a4 61646363 		.ascii	"adccallback_t\000"
 24312      616C6C62 
 24312      61636B5F 
 24312      7400
 24313              	.LASF765:
 24314 20b2 6D657373 		.ascii	"messagebus_watchgroup_t\000"
 24314      61676562 
 24314      75735F77 
 24314      61746368 
 24314      67726F75 
 24315              	.LASF46:
 24316 20ca 705F7374 		.ascii	"p_stklimit\000"
 24316      6B6C696D 
 24316      697400
 24317              	.LASF35:
 24318 20d5 636E745F 		.ascii	"cnt_t\000"
 24318      7400
 24319              	.LASF415:
 24320 20db 65787473 		.ascii	"extstate_t\000"
 24320      74617465 
 24320      5F7400
 24321              	.LASF1047:
 24322 20e6 7364696F 		.ascii	"sdio_connect\000"
 24322      5F636F6E 
 24322      6E656374 
 24322      00
 24323              	.LASF589:
 24324 20f3 5553425F 		.ascii	"USB_EP0_WAITING_TX0\000"
 24324      4550305F 
 24324      57414954 
 24324      494E475F 
 24324      54583000 
 24325              	.LASF568:
 24326 2107 6570306E 		.ascii	"ep0next\000"
 24326      65787400 
 24327              	.LASF618:
 24328 210f 73746D33 		.ascii	"stm32_otg_host_chn_t\000"
 24328      325F6F74 
 24328      675F686F 
 24328      73745F63 
 24328      686E5F74 
 24329              	.LASF306:
 24330 2124 41465248 		.ascii	"AFRH\000"
 24330      00
 24331              	.LASF749:
 24332 2129 62756666 		.ascii	"buffer\000"
 24332      657200
 24333              	.LASF305:
 24334 2130 4146524C 		.ascii	"AFRL\000"
 24334      00
 24335              	.LASF1057:
 24336 2135 2F686F6D 		.ascii	"/home/leander/uos_codes/epuck2_lab/Task2/\000"
ARM GAS  /tmp/ccZueut9.s 			page 461


 24336      652F6C65 
 24336      616E6465 
 24336      722F756F 
 24336      735F636F 
 24337              	.LASF864:
 24338 215f 5F696D70 		.ascii	"_impure_ptr\000"
 24338      7572655F 
 24338      70747200 
 24339              	.LASF249:
 24340 216b 63665F6F 		.ascii	"cf_off_preempt\000"
 24340      66665F70 
 24340      7265656D 
 24340      707400
 24341              	.LASF1013:
 24342 217a 706C6179 		.ascii	"playMelody\000"
 24342      4D656C6F 
 24342      647900
 24343              	.LASF861:
 24344 2185 5F756E75 		.ascii	"_unused\000"
 24344      73656400 
 24345              	.LASF386:
 24346 218d 4441435F 		.ascii	"DAC_COMPLETE\000"
 24346      434F4D50 
 24346      4C455445 
 24346      00
 24347              	.LASF627:
 24348 219a 444F4550 		.ascii	"DOEPCTL\000"
 24348      43544C00 
 24349              	.LASF613:
 24350 21a2 4843494E 		.ascii	"HCINTMSK\000"
 24350      544D534B 
 24350      00
 24351              	.LASF802:
 24352 21ab 5F756275 		.ascii	"_ubuf\000"
 24352      6600
 24353              	.LASF975:
 24354 21b1 67657459 		.ascii	"getYAxisGyro\000"
 24354      41786973 
 24354      4779726F 
 24354      00
 24355              	.LASF341:
 24356 21be 636F6E66 		.ascii	"config\000"
 24356      696700
 24357              	.LASF969:
 24358 21c5 74656D70 		.ascii	"tempf\000"
 24358      6600
 24359              	.LASF449:
 24360 21cb 47505444 		.ascii	"GPTD11\000"
 24360      313100
 24361              	.LASF970:
 24362 21d2 74656D70 		.ascii	"tempi\000"
 24362      6900
 24363              	.LASF847:
 24364 21d8 5F6D626C 		.ascii	"_mblen_state\000"
 24364      656E5F73 
 24364      74617465 
 24364      00
ARM GAS  /tmp/ccZueut9.s 			page 462


 24365              	.LASF450:
 24366 21e5 47505444 		.ascii	"GPTD14\000"
 24366      313400
 24367              	.LASF863:
 24368 21ec 5F5F6C6F 		.ascii	"__locale_t\000"
 24368      63616C65 
 24368      5F7400
 24369              	.LASF287:
 24370 21f7 424C4B5F 		.ascii	"BLK_CONNECTING\000"
 24370      434F4E4E 
 24370      45435449 
 24370      4E4700
 24371              	.LASF820:
 24372 2206 5F5F636C 		.ascii	"__cleanup\000"
 24372      65616E75 
 24372      7000
 24373              	.LASF1044:
 24374 2210 564C3533 		.ascii	"VL53L0X_start\000"
 24374      4C30585F 
 24374      73746172 
 24374      7400
 24375              	.LASF1016:
 24376 221e 655F7365 		.ascii	"e_send_uart2_char\000"
 24376      6E645F75 
 24376      61727432 
 24376      5F636861 
 24376      7200
 24377              	.LASF382:
 24378 2230 4441435F 		.ascii	"DAC_UNINIT\000"
 24378      554E494E 
 24378      495400
 24379              	.LASF335:
 24380 223b 6164635F 		.ascii	"adc_channels_num_t\000"
 24380      6368616E 
 24380      6E656C73 
 24380      5F6E756D 
 24380      5F7400
 24381              	.LASF74:
 24382 224e 76746675 		.ascii	"vtfunc_t\000"
 24382      6E635F74 
 24382      00
 24383              	.LASF122:
 24384 2257 43414E5F 		.ascii	"CAN_FIFOMailBox_TypeDef\000"
 24384      4649464F 
 24384      4D61696C 
 24384      426F785F 
 24384      54797065 
 24385              	.LASF152:
 24386 226f 4441435F 		.ascii	"DAC_TypeDef\000"
 24386      54797065 
 24386      44656600 
 24387              	.LASF219:
 24388 227b 77746F62 		.ascii	"wtobjp\000"
 24388      6A7000
 24389              	.LASF1048:
 24390 2282 7364696F 		.ascii	"sdio_disconnect\000"
 24390      5F646973 
ARM GAS  /tmp/ccZueut9.s 			page 463


 24390      636F6E6E 
 24390      65637400 
 24391              	.LASF734:
 24392 2292 5F66706F 		.ascii	"_fpos_t\000"
 24392      735F7400 
 24393              	.LASF402:
 24394 229a 4441435F 		.ascii	"DAC_DHRM_12BIT_RIGHT\000"
 24394      4448524D 
 24394      5F313242 
 24394      49545F52 
 24394      49474854 
 24395              	.LASF795:
 24396 22af 5F66696C 		.ascii	"_file\000"
 24396      6500
 24397              	.LASF954:
 24398 22b5 63616D5F 		.ascii	"cam_heigth\000"
 24398      68656967 
 24398      746800
 24399              	.LASF936:
 24400 22c0 54797065 		.ascii	"TypeAccSpheric\000"
 24400      41636353 
 24400      70686572 
 24400      696300
 24401              	.LASF57:
 24402 22cf 705F7265 		.ascii	"p_realprio\000"
 24402      616C7072 
 24402      696F00
 24403              	.LASF536:
 24404 22da 63617061 		.ascii	"capacity\000"
 24404      63697479 
 24404      00
 24405              	.LASF727:
 24406 22e3 53657269 		.ascii	"SerialUSBConfig\000"
 24406      616C5553 
 24406      42436F6E 
 24406      66696700 
 24407              	.LASF272:
 24408 22f3 715F6E6F 		.ascii	"q_notify\000"
 24408      74696679 
 24408      00
 24409              	.LASF222:
 24410 22fc 77746D74 		.ascii	"wtmtxp\000"
 24410      787000
 24411              	.LASF793:
 24412 2303 5F5F7346 		.ascii	"__sFILE\000"
 24412      494C4500 
 24413              	.LASF979:
 24414 230b 655F7365 		.ascii	"e_send_uart1_char\000"
 24414      6E645F75 
 24414      61727431 
 24414      5F636861 
 24414      7200
 24415              	.LASF789:
 24416 231d 5F666E73 		.ascii	"_fns\000"
 24416      00
 24417              	.LASF903:
 24418 2322 6672616D 		.ascii	"frame_end_cb\000"
ARM GAS  /tmp/ccZueut9.s 			page 464


 24418      655F656E 
 24418      645F6362 
 24418      00
 24419              	.LASF700:
 24420 232f 5553424F 		.ascii	"USBOutEndpointState\000"
 24420      7574456E 
 24420      64706F69 
 24420      6E745374 
 24420      61746500 
 24421              	.LASF1060:
 24422 2343 5F5F6275 		.ascii	"__builtin_memcpy\000"
 24422      696C7469 
 24422      6E5F6D65 
 24422      6D637079 
 24422      00
 24423              	.LASF657:
 24424 2354 72657376 		.ascii	"resvd41C\000"
 24424      64343143 
 24424      00
 24425              	.LASF875:
 24426 235d 6368616E 		.ascii	"changed\000"
 24426      67656400 
 24427              	.LASF740:
 24428 2365 5F6D6273 		.ascii	"_mbstate_t\000"
 24428      74617465 
 24428      5F7400
 24429              	.LASF858:
 24430 2370 5F685F65 		.ascii	"_h_errno\000"
 24430      72726E6F 
 24430      00
 24431              	.LASF912:
 24432 2379 554E4445 		.ascii	"UNDERWORLD\000"
 24432      52574F52 
 24432      4C4400
 24433              	.LASF119:
 24434 2384 52445452 		.ascii	"RDTR\000"
 24434      00
 24435              	.LASF295:
 24436 2389 626C6B5F 		.ascii	"blk_num\000"
 24436      6E756D00 
 24437              	.LASF595:
 24438 2391 5553425F 		.ascii	"USB_EVENT_RESET\000"
 24438      4556454E 
 24438      545F5245 
 24438      53455400 
 24439              	.LASF67:
 24440 23a1 63685F72 		.ascii	"ch_ready_list\000"
 24440      65616479 
 24440      5F6C6973 
 24440      7400
 24441              	.LASF758:
 24442 23af 67726F75 		.ascii	"group\000"
 24442      7000
 24443              	.LASF302:
 24444 23b5 50555044 		.ascii	"PUPDR\000"
 24444      5200
 24445              	.LASF12:
ARM GAS  /tmp/ccZueut9.s 			page 465


 24446 23bb 5F5F696E 		.ascii	"__int32_t\000"
 24446      7433325F 
 24446      7400
 24447              	.LASF926:
 24448 23c5 4D4C5F46 		.ascii	"ML_FORCE_CHANGE\000"
 24448      4F524345 
 24448      5F434841 
 24448      4E474500 
 24449              	.LASF14:
 24450 23d5 5F5F7569 		.ascii	"__uint32_t\000"
 24450      6E743332 
 24450      5F7400
 24451              	.LASF915:
 24452 23e0 4D415249 		.ascii	"MARIO_FLAG\000"
 24452      4F5F464C 
 24452      414700
 24453              	.LASF86:
 24454 23eb 63685F73 		.ascii	"ch_system_debug\000"
 24454      79737465 
 24454      6D5F6465 
 24454      62756700 
 24455              	.LASF668:
 24456 23fb 4441494E 		.ascii	"DAINTMSK\000"
 24456      544D534B 
 24456      00
 24457              	.LASF893:
 24458 2404 44434D49 		.ascii	"DCMI_ACTIVE_STREAM\000"
 24458      5F414354 
 24458      4956455F 
 24458      53545245 
 24458      414D00
 24459              	.LASF422:
 24460 2417 45585443 		.ascii	"EXTConfig\000"
 24460      6F6E6669 
 24460      6700
 24461              	.LASF868:
 24462 2421 70617261 		.ascii	"parameter_namespace_s\000"
 24462      6D657465 
 24462      725F6E61 
 24462      6D657370 
 24462      6163655F 
 24463              	.LASF267:
 24464 2437 715F636F 		.ascii	"q_counter\000"
 24464      756E7465 
 24464      7200
 24465              	.LASF587:
 24466 2441 5553425F 		.ascii	"USB_EP0_WAITING_SETUP\000"
 24466      4550305F 
 24466      57414954 
 24466      494E475F 
 24466      53455455 
 24467              	.LASF786:
 24468 2457 5F69735F 		.ascii	"_is_cxa\000"
 24468      63786100 
 24469              	.LASF290:
 24470 245f 424C4B5F 		.ascii	"BLK_READING\000"
 24470      52454144 
ARM GAS  /tmp/ccZueut9.s 			page 466


 24470      494E4700 
 24471              	.LASF312:
 24472 246b 6166726C 		.ascii	"afrl\000"
 24472      00
 24473              	.LASF690:
 24474 2470 71756575 		.ascii	"queue\000"
 24474      6500
 24475              	.LASF570:
 24476 2476 65703065 		.ascii	"ep0endcb\000"
 24476      6E646362 
 24476      00
 24477              	.LASF280:
 24478 247f 73656C66 		.ascii	"selfindex\000"
 24478      696E6465 
 24478      7800
 24479              	.LASF253:
 24480 2489 6D757465 		.ascii	"mutex_t\000"
 24480      785F7400 
 24481              	.LASF823:
 24482 2491 5F703573 		.ascii	"_p5s\000"
 24482      00
 24483              	.LASF55:
 24484 2496 705F6570 		.ascii	"p_epending\000"
 24484      656E6469 
 24484      6E6700
 24485              	.LASF1050:
 24486 24a1 67657441 		.ascii	"getAllAxesGyro\000"
 24486      6C6C4178 
 24486      65734779 
 24486      726F00
 24487              	.LASF299:
 24488 24b0 4D4F4445 		.ascii	"MODER\000"
 24488      5200
 24489              	.LASF484:
 24490 24b6 4932535F 		.ascii	"I2S_COMPLETE\000"
 24490      434F4D50 
 24490      4C455445 
 24490      00
 24491              	.LASF1005:
 24492 24c3 655F706F 		.ascii	"e_poxxxx_init_cam\000"
 24492      78787878 
 24492      5F696E69 
 24492      745F6361 
 24492      6D00
 24493              	.LASF755:
 24494 24d5 77617463 		.ascii	"watchers\000"
 24494      68657273 
 24494      00
 24495              	.LASF126:
 24496 24de 52455345 		.ascii	"RESERVED0\000"
 24496      52564544 
 24496      3000
 24497              	.LASF129:
 24498 24e8 52455345 		.ascii	"RESERVED1\000"
 24498      52564544 
 24498      3100
 24499              	.LASF131:
ARM GAS  /tmp/ccZueut9.s 			page 467


 24500 24f2 52455345 		.ascii	"RESERVED2\000"
 24500      52564544 
 24500      3200
 24501              	.LASF133:
 24502 24fc 52455345 		.ascii	"RESERVED3\000"
 24502      52564544 
 24502      3300
 24503              	.LASF135:
 24504 2506 52455345 		.ascii	"RESERVED4\000"
 24504      52564544 
 24504      3400
 24505              	.LASF137:
 24506 2510 52455345 		.ascii	"RESERVED5\000"
 24506      52564544 
 24506      3500
 24507              	.LASF711:
 24508 251a 55534245 		.ascii	"USBEndpointConfig\000"
 24508      6E64706F 
 24508      696E7443 
 24508      6F6E6669 
 24508      6700
 24509              	.LASF141:
 24510 252c 44485231 		.ascii	"DHR12R1\000"
 24510      32523100 
 24511              	.LASF144:
 24512 2534 44485231 		.ascii	"DHR12R2\000"
 24512      32523200 
 24513              	.LASF418:
 24514 253c 65787463 		.ascii	"extcallback_t\000"
 24514      616C6C62 
 24514      61636B5F 
 24514      7400
 24515              	.LASF374:
 24516 254a 72787175 		.ascii	"rxqueue\000"
 24516      65756500 
 24517              	.LASF196:
 24518 2552 73655F74 		.ascii	"se_time\000"
 24518      696D6500 
 24519              	.LASF887:
 24520 255a 44434D49 		.ascii	"DCMI_ERR_DMAFAILURE\000"
 24520      5F455252 
 24520      5F444D41 
 24520      4641494C 
 24520      55524500 
 24521              	.LASF659:
 24522 256e 72657376 		.ascii	"resvd444\000"
 24522      64343434 
 24522      00
 24523              	.LASF326:
 24524 2577 70616C5F 		.ascii	"pal_default_config\000"
 24524      64656661 
 24524      756C745F 
 24524      636F6E66 
 24524      696700
 24525              	.LASF865:
 24526 258a 5F676C6F 		.ascii	"_global_impure_ptr\000"
 24526      62616C5F 
ARM GAS  /tmp/ccZueut9.s 			page 468


 24526      696D7075 
 24526      72655F70 
 24526      747200
 24527              	.LASF344:
 24528 259d 67727070 		.ascii	"grpp\000"
 24528      00
 24529              	.LASF147:
 24530 25a2 44485231 		.ascii	"DHR12RD\000"
 24530      32524400 
 24531              	.LASF257:
 24532 25aa 656C5F6C 		.ascii	"el_listener\000"
 24532      69737465 
 24532      6E657200 
 24533              	.LASF689:
 24534 25b6 6C696E65 		.ascii	"linear\000"
 24534      617200
 24535              	.LASF892:
 24536 25bd 44434D49 		.ascii	"DCMI_READY\000"
 24536      5F524541 
 24536      445900
 24537              	.LASF991:
 24538 25c8 63685468 		.ascii	"chThdSleep\000"
 24538      64536C65 
 24538      657000
 24539              	.LASF442:
 24540 25d3 73746D33 		.ascii	"stm32_tim_t\000"
 24540      325F7469 
 24540      6D5F7400 
 24541              	.LASF69:
 24542 25df 725F7072 		.ascii	"r_prio\000"
 24542      696F00
 24543              	.LASF154:
 24544 25e6 4D495352 		.ascii	"MISR\000"
 24544      00
 24545              	.LASF98:
 24546 25eb 49544D5F 		.ascii	"ITM_RxBuffer\000"
 24546      52784275 
 24546      66666572 
 24546      00
 24547              	.LASF1025:
 24548 25f8 655F6765 		.ascii	"e_getchar_uart2\000"
 24548      74636861 
 24548      725F7561 
 24548      72743200 
 24549              	.LASF296:
 24550 2608 426C6F63 		.ascii	"BlockDeviceInfo\000"
 24550      6B446576 
 24550      69636549 
 24550      6E666F00 
 24551              	.LASF17:
 24552 2618 6C6F6E67 		.ascii	"long long unsigned int\000"
 24552      206C6F6E 
 24552      6720756E 
 24552      7369676E 
 24552      65642069 
 24553              	.LASF183:
 24554 262f 5344494F 		.ascii	"SDIO_TypeDef\000"
ARM GAS  /tmp/ccZueut9.s 			page 469


 24554      5F547970 
 24554      65446566 
 24554      00
 24555              	.LASF205:
 24556 263c 6F666673 		.ascii	"offset\000"
 24556      657400
 24557              	.LASF761:
 24558 2643 746F7069 		.ascii	"topics\000"
 24558      637300
 24559              	.LASF160:
 24560 264a 4E445452 		.ascii	"NDTR\000"
 24560      00
 24561              	.LASF262:
 24562 264f 65735F6E 		.ascii	"es_next\000"
 24562      65787400 
 24563              	.LASF844:
 24564 2657 5F67616D 		.ascii	"_gamma_signgam\000"
 24564      6D615F73 
 24564      69676E67 
 24564      616D00
 24565              	.LASF625:
 24566 2666 72657376 		.ascii	"resvd1C\000"
 24566      64314300 
 24567              	.LASF97:
 24568 266e 69646C65 		.ascii	"idle_thread_wa\000"
 24568      5F746872 
 24568      6561645F 
 24568      776100
 24569              	.LASF621:
 24570 267d 44494550 		.ascii	"DIEPINT\000"
 24570      494E5400 
 24571              	.LASF189:
 24572 2685 5350495F 		.ascii	"SPI_TypeDef\000"
 24572      54797065 
 24572      44656600 
 24573              	.LASF80:
 24574 2691 76745F66 		.ascii	"vt_func\000"
 24574      756E6300 
 24575              	.LASF433:
 24576 2699 534D4352 		.ascii	"SMCR\000"
 24576      00
 24577              	.LASF666:
 24578 269e 444F4550 		.ascii	"DOEPMSK\000"
 24578      4D534B00 
 24579              	.LASF76:
 24580 26a6 63685F76 		.ascii	"ch_virtual_timer\000"
 24580      69727475 
 24580      616C5F74 
 24580      696D6572 
 24580      00
 24581              	.LASF48:
 24582 26b7 705F666C 		.ascii	"p_flags\000"
 24582      61677300 
 24583              	.LASF1015:
 24584 26bf 67657442 		.ascii	"getBatteryValuePercentage\000"
 24584      61747465 
 24584      72795661 
ARM GAS  /tmp/ccZueut9.s 			page 470


 24584      6C756550 
 24584      65726365 
 24585              	.LASF223:
 24586 26d9 65776D61 		.ascii	"ewmask\000"
 24586      736B00
 24587              	.LASF259:
 24588 26e0 656C5F66 		.ascii	"el_flags\000"
 24588      6C616773 
 24588      00
 24589              	.LASF806:
 24590 26e9 5F646174 		.ascii	"_data\000"
 24590      6100
 24591              	.LASF261:
 24592 26ef 6576656E 		.ascii	"event_source\000"
 24592      745F736F 
 24592      75726365 
 24592      00
 24593              	.LASF56:
 24594 26fc 705F6D74 		.ascii	"p_mtxlist\000"
 24594      786C6973 
 24594      7400
 24595              	.LASF381:
 24596 2706 43414E44 		.ascii	"CAND1\000"
 24596      3100
 24597              	.LASF132:
 24598 270c 46533152 		.ascii	"FS1R\000"
 24598      00
 24599              	.LASF28:
 24600 2711 74737461 		.ascii	"tstate_t\000"
 24600      74655F74 
 24600      00
 24601              	.LASF556:
 24602 271a 53504944 		.ascii	"SPIDriver\000"
 24602      72697665 
 24602      7200
 24603              	.LASF667:
 24604 2724 4441494E 		.ascii	"DAINT\000"
 24604      5400
 24605              	.LASF560:
 24606 272a 53504943 		.ascii	"SPIConfig\000"
 24606      6F6E6669 
 24606      6700
 24607              	.LASF817:
 24608 2734 5F756E73 		.ascii	"_unspecified_locale_info\000"
 24608      70656369 
 24608      66696564 
 24608      5F6C6F63 
 24608      616C655F 
 24609              	.LASF311:
 24610 274d 70757064 		.ascii	"pupdr\000"
 24610      7200
 24611              	.LASF401:
 24612 2753 64616365 		.ascii	"dacerrorcallback_t\000"
 24612      72726F72 
 24612      63616C6C 
 24612      6261636B 
 24612      5F7400
ARM GAS  /tmp/ccZueut9.s 			page 471


 24613              	.LASF900:
 24614 2766 64636D69 		.ascii	"dcmi\000"
 24614      00
 24615              	.LASF563:
 24616 276b 7472616E 		.ascii	"transmitting\000"
 24616      736D6974 
 24616      74696E67 
 24616      00
 24617              	.LASF1037:
 24618 2778 7365745F 		.ascii	"set_rgb_led\000"
 24618      7267625F 
 24618      6C656400 
 24619              	.LASF421:
 24620 2784 6368616E 		.ascii	"channels\000"
 24620      6E656C73 
 24620      00
 24621              	.LASF170:
 24622 278d 434C4B43 		.ascii	"CLKCR\000"
 24622      5200
 24623              	.LASF535:
 24624 2793 53444344 		.ascii	"SDCDriver\000"
 24624      72697665 
 24624      7200
 24625              	.LASF45:
 24626 279d 705F6E61 		.ascii	"p_name\000"
 24626      6D6500
 24627              	.LASF819:
 24628 27a4 5F5F7364 		.ascii	"__sdidinit\000"
 24628      6964696E 
 24628      697400
 24629              	.LASF517:
 24630 27af 53657269 		.ascii	"SerialDriver\000"
 24630      616C4472 
 24630      69766572 
 24630      00
 24631              	.LASF110:
 24632 27bc 4A445231 		.ascii	"JDR1\000"
 24632      00
 24633              	.LASF111:
 24634 27c1 4A445232 		.ascii	"JDR2\000"
 24634      00
 24635              	.LASF112:
 24636 27c6 4A445233 		.ascii	"JDR3\000"
 24636      00
 24637              	.LASF113:
 24638 27cb 4A445234 		.ascii	"JDR4\000"
 24638      00
 24639              	.LASF629:
 24640 27d0 444F4550 		.ascii	"DOEPTSIZ\000"
 24640      5453495A 
 24640      00
 24641              	.LASF329:
 24642 27d9 4144435F 		.ascii	"ADC_READY\000"
 24642      52454144 
 24642      5900
 24643              	.LASF753:
 24644 27e3 6E616D65 		.ascii	"name\000"
ARM GAS  /tmp/ccZueut9.s 			page 472


 24644      00
 24645              	.LASF741:
 24646 27e8 5F666C6F 		.ascii	"_flock_t\000"
 24646      636B5F74 
 24646      00
 24647              	.LASF82:
 24648 27f1 76697274 		.ascii	"virtual_timers_list_t\000"
 24648      75616C5F 
 24648      74696D65 
 24648      72735F6C 
 24648      6973745F 
 24649              	.LASF653:
 24650 2807 72657376 		.ascii	"resvd40C\000"
 24650      64343043 
 24650      00
 24651              	.LASF351:
 24652 2810 63697263 		.ascii	"circular\000"
 24652      756C6172 
 24652      00
 24653              	.LASF485:
 24654 2819 69327373 		.ascii	"i2sstate_t\000"
 24654      74617465 
 24654      5F7400
 24655              	.LASF308:
 24656 2824 6D6F6465 		.ascii	"moder\000"
 24656      7200
 24657              	.LASF225:
 24658 282a 735F7175 		.ascii	"s_queue\000"
 24658      65756500 
 24659              	.LASF214:
 24660 2832 6D5F6372 		.ascii	"m_crit_thd\000"
 24660      69745F74 
 24660      686400
 24661              	.LASF383:
 24662 283d 4441435F 		.ascii	"DAC_STOP\000"
 24662      53544F50 
 24662      00
 24663              	.LASF660:
 24664 2846 72657376 		.ascii	"resvd700\000"
 24664      64373030 
 24664      00
 24665              	.LASF187:
 24666 284f 49325343 		.ascii	"I2SCFGR\000"
 24666      46475200 
 24667              	.LASF723:
 24668 2857 75736270 		.ascii	"usbp\000"
 24668      00
 24669              	.LASF744:
 24670 285c 6F707469 		.ascii	"optind\000"
 24670      6E6400
 24671              	.LASF233:
 24672 2863 63685F69 		.ascii	"ch_identifier\000"
 24672      64656E74 
 24672      69666965 
 24672      7200
 24673              	.LASF527:
 24674 2871 77726974 		.ascii	"writet\000"
ARM GAS  /tmp/ccZueut9.s 			page 473


 24674      657400
 24675              	.LASF922:
 24676 2878 4E425F53 		.ascii	"NB_SONGS\000"
 24676      4F4E4753 
 24676      00
 24677              	.LASF1:
 24678 2881 6C6F6E67 		.ascii	"long long int\000"
 24678      206C6F6E 
 24678      6720696E 
 24678      7400
 24679              	.LASF981:
 24680 288f 67657454 		.ascii	"getTemperature\000"
 24680      656D7065 
 24680      72617475 
 24680      726500
 24681              	.LASF647:
 24682 289e 48505458 		.ascii	"HPTXFSIZ\000"
 24682      4653495A 
 24682      00
 24683              	.LASF904:
 24684 28a7 7472616E 		.ascii	"transfer_complete_cb\000"
 24684      73666572 
 24684      5F636F6D 
 24684      706C6574 
 24684      655F6362 
 24685              	.LASF240:
 24686 28bc 63665F6F 		.ascii	"cf_off_prio\000"
 24686      66665F70 
 24686      72696F00 
 24687              	.LASF809:
 24688 28c8 5F666C61 		.ascii	"_flags2\000"
 24688      67733200 
 24689              	.LASF987:
 24690 28d0 655F6765 		.ascii	"e_get_micro_volume\000"
 24690      745F6D69 
 24690      63726F5F 
 24690      766F6C75 
 24690      6D6500
 24691              	.LASF859:
 24692 28e3 5F6E6578 		.ascii	"_nextf\000"
 24692      746600
 24693              	.LASF211:
 24694 28ea 74696D65 		.ascii	"time_measurement_t\000"
 24694      5F6D6561 
 24694      73757265 
 24694      6D656E74 
 24694      5F7400
 24695              	.LASF548:
 24696 28fd 6765745F 		.ascii	"get_info\000"
 24696      696E666F 
 24696      00
 24697              	.LASF338:
 24698 2906 61646365 		.ascii	"adcerror_t\000"
 24698      72726F72 
 24698      5F7400
 24699              	.LASF713:
 24700 2911 6765745F 		.ascii	"get_descriptor_cb\000"
ARM GAS  /tmp/ccZueut9.s 			page 474


 24700      64657363 
 24700      72697074 
 24700      6F725F63 
 24700      6200
 24701              	.LASF818:
 24702 2923 5F6C6F63 		.ascii	"_locale\000"
 24702      616C6500 
 24703              	.LASF34:
 24704 292b 6576656E 		.ascii	"eventflags_t\000"
 24704      74666C61 
 24704      67735F74 
 24704      00
 24705              	.LASF552:
 24706 2938 5350495F 		.ascii	"SPI_READY\000"
 24706      52454144 
 24706      5900
 24707              	.LASF128:
 24708 2942 73464946 		.ascii	"sFIFOMailBox\000"
 24708      4F4D6169 
 24708      6C426F78 
 24708      00
 24709              	.LASF540:
 24710 294f 6275735F 		.ascii	"bus_width\000"
 24710      77696474 
 24710      6800
 24711              	.LASF905:
 24712 2959 68616C66 		.ascii	"half_transfer_complete_cb\000"
 24712      5F747261 
 24712      6E736665 
 24712      725F636F 
 24712      6D706C65 
 24713              	.LASF944:
 24714 2973 4C45445F 		.ascii	"LED_action\000"
 24714      61637469 
 24714      6F6E00
 24715              	.LASF149:
 24716 297e 44485238 		.ascii	"DHR8RD\000"
 24716      524400
 24717              	.LASF662:
 24718 2985 4443544C 		.ascii	"DCTL\000"
 24718      00
 24719              	.LASF542:
 24720 298a 53444344 		.ascii	"SDCDriverVMT\000"
 24720      72697665 
 24720      72564D54 
 24720      00
 24721              	.LASF688:
 24722 2997 74786275 		.ascii	"txbuf\000"
 24722      6600
 24723              	.LASF681:
 24724 299d 50434743 		.ascii	"PCGCCTL\000"
 24724      43544C00 
 24725              	.LASF599:
 24726 29a5 5553425F 		.ascii	"USB_EVENT_WAKEUP\000"
 24726      4556454E 
 24726      545F5741 
 24726      4B455550 
ARM GAS  /tmp/ccZueut9.s 			page 475


 24726      00
 24727              	.LASF949:
 24728 29b6 6779726F 		.ascii	"gyrox\000"
 24728      7800
 24729              	.LASF951:
 24730 29bc 6779726F 		.ascii	"gyroz\000"
 24730      7A00
 24731              	.LASF44:
 24732 29c2 705F6F6C 		.ascii	"p_older\000"
 24732      64657200 
 24733              	.LASF292:
 24734 29ca 424C4B5F 		.ascii	"BLK_SYNCING\000"
 24734      53594E43 
 24734      494E4700 
 24735              	.LASF323:
 24736 29d6 50494461 		.ascii	"PIData\000"
 24736      746100
 24737              	.LASF710:
 24738 29dd 73657475 		.ascii	"setup_buf\000"
 24738      705F6275 
 24738      6600
 24739              	.LASF448:
 24740 29e7 47505444 		.ascii	"GPTD6\000"
 24740      3600
 24741              	.LASF870:
 24742 29ed 70617265 		.ascii	"parent\000"
 24742      6E7400
 24743              	.LASF354:
 24744 29f4 6572726F 		.ascii	"error_cb\000"
 24744      725F6362 
 24744      00
 24745              	.LASF288:
 24746 29fd 424C4B5F 		.ascii	"BLK_DISCONNECTING\000"
 24746      44495343 
 24746      4F4E4E45 
 24746      4354494E 
 24746      4700
 24747              	.LASF558:
 24748 2a0f 7373706F 		.ascii	"ssport\000"
 24748      727400
 24749              	.LASF880:
 24750 2a16 6275665F 		.ascii	"buf_len\000"
 24750      6C656E00 
 24751              	.LASF60:
 24752 2a1e 74687265 		.ascii	"thread_reference_t\000"
 24752      61645F72 
 24752      65666572 
 24752      656E6365 
 24752      5F7400
 24753              	.LASF889:
 24754 2a31 64636D69 		.ascii	"dcmierror_t\000"
 24754      6572726F 
 24754      725F7400 
 24755              	.LASF417:
 24756 2a3d 65787063 		.ascii	"expchannel_t\000"
 24756      68616E6E 
 24756      656C5F74 
ARM GAS  /tmp/ccZueut9.s 			page 476


 24756      00
 24757              	.LASF564:
 24758 2a4a 72656365 		.ascii	"receiving\000"
 24758      6976696E 
 24758      6700
 24759              	.LASF872:
 24760 2a54 70617261 		.ascii	"parameter_list\000"
 24760      6D657465 
 24760      725F6C69 
 24760      737400
 24761              	.LASF832:
 24762 2a63 5F5F4649 		.ascii	"__FILE\000"
 24762      4C4500
 24763              	.LASF444:
 24764 2a6a 66726571 		.ascii	"frequency\000"
 24764      75656E63 
 24764      7900
 24765              	.LASF206:
 24766 2a74 746D5F63 		.ascii	"tm_calibration_t\000"
 24766      616C6962 
 24766      72617469 
 24766      6F6E5F74 
 24766      00
 24767              	.LASF4:
 24768 2a85 5F5F696E 		.ascii	"__int8_t\000"
 24768      74385F74 
 24768      00
 24769              	.LASF707:
 24770 2a8e 696E5F73 		.ascii	"in_state\000"
 24770      74617465 
 24770      00
 24771              	.LASF190:
 24772 2a97 47545052 		.ascii	"GTPR\000"
 24772      00
 24773              	.LASF972:
 24774 2a9c 48577665 		.ascii	"HWversion\000"
 24774      7273696F 
 24774      6E00
 24775              	.LASF1042:
 24776 2aa6 63616D5F 		.ascii	"cam_get_last_image_ptr\000"
 24776      6765745F 
 24776      6C617374 
 24776      5F696D61 
 24776      67655F70 
 24777              	.LASF234:
 24778 2abd 63685F7A 		.ascii	"ch_zero\000"
 24778      65726F00 
 24779              	.LASF465:
 24780 2ac5 46415354 		.ascii	"FAST_DUTY_CYCLE_2\000"
 24780      5F445554 
 24780      595F4359 
 24780      434C455F 
 24780      3200
 24781              	.LASF178:
 24782 2ad7 44435452 		.ascii	"DCTRL\000"
 24782      4C00
 24783              	.LASF239:
ARM GAS  /tmp/ccZueut9.s 			page 477


 24784 2add 63685F74 		.ascii	"ch_threadsize\000"
 24784      68726561 
 24784      6473697A 
 24784      6500
 24785              	.LASF167:
 24786 2aeb 464C5452 		.ascii	"FLTR\000"
 24786      00
 24787              	.LASF435:
 24788 2af0 43434D52 		.ascii	"CCMR1\000"
 24788      3100
 24789              	.LASF436:
 24790 2af6 43434D52 		.ascii	"CCMR2\000"
 24790      3200
 24791              	.LASF440:
 24792 2afc 43434D52 		.ascii	"CCMR3\000"
 24792      3300
 24793              	.LASF0:
 24794 2b02 756E7369 		.ascii	"unsigned int\000"
 24794      676E6564 
 24794      20696E74 
 24794      00
 24795              	.LASF358:
 24796 2b0f 73717232 		.ascii	"sqr2\000"
 24796      00
 24797              	.LASF359:
 24798 2b14 73717233 		.ascii	"sqr3\000"
 24798      00
 24799              	.LASF846:
 24800 2b19 5F723438 		.ascii	"_r48\000"
 24800      00
 24801              	.LASF651:
 24802 2b1e 48464952 		.ascii	"HFIR\000"
 24802      00
 24803              	.LASF906:
 24804 2b23 44434D49 		.ascii	"DCMIConfig\000"
 24804      436F6E66 
 24804      696700
 24805              	.LASF581:
 24806 2b2e 5553425F 		.ascii	"USB_UNINIT\000"
 24806      554E494E 
 24806      495400
 24807              	.LASF277:
 24808 2b39 73747265 		.ascii	"stream\000"
 24808      616D00
 24809              	.LASF361:
 24810 2b40 64756D6D 		.ascii	"dummy\000"
 24810      7900
 24811              	.LASF918:
 24812 2b46 53494D50 		.ascii	"SIMPSON\000"
 24812      534F4E00 
 24813              	.LASF463:
 24814 2b4e 6932636F 		.ascii	"i2copmode_t\000"
 24814      706D6F64 
 24814      655F7400 
 24815              	.LASF156:
 24816 2b5a 45535552 		.ascii	"ESUR\000"
 24816      00
ARM GAS  /tmp/ccZueut9.s 			page 478


 24817              	.LASF255:
 24818 2b5f 6576656E 		.ascii	"event_listener\000"
 24818      745F6C69 
 24818      7374656E 
 24818      657200
 24819              	.LASF838:
 24820 2b6e 5F6D756C 		.ascii	"_mult\000"
 24820      7400
 24821              	.LASF9:
 24822 2b74 73686F72 		.ascii	"short int\000"
 24822      7420696E 
 24822      7400
 24823              	.LASF605:
 24824 2b7e 75736263 		.ascii	"usbcallback_t\000"
 24824      616C6C62 
 24824      61636B5F 
 24824      7400
 24825              	.LASF798:
 24826 2b8c 5F726561 		.ascii	"_read\000"
 24826      6400
 24827              	.LASF634:
 24828 2b92 47555342 		.ascii	"GUSBCFG\000"
 24828      43464700 
 24829              	.LASF191:
 24830 2b9a 55534152 		.ascii	"USART_TypeDef\000"
 24830      545F5479 
 24830      70654465 
 24830      6600
 24831              	.LASF276:
 24832 2ba8 6F757470 		.ascii	"output_queue_t\000"
 24832      75745F71 
 24832      75657565 
 24832      5F7400
 24833              	.LASF836:
 24834 2bb7 5F72616E 		.ascii	"_rand48\000"
 24834      64343800 
 24835              	.LASF683:
 24836 2bbf 73746D33 		.ascii	"stm32_otg_t\000"
 24836      325F6F74 
 24836      675F7400 
 24837              	.LASF781:
 24838 2bcb 5F5F746D 		.ascii	"__tm_isdst\000"
 24838      5F697364 
 24838      737400
 24839              	.LASF486:
 24840 2bd6 49325344 		.ascii	"I2SDriver\000"
 24840      72697665 
 24840      7200
 24841              	.LASF470:
 24842 2be0 64757479 		.ascii	"duty_cycle\000"
 24842      5F637963 
 24842      6C6500
 24843              	.LASF493:
 24844 2beb 49325343 		.ascii	"I2SConfig\000"
 24844      6F6E6669 
 24844      6700
 24845              	.LASF602:
ARM GAS  /tmp/ccZueut9.s 			page 479


 24846 2bf5 75645F73 		.ascii	"ud_size\000"
 24846      697A6500 
 24847              	.LASF989:
 24848 2bfd 655F7365 		.ascii	"e_set_body_led\000"
 24848      745F626F 
 24848      64795F6C 
 24848      656400
 24849              	.LASF705:
 24850 2c0c 696E5F6D 		.ascii	"in_maxsize\000"
 24850      61787369 
 24850      7A6500
 24851              	.LASF320:
 24852 2c17 50464461 		.ascii	"PFData\000"
 24852      746100
 24853              	.LASF413:
 24854 2c1e 4558545F 		.ascii	"EXT_STOP\000"
 24854      53544F50 
 24854      00
 24855              	.LASF1009:
 24856 2c27 655F7365 		.ascii	"e_set_steps_left\000"
 24856      745F7374 
 24856      6570735F 
 24856      6C656674 
 24856      00
 24857              	.LASF47:
 24858 2c38 705F7374 		.ascii	"p_state\000"
 24858      61746500 
 24859              	.LASF494:
 24860 2c40 49325344 		.ascii	"I2SD2\000"
 24860      3200
 24861              	.LASF543:
 24862 2c46 69735F69 		.ascii	"is_inserted\000"
 24862      6E736572 
 24862      74656400 
 24863              	.LASF63:
 24864 2c52 63685F74 		.ascii	"ch_threads_list\000"
 24864      68726561 
 24864      64735F6C 
 24864      69737400 
 24865              	.LASF948:
 24866 2c62 736F756E 		.ascii	"sound\000"
 24866      6400
 24867              	.LASF179:
 24868 2c68 44434F55 		.ascii	"DCOUNT\000"
 24868      4E5400
 24869              	.LASF164:
 24870 2c6f 4F415231 		.ascii	"OAR1\000"
 24870      00
 24871              	.LASF165:
 24872 2c74 4F415232 		.ascii	"OAR2\000"
 24872      00
 24873              	.LASF59:
 24874 2c79 705F7374 		.ascii	"p_stats\000"
 24874      61747300 
 24875              	.LASF586:
 24876 2c81 75736273 		.ascii	"usbstate_t\000"
 24876      74617465 
ARM GAS  /tmp/ccZueut9.s 			page 480


 24876      5F7400
 24877              		.ident	"GCC: (GNU Tools for Arm Embedded Processors 7-2017-q4-major) 7.2.1 20170904 (release) [ARM
ARM GAS  /tmp/ccZueut9.s 			page 481


DEFINED SYMBOLS
                            *ABS*:0000000000000000 Asercom2.c
     /tmp/ccZueut9.s:18     .text.run_asercom2:0000000000000000 $t
     /tmp/ccZueut9.s:26     .text.run_asercom2:0000000000000000 run_asercom2
     /tmp/ccZueut9.s:190    .text.run_asercom2:00000000000000ce $d
     /tmp/ccZueut9.s:201    .text.run_asercom2:00000000000000e2 $t
     /tmp/ccZueut9.s:364    .text.run_asercom2:00000000000001e2 $d
     /tmp/ccZueut9.s:375    .text.run_asercom2:00000000000001f6 $t
     /tmp/ccZueut9.s:518    .text.run_asercom2:00000000000002b0 $d
     /tmp/ccZueut9.s:537    .text.run_asercom2:00000000000002f4 $t
     /tmp/ccZueut9.s:705    .text.run_asercom2:00000000000003e2 $d
     /tmp/ccZueut9.s:817    .text.run_asercom2:00000000000004c2 $t
     /tmp/ccZueut9.s:890    .text.run_asercom2:0000000000000530 $d
     /tmp/ccZueut9.s:900    .text.run_asercom2:0000000000000550 $t
     /tmp/ccZueut9.s:1467   .text.run_asercom2:00000000000008c4 $d
     /tmp/ccZueut9.s:1478   .text.run_asercom2:00000000000008e4 $t
     /tmp/ccZueut9.s:1907   .text.run_asercom2:0000000000000b60 $d
     /tmp/ccZueut9.s:1921   .text.run_asercom2:0000000000000b90 $t
     /tmp/ccZueut9.s:2233   .text.run_asercom2:0000000000000dac $d
     /tmp/ccZueut9.s:2239   .text.run_asercom2:0000000000000dbc $t
     /tmp/ccZueut9.s:2769   .text.run_asercom2:0000000000001160 $d
     /tmp/ccZueut9.s:2777   .text.run_asercom2:000000000000117c $t
     /tmp/ccZueut9.s:2916   .text.run_asercom2:000000000000128c $d
     /tmp/ccZueut9.s:2968   .text.run_asercom2:000000000000135c $t
     /tmp/ccZueut9.s:3277   .text.run_asercom2:0000000000001564 $d
     /tmp/ccZueut9.s:3295   .text.run_asercom2:00000000000015a4 $t
     /tmp/ccZueut9.s:3320   .text.run_asercom2:00000000000015ce $d
     /tmp/ccZueut9.s:3325   .text.run_asercom2:00000000000015d8 $t
     /tmp/ccZueut9.s:3731   .text.run_asercom2:00000000000018a8 $d
     /tmp/ccZueut9.s:3751   .text.run_asercom2:00000000000018f0 $t
     /tmp/ccZueut9.s:4153   .text.run_asercom2:0000000000001b9c $d
     /tmp/ccZueut9.s:4178   .text.run_asercom2:0000000000001bf8 $t
     /tmp/ccZueut9.s:4686   .text.run_asercom2:0000000000001efc $d
     /tmp/ccZueut9.s:4722   .text.run_asercom2:0000000000001f84 $t
     /tmp/ccZueut9.s:5168   .text.run_asercom2:00000000000022bc $d
     /tmp/ccZueut9.s:5184   .text.run_asercom2:00000000000022f4 $t
     /tmp/ccZueut9.s:5683   .text.run_asercom2:0000000000002600 $d
     /tmp/ccZueut9.s:5694   .text.run_asercom2:0000000000002624 $t
     /tmp/ccZueut9.s:6202   .text.run_asercom2:0000000000002924 $d
     /tmp/ccZueut9.s:6242   .text.run_asercom2:00000000000029b4 $t
     /tmp/ccZueut9.s:6375   .text.run_asercom2:0000000000002a74 $d
     /tmp/ccZueut9.s:6387   .bss.LED_action.13457:0000000000000000 $d
     /tmp/ccZueut9.s:6391   .bss.LED_action.13457:0000000000000000 LED_action.13457
     /tmp/ccZueut9.s:6394   .bss.LED_nbr.13456:0000000000000000 $d
     /tmp/ccZueut9.s:6398   .bss.LED_nbr.13456:0000000000000000 LED_nbr.13456
     /tmp/ccZueut9.s:6401   .bss.accelero.13481:0000000000000000 $d
     /tmp/ccZueut9.s:6405   .bss.accelero.13481:0000000000000000 accelero.13481
     /tmp/ccZueut9.s:6408   .bss.accx.13458:0000000000000000 $d
     /tmp/ccZueut9.s:6412   .bss.accx.13458:0000000000000000 accx.13458
     /tmp/ccZueut9.s:6415   .bss.accy.13459:0000000000000000 $d
     /tmp/ccZueut9.s:6419   .bss.accy.13459:0000000000000000 accy.13459
     /tmp/ccZueut9.s:6422   .bss.accz.13460:0000000000000000 $d
     /tmp/ccZueut9.s:6426   .bss.accz.13460:0000000000000000 accz.13460
     /tmp/ccZueut9.s:6432   .bss.c1.13446:0000000000000000 c1.13446
     /tmp/ccZueut9.s:6433   .bss.c1.13446:0000000000000000 $d
     /tmp/ccZueut9.s:6438   .bss.c2.13447:0000000000000000 c2.13447
     /tmp/ccZueut9.s:6439   .bss.c2.13447:0000000000000000 $d
ARM GAS  /tmp/ccZueut9.s 			page 482


     /tmp/ccZueut9.s:6441   .bss.cam_heigth.13467:0000000000000000 $d
     /tmp/ccZueut9.s:6445   .bss.cam_heigth.13467:0000000000000000 cam_heigth.13467
     /tmp/ccZueut9.s:6448   .bss.cam_mode.13465:0000000000000000 $d
     /tmp/ccZueut9.s:6452   .bss.cam_mode.13465:0000000000000000 cam_mode.13465
     /tmp/ccZueut9.s:6455   .bss.cam_size.13469:0000000000000000 $d
     /tmp/ccZueut9.s:6459   .bss.cam_size.13469:0000000000000000 cam_size.13469
     /tmp/ccZueut9.s:6462   .bss.cam_width.13466:0000000000000000 $d
     /tmp/ccZueut9.s:6466   .bss.cam_width.13466:0000000000000000 cam_width.13466
     /tmp/ccZueut9.s:6469   .bss.cam_x1.13470:0000000000000000 $d
     /tmp/ccZueut9.s:6473   .bss.cam_x1.13470:0000000000000000 cam_x1.13470
     /tmp/ccZueut9.s:6476   .bss.cam_y1.13471:0000000000000000 $d
     /tmp/ccZueut9.s:6480   .bss.cam_y1.13471:0000000000000000 cam_y1.13471
     /tmp/ccZueut9.s:6483   .bss.cam_zoom.13468:0000000000000000 $d
     /tmp/ccZueut9.s:6487   .bss.cam_zoom.13468:0000000000000000 cam_zoom.13468
     /tmp/ccZueut9.s:6493   .bss.first.13472:0000000000000000 first.13472
     /tmp/ccZueut9.s:6494   .bss.first.13472:0000000000000000 $d
     /tmp/ccZueut9.s:6496   .bss.gyrox.13462:0000000000000000 $d
     /tmp/ccZueut9.s:6500   .bss.gyrox.13462:0000000000000000 gyrox.13462
     /tmp/ccZueut9.s:6503   .bss.gyroy.13463:0000000000000000 $d
     /tmp/ccZueut9.s:6507   .bss.gyroy.13463:0000000000000000 gyroy.13463
     /tmp/ccZueut9.s:6510   .bss.gyroz.13464:0000000000000000 $d
     /tmp/ccZueut9.s:6514   .bss.gyroz.13464:0000000000000000 gyroz.13464
     /tmp/ccZueut9.s:6517   .bss.i.13449:0000000000000000 $d
     /tmp/ccZueut9.s:6521   .bss.i.13449:0000000000000000 i.13449
     /tmp/ccZueut9.s:6524   .bss.j.13450:0000000000000000 $d
     /tmp/ccZueut9.s:6528   .bss.j.13450:0000000000000000 j.13450
     /tmp/ccZueut9.s:6531   .bss.mod.13475:0000000000000000 $d
     /tmp/ccZueut9.s:6535   .bss.mod.13475:0000000000000000 mod.13475
     /tmp/ccZueut9.s:6538   .bss.positionl.13455:0000000000000000 $d
     /tmp/ccZueut9.s:6542   .bss.positionl.13455:0000000000000000 positionl.13455
     /tmp/ccZueut9.s:6545   .bss.positionr.13454:0000000000000000 $d
     /tmp/ccZueut9.s:6549   .bss.positionr.13454:0000000000000000 positionr.13454
     /tmp/ccZueut9.s:6552   .bss.reg.13476:0000000000000000 $d
     /tmp/ccZueut9.s:6556   .bss.reg.13476:0000000000000000 reg.13476
     /tmp/ccZueut9.s:6559   .bss.rgb_value.13473:0000000000000000 $d
     /tmp/ccZueut9.s:6563   .bss.rgb_value.13473:0000000000000000 rgb_value.13473
     /tmp/ccZueut9.s:6566   .bss.sound.13461:0000000000000000 $d
     /tmp/ccZueut9.s:6570   .bss.sound.13461:0000000000000000 sound.13461
     /tmp/ccZueut9.s:6573   .bss.speedl.13453:0000000000000000 $d
     /tmp/ccZueut9.s:6577   .bss.speedl.13453:0000000000000000 speedl.13453
     /tmp/ccZueut9.s:6580   .bss.speedr.13452:0000000000000000 $d
     /tmp/ccZueut9.s:6584   .bss.speedr.13452:0000000000000000 speedr.13452
     /tmp/ccZueut9.s:6587   .bss.val.13477:0000000000000000 $d
     /tmp/ccZueut9.s:6591   .bss.val.13477:0000000000000000 val.13477
     /tmp/ccZueut9.s:6597   .bss.wait_cam.13448:0000000000000000 wait_cam.13448
     /tmp/ccZueut9.s:6598   .bss.wait_cam.13448:0000000000000000 $d
     /tmp/ccZueut9.s:6600   .data.HWversion.13489:0000000000000000 $d
     /tmp/ccZueut9.s:6604   .data.HWversion.13489:0000000000000000 HWversion.13489
     /tmp/ccZueut9.s:6607   .rodata.run_asercom2.str1.4:0000000000000000 $d

UNDEFINED SYMBOLS
e_init_motors
getselector
e_init_remote_control
ReadEE
e_getchar_uart1
e_get_data
ARM GAS  /tmp/ccZueut9.s 			page 483


e_get_address
getXAxisGyro
getYAxisGyro
getZAxisGyro
sprintf
strlen
e_send_uart1_char
e_uart1_sending
e_getchar_uart2
e_set_speed_left
e_set_speed_right
__stack_chk_guard
selector
c
buffer
e_play_sound
serial_get_last_errors
SD3
e_get_steps_left
e_get_steps_right
e_get_ambient_light
e_get_calibrated_prox
e_set_steps_left
e_set_steps_right
get_ground_prox
e_get_micro_volume
sdio_is_present
getBatteryValueRaw
VL53L0X_stop
proximity_stop
proximity_start
e_poxxxx_launch_capture
e_i2cp_enable
e_i2cp_read
e_i2cp_disable
e_i2cp_write
button_get_state
e_set_front_led
enable_obstacle_avoidance
set_led
set_body_led
set_front_led
set_rgb_led
e_close_sound
stopCurrentMelody
get_magnetic_field
e_get_check
get_ground_ambient_light
__locale_ctype_ptr
getTemperature
sscanf
e_init_sound
e_set_body_led
e_set_led
chThdSleep
e_led_clear
e_calibrate_ir
ARM GAS  /tmp/ccZueut9.s 			page 484


e_get_acc_filtered
e_poxxxx_init_cam
e_poxxxx_config_cam
e_poxxxx_write_cam_registers
isEpuckVersion1_3
playMelody
getBatteryValuePercentage
serial_clear_last_errors
e_send_uart2_char
e_uart2_sending
e_poxxxx_wait_img_ready
cam_get_last_image_ptr
memcpy
disable_obstacle_avoidance
VL53L0X_start
e_read_acc_spheric
e_get_acc
sdio_connect
sdio_disconnect
VL53L0X_get_dist_mm
getAllAxesGyro
calibrate_ir
mpu9250_magnetometer_setup
SDU1
e_i2cp_init
e_acc_calibr
