ARM GAS  /tmp/ccC7s8cU.s 			page 1


   1              		.cpu cortex-m4
   2              		.eabi_attribute 27, 1
   3              		.eabi_attribute 28, 1
   4              		.eabi_attribute 20, 1
   5              		.eabi_attribute 21, 1
   6              		.eabi_attribute 23, 3
   7              		.eabi_attribute 24, 1
   8              		.eabi_attribute 25, 1
   9              		.eabi_attribute 26, 1
  10              		.eabi_attribute 30, 2
  11              		.eabi_attribute 34, 1
  12              		.eabi_attribute 18, 4
  13              		.file	"e_ad_conv.c"
  14              		.text
  15              	.Ltext0:
  16              		.cfi_sections	.debug_frame
  17              		.section	.text.e_init_ad_scan,"ax",%progbits
  18              		.align	1
  19              		.p2align 4,,15
  20              		.global	e_init_ad_scan
  21              		.syntax unified
  22              		.thumb
  23              		.thumb_func
  24              		.fpu fpv4-sp-d16
  25              		.type	e_init_ad_scan, %function
  26              	e_init_ad_scan:
  27              	.LFB256:
  28              		.file 1 "../e-puck2_main-processor/src/epuck1x/a_d/advance_ad_scan/e_ad_conv.c"
  29              		.loc 1 11 0
  30              		.cfi_startproc
  31              		@ args = 0, pretend = 0, frame = 8
  32              		@ frame_needed = 0, uses_anonymous_args = 0
  33              	.LVL0:
  34 0000 10B5     		push	{r4, lr}
  35              		.cfi_def_cfa_offset 8
  36              		.cfi_offset 4, -8
  37              		.cfi_offset 14, -4
  38 0002 0C4C     		ldr	r4, .L6
  39 0004 82B0     		sub	sp, sp, #8
  40              		.cfi_def_cfa_offset 16
  41              		.loc 1 11 0
  42 0006 2368     		ldr	r3, [r4]
  43 0008 0193     		str	r3, [sp, #4]
  44              		.loc 1 13 0
  45 000a 0020     		movs	r0, #0
  46              	.LVL1:
  47 000c FFF7FEFF 		bl	proximity_start
  48              	.LVL2:
  49              		.loc 1 14 0
  50 0010 FFF7FEFF 		bl	imu_start
  51              	.LVL3:
  52              		.loc 1 15 0
  53 0014 0020     		movs	r0, #0
  54 0016 FFF7FEFF 		bl	mic_start
  55              	.LVL4:
  56              		.loc 1 16 0
  57 001a FFF7FEFF 		bl	mic_get_buffer_ptr
ARM GAS  /tmp/ccC7s8cU.s 			page 2


  58              	.LVL5:
  59              		.loc 1 17 0
  60 001e 019A     		ldr	r2, [sp, #4]
  61 0020 2368     		ldr	r3, [r4]
  62              		.loc 1 16 0
  63 0022 0549     		ldr	r1, .L6+4
  64              		.loc 1 17 0
  65 0024 9A42     		cmp	r2, r3
  66              		.loc 1 16 0
  67 0026 0860     		str	r0, [r1]
  68              		.loc 1 17 0
  69 0028 01D1     		bne	.L5
  70 002a 02B0     		add	sp, sp, #8
  71              		.cfi_remember_state
  72              		.cfi_def_cfa_offset 8
  73              		@ sp needed
  74 002c 10BD     		pop	{r4, pc}
  75              	.L5:
  76              		.cfi_restore_state
  77 002e FFF7FEFF 		bl	__stack_chk_fail
  78              	.LVL6:
  79              	.L7:
  80 0032 00BF     		.align	2
  81              	.L6:
  82 0034 00000000 		.word	__stack_chk_guard
  83 0038 00000000 		.word	.LANCHOR0
  84              		.cfi_endproc
  85              	.LFE256:
  86              		.size	e_init_ad_scan, .-e_init_ad_scan
  87              		.section	.text.e_ad_is_acquisition_completed,"ax",%progbits
  88              		.align	1
  89              		.p2align 4,,15
  90              		.global	e_ad_is_acquisition_completed
  91              		.syntax unified
  92              		.thumb
  93              		.thumb_func
  94              		.fpu fpv4-sp-d16
  95              		.type	e_ad_is_acquisition_completed, %function
  96              	e_ad_is_acquisition_completed:
  97              	.LFB262:
  98              		.cfi_startproc
  99              		@ args = 0, pretend = 0, frame = 8
 100              		@ frame_needed = 0, uses_anonymous_args = 0
 101 0000 00B5     		push	{lr}
 102              		.cfi_def_cfa_offset 4
 103              		.cfi_offset 14, -4
 104 0002 074B     		ldr	r3, .L12
 105 0004 83B0     		sub	sp, sp, #12
 106              		.cfi_def_cfa_offset 16
 107 0006 1A68     		ldr	r2, [r3]
 108 0008 0192     		str	r2, [sp, #4]
 109 000a 019A     		ldr	r2, [sp, #4]
 110 000c 1B68     		ldr	r3, [r3]
 111 000e 9A42     		cmp	r2, r3
 112 0010 03D1     		bne	.L11
 113 0012 0120     		movs	r0, #1
 114 0014 03B0     		add	sp, sp, #12
ARM GAS  /tmp/ccC7s8cU.s 			page 3


 115              		.cfi_remember_state
 116              		.cfi_def_cfa_offset 4
 117              		@ sp needed
 118 0016 5DF804FB 		ldr	pc, [sp], #4
 119              	.L11:
 120              		.cfi_restore_state
 121 001a FFF7FEFF 		bl	__stack_chk_fail
 122              	.L13:
 123 001e 00BF     		.align	2
 124              	.L12:
 125 0020 00000000 		.word	__stack_chk_guard
 126              		.cfi_endproc
 127              	.LFE262:
 128              		.size	e_ad_is_acquisition_completed, .-e_ad_is_acquisition_completed
 129              		.section	.text.e_ad_is_array_filled,"ax",%progbits
 130              		.align	1
 131              		.p2align 4,,15
 132              		.global	e_ad_is_array_filled
 133              		.syntax unified
 134              		.thumb
 135              		.thumb_func
 136              		.fpu fpv4-sp-d16
 137              		.type	e_ad_is_array_filled, %function
 138              	e_ad_is_array_filled:
 139              	.LFB258:
 140              		.loc 1 25 0
 141              		.cfi_startproc
 142              		@ args = 0, pretend = 0, frame = 8
 143              		@ frame_needed = 0, uses_anonymous_args = 0
 144              		.loc 1 25 0
 145 0000 00B5     		push	{lr}
 146              		.cfi_def_cfa_offset 4
 147              		.cfi_offset 14, -4
 148 0002 074B     		ldr	r3, .L18
 149 0004 83B0     		sub	sp, sp, #12
 150              		.cfi_def_cfa_offset 16
 151              		.loc 1 25 0
 152 0006 1A68     		ldr	r2, [r3]
 153 0008 0192     		str	r2, [sp, #4]
 154              		.loc 1 27 0
 155 000a 019A     		ldr	r2, [sp, #4]
 156 000c 1B68     		ldr	r3, [r3]
 157 000e 9A42     		cmp	r2, r3
 158 0010 03D1     		bne	.L17
 159 0012 0120     		movs	r0, #1
 160 0014 03B0     		add	sp, sp, #12
 161              		.cfi_remember_state
 162              		.cfi_def_cfa_offset 4
 163              		@ sp needed
 164 0016 5DF804FB 		ldr	pc, [sp], #4
 165              	.L17:
 166              		.cfi_restore_state
 167 001a FFF7FEFF 		bl	__stack_chk_fail
 168              	.LVL7:
 169              	.L19:
 170 001e 00BF     		.align	2
 171              	.L18:
ARM GAS  /tmp/ccC7s8cU.s 			page 4


 172 0020 00000000 		.word	__stack_chk_guard
 173              		.cfi_endproc
 174              	.LFE258:
 175              		.size	e_ad_is_array_filled, .-e_ad_is_array_filled
 176              		.section	.text.e_ad_scan_on,"ax",%progbits
 177              		.align	1
 178              		.p2align 4,,15
 179              		.global	e_ad_scan_on
 180              		.syntax unified
 181              		.thumb
 182              		.thumb_func
 183              		.fpu fpv4-sp-d16
 184              		.type	e_ad_scan_on, %function
 185              	e_ad_scan_on:
 186              	.LFB259:
 187              		.loc 1 30 0
 188              		.cfi_startproc
 189              		@ args = 0, pretend = 0, frame = 8
 190              		@ frame_needed = 0, uses_anonymous_args = 0
 191 0000 00B5     		push	{lr}
 192              		.cfi_def_cfa_offset 4
 193              		.cfi_offset 14, -4
 194 0002 064B     		ldr	r3, .L24
 195 0004 83B0     		sub	sp, sp, #12
 196              		.cfi_def_cfa_offset 16
 197              		.loc 1 30 0
 198 0006 1A68     		ldr	r2, [r3]
 199 0008 0192     		str	r2, [sp, #4]
 200              		.loc 1 32 0
 201 000a 019A     		ldr	r2, [sp, #4]
 202 000c 1B68     		ldr	r3, [r3]
 203 000e 9A42     		cmp	r2, r3
 204 0010 02D1     		bne	.L23
 205 0012 03B0     		add	sp, sp, #12
 206              		.cfi_remember_state
 207              		.cfi_def_cfa_offset 4
 208              		@ sp needed
 209 0014 5DF804FB 		ldr	pc, [sp], #4
 210              	.L23:
 211              		.cfi_restore_state
 212 0018 FFF7FEFF 		bl	__stack_chk_fail
 213              	.LVL8:
 214              	.L25:
 215              		.align	2
 216              	.L24:
 217 001c 00000000 		.word	__stack_chk_guard
 218              		.cfi_endproc
 219              	.LFE259:
 220              		.size	e_ad_scan_on, .-e_ad_scan_on
 221              		.section	.text.e_ad_scan_off,"ax",%progbits
 222              		.align	1
 223              		.p2align 4,,15
 224              		.global	e_ad_scan_off
 225              		.syntax unified
 226              		.thumb
 227              		.thumb_func
 228              		.fpu fpv4-sp-d16
ARM GAS  /tmp/ccC7s8cU.s 			page 5


 229              		.type	e_ad_scan_off, %function
 230              	e_ad_scan_off:
 231              	.LFB264:
 232              		.cfi_startproc
 233              		@ args = 0, pretend = 0, frame = 8
 234              		@ frame_needed = 0, uses_anonymous_args = 0
 235 0000 00B5     		push	{lr}
 236              		.cfi_def_cfa_offset 4
 237              		.cfi_offset 14, -4
 238 0002 064B     		ldr	r3, .L30
 239 0004 83B0     		sub	sp, sp, #12
 240              		.cfi_def_cfa_offset 16
 241 0006 1A68     		ldr	r2, [r3]
 242 0008 0192     		str	r2, [sp, #4]
 243 000a 019A     		ldr	r2, [sp, #4]
 244 000c 1B68     		ldr	r3, [r3]
 245 000e 9A42     		cmp	r2, r3
 246 0010 02D1     		bne	.L29
 247 0012 03B0     		add	sp, sp, #12
 248              		.cfi_remember_state
 249              		.cfi_def_cfa_offset 4
 250              		@ sp needed
 251 0014 5DF804FB 		ldr	pc, [sp], #4
 252              	.L29:
 253              		.cfi_restore_state
 254 0018 FFF7FEFF 		bl	__stack_chk_fail
 255              	.L31:
 256              		.align	2
 257              	.L30:
 258 001c 00000000 		.word	__stack_chk_guard
 259              		.cfi_endproc
 260              	.LFE264:
 261              		.size	e_ad_scan_off, .-e_ad_scan_off
 262              		.global	e_last_mic_scan_id
 263              		.global	e_mic_scan
 264              		.section	.bss.e_mic_scan,"aw",%nobits
 265              		.align	2
 266              		.set	.LANCHOR0,. + 0
 267              		.type	e_mic_scan, %object
 268              		.size	e_mic_scan, 4
 269              	e_mic_scan:
 270 0000 00000000 		.space	4
 271              		.section	.data.e_last_mic_scan_id,"aw",%progbits
 272              		.align	2
 273              		.type	e_last_mic_scan_id, %object
 274              		.size	e_last_mic_scan_id, 4
 275              	e_last_mic_scan_id:
 276 0000 9F000000 		.word	159
 277              		.text
 278              	.Letext0:
 279              		.file 2 "/home/leander/uos_codes/epuck2_lab/Eclipse_e-puck2/Tools/gcc-arm-none-eabi-7-2017-q4-majo
 280              		.file 3 "/home/leander/uos_codes/epuck2_lab/Eclipse_e-puck2/Tools/gcc-arm-none-eabi-7-2017-q4-majo
 281              		.file 4 "/home/leander/uos_codes/epuck2_lab/Eclipse_e-puck2/Tools/gcc-arm-none-eabi-7-2017-q4-majo
 282              		.file 5 "../e-puck2_main-processor/ChibiOS//os/rt/ports/ARMCMx/compilers/GCC/chtypes.h"
 283              		.file 6 "../e-puck2_main-processor/ChibiOS//os/rt/include/chsystypes.h"
 284              		.file 7 "../e-puck2_main-processor/ChibiOS//os/rt/include/chschd.h"
 285              		.file 8 "../e-puck2_main-processor/ChibiOS//os/ext/CMSIS/include/core_cm4.h"
ARM GAS  /tmp/ccC7s8cU.s 			page 6


 286              		.file 9 "../e-puck2_main-processor/ChibiOS//os/ext/CMSIS/ST/system_stm32f4xx.h"
 287              		.file 10 "../e-puck2_main-processor/ChibiOS//os/ext/CMSIS/ST/stm32f407xx.h"
 288              		.file 11 "../e-puck2_main-processor/ChibiOS//os/rt/ports/ARMCMx/chcore.h"
 289              		.file 12 "../e-puck2_main-processor/ChibiOS//os/rt/ports/ARMCMx/chcore_v7m.h"
 290              		.file 13 "../e-puck2_main-processor/ChibiOS//os/rt/include/chdebug.h"
 291              		.file 14 "../e-puck2_main-processor/ChibiOS//os/rt/include/chtm.h"
 292              		.file 15 "../e-puck2_main-processor/ChibiOS//os/rt/include/chstats.h"
 293              		.file 16 "../e-puck2_main-processor/ChibiOS//os/rt/include/chsem.h"
 294              		.file 17 "../e-puck2_main-processor/ChibiOS//os/rt/include/chmtx.h"
 295              		.file 18 "../e-puck2_main-processor/ChibiOS//os/rt/include/chregistry.h"
 296              		.file 19 "../e-puck2_main-processor/ChibiOS//os/rt/include/chevents.h"
 297              		.file 20 "../e-puck2_main-processor/ChibiOS//os/rt/include/chqueues.h"
 298              		.file 21 "../e-puck2_main-processor/ChibiOS//os/hal/ports/STM32/STM32F4xx/stm32_dma.h"
 299              		.file 22 "../e-puck2_main-processor/ChibiOS//os/hal/include/hal_ioblock.h"
 300              		.file 23 "../e-puck2_main-processor/ChibiOS//os/hal/ports/STM32/LLD/GPIOv2/pal_lld.h"
 301              		.file 24 "../e-puck2_main-processor/ChibiOS//os/hal/include/adc.h"
 302              		.file 25 "../e-puck2_main-processor/ChibiOS//os/hal/ports/STM32/STM32F4xx/adc_lld.h"
 303              		.file 26 "../e-puck2_main-processor/ChibiOS//os/hal/include/can.h"
 304              		.file 27 "../e-puck2_main-processor/ChibiOS//os/hal/ports/STM32/LLD/can_lld.h"
 305              		.file 28 "../e-puck2_main-processor/ChibiOS//os/hal/include/dac.h"
 306              		.file 29 "../e-puck2_main-processor/ChibiOS//os/hal/ports/STM32/LLD/DACv1/dac_lld.h"
 307              		.file 30 "../e-puck2_main-processor/ChibiOS//os/hal/include/ext.h"
 308              		.file 31 "../e-puck2_main-processor/ChibiOS//os/hal/ports/STM32/LLD/ext_lld.h"
 309              		.file 32 "../e-puck2_main-processor/ChibiOS//os/hal/include/gpt.h"
 310              		.file 33 "../e-puck2_main-processor/ChibiOS//os/hal/ports/STM32/LLD/TIMv1/gpt_lld.h"
 311              		.file 34 "../e-puck2_main-processor/ChibiOS//os/hal/ports/STM32/LLD/TIMv1/stm32_tim.h"
 312              		.file 35 "../e-puck2_main-processor/ChibiOS//os/hal/include/i2c.h"
 313              		.file 36 "../e-puck2_main-processor/ChibiOS//os/hal/ports/STM32/LLD/I2Cv1/i2c_lld.h"
 314              		.file 37 "../e-puck2_main-processor/ChibiOS//os/hal/include/i2s.h"
 315              		.file 38 "../e-puck2_main-processor/ChibiOS//os/hal/ports/STM32/LLD/SPIv1/i2s_lld.h"
 316              		.file 39 "../e-puck2_main-processor/ChibiOS//os/hal/include/pwm.h"
 317              		.file 40 "../e-puck2_main-processor/ChibiOS//os/hal/ports/STM32/LLD/TIMv1/pwm_lld.h"
 318              		.file 41 "../e-puck2_main-processor/ChibiOS//os/hal/include/serial.h"
 319              		.file 42 "../e-puck2_main-processor/ChibiOS//os/hal/ports/STM32/LLD/USARTv1/serial_lld.h"
 320              		.file 43 "../e-puck2_main-processor/ChibiOS//os/hal/include/sdc.h"
 321              		.file 44 "../e-puck2_main-processor/ChibiOS//os/hal/ports/STM32/LLD/sdc_lld.h"
 322              		.file 45 "../e-puck2_main-processor/ChibiOS//os/hal/include/spi.h"
 323              		.file 46 "../e-puck2_main-processor/ChibiOS//os/hal/ports/STM32/LLD/SPIv1/spi_lld.h"
 324              		.file 47 "../e-puck2_main-processor/ChibiOS//os/hal/include/usb.h"
 325              		.file 48 "../e-puck2_main-processor/ChibiOS//os/hal/ports/STM32/LLD/OTGv1/usb_lld.h"
 326              		.file 49 "../e-puck2_main-processor/ChibiOS//os/hal/ports/STM32/LLD/OTGv1/stm32_otg.h"
 327              		.file 50 "../e-puck2_main-processor/src/sensors/proximity.h"
 328              		.file 51 "../e-puck2_main-processor/src/sensors/imu.h"
 329              		.file 52 "../e-puck2_main-processor/src/audio/microphone.h"