ARM GAS  /tmp/ccqlIl9A.s 			page 1


   1              		.cpu cortex-m4
   2              		.eabi_attribute 27, 1
   3              		.eabi_attribute 28, 1
   4              		.eabi_attribute 20, 1
   5              		.eabi_attribute 21, 1
   6              		.eabi_attribute 23, 3
   7              		.eabi_attribute 24, 1
   8              		.eabi_attribute 25, 1
   9              		.eabi_attribute 26, 1
  10              		.eabi_attribute 30, 2
  11              		.eabi_attribute 34, 1
  12              		.eabi_attribute 18, 4
  13              		.file	"main.c"
  14              		.text
  15              	.Ltext0:
  16              		.cfi_sections	.debug_frame
  17              		.section	.text.init,"ax",%progbits
  18              		.align	1
  19              		.p2align 4,,15
  20              		.global	init
  21              		.syntax unified
  22              		.thumb
  23              		.thumb_func
  24              		.fpu fpv4-sp-d16
  25              		.type	init, %function
  26              	init:
  27              	.LFB259:
  28              		.file 1 "main.c"
  29              		.loc 1 76 0
  30              		.cfi_startproc
  31              		@ args = 0, pretend = 0, frame = 8
  32              		@ frame_needed = 0, uses_anonymous_args = 0
  33 0000 10B5     		push	{r4, lr}
  34              		.cfi_def_cfa_offset 8
  35              		.cfi_offset 4, -8
  36              		.cfi_offset 14, -4
  37 0002 134C     		ldr	r4, .L7
  38 0004 82B0     		sub	sp, sp, #8
  39              		.cfi_def_cfa_offset 16
  40              		.loc 1 76 0
  41 0006 2368     		ldr	r3, [r4]
  42 0008 0193     		str	r3, [sp, #4]
  43              		.loc 1 77 0
  44 000a FFF7FEFF 		bl	halInit
  45              	.LVL0:
  46              		.loc 1 78 0
  47 000e FFF7FEFF 		bl	chSysInit
  48              	.LVL1:
  49              		.loc 1 79 0
  50 0012 FFF7FEFF 		bl	mpu_init
  51              	.LVL2:
  52              		.loc 1 82 0
  53 0016 FFF7FEFF 		bl	clear_leds
  54              	.LVL3:
  55              		.loc 1 83 0
  56 001a FFF7FEFF 		bl	spi_comm_start
  57              	.LVL4:
ARM GAS  /tmp/ccqlIl9A.s 			page 2


  58              		.loc 1 86 0
  59 001e FFF7FEFF 		bl	motors_init
  60              	.LVL5:
  61              		.loc 1 89 0
  62 0022 FFF7FEFF 		bl	serial_start
  63              	.LVL6:
  64              		.loc 1 92 0
  65 0026 0B4A     		ldr	r2, .L7+4
  66 0028 0B49     		ldr	r1, .L7+8
  67 002a 0C48     		ldr	r0, .L7+12
  68 002c FFF7FEFF 		bl	messagebus_init
  69              	.LVL7:
  70              		.loc 1 93 0
  71 0030 0020     		movs	r0, #0
  72 0032 FFF7FEFF 		bl	proximity_start
  73              	.LVL8:
  74              		.loc 1 94 0
  75 0036 FFF7FEFF 		bl	calibrate_ir
  76              	.LVL9:
  77              		.loc 1 97 0
  78 003a 019A     		ldr	r2, [sp, #4]
  79 003c 2368     		ldr	r3, [r4]
  80 003e 9A42     		cmp	r2, r3
  81 0040 04D1     		bne	.L6
  82              		.loc 1 98 0
  83 0042 02B0     		add	sp, sp, #8
  84              		.cfi_remember_state
  85              		.cfi_def_cfa_offset 8
  86              		@ sp needed
  87 0044 BDE81040 		pop	{r4, lr}
  88              		.cfi_restore 14
  89              		.cfi_restore 4
  90              		.cfi_def_cfa_offset 0
  91              		.loc 1 97 0
  92 0048 FFF7FEBF 		b	VL53L0X_start
  93              	.LVL10:
  94              	.L6:
  95              		.cfi_restore_state
  96 004c FFF7FEFF 		bl	__stack_chk_fail
  97              	.LVL11:
  98              	.L8:
  99              		.align	2
 100              	.L7:
 101 0050 00000000 		.word	__stack_chk_guard
 102 0054 00000000 		.word	.LANCHOR0
 103 0058 00000000 		.word	.LANCHOR1
 104 005c 00000000 		.word	.LANCHOR2
 105              		.cfi_endproc
 106              	.LFE259:
 107              		.size	init, .-init
 108              		.section	.text.send_bt_values,"ax",%progbits
 109              		.align	1
 110              		.p2align 4,,15
 111              		.global	send_bt_values
 112              		.syntax unified
 113              		.thumb
 114              		.thumb_func
ARM GAS  /tmp/ccqlIl9A.s 			page 3


 115              		.fpu fpv4-sp-d16
 116              		.type	send_bt_values, %function
 117              	send_bt_values:
 118              	.LFB260:
 119              		.loc 1 100 0
 120              		.cfi_startproc
 121              		@ args = 0, pretend = 0, frame = 120
 122              		@ frame_needed = 0, uses_anonymous_args = 0
 123 0000 2DE9F04F 		push	{r4, r5, r6, r7, r8, r9, r10, fp, lr}
 124              		.cfi_def_cfa_offset 36
 125              		.cfi_offset 4, -36
 126              		.cfi_offset 5, -32
 127              		.cfi_offset 6, -28
 128              		.cfi_offset 7, -24
 129              		.cfi_offset 8, -20
 130              		.cfi_offset 9, -16
 131              		.cfi_offset 10, -12
 132              		.cfi_offset 11, -8
 133              		.cfi_offset 14, -4
 134 0004 254C     		ldr	r4, .L13
 135 0006 A9B0     		sub	sp, sp, #164
 136              		.cfi_def_cfa_offset 200
 137              		.loc 1 100 0
 138 0008 2368     		ldr	r3, [r4]
 139 000a 2793     		str	r3, [sp, #156]
 140              		.loc 1 104 0
 141 000c 0020     		movs	r0, #0
 142 000e FFF7FEFF 		bl	get_calibrated_prox
 143              	.LVL12:
 144 0012 0546     		mov	r5, r0
 145 0014 0120     		movs	r0, #1
 146 0016 FFF7FEFF 		bl	get_calibrated_prox
 147              	.LVL13:
 148 001a 0646     		mov	r6, r0
 149 001c 0220     		movs	r0, #2
 150 001e FFF7FEFF 		bl	get_calibrated_prox
 151              	.LVL14:
 152 0022 0D90     		str	r0, [sp, #52]
 153 0024 0320     		movs	r0, #3
 154 0026 FFF7FEFF 		bl	get_calibrated_prox
 155              	.LVL15:
 156 002a 0746     		mov	r7, r0
 157 002c 0420     		movs	r0, #4
 158 002e FFF7FEFF 		bl	get_calibrated_prox
 159              	.LVL16:
 160 0032 8046     		mov	r8, r0
 161 0034 0520     		movs	r0, #5
 162 0036 FFF7FEFF 		bl	get_calibrated_prox
 163              	.LVL17:
 164 003a 8146     		mov	r9, r0
 165 003c 0620     		movs	r0, #6
 166 003e FFF7FEFF 		bl	get_calibrated_prox
 167              	.LVL18:
 168 0042 8246     		mov	r10, r0
 169 0044 0720     		movs	r0, #7
 170 0046 FFF7FEFF 		bl	get_calibrated_prox
 171              	.LVL19:
ARM GAS  /tmp/ccqlIl9A.s 			page 4


 172 004a 8346     		mov	fp, r0
 173 004c FFF7FEFF 		bl	left_motor_get_desired_speed
 174              	.LVL20:
 175 0050 0C90     		str	r0, [sp, #48]
 176 0052 FFF7FEFF 		bl	right_motor_get_desired_speed
 177              	.LVL21:
 178 0056 0B90     		str	r0, [sp, #44]
 179 0058 FFF7FEFF 		bl	get_selector
 180              	.LVL22:
 181 005c 0C9B     		ldr	r3, [sp, #48]
 182 005e 0D99     		ldr	r1, [sp, #52]
 183 0060 0B9A     		ldr	r2, [sp, #44]
 184 0062 0091     		str	r1, [sp]
 185 0064 0890     		str	r0, [sp, #32]
 186 0066 0792     		str	r2, [sp, #28]
 187 0068 CDE905B3 		strd	fp, r3, [sp, #20]
 188 006c 2A46     		mov	r2, r5
 189 006e 3346     		mov	r3, r6
 190 0070 0B49     		ldr	r1, .L13+4
 191 0072 CDE9039A 		strd	r9, r10, [sp, #12]
 192 0076 CDE90178 		strd	r7, r8, [sp, #4]
 193 007a 0EA8     		add	r0, sp, #56
 194 007c FFF7FEFF 		bl	sprintf
 195              	.LVL23:
 196              		.loc 1 117 0
 197 0080 0146     		mov	r1, r0
 198 0082 0EA8     		add	r0, sp, #56
 199              	.LVL24:
 200 0084 FFF7FEFF 		bl	e_send_uart1_char
 201              	.LVL25:
 202              		.loc 1 118 0
 203 0088 279A     		ldr	r2, [sp, #156]
 204 008a 2368     		ldr	r3, [r4]
 205 008c 9A42     		cmp	r2, r3
 206 008e 02D1     		bne	.L12
 207 0090 29B0     		add	sp, sp, #164
 208              		.cfi_remember_state
 209              		.cfi_def_cfa_offset 36
 210              		@ sp needed
 211 0092 BDE8F08F 		pop	{r4, r5, r6, r7, r8, r9, r10, fp, pc}
 212              	.L12:
 213              		.cfi_restore_state
 214 0096 FFF7FEFF 		bl	__stack_chk_fail
 215              	.LVL26:
 216              	.L14:
 217 009a 00BF     		.align	2
 218              	.L13:
 219 009c 00000000 		.word	__stack_chk_guard
 220 00a0 00000000 		.word	.LC0
 221              		.cfi_endproc
 222              	.LFE260:
 223              		.size	send_bt_values, .-send_bt_values
 224              		.global	__aeabi_i2d
 225              		.section	.text.fill_sensor_values,"ax",%progbits
 226              		.align	1
 227              		.p2align 4,,15
 228              		.global	fill_sensor_values
ARM GAS  /tmp/ccqlIl9A.s 			page 5


 229              		.syntax unified
 230              		.thumb
 231              		.thumb_func
 232              		.fpu fpv4-sp-d16
 233              		.type	fill_sensor_values, %function
 234              	fill_sensor_values:
 235              	.LFB261:
 236              		.loc 1 124 0
 237              		.cfi_startproc
 238              		@ args = 0, pretend = 0, frame = 8
 239              		@ frame_needed = 0, uses_anonymous_args = 0
 240 0000 70B5     		push	{r4, r5, r6, lr}
 241              		.cfi_def_cfa_offset 16
 242              		.cfi_offset 4, -16
 243              		.cfi_offset 5, -12
 244              		.cfi_offset 6, -8
 245              		.cfi_offset 14, -4
 246 0002 0E4E     		ldr	r6, .L21
 247 0004 0E4D     		ldr	r5, .L21+4
 248 0006 3368     		ldr	r3, [r6]
 249 0008 82B0     		sub	sp, sp, #8
 250              		.cfi_def_cfa_offset 24
 251              	.LBB26:
 252              		.loc 1 125 0
 253 000a 0024     		movs	r4, #0
 254              	.LBE26:
 255              		.loc 1 124 0
 256 000c 0193     		str	r3, [sp, #4]
 257              	.LVL27:
 258              	.L16:
 259              	.LBB27:
 260              		.loc 1 126 0 discriminator 3
 261 000e 2046     		mov	r0, r4
 262 0010 FFF7FEFF 		bl	get_calibrated_prox
 263              	.LVL28:
 264 0014 FFF7FEFF 		bl	__aeabi_i2d
 265              	.LVL29:
 266              		.loc 1 125 0 discriminator 3
 267 0018 0134     		adds	r4, r4, #1
 268              	.LVL30:
 269 001a 082C     		cmp	r4, #8
 270              		.loc 1 126 0 discriminator 3
 271 001c E5E80201 		strd	r0, [r5], #8
 272              		.loc 1 125 0 discriminator 3
 273 0020 F5D1     		bne	.L16
 274              	.LBE27:
 275              		.loc 1 128 0
 276 0022 FFF7FEFF 		bl	VL53L0X_get_dist_mm
 277              	.LVL31:
 278              		.loc 1 129 0
 279 0026 019A     		ldr	r2, [sp, #4]
 280 0028 3368     		ldr	r3, [r6]
 281              		.loc 1 128 0
 282 002a 0649     		ldr	r1, .L21+8
 283              		.loc 1 129 0
 284 002c 9A42     		cmp	r2, r3
 285              		.loc 1 128 0
ARM GAS  /tmp/ccqlIl9A.s 			page 6


 286 002e 0880     		strh	r0, [r1]	@ movhi
 287              		.loc 1 129 0
 288 0030 01D1     		bne	.L20
 289 0032 02B0     		add	sp, sp, #8
 290              		.cfi_remember_state
 291              		.cfi_def_cfa_offset 16
 292              		@ sp needed
 293 0034 70BD     		pop	{r4, r5, r6, pc}
 294              	.LVL32:
 295              	.L20:
 296              		.cfi_restore_state
 297 0036 FFF7FEFF 		bl	__stack_chk_fail
 298              	.LVL33:
 299              	.L22:
 300 003a 00BF     		.align	2
 301              	.L21:
 302 003c 00000000 		.word	__stack_chk_guard
 303 0040 00000000 		.word	.LANCHOR3
 304 0044 00000000 		.word	.LANCHOR4
 305              		.cfi_endproc
 306              	.LFE261:
 307              		.size	fill_sensor_values, .-fill_sensor_values
 308              		.global	__aeabi_dcmpgt
 309              		.section	.text.fill_proximity_weights,"ax",%progbits
 310              		.align	1
 311              		.p2align 4,,15
 312              		.global	fill_proximity_weights
 313              		.syntax unified
 314              		.thumb
 315              		.thumb_func
 316              		.fpu fpv4-sp-d16
 317              		.type	fill_proximity_weights, %function
 318              	fill_proximity_weights:
 319              	.LFB262:
 320              		.loc 1 134 0
 321              		.cfi_startproc
 322              		@ args = 0, pretend = 0, frame = 8
 323              		@ frame_needed = 0, uses_anonymous_args = 0
 324 0000 2DE9F04F 		push	{r4, r5, r6, r7, r8, r9, r10, fp, lr}
 325              		.cfi_def_cfa_offset 36
 326              		.cfi_offset 4, -36
 327              		.cfi_offset 5, -32
 328              		.cfi_offset 6, -28
 329              		.cfi_offset 7, -24
 330              		.cfi_offset 8, -20
 331              		.cfi_offset 9, -16
 332              		.cfi_offset 10, -12
 333              		.cfi_offset 11, -8
 334              		.cfi_offset 14, -4
 335 0004 2DED028B 		vpush.64	{d8}
 336              		.cfi_def_cfa_offset 44
 337              		.cfi_offset 80, -44
 338              		.cfi_offset 81, -40
 339 0008 DFF87890 		ldr	r9, .L36+20
 340 000c 1A4C     		ldr	r4, .L36+8
 341 000e D9F80030 		ldr	r3, [r9]
 342 0012 1A4D     		ldr	r5, .L36+12
ARM GAS  /tmp/ccqlIl9A.s 			page 7


 343              	.LBB28:
 344              		.loc 1 136 0
 345 0014 1A4F     		ldr	r7, .L36+16
 346              		.loc 1 137 0
 347 0016 DFF870B0 		ldr	fp, .L36+24
 348              	.LBE28:
 349              		.loc 1 134 0
 350 001a 83B0     		sub	sp, sp, #12
 351              		.cfi_def_cfa_offset 56
 352              	.LBB29:
 353              		.loc 1 136 0
 354 001c 0026     		movs	r6, #0
 355              	.LBE29:
 356              		.loc 1 134 0
 357 001e 0193     		str	r3, [sp, #4]
 358              	.LVL34:
 359              	.LBB30:
 360              		.loc 1 139 0
 361 0020 9FED138B 		vldr.64	d8, .L36
 362              		.loc 1 137 0
 363 0024 4FF0000A 		mov	r10, #0
 364 0028 04F14008 		add	r8, r4, #64
 365 002c 05E0     		b	.L27
 366              	.LVL35:
 367              	.L34:
 368              		.loc 1 135 0
 369 002e 4445     		cmp	r4, r8
 370              		.loc 1 137 0
 371 0030 C5E900AB 		strd	r10, [r5]
 372 0034 05F10805 		add	r5, r5, #8
 373              		.loc 1 135 0
 374 0038 0DD0     		beq	.L33
 375              	.L27:
 376              		.loc 1 136 0
 377 003a 3246     		mov	r2, r6
 378 003c 3B46     		mov	r3, r7
 379 003e F4E80201 		ldrd	r0, [r4], #8
 380 0042 FFF7FEFF 		bl	__aeabi_dcmpgt
 381              	.LVL36:
 382 0046 0028     		cmp	r0, #0
 383 0048 F1D1     		bne	.L34
 384              		.loc 1 135 0
 385 004a 4445     		cmp	r4, r8
 386              		.loc 1 139 0
 387 004c 85ED008B 		vstr.64	d8, [r5]
 388 0050 05F10805 		add	r5, r5, #8
 389              		.loc 1 135 0
 390 0054 F1D1     		bne	.L27
 391              	.L33:
 392              	.LBE30:
 393              		.loc 1 142 0
 394 0056 019A     		ldr	r2, [sp, #4]
 395 0058 D9F80030 		ldr	r3, [r9]
 396 005c 9A42     		cmp	r2, r3
 397 005e 04D1     		bne	.L35
 398 0060 03B0     		add	sp, sp, #12
 399              		.cfi_remember_state
ARM GAS  /tmp/ccqlIl9A.s 			page 8


 400              		.cfi_def_cfa_offset 44
 401              		@ sp needed
 402 0062 BDEC028B 		vldm	sp!, {d8}
 403              		.cfi_restore 80
 404              		.cfi_restore 81
 405              		.cfi_def_cfa_offset 36
 406 0066 BDE8F08F 		pop	{r4, r5, r6, r7, r8, r9, r10, fp, pc}
 407              	.L35:
 408              		.cfi_restore_state
 409 006a FFF7FEFF 		bl	__stack_chk_fail
 410              	.LVL37:
 411              	.L37:
 412 006e 00BF     		.align	3
 413              	.L36:
 414 0070 00000000 		.word	0
 415 0074 00000000 		.word	0
 416 0078 00000000 		.word	.LANCHOR3
 417 007c 00000000 		.word	.LANCHOR5
 418 0080 00005940 		.word	1079574528
 419 0084 00000000 		.word	__stack_chk_guard
 420 0088 0000F03F 		.word	1072693248
 421              		.cfi_endproc
 422              	.LFE262:
 423              		.size	fill_proximity_weights, .-fill_proximity_weights
 424              		.section	.text.stop,"ax",%progbits
 425              		.align	1
 426              		.p2align 4,,15
 427              		.global	stop
 428              		.syntax unified
 429              		.thumb
 430              		.thumb_func
 431              		.fpu fpv4-sp-d16
 432              		.type	stop, %function
 433              	stop:
 434              	.LFB263:
 435              		.loc 1 147 0
 436              		.cfi_startproc
 437              		@ args = 0, pretend = 0, frame = 8
 438              		@ frame_needed = 0, uses_anonymous_args = 0
 439 0000 10B5     		push	{r4, lr}
 440              		.cfi_def_cfa_offset 8
 441              		.cfi_offset 4, -8
 442              		.cfi_offset 14, -4
 443 0002 094C     		ldr	r4, .L43
 444 0004 82B0     		sub	sp, sp, #8
 445              		.cfi_def_cfa_offset 16
 446              		.loc 1 147 0
 447 0006 2368     		ldr	r3, [r4]
 448 0008 0193     		str	r3, [sp, #4]
 449              		.loc 1 148 0
 450 000a 0020     		movs	r0, #0
 451 000c FFF7FEFF 		bl	left_motor_set_speed
 452              	.LVL38:
 453              		.loc 1 149 0
 454 0010 019A     		ldr	r2, [sp, #4]
 455 0012 2368     		ldr	r3, [r4]
 456 0014 9A42     		cmp	r2, r3
ARM GAS  /tmp/ccqlIl9A.s 			page 9


 457 0016 05D1     		bne	.L42
 458 0018 0020     		movs	r0, #0
 459              		.loc 1 150 0
 460 001a 02B0     		add	sp, sp, #8
 461              		.cfi_remember_state
 462              		.cfi_def_cfa_offset 8
 463              		@ sp needed
 464 001c BDE81040 		pop	{r4, lr}
 465              		.cfi_restore 14
 466              		.cfi_restore 4
 467              		.cfi_def_cfa_offset 0
 468              		.loc 1 149 0
 469 0020 FFF7FEBF 		b	right_motor_set_speed
 470              	.LVL39:
 471              	.L42:
 472              		.cfi_restore_state
 473 0024 FFF7FEFF 		bl	__stack_chk_fail
 474              	.LVL40:
 475              	.L44:
 476              		.align	2
 477              	.L43:
 478 0028 00000000 		.word	__stack_chk_guard
 479              		.cfi_endproc
 480              	.LFE263:
 481              		.size	stop, .-stop
 482              		.section	.text.move_backward,"ax",%progbits
 483              		.align	1
 484              		.p2align 4,,15
 485              		.global	move_backward
 486              		.syntax unified
 487              		.thumb
 488              		.thumb_func
 489              		.fpu fpv4-sp-d16
 490              		.type	move_backward, %function
 491              	move_backward:
 492              	.LFB264:
 493              		.loc 1 155 0
 494              		.cfi_startproc
 495              		@ args = 0, pretend = 0, frame = 16
 496              		@ frame_needed = 0, uses_anonymous_args = 0
 497              	.LVL41:
 498 0000 10B5     		push	{r4, lr}
 499              		.cfi_def_cfa_offset 8
 500              		.cfi_offset 4, -8
 501              		.cfi_offset 14, -4
 502              		.loc 1 156 0
 503 0002 B1EE400A 		vneg.f32	s0, s0
 504              	.LVL42:
 505 0006 FDEEC07A 		vcvt.s32.f32	s15, s0
 506              		.loc 1 155 0
 507 000a 0B4C     		ldr	r4, .L50
 508 000c 84B0     		sub	sp, sp, #16
 509              		.cfi_def_cfa_offset 24
 510              		.loc 1 155 0
 511 000e 2368     		ldr	r3, [r4]
 512 0010 0393     		str	r3, [sp, #12]
 513              		.loc 1 156 0
ARM GAS  /tmp/ccqlIl9A.s 			page 10


 514 0012 17EE900A 		vmov	r0, s15	@ int
 515 0016 CDED017A 		vstr.32	s15, [sp, #4]	@ int
 516 001a FFF7FEFF 		bl	left_motor_set_speed
 517              	.LVL43:
 518              		.loc 1 157 0
 519 001e 039A     		ldr	r2, [sp, #12]
 520 0020 2368     		ldr	r3, [r4]
 521 0022 9A42     		cmp	r2, r3
 522 0024 05D1     		bne	.L49
 523 0026 0198     		ldr	r0, [sp, #4]
 524              		.loc 1 158 0
 525 0028 04B0     		add	sp, sp, #16
 526              		.cfi_remember_state
 527              		.cfi_def_cfa_offset 8
 528              		@ sp needed
 529 002a BDE81040 		pop	{r4, lr}
 530              		.cfi_restore 14
 531              		.cfi_restore 4
 532              		.cfi_def_cfa_offset 0
 533              		.loc 1 157 0
 534 002e FFF7FEBF 		b	right_motor_set_speed
 535              	.LVL44:
 536              	.L49:
 537              		.cfi_restore_state
 538 0032 FFF7FEFF 		bl	__stack_chk_fail
 539              	.LVL45:
 540              	.L51:
 541 0036 00BF     		.align	2
 542              	.L50:
 543 0038 00000000 		.word	__stack_chk_guard
 544              		.cfi_endproc
 545              	.LFE264:
 546              		.size	move_backward, .-move_backward
 547              		.section	.text.move_forward,"ax",%progbits
 548              		.align	1
 549              		.p2align 4,,15
 550              		.global	move_forward
 551              		.syntax unified
 552              		.thumb
 553              		.thumb_func
 554              		.fpu fpv4-sp-d16
 555              		.type	move_forward, %function
 556              	move_forward:
 557              	.LFB265:
 558              		.loc 1 163 0
 559              		.cfi_startproc
 560              		@ args = 0, pretend = 0, frame = 16
 561              		@ frame_needed = 0, uses_anonymous_args = 0
 562              	.LVL46:
 563 0000 10B5     		push	{r4, lr}
 564              		.cfi_def_cfa_offset 8
 565              		.cfi_offset 4, -8
 566              		.cfi_offset 14, -4
 567              		.loc 1 164 0
 568 0002 FDEEC07A 		vcvt.s32.f32	s15, s0
 569              		.loc 1 163 0
 570 0006 0B4C     		ldr	r4, .L57
ARM GAS  /tmp/ccqlIl9A.s 			page 11


 571 0008 84B0     		sub	sp, sp, #16
 572              		.cfi_def_cfa_offset 24
 573              		.loc 1 163 0
 574 000a 2368     		ldr	r3, [r4]
 575 000c 0393     		str	r3, [sp, #12]
 576              		.loc 1 164 0
 577 000e 17EE900A 		vmov	r0, s15	@ int
 578 0012 CDED017A 		vstr.32	s15, [sp, #4]	@ int
 579 0016 FFF7FEFF 		bl	left_motor_set_speed
 580              	.LVL47:
 581              		.loc 1 165 0
 582 001a 039A     		ldr	r2, [sp, #12]
 583 001c 2368     		ldr	r3, [r4]
 584 001e 9A42     		cmp	r2, r3
 585 0020 05D1     		bne	.L56
 586 0022 0198     		ldr	r0, [sp, #4]
 587              		.loc 1 166 0
 588 0024 04B0     		add	sp, sp, #16
 589              		.cfi_remember_state
 590              		.cfi_def_cfa_offset 8
 591              		@ sp needed
 592 0026 BDE81040 		pop	{r4, lr}
 593              		.cfi_restore 14
 594              		.cfi_restore 4
 595              		.cfi_def_cfa_offset 0
 596              		.loc 1 165 0
 597 002a FFF7FEBF 		b	right_motor_set_speed
 598              	.LVL48:
 599              	.L56:
 600              		.cfi_restore_state
 601 002e FFF7FEFF 		bl	__stack_chk_fail
 602              	.LVL49:
 603              	.L58:
 604 0032 00BF     		.align	2
 605              	.L57:
 606 0034 00000000 		.word	__stack_chk_guard
 607              		.cfi_endproc
 608              	.LFE265:
 609              		.size	move_forward, .-move_forward
 610              		.section	.text.turn_left,"ax",%progbits
 611              		.align	1
 612              		.p2align 4,,15
 613              		.global	turn_left
 614              		.syntax unified
 615              		.thumb
 616              		.thumb_func
 617              		.fpu fpv4-sp-d16
 618              		.type	turn_left, %function
 619              	turn_left:
 620              	.LFB266:
 621              		.loc 1 171 0
 622              		.cfi_startproc
 623              		@ args = 0, pretend = 0, frame = 8
 624              		@ frame_needed = 0, uses_anonymous_args = 0
 625              	.LVL50:
 626 0000 10B5     		push	{r4, lr}
 627              		.cfi_def_cfa_offset 8
ARM GAS  /tmp/ccqlIl9A.s 			page 12


 628              		.cfi_offset 4, -8
 629              		.cfi_offset 14, -4
 630 0002 2DED028B 		vpush.64	{d8}
 631              		.cfi_def_cfa_offset 16
 632              		.cfi_offset 80, -16
 633              		.cfi_offset 81, -12
 634              		.loc 1 172 0
 635 0006 F1EE407A 		vneg.f32	s15, s0
 636              		.loc 1 171 0
 637 000a 0E4C     		ldr	r4, .L64
 638              		.loc 1 172 0
 639 000c FDEEE77A 		vcvt.s32.f32	s15, s15
 640              		.loc 1 171 0
 641 0010 82B0     		sub	sp, sp, #8
 642              		.cfi_def_cfa_offset 24
 643              		.loc 1 171 0
 644 0012 2368     		ldr	r3, [r4]
 645 0014 0193     		str	r3, [sp, #4]
 646              		.loc 1 172 0
 647 0016 17EE900A 		vmov	r0, s15	@ int
 648              		.loc 1 171 0
 649 001a B0EE408A 		vmov.f32	s16, s0
 650              		.loc 1 172 0
 651 001e FFF7FEFF 		bl	left_motor_set_speed
 652              	.LVL51:
 653              		.loc 1 173 0
 654 0022 019A     		ldr	r2, [sp, #4]
 655 0024 2368     		ldr	r3, [r4]
 656 0026 9A42     		cmp	r2, r3
 657 0028 0AD1     		bne	.L63
 658 002a FDEEC87A 		vcvt.s32.f32	s15, s16
 659 002e 17EE900A 		vmov	r0, s15	@ int
 660              		.loc 1 174 0
 661 0032 02B0     		add	sp, sp, #8
 662              		.cfi_remember_state
 663              		.cfi_def_cfa_offset 16
 664              		@ sp needed
 665 0034 BDEC028B 		vldm	sp!, {d8}
 666              		.cfi_restore 80
 667              		.cfi_restore 81
 668              		.cfi_def_cfa_offset 8
 669              	.LVL52:
 670 0038 BDE81040 		pop	{r4, lr}
 671              		.cfi_restore 14
 672              		.cfi_restore 4
 673              		.cfi_def_cfa_offset 0
 674              		.loc 1 173 0
 675 003c FFF7FEBF 		b	right_motor_set_speed
 676              	.LVL53:
 677              	.L63:
 678              		.cfi_restore_state
 679 0040 FFF7FEFF 		bl	__stack_chk_fail
 680              	.LVL54:
 681              	.L65:
 682              		.align	2
 683              	.L64:
 684 0044 00000000 		.word	__stack_chk_guard
ARM GAS  /tmp/ccqlIl9A.s 			page 13


 685              		.cfi_endproc
 686              	.LFE266:
 687              		.size	turn_left, .-turn_left
 688              		.section	.text.turn_right,"ax",%progbits
 689              		.align	1
 690              		.p2align 4,,15
 691              		.global	turn_right
 692              		.syntax unified
 693              		.thumb
 694              		.thumb_func
 695              		.fpu fpv4-sp-d16
 696              		.type	turn_right, %function
 697              	turn_right:
 698              	.LFB267:
 699              		.loc 1 179 0
 700              		.cfi_startproc
 701              		@ args = 0, pretend = 0, frame = 8
 702              		@ frame_needed = 0, uses_anonymous_args = 0
 703              	.LVL55:
 704 0000 10B5     		push	{r4, lr}
 705              		.cfi_def_cfa_offset 8
 706              		.cfi_offset 4, -8
 707              		.cfi_offset 14, -4
 708 0002 2DED028B 		vpush.64	{d8}
 709              		.cfi_def_cfa_offset 16
 710              		.cfi_offset 80, -16
 711              		.cfi_offset 81, -12
 712 0006 0F4C     		ldr	r4, .L71
 713              		.loc 1 180 0
 714 0008 FDEEC07A 		vcvt.s32.f32	s15, s0
 715              		.loc 1 179 0
 716 000c 82B0     		sub	sp, sp, #8
 717              		.cfi_def_cfa_offset 24
 718              		.loc 1 179 0
 719 000e 2368     		ldr	r3, [r4]
 720 0010 0193     		str	r3, [sp, #4]
 721              		.loc 1 180 0
 722 0012 17EE900A 		vmov	r0, s15	@ int
 723              		.loc 1 179 0
 724 0016 B0EE408A 		vmov.f32	s16, s0
 725              		.loc 1 180 0
 726 001a FFF7FEFF 		bl	left_motor_set_speed
 727              	.LVL56:
 728              		.loc 1 181 0
 729 001e 019A     		ldr	r2, [sp, #4]
 730 0020 2368     		ldr	r3, [r4]
 731 0022 9A42     		cmp	r2, r3
 732 0024 0CD1     		bne	.L70
 733 0026 B1EE488A 		vneg.f32	s16, s16
 734              	.LVL57:
 735 002a FDEEC87A 		vcvt.s32.f32	s15, s16
 736 002e 17EE900A 		vmov	r0, s15	@ int
 737              		.loc 1 182 0
 738 0032 02B0     		add	sp, sp, #8
 739              		.cfi_remember_state
 740              		.cfi_def_cfa_offset 16
 741              		@ sp needed
ARM GAS  /tmp/ccqlIl9A.s 			page 14


 742 0034 BDEC028B 		vldm	sp!, {d8}
 743              		.cfi_restore 80
 744              		.cfi_restore 81
 745              		.cfi_def_cfa_offset 8
 746 0038 BDE81040 		pop	{r4, lr}
 747              		.cfi_restore 14
 748              		.cfi_restore 4
 749              		.cfi_def_cfa_offset 0
 750              		.loc 1 181 0
 751 003c FFF7FEBF 		b	right_motor_set_speed
 752              	.LVL58:
 753              	.L70:
 754              		.cfi_restore_state
 755 0040 FFF7FEFF 		bl	__stack_chk_fail
 756              	.LVL59:
 757              	.L72:
 758              		.align	2
 759              	.L71:
 760 0044 00000000 		.word	__stack_chk_guard
 761              		.cfi_endproc
 762              	.LFE267:
 763              		.size	turn_right, .-turn_right
 764              		.global	__aeabi_dcmpeq
 765              		.section	.text.get_last_sensor_input_direction,"ax",%progbits
 766              		.align	1
 767              		.p2align 4,,15
 768              		.global	get_last_sensor_input_direction
 769              		.syntax unified
 770              		.thumb
 771              		.thumb_func
 772              		.fpu fpv4-sp-d16
 773              		.type	get_last_sensor_input_direction, %function
 774              	get_last_sensor_input_direction:
 775              	.LFB268:
 776              		.loc 1 187 0
 777              		.cfi_startproc
 778              		@ args = 0, pretend = 0, frame = 8
 779              		@ frame_needed = 0, uses_anonymous_args = 0
 780 0000 F0B5     		push	{r4, r5, r6, r7, lr}
 781              		.cfi_def_cfa_offset 20
 782              		.cfi_offset 4, -20
 783              		.cfi_offset 5, -16
 784              		.cfi_offset 6, -12
 785              		.cfi_offset 7, -8
 786              		.cfi_offset 14, -4
 787 0002 194C     		ldr	r4, .L94
 788              		.loc 1 189 0
 789 0004 194E     		ldr	r6, .L94+4
 790              		.loc 1 187 0
 791 0006 2368     		ldr	r3, [r4]
 792              		.loc 1 190 0
 793 0008 194F     		ldr	r7, .L94+8
 794              		.loc 1 192 0
 795 000a 1A4D     		ldr	r5, .L94+12
 796              		.loc 1 187 0
 797 000c 83B0     		sub	sp, sp, #12
 798              		.cfi_def_cfa_offset 32
ARM GAS  /tmp/ccqlIl9A.s 			page 15


 799              		.loc 1 192 0
 800 000e D5E90801 		ldrd	r0, [r5, #32]
 801              		.loc 1 187 0
 802 0012 0193     		str	r3, [sp, #4]
 803              		.loc 1 189 0
 804 0014 0023     		movs	r3, #0
 805 0016 3360     		str	r3, [r6]
 806              		.loc 1 190 0
 807 0018 3B60     		str	r3, [r7]
 808              		.loc 1 192 0
 809 001a 0022     		movs	r2, #0
 810 001c 0023     		movs	r3, #0
 811 001e FFF7FEFF 		bl	__aeabi_dcmpeq
 812              	.LVL60:
 813 0022 B8B1     		cbz	r0, .L74
 814              		.loc 1 192 0 is_stmt 0 discriminator 1
 815 0024 0022     		movs	r2, #0
 816 0026 0023     		movs	r3, #0
 817 0028 D5E90A01 		ldrd	r0, [r5, #40]
 818 002c FFF7FEFF 		bl	__aeabi_dcmpeq
 819              	.LVL61:
 820 0030 80B1     		cbz	r0, .L74
 821              		.loc 1 192 0 discriminator 2
 822 0032 0022     		movs	r2, #0
 823 0034 0023     		movs	r3, #0
 824 0036 D5E90C01 		ldrd	r0, [r5, #48]
 825 003a FFF7FEFF 		bl	__aeabi_dcmpeq
 826              	.LVL62:
 827 003e 48B1     		cbz	r0, .L74
 828              		.loc 1 193 0 is_stmt 1
 829 0040 0022     		movs	r2, #0
 830 0042 0023     		movs	r3, #0
 831 0044 D5E90E01 		ldrd	r0, [r5, #56]
 832 0048 FFF7FEFF 		bl	__aeabi_dcmpeq
 833              	.LVL63:
 834 004c 10B1     		cbz	r0, .L74
 835              		.loc 1 196 0
 836 004e 0123     		movs	r3, #1
 837 0050 3B60     		str	r3, [r7]
 838              		.loc 1 198 0
 839 0052 01E0     		b	.L73
 840              	.L74:
 841              		.loc 1 194 0
 842 0054 0123     		movs	r3, #1
 843 0056 3360     		str	r3, [r6]
 844              	.L73:
 845              		.loc 1 198 0
 846 0058 019A     		ldr	r2, [sp, #4]
 847 005a 2368     		ldr	r3, [r4]
 848 005c 9A42     		cmp	r2, r3
 849 005e 01D1     		bne	.L93
 850 0060 03B0     		add	sp, sp, #12
 851              		.cfi_remember_state
 852              		.cfi_def_cfa_offset 20
 853              		@ sp needed
 854 0062 F0BD     		pop	{r4, r5, r6, r7, pc}
 855              	.L93:
ARM GAS  /tmp/ccqlIl9A.s 			page 16


 856              		.cfi_restore_state
 857 0064 FFF7FEFF 		bl	__stack_chk_fail
 858              	.LVL64:
 859              	.L95:
 860              		.align	2
 861              	.L94:
 862 0068 00000000 		.word	__stack_chk_guard
 863 006c 00000000 		.word	.LANCHOR6
 864 0070 00000000 		.word	.LANCHOR7
 865 0074 00000000 		.word	.LANCHOR5
 866              		.cfi_endproc
 867              	.LFE268:
 868              		.size	get_last_sensor_input_direction, .-get_last_sensor_input_direction
 869              		.section	.text.glow_leds,"ax",%progbits
 870              		.align	1
 871              		.p2align 4,,15
 872              		.global	glow_leds
 873              		.syntax unified
 874              		.thumb
 875              		.thumb_func
 876              		.fpu fpv4-sp-d16
 877              		.type	glow_leds, %function
 878              	glow_leds:
 879              	.LFB269:
 880              		.loc 1 203 0
 881              		.cfi_startproc
 882              		@ args = 0, pretend = 0, frame = 8
 883              		@ frame_needed = 0, uses_anonymous_args = 0
 884 0000 10B5     		push	{r4, lr}
 885              		.cfi_def_cfa_offset 8
 886              		.cfi_offset 4, -8
 887              		.cfi_offset 14, -4
 888 0002 3A4C     		ldr	r4, .L123
 889 0004 82B0     		sub	sp, sp, #8
 890              		.cfi_def_cfa_offset 16
 891              		.loc 1 203 0
 892 0006 2368     		ldr	r3, [r4]
 893 0008 0193     		str	r3, [sp, #4]
 894              		.loc 1 204 0
 895 000a 0020     		movs	r0, #0
 896 000c FFF7FEFF 		bl	get_calibrated_prox
 897              	.LVL65:
 898 0010 6428     		cmp	r0, #100
 899 0012 04DC     		bgt	.L99
 900              		.loc 1 204 0 is_stmt 0 discriminator 1
 901 0014 0720     		movs	r0, #7
 902 0016 FFF7FEFF 		bl	get_calibrated_prox
 903              	.LVL66:
 904 001a 6428     		cmp	r0, #100
 905 001c 60DD     		ble	.L120
 906              	.L99:
 907              	.LBB31:
 908              		.loc 1 205 0 is_stmt 1
 909 001e 0121     		movs	r1, #1
 910 0020 0020     		movs	r0, #0
 911 0022 FFF7FEFF 		bl	e_set_led
 912              	.LVL67:
ARM GAS  /tmp/ccqlIl9A.s 			page 17


 913              	.L98:
 914              	.LBE31:
 915              		.loc 1 210 0
 916 0026 0120     		movs	r0, #1
 917 0028 FFF7FEFF 		bl	get_calibrated_prox
 918              	.LVL68:
 919 002c 6428     		cmp	r0, #100
 920              	.LBB32:
 921              		.loc 1 211 0
 922 002e C7BF     		ittee	gt
 923 0030 0121     		movgt	r1, #1
 924 0032 0846     		movgt	r0, r1
 925              	.LBE32:
 926              	.LBB33:
 927              		.loc 1 213 0
 928 0034 0021     		movle	r1, #0
 929 0036 0120     		movle	r0, #1
 930 0038 FFF7FEFF 		bl	e_set_led
 931              	.LVL69:
 932              	.LBE33:
 933              		.loc 1 216 0
 934 003c 0220     		movs	r0, #2
 935 003e FFF7FEFF 		bl	get_calibrated_prox
 936              	.LVL70:
 937 0042 6428     		cmp	r0, #100
 938              	.LBB34:
 939              		.loc 1 217 0
 940 0044 CCBF     		ite	gt
 941 0046 0121     		movgt	r1, #1
 942              	.LBE34:
 943              	.LBB35:
 944              		.loc 1 219 0
 945 0048 0021     		movle	r1, #0
 946 004a 0220     		movs	r0, #2
 947 004c FFF7FEFF 		bl	e_set_led
 948              	.LVL71:
 949              	.LBE35:
 950              		.loc 1 222 0
 951 0050 0320     		movs	r0, #3
 952 0052 FFF7FEFF 		bl	get_calibrated_prox
 953              	.LVL72:
 954 0056 6428     		cmp	r0, #100
 955              	.LBB36:
 956              		.loc 1 223 0
 957 0058 CCBF     		ite	gt
 958 005a 0121     		movgt	r1, #1
 959              	.LBE36:
 960              	.LBB37:
 961              		.loc 1 225 0
 962 005c 0021     		movle	r1, #0
 963 005e 0320     		movs	r0, #3
 964 0060 FFF7FEFF 		bl	e_set_led
 965              	.LVL73:
 966              	.LBE37:
 967              		.loc 1 228 0
 968 0064 0320     		movs	r0, #3
 969 0066 FFF7FEFF 		bl	get_calibrated_prox
ARM GAS  /tmp/ccqlIl9A.s 			page 18


 970              	.LVL74:
 971 006a 6428     		cmp	r0, #100
 972 006c 04DC     		bgt	.L108
 973              		.loc 1 228 0 is_stmt 0 discriminator 1
 974 006e 0420     		movs	r0, #4
 975 0070 FFF7FEFF 		bl	get_calibrated_prox
 976              	.LVL75:
 977 0074 6428     		cmp	r0, #100
 978 0076 2EDD     		ble	.L121
 979              	.L108:
 980              	.LBB38:
 981              		.loc 1 229 0 is_stmt 1
 982 0078 0121     		movs	r1, #1
 983 007a 0420     		movs	r0, #4
 984 007c FFF7FEFF 		bl	e_set_led
 985              	.LVL76:
 986              	.L107:
 987              	.LBE38:
 988              		.loc 1 234 0
 989 0080 0420     		movs	r0, #4
 990 0082 FFF7FEFF 		bl	get_calibrated_prox
 991              	.LVL77:
 992 0086 6428     		cmp	r0, #100
 993              	.LBB39:
 994              		.loc 1 235 0
 995 0088 CCBF     		ite	gt
 996 008a 0121     		movgt	r1, #1
 997              	.LBE39:
 998              	.LBB40:
 999              		.loc 1 237 0
 1000 008c 0021     		movle	r1, #0
 1001 008e 0520     		movs	r0, #5
 1002 0090 FFF7FEFF 		bl	e_set_led
 1003              	.LVL78:
 1004              	.LBE40:
 1005              		.loc 1 240 0
 1006 0094 0520     		movs	r0, #5
 1007 0096 FFF7FEFF 		bl	get_calibrated_prox
 1008              	.LVL79:
 1009 009a 6428     		cmp	r0, #100
 1010              	.LBB41:
 1011              		.loc 1 241 0
 1012 009c CCBF     		ite	gt
 1013 009e 0121     		movgt	r1, #1
 1014              	.LBE41:
 1015              	.LBB42:
 1016              		.loc 1 243 0
 1017 00a0 0021     		movle	r1, #0
 1018 00a2 0620     		movs	r0, #6
 1019 00a4 FFF7FEFF 		bl	e_set_led
 1020              	.LVL80:
 1021              	.LBE42:
 1022              		.loc 1 246 0
 1023 00a8 0620     		movs	r0, #6
 1024 00aa FFF7FEFF 		bl	get_calibrated_prox
 1025              	.LVL81:
 1026 00ae 6428     		cmp	r0, #100
ARM GAS  /tmp/ccqlIl9A.s 			page 19


 1027              	.LBB43:
 1028              		.loc 1 247 0
 1029 00b0 019A     		ldr	r2, [sp, #4]
 1030 00b2 2368     		ldr	r3, [r4]
 1031              	.LBE43:
 1032              		.loc 1 246 0
 1033 00b4 09DC     		bgt	.L122
 1034              	.LBB44:
 1035              		.loc 1 249 0
 1036 00b6 9A42     		cmp	r2, r3
 1037 00b8 08BF     		it	eq
 1038 00ba 0021     		moveq	r1, #0
 1039 00bc 09D1     		bne	.L119
 1040              	.L118:
 1041 00be 0720     		movs	r0, #7
 1042              	.LBE44:
 1043              		.loc 1 251 0
 1044 00c0 02B0     		add	sp, sp, #8
 1045              		.cfi_remember_state
 1046              		.cfi_def_cfa_offset 8
 1047              		@ sp needed
 1048 00c2 BDE81040 		pop	{r4, lr}
 1049              		.cfi_restore 14
 1050              		.cfi_restore 4
 1051              		.cfi_def_cfa_offset 0
 1052              	.LBB45:
 1053              		.loc 1 249 0
 1054 00c6 FFF7FEBF 		b	e_set_led
 1055              	.LVL82:
 1056              	.L122:
 1057              		.cfi_restore_state
 1058              	.LBE45:
 1059              	.LBB46:
 1060              		.loc 1 247 0
 1061 00ca 9A42     		cmp	r2, r3
 1062 00cc 08BF     		it	eq
 1063 00ce 0121     		moveq	r1, #1
 1064 00d0 F5D0     		beq	.L118
 1065              	.L119:
 1066              	.LBE46:
 1067              	.LBB47:
 1068              		.loc 1 249 0
 1069 00d2 FFF7FEFF 		bl	__stack_chk_fail
 1070              	.LVL83:
 1071              	.L121:
 1072              	.LBE47:
 1073              	.LBB48:
 1074              		.loc 1 231 0
 1075 00d6 0021     		movs	r1, #0
 1076 00d8 0420     		movs	r0, #4
 1077 00da FFF7FEFF 		bl	e_set_led
 1078              	.LVL84:
 1079 00de CFE7     		b	.L107
 1080              	.L120:
 1081              	.LBE48:
 1082              	.LBB49:
 1083              		.loc 1 207 0
ARM GAS  /tmp/ccqlIl9A.s 			page 20


 1084 00e0 0021     		movs	r1, #0
 1085 00e2 0846     		mov	r0, r1
 1086 00e4 FFF7FEFF 		bl	e_set_led
 1087              	.LVL85:
 1088 00e8 9DE7     		b	.L98
 1089              	.L124:
 1090 00ea 00BF     		.align	2
 1091              	.L123:
 1092 00ec 00000000 		.word	__stack_chk_guard
 1093              	.LBE49:
 1094              		.cfi_endproc
 1095              	.LFE269:
 1096              		.size	glow_leds, .-glow_leds
 1097              		.section	.text.send_camera_feed_bt,"ax",%progbits
 1098              		.align	1
 1099              		.p2align 4,,15
 1100              		.global	send_camera_feed_bt
 1101              		.syntax unified
 1102              		.thumb
 1103              		.thumb_func
 1104              		.fpu fpv4-sp-d16
 1105              		.type	send_camera_feed_bt, %function
 1106              	send_camera_feed_bt:
 1107              	.LFB270:
 1108              		.loc 1 256 0
 1109              		.cfi_startproc
 1110              		@ args = 0, pretend = 0, frame = 8
 1111              		@ frame_needed = 0, uses_anonymous_args = 0
 1112 0000 00B5     		push	{lr}
 1113              		.cfi_def_cfa_offset 4
 1114              		.cfi_offset 14, -4
 1115 0002 064B     		ldr	r3, .L129
 1116 0004 83B0     		sub	sp, sp, #12
 1117              		.cfi_def_cfa_offset 16
 1118              		.loc 1 256 0
 1119 0006 1A68     		ldr	r2, [r3]
 1120 0008 0192     		str	r2, [sp, #4]
 1121              		.loc 1 257 0
 1122 000a 019A     		ldr	r2, [sp, #4]
 1123 000c 1B68     		ldr	r3, [r3]
 1124 000e 9A42     		cmp	r2, r3
 1125 0010 02D1     		bne	.L128
 1126 0012 03B0     		add	sp, sp, #12
 1127              		.cfi_remember_state
 1128              		.cfi_def_cfa_offset 4
 1129              		@ sp needed
 1130 0014 5DF804FB 		ldr	pc, [sp], #4
 1131              	.L128:
 1132              		.cfi_restore_state
 1133 0018 FFF7FEFF 		bl	__stack_chk_fail
 1134              	.LVL86:
 1135              	.L130:
 1136              		.align	2
 1137              	.L129:
 1138 001c 00000000 		.word	__stack_chk_guard
 1139              		.cfi_endproc
 1140              	.LFE270:
ARM GAS  /tmp/ccqlIl9A.s 			page 21


 1141              		.size	send_camera_feed_bt, .-send_camera_feed_bt
 1142              		.section	.text.startup.main,"ax",%progbits
 1143              		.align	1
 1144              		.p2align 4,,15
 1145              		.global	main
 1146              		.syntax unified
 1147              		.thumb
 1148              		.thumb_func
 1149              		.fpu fpv4-sp-d16
 1150              		.type	main, %function
 1151              	main:
 1152              	.LFB271:
 1153              		.loc 1 260 0
 1154              		.cfi_startproc
 1155              		@ args = 0, pretend = 0, frame = 24
 1156              		@ frame_needed = 0, uses_anonymous_args = 0
 1157 0000 2DE9F04F 		push	{r4, r5, r6, r7, r8, r9, r10, fp, lr}
 1158              		.cfi_def_cfa_offset 36
 1159              		.cfi_offset 4, -36
 1160              		.cfi_offset 5, -32
 1161              		.cfi_offset 6, -28
 1162              		.cfi_offset 7, -24
 1163              		.cfi_offset 8, -20
 1164              		.cfi_offset 9, -16
 1165              		.cfi_offset 10, -12
 1166              		.cfi_offset 11, -8
 1167              		.cfi_offset 14, -4
 1168 0004 2DED028B 		vpush.64	{d8}
 1169              		.cfi_def_cfa_offset 44
 1170              		.cfi_offset 80, -44
 1171              		.cfi_offset 81, -40
 1172 0008 AB4B     		ldr	r3, .L206+16
 1173 000a DFF8B8A2 		ldr	r10, .L206+28
 1174 000e 1B68     		ldr	r3, [r3]
 1175 0010 AA4D     		ldr	r5, .L206+20
 1176 0012 87B0     		sub	sp, sp, #28
 1177              		.cfi_def_cfa_offset 72
 1178              	.LBB50:
 1179              	.LBB51:
 1180              		.loc 1 137 0
 1181 0014 9FEDA48B 		vldr.64	d8, .L206
 1182              	.LBE51:
 1183              	.LBE50:
 1184              		.loc 1 260 0
 1185 0018 0593     		str	r3, [sp, #20]
 1186              		.loc 1 262 0
 1187 001a FFF7FEFF 		bl	init
 1188              	.LVL87:
 1189              	.LBB54:
 1190              	.LBB52:
 1191              		.loc 1 139 0
 1192 001e 4FF00008 		mov	r8, #0
 1193 0022 4FF00009 		mov	r9, #0
 1194 0026 0AF1400B 		add	fp, r10, #64
 1195              	.L132:
 1196              	.LBE52:
 1197              	.LBE54:
ARM GAS  /tmp/ccqlIl9A.s 			page 22


 1198              		.loc 1 267 0
 1199 002a FFF7FEFF 		bl	get_selector
 1200              	.LVL88:
 1201 002e 60B1     		cbz	r0, .L133
 1202              	.L201:
 1203              	.LBB55:
 1204              	.LBB56:
 1205              		.loc 1 148 0
 1206 0030 0020     		movs	r0, #0
 1207 0032 FFF7FEFF 		bl	left_motor_set_speed
 1208              	.LVL89:
 1209              		.loc 1 149 0
 1210 0036 0020     		movs	r0, #0
 1211 0038 FFF7FEFF 		bl	right_motor_set_speed
 1212              	.LVL90:
 1213              	.LBE56:
 1214              	.LBE55:
 1215              		.loc 1 269 0
 1216 003c 6420     		movs	r0, #100
 1217 003e FFF7FEFF 		bl	chThdSleep
 1218              	.LVL91:
 1219              		.loc 1 267 0
 1220 0042 FFF7FEFF 		bl	get_selector
 1221              	.LVL92:
 1222 0046 0028     		cmp	r0, #0
 1223 0048 F2D1     		bne	.L201
 1224              	.L133:
 1225 004a 9D4C     		ldr	r4, .L206+24
 1226 004c 9D4F     		ldr	r7, .L206+28
 1227              		.loc 1 273 0
 1228 004e FFF7FEFF 		bl	glow_leds
 1229              	.LVL93:
 1230              		.loc 1 275 0
 1231 0052 2646     		mov	r6, r4
 1232              		.loc 1 274 0
 1233 0054 FFF7FEFF 		bl	send_bt_values
 1234              	.LVL94:
 1235              		.loc 1 275 0
 1236 0058 FFF7FEFF 		bl	fill_sensor_values
 1237              	.LVL95:
 1238 005c 05E0     		b	.L138
 1239              	.LVL96:
 1240              	.L203:
 1241              	.LBB57:
 1242              	.LBB53:
 1243              		.loc 1 135 0
 1244 005e 5F45     		cmp	r7, fp
 1245              		.loc 1 137 0
 1246 0060 86ED008B 		vstr.64	d8, [r6]
 1247 0064 06F10806 		add	r6, r6, #8
 1248              		.loc 1 135 0
 1249 0068 0DD0     		beq	.L202
 1250              	.L138:
 1251              		.loc 1 136 0
 1252 006a 0022     		movs	r2, #0
 1253 006c 964B     		ldr	r3, .L206+32
 1254 006e F7E80201 		ldrd	r0, [r7], #8
ARM GAS  /tmp/ccqlIl9A.s 			page 23


 1255 0072 FFF7FEFF 		bl	__aeabi_dcmpgt
 1256              	.LVL97:
 1257 0076 0028     		cmp	r0, #0
 1258 0078 F1D1     		bne	.L203
 1259              		.loc 1 135 0
 1260 007a 5F45     		cmp	r7, fp
 1261              		.loc 1 139 0
 1262 007c C6E90089 		strd	r8, [r6]
 1263 0080 06F10806 		add	r6, r6, #8
 1264              		.loc 1 135 0
 1265 0084 F1D1     		bne	.L138
 1266              	.L202:
 1267              	.LBE53:
 1268              	.LBE57:
 1269              		.loc 1 278 0
 1270 0086 DAE90067 		ldrd	r6, [r10]
 1271 008a 0022     		movs	r2, #0
 1272 008c 8F4B     		ldr	r3, .L206+36
 1273 008e 3046     		mov	r0, r6
 1274 0090 3946     		mov	r1, r7
 1275 0092 FFF7FEFF 		bl	__aeabi_dcmpgt
 1276              	.LVL98:
 1277 0096 0028     		cmp	r0, #0
 1278 0098 78D1     		bne	.L139
 1279              		.loc 1 278 0 is_stmt 0 discriminator 1
 1280 009a 9AED0E7B 		vldr.64	d7, [r10, #56]
 1281 009e 0022     		movs	r2, #0
 1282 00a0 8A4B     		ldr	r3, .L206+36
 1283 00a2 51EC170B 		vmov	r0, r1, d7
 1284 00a6 8DED007B 		vstr.64	d7, [sp]
 1285 00aa FFF7FEFF 		bl	__aeabi_dcmpgt
 1286              	.LVL99:
 1287 00ae 0028     		cmp	r0, #0
 1288 00b0 6CD1     		bne	.L139
 1289              		.loc 1 278 0 discriminator 2
 1290 00b2 0022     		movs	r2, #0
 1291 00b4 854B     		ldr	r3, .L206+36
 1292 00b6 DAE90201 		ldrd	r0, [r10, #8]
 1293 00ba FFF7FEFF 		bl	__aeabi_dcmpgt
 1294              	.LVL100:
 1295 00be 0028     		cmp	r0, #0
 1296 00c0 64D1     		bne	.L139
 1297              		.loc 1 279 0 is_stmt 1
 1298 00c2 0022     		movs	r2, #0
 1299 00c4 814B     		ldr	r3, .L206+36
 1300 00c6 DAE90C01 		ldrd	r0, [r10, #48]
 1301 00ca FFF7FEFF 		bl	__aeabi_dcmpgt
 1302              	.LVL101:
 1303 00ce 0028     		cmp	r0, #0
 1304 00d0 5CD1     		bne	.L139
 1305              		.loc 1 288 0
 1306 00d2 7F4B     		ldr	r3, .L206+40
 1307 00d4 1B88     		ldrh	r3, [r3]
 1308 00d6 0393     		str	r3, [sp, #12]
 1309 00d8 962B     		cmp	r3, #150
 1310 00da 31D9     		bls	.L143
 1311              		.loc 1 288 0 is_stmt 0 discriminator 1
ARM GAS  /tmp/ccqlIl9A.s 			page 24


 1312 00dc 7849     		ldr	r1, .L206+24
 1313 00de 4246     		mov	r2, r8
 1314 00e0 4B46     		mov	r3, r9
 1315 00e2 D1E90A01 		ldrd	r0, [r1, #40]
 1316 00e6 FFF7FEFF 		bl	__aeabi_dcmpeq
 1317              	.LVL102:
 1318 00ea 48B3     		cbz	r0, .L143
 1319              		.loc 1 289 0 is_stmt 1
 1320 00ec 7449     		ldr	r1, .L206+24
 1321 00ee 4246     		mov	r2, r8
 1322 00f0 4B46     		mov	r3, r9
 1323 00f2 D1E90C01 		ldrd	r0, [r1, #48]
 1324 00f6 FFF7FEFF 		bl	__aeabi_dcmpeq
 1325              	.LVL103:
 1326 00fa 08B3     		cbz	r0, .L143
 1327              		.loc 1 289 0 is_stmt 0 discriminator 1
 1328 00fc 7049     		ldr	r1, .L206+24
 1329 00fe 4246     		mov	r2, r8
 1330 0100 4B46     		mov	r3, r9
 1331 0102 D1E90E01 		ldrd	r0, [r1, #56]
 1332 0106 FFF7FEFF 		bl	__aeabi_dcmpeq
 1333              	.LVL104:
 1334 010a C8B1     		cbz	r0, .L143
 1335              		.loc 1 289 0 discriminator 2
 1336 010c 6C49     		ldr	r1, .L206+24
 1337 010e 4246     		mov	r2, r8
 1338 0110 4B46     		mov	r3, r9
 1339 0112 D1E90001 		ldrd	r0, [r1]
 1340 0116 FFF7FEFF 		bl	__aeabi_dcmpeq
 1341              	.LVL105:
 1342 011a 88B1     		cbz	r0, .L143
 1343              		.loc 1 290 0 is_stmt 1
 1344 011c 6849     		ldr	r1, .L206+24
 1345 011e 4246     		mov	r2, r8
 1346 0120 4B46     		mov	r3, r9
 1347 0122 D1E90201 		ldrd	r0, [r1, #8]
 1348 0126 FFF7FEFF 		bl	__aeabi_dcmpeq
 1349              	.LVL106:
 1350 012a 48B1     		cbz	r0, .L143
 1351              		.loc 1 289 0 discriminator 1
 1352 012c 6449     		ldr	r1, .L206+24
 1353 012e 4246     		mov	r2, r8
 1354 0130 4B46     		mov	r3, r9
 1355 0132 D1E90401 		ldrd	r0, [r1, #16]
 1356 0136 FFF7FEFF 		bl	__aeabi_dcmpeq
 1357              	.LVL107:
 1358 013a 0028     		cmp	r0, #0
 1359 013c 40F0A580 		bne	.L204
 1360              	.L143:
 1361              		.loc 1 301 0
 1362 0140 3046     		mov	r0, r6
 1363 0142 3946     		mov	r1, r7
 1364 0144 5AA3     		adr	r3, .L206+8
 1365 0146 D3E90023 		ldrd	r2, [r3]
 1366 014a FFF7FEFF 		bl	__aeabi_dcmpgt
 1367              	.LVL108:
 1368 014e 50B9     		cbnz	r0, .L152
ARM GAS  /tmp/ccqlIl9A.s 			page 25


 1369              		.loc 1 301 0 is_stmt 0 discriminator 1
 1370 0150 DDE90001 		ldrd	r0, [sp]
 1371 0154 56A3     		adr	r3, .L206+8
 1372 0156 D3E90023 		ldrd	r2, [r3]
 1373 015a FFF7FEFF 		bl	__aeabi_dcmpgt
 1374              	.LVL109:
 1375 015e 18B3     		cbz	r0, .L153
 1376              		.loc 1 301 0 discriminator 2
 1377 0160 039B     		ldr	r3, [sp, #12]
 1378 0162 952B     		cmp	r3, #149
 1379 0164 20D8     		bhi	.L153
 1380              	.L152:
 1381              		.loc 1 302 0 is_stmt 1
 1382 0166 FFF7FEFF 		bl	get_last_sensor_input_direction
 1383              	.LVL110:
 1384              		.loc 1 303 0
 1385 016a 5A48     		ldr	r0, .L206+44
 1386 016c FFF7FEFF 		bl	puts
 1387              	.LVL111:
 1388              	.LBB58:
 1389              	.LBB59:
 1390              		.loc 1 148 0
 1391 0170 0020     		movs	r0, #0
 1392 0172 FFF7FEFF 		bl	left_motor_set_speed
 1393              	.LVL112:
 1394              		.loc 1 149 0
 1395 0176 0020     		movs	r0, #0
 1396 0178 FFF7FEFF 		bl	right_motor_set_speed
 1397              	.LVL113:
 1398              	.L151:
 1399              	.LBE59:
 1400              	.LBE58:
 1401              	.LBB60:
 1402              		.loc 1 340 0 discriminator 3
 1403 017c E4E80289 		strd	r8, [r4], #8
 1404              	.LVL114:
 1405              		.loc 1 339 0 discriminator 3
 1406 0180 A542     		cmp	r5, r4
 1407 0182 FBD1     		bne	.L151
 1408              	.LBE60:
 1409              		.loc 1 344 0
 1410 0184 3220     		movs	r0, #50
 1411 0186 FFF7FEFF 		bl	chThdSleep
 1412              	.LVL115:
 1413 018a 4EE7     		b	.L132
 1414              	.L139:
 1415              		.loc 1 281 0
 1416 018c FFF7FEFF 		bl	get_last_sensor_input_direction
 1417              	.LVL116:
 1418              		.loc 1 282 0
 1419 0190 5148     		ldr	r0, .L206+48
 1420 0192 FFF7FEFF 		bl	puts
 1421              	.LVL117:
 1422              	.LBB61:
 1423              	.LBB62:
 1424              		.loc 1 156 0
 1425 0196 6FF4BB70 		mvn	r0, #374
ARM GAS  /tmp/ccqlIl9A.s 			page 26


 1426 019a FFF7FEFF 		bl	left_motor_set_speed
 1427              	.LVL118:
 1428              		.loc 1 157 0
 1429 019e 6FF4BB70 		mvn	r0, #374
 1430 01a2 FFF7FEFF 		bl	right_motor_set_speed
 1431              	.LVL119:
 1432 01a6 E9E7     		b	.L151
 1433              	.LVL120:
 1434              	.L153:
 1435              	.LBE62:
 1436              	.LBE61:
 1437              		.loc 1 306 0
 1438 01a8 4549     		ldr	r1, .L206+24
 1439 01aa 4246     		mov	r2, r8
 1440 01ac 0E46     		mov	r6, r1
 1441 01ae 4B46     		mov	r3, r9
 1442 01b0 D1E90A01 		ldrd	r0, [r1, #40]
 1443 01b4 FFF7FEFF 		bl	__aeabi_dcmpeq
 1444              	.LVL121:
 1445 01b8 0028     		cmp	r0, #0
 1446 01ba 3BD0     		beq	.L155
 1447              		.loc 1 306 0 is_stmt 0 discriminator 1
 1448 01bc 4246     		mov	r2, r8
 1449 01be 4B46     		mov	r3, r9
 1450 01c0 D6E90C01 		ldrd	r0, [r6, #48]
 1451 01c4 FFF7FEFF 		bl	__aeabi_dcmpeq
 1452              	.LVL122:
 1453 01c8 0028     		cmp	r0, #0
 1454 01ca 33D0     		beq	.L155
 1455              		.loc 1 312 0 is_stmt 1
 1456 01cc 3C49     		ldr	r1, .L206+24
 1457 01ce 4246     		mov	r2, r8
 1458 01d0 0E46     		mov	r6, r1
 1459 01d2 4B46     		mov	r3, r9
 1460 01d4 D1E90201 		ldrd	r0, [r1, #8]
 1461 01d8 FFF7FEFF 		bl	__aeabi_dcmpeq
 1462              	.LVL123:
 1463 01dc 0028     		cmp	r0, #0
 1464 01de 37D0     		beq	.L158
 1465              		.loc 1 312 0 is_stmt 0 discriminator 1
 1466 01e0 4246     		mov	r2, r8
 1467 01e2 4B46     		mov	r3, r9
 1468 01e4 D6E90401 		ldrd	r0, [r6, #16]
 1469 01e8 FFF7FEFF 		bl	__aeabi_dcmpeq
 1470              	.LVL124:
 1471 01ec 80B3     		cbz	r0, .L158
 1472              		.loc 1 318 0 is_stmt 1
 1473 01ee 3449     		ldr	r1, .L206+24
 1474 01f0 4246     		mov	r2, r8
 1475 01f2 0E46     		mov	r6, r1
 1476 01f4 4B46     		mov	r3, r9
 1477 01f6 D1E90E01 		ldrd	r0, [r1, #56]
 1478 01fa D6E90067 		ldrd	r6, [r6]
 1479 01fe FFF7FEFF 		bl	__aeabi_dcmpeq
 1480              	.LVL125:
 1481 0202 98BB     		cbnz	r0, .L195
 1482              		.loc 1 318 0 is_stmt 0 discriminator 1
ARM GAS  /tmp/ccqlIl9A.s 			page 27


 1483 0204 3046     		mov	r0, r6
 1484 0206 3946     		mov	r1, r7
 1485 0208 4246     		mov	r2, r8
 1486 020a 4B46     		mov	r3, r9
 1487 020c FFF7FEFF 		bl	__aeabi_dcmpeq
 1488              	.LVL126:
 1489 0210 10B1     		cbz	r0, .L163
 1490              		.loc 1 318 0 discriminator 2
 1491 0212 039B     		ldr	r3, [sp, #12]
 1492 0214 962B     		cmp	r3, #150
 1493 0216 42D8     		bhi	.L205
 1494              	.L163:
 1495              		.loc 1 331 0 is_stmt 1
 1496 0218 FFF7FEFF 		bl	get_last_sensor_input_direction
 1497              	.LVL127:
 1498              		.loc 1 333 0
 1499 021c 2F48     		ldr	r0, .L206+52
 1500 021e FFF7FEFF 		bl	puts
 1501              	.LVL128:
 1502              	.LBB63:
 1503              	.LBB64:
 1504              		.loc 1 164 0
 1505 0222 40F27710 		movw	r0, #375
 1506 0226 FFF7FEFF 		bl	left_motor_set_speed
 1507              	.LVL129:
 1508              		.loc 1 165 0
 1509 022a 40F27710 		movw	r0, #375
 1510 022e FFF7FEFF 		bl	right_motor_set_speed
 1511              	.LVL130:
 1512 0232 A3E7     		b	.L151
 1513              	.LVL131:
 1514              	.L155:
 1515              	.LBE64:
 1516              	.LBE63:
 1517              		.loc 1 307 0
 1518 0234 FFF7FEFF 		bl	get_last_sensor_input_direction
 1519              	.LVL132:
 1520              	.L199:
 1521              		.loc 1 309 0
 1522 0238 2948     		ldr	r0, .L206+56
 1523              	.L197:
 1524              		.loc 1 321 0
 1525 023a FFF7FEFF 		bl	puts
 1526              	.LVL133:
 1527              	.LBB65:
 1528              	.LBB66:
 1529              		.loc 1 172 0
 1530 023e 6FF4BB70 		mvn	r0, #374
 1531 0242 FFF7FEFF 		bl	left_motor_set_speed
 1532              	.LVL134:
 1533              		.loc 1 173 0
 1534 0246 40F27710 		movw	r0, #375
 1535 024a FFF7FEFF 		bl	right_motor_set_speed
 1536              	.LVL135:
 1537 024e 95E7     		b	.L151
 1538              	.LVL136:
 1539              	.L158:
ARM GAS  /tmp/ccqlIl9A.s 			page 28


 1540              	.LBE66:
 1541              	.LBE65:
 1542              		.loc 1 313 0
 1543 0250 FFF7FEFF 		bl	get_last_sensor_input_direction
 1544              	.LVL137:
 1545              	.L200:
 1546              		.loc 1 315 0
 1547 0254 2348     		ldr	r0, .L206+60
 1548              	.L198:
 1549              		.loc 1 327 0
 1550 0256 FFF7FEFF 		bl	puts
 1551              	.LVL138:
 1552              	.LBB67:
 1553              	.LBB68:
 1554              		.loc 1 180 0
 1555 025a 40F27710 		movw	r0, #375
 1556 025e FFF7FEFF 		bl	left_motor_set_speed
 1557              	.LVL139:
 1558              		.loc 1 181 0
 1559 0262 6FF4BB70 		mvn	r0, #374
 1560 0266 FFF7FEFF 		bl	right_motor_set_speed
 1561              	.LVL140:
 1562 026a 87E7     		b	.L151
 1563              	.LVL141:
 1564              	.L195:
 1565              	.LBE68:
 1566              	.LBE67:
 1567              		.loc 1 324 0
 1568 026c 3046     		mov	r0, r6
 1569 026e 3946     		mov	r1, r7
 1570 0270 4246     		mov	r2, r8
 1571 0272 4B46     		mov	r3, r9
 1572 0274 FFF7FEFF 		bl	__aeabi_dcmpeq
 1573              	.LVL142:
 1574 0278 0028     		cmp	r0, #0
 1575 027a CDD1     		bne	.L163
 1576              		.loc 1 324 0 is_stmt 0 discriminator 2
 1577 027c 039B     		ldr	r3, [sp, #12]
 1578 027e 962B     		cmp	r3, #150
 1579 0280 CAD9     		bls	.L163
 1580              		.loc 1 325 0 is_stmt 1
 1581 0282 FFF7FEFF 		bl	get_last_sensor_input_direction
 1582              	.LVL143:
 1583              		.loc 1 327 0
 1584 0286 1848     		ldr	r0, .L206+64
 1585 0288 E5E7     		b	.L198
 1586              	.L204:
 1587              		.loc 1 291 0
 1588 028a 1848     		ldr	r0, .L206+68
 1589 028c FFF7FEFF 		bl	puts
 1590              	.LVL144:
 1591              		.loc 1 293 0
 1592 0290 174B     		ldr	r3, .L206+72
 1593 0292 1A68     		ldr	r2, [r3]
 1594 0294 174B     		ldr	r3, .L206+76
 1595 0296 1B68     		ldr	r3, [r3]
 1596 0298 9A42     		cmp	r2, r3
ARM GAS  /tmp/ccqlIl9A.s 			page 29


 1597 029a DBDD     		ble	.L200
 1598 029c CCE7     		b	.L199
 1599              	.L205:
 1600              		.loc 1 319 0
 1601 029e FFF7FEFF 		bl	get_last_sensor_input_direction
 1602              	.LVL145:
 1603              		.loc 1 321 0
 1604 02a2 1548     		ldr	r0, .L206+80
 1605 02a4 C9E7     		b	.L197
 1606              	.L207:
 1607 02a6 00BF     		.align	3
 1608              	.L206:
 1609 02a8 00000000 		.word	0
 1610 02ac 0000F03F 		.word	1072693248
 1611 02b0 00000000 		.word	0
 1612 02b4 00C06240 		.word	1080213504
 1613 02b8 00000000 		.word	__stack_chk_guard
 1614 02bc 40000000 		.word	.LANCHOR5+64
 1615 02c0 00000000 		.word	.LANCHOR5
 1616 02c4 00000000 		.word	.LANCHOR3
 1617 02c8 00005940 		.word	1079574528
 1618 02cc 00406F40 		.word	1081032704
 1619 02d0 00000000 		.word	.LANCHOR4
 1620 02d4 3C000000 		.word	.LC5
 1621 02d8 00000000 		.word	.LC1
 1622 02dc 5C000000 		.word	.LC8
 1623 02e0 20000000 		.word	.LC3
 1624 02e4 2C000000 		.word	.LC4
 1625 02e8 50000000 		.word	.LC7
 1626 02ec 10000000 		.word	.LC2
 1627 02f0 00000000 		.word	.LANCHOR6
 1628 02f4 00000000 		.word	.LANCHOR7
 1629 02f8 44000000 		.word	.LC6
 1630              		.cfi_endproc
 1631              	.LFE271:
 1632              		.size	main, .-main
 1633              		.section	.text.__stack_chk_fail,"ax",%progbits
 1634              		.align	1
 1635              		.p2align 4,,15
 1636              		.global	__stack_chk_fail
 1637              		.syntax unified
 1638              		.thumb
 1639              		.thumb_func
 1640              		.fpu fpv4-sp-d16
 1641              		.type	__stack_chk_fail, %function
 1642              	__stack_chk_fail:
 1643              	.LFB272:
 1644              		.loc 1 352 0
 1645              		.cfi_startproc
 1646              		@ args = 0, pretend = 0, frame = 8
 1647              		@ frame_needed = 0, uses_anonymous_args = 0
 1648 0000 00B5     		push	{lr}
 1649              		.cfi_def_cfa_offset 4
 1650              		.cfi_offset 14, -4
 1651 0002 084B     		ldr	r3, .L213
 1652 0004 83B0     		sub	sp, sp, #12
 1653              		.cfi_def_cfa_offset 16
ARM GAS  /tmp/ccqlIl9A.s 			page 30


 1654              		.loc 1 352 0
 1655 0006 1A68     		ldr	r2, [r3]
 1656 0008 0192     		str	r2, [sp, #4]
 1657              		.loc 1 353 0
 1658 000a 019A     		ldr	r2, [sp, #4]
 1659 000c 1B68     		ldr	r3, [r3]
 1660 000e 9A42     		cmp	r2, r3
 1661 0010 05D1     		bne	.L212
 1662 0012 0548     		ldr	r0, .L213+4
 1663              		.loc 1 354 0
 1664 0014 03B0     		add	sp, sp, #12
 1665              		.cfi_remember_state
 1666              		.cfi_def_cfa_offset 4
 1667              		@ sp needed
 1668 0016 5DF804EB 		ldr	lr, [sp], #4
 1669              		.cfi_restore 14
 1670              		.cfi_def_cfa_offset 0
 1671              		.loc 1 353 0
 1672 001a FFF7FEBF 		b	chSysHalt
 1673              	.LVL146:
 1674              	.L212:
 1675              		.cfi_restore_state
 1676 001e FFF7FEFF 		bl	__stack_chk_fail
 1677              	.LVL147:
 1678              	.L214:
 1679 0022 00BF     		.align	2
 1680              	.L213:
 1681 0024 00000000 		.word	__stack_chk_guard
 1682 0028 00000000 		.word	.LC9
 1683              		.cfi_endproc
 1684              	.LFE272:
 1685              		.size	__stack_chk_fail, .-__stack_chk_fail
 1686              		.global	__stack_chk_guard
 1687              		.global	bus_condvar
 1688              		.global	bus_lock
 1689              		.global	bus
 1690              		.global	cam_error
 1691              		.global	right_dir_counter
 1692              		.global	left_dir_counter
 1693              		.global	right_speed
 1694              		.global	left_speed
 1695              		.global	tof_value
 1696              		.global	proximity_weights
 1697              		.global	proximity_values
 1698              		.section	.bss.bus,"aw",%nobits
 1699              		.align	2
 1700              		.set	.LANCHOR2,. + 0
 1701              		.type	bus, %object
 1702              		.size	bus, 12
 1703              	bus:
 1704 0000 00000000 		.space	12
 1704      00000000 
 1704      00000000 
 1705              		.section	.bss.cam_error,"aw",%nobits
 1706              		.type	cam_error, %object
 1707              		.size	cam_error, 1
 1708              	cam_error:
ARM GAS  /tmp/ccqlIl9A.s 			page 31


 1709 0000 00       		.space	1
 1710              		.section	.bss.left_dir_counter,"aw",%nobits
 1711              		.align	2
 1712              		.set	.LANCHOR6,. + 0
 1713              		.type	left_dir_counter, %object
 1714              		.size	left_dir_counter, 4
 1715              	left_dir_counter:
 1716 0000 00000000 		.space	4
 1717              		.section	.bss.left_speed,"aw",%nobits
 1718              		.align	3
 1719              		.type	left_speed, %object
 1720              		.size	left_speed, 8
 1721              	left_speed:
 1722 0000 00000000 		.space	8
 1722      00000000 
 1723              		.section	.bss.proximity_values,"aw",%nobits
 1724              		.align	3
 1725              		.set	.LANCHOR3,. + 0
 1726              		.type	proximity_values, %object
 1727              		.size	proximity_values, 64
 1728              	proximity_values:
 1729 0000 00000000 		.space	64
 1729      00000000 
 1729      00000000 
 1729      00000000 
 1729      00000000 
 1730              		.section	.bss.proximity_weights,"aw",%nobits
 1731              		.align	3
 1732              		.set	.LANCHOR5,. + 0
 1733              		.type	proximity_weights, %object
 1734              		.size	proximity_weights, 64
 1735              	proximity_weights:
 1736 0000 00000000 		.space	64
 1736      00000000 
 1736      00000000 
 1736      00000000 
 1736      00000000 
 1737              		.section	.bss.right_dir_counter,"aw",%nobits
 1738              		.align	2
 1739              		.set	.LANCHOR7,. + 0
 1740              		.type	right_dir_counter, %object
 1741              		.size	right_dir_counter, 4
 1742              	right_dir_counter:
 1743 0000 00000000 		.space	4
 1744              		.section	.bss.right_speed,"aw",%nobits
 1745              		.align	3
 1746              		.type	right_speed, %object
 1747              		.size	right_speed, 8
 1748              	right_speed:
 1749 0000 00000000 		.space	8
 1749      00000000 
 1750              		.section	.bss.tof_value,"aw",%nobits
 1751              		.align	1
 1752              		.set	.LANCHOR4,. + 0
 1753              		.type	tof_value, %object
 1754              		.size	tof_value, 2
 1755              	tof_value:
ARM GAS  /tmp/ccqlIl9A.s 			page 32


 1756 0000 0000     		.space	2
 1757              		.section	.data.__stack_chk_guard,"aw",%progbits
 1758              		.align	2
 1759              		.type	__stack_chk_guard, %object
 1760              		.size	__stack_chk_guard, 4
 1761              	__stack_chk_guard:
 1762 0000 96E3DEE2 		.word	-488709226
 1763              		.section	.data.bus_condvar,"aw",%progbits
 1764              		.align	2
 1765              		.set	.LANCHOR0,. + 0
 1766              		.type	bus_condvar, %object
 1767              		.size	bus_condvar, 8
 1768              	bus_condvar:
 1769 0000 00000000 		.word	bus_condvar
 1770 0004 00000000 		.word	bus_condvar
 1771              		.section	.data.bus_lock,"aw",%progbits
 1772              		.align	2
 1773              		.set	.LANCHOR1,. + 0
 1774              		.type	bus_lock, %object
 1775              		.size	bus_lock, 20
 1776              	bus_lock:
 1777 0000 00000000 		.word	bus_lock
 1778 0004 00000000 		.word	bus_lock
 1779 0008 00000000 		.word	0
 1780 000c 00000000 		.word	0
 1781 0010 00000000 		.word	0
 1782              		.section	.rodata.__stack_chk_fail.str1.4,"aMS",%progbits,1
 1783              		.align	2
 1784              	.LC9:
 1785 0000 53746163 		.ascii	"Stack smashing detected\000"
 1785      6B20736D 
 1785      61736869 
 1785      6E672064 
 1785      65746563 
 1786              		.section	.rodata.main.str1.4,"aMS",%progbits,1
 1787              		.align	2
 1788              	.LC1:
 1789 0000 4D6F7665 		.ascii	"Move backwards\000"
 1789      20626163 
 1789      6B776172 
 1789      647300
 1790 000f 00       		.space	1
 1791              	.LC2:
 1792 0010 4C6F7374 		.ascii	"Lost connection\000"
 1792      20636F6E 
 1792      6E656374 
 1792      696F6E00 
 1793              	.LC3:
 1794 0020 526F7461 		.ascii	"Rotate left\000"
 1794      7465206C 
 1794      65667400 
 1795              	.LC4:
 1796 002c 526F7461 		.ascii	"Rotate right\000"
 1796      74652072 
 1796      69676874 
 1796      00
 1797 0039 000000   		.space	3
ARM GAS  /tmp/ccqlIl9A.s 			page 33


 1798              	.LC5:
 1799 003c 52656163 		.ascii	"Reached\000"
 1799      68656400 
 1800              	.LC6:
 1801 0044 4D6F7665 		.ascii	"Move left\000"
 1801      206C6566 
 1801      7400
 1802 004e 0000     		.space	2
 1803              	.LC7:
 1804 0050 4D6F7665 		.ascii	"Move right\000"
 1804      20726967 
 1804      687400
 1805 005b 00       		.space	1
 1806              	.LC8:
 1807 005c 4D6F7665 		.ascii	"Move forward\000"
 1807      20666F72 
 1807      77617264 
 1807      00
 1808              		.section	.rodata.send_bt_values.str1.4,"aMS",%progbits,1
 1809              		.align	2
 1810              	.LC0:
 1811 0000 25642C25 		.ascii	"%d,%d,%d,%d,%d,%d,%d,%d,%d,%d,%d\012\000"
 1811      642C2564 
 1811      2C25642C 
 1811      25642C25 
 1811      642C2564 
 1812              		.text
 1813              	.Letext0:
 1814              		.file 2 "/home/leander/uos_codes/epuck2_lab/Eclipse_e-puck2/Tools/gcc-arm-none-eabi-7-2017-q4-majo
 1815              		.file 3 "/home/leander/uos_codes/epuck2_lab/Eclipse_e-puck2/Tools/gcc-arm-none-eabi-7-2017-q4-majo
 1816              		.file 4 "/home/leander/uos_codes/epuck2_lab/Eclipse_e-puck2/Tools/gcc-arm-none-eabi-7-2017-q4-majo
 1817              		.file 5 "/home/leander/uos_codes/epuck2_lab/Eclipse_e-puck2/Tools/gcc-arm-none-eabi-7-2017-q4-majo
 1818              		.file 6 "/home/leander/uos_codes/epuck2_lab/Eclipse_e-puck2/Tools/gcc-arm-none-eabi-7-2017-q4-majo
 1819              		.file 7 "/home/leander/uos_codes/epuck2_lab/Eclipse_e-puck2/Tools/gcc-arm-none-eabi-7-2017-q4-majo
 1820              		.file 8 "/home/leander/uos_codes/epuck2_lab/Eclipse_e-puck2/Tools/gcc-arm-none-eabi-7-2017-q4-majo
 1821              		.file 9 "/home/leander/uos_codes/epuck2_lab/Eclipse_e-puck2/Tools/gcc-arm-none-eabi-7-2017-q4-majo
 1822              		.file 10 "../e-puck2_main-processor/ChibiOS//os/rt/ports/ARMCMx/compilers/GCC/chtypes.h"
 1823              		.file 11 "../e-puck2_main-processor/ChibiOS//os/rt/include/chsystypes.h"
 1824              		.file 12 "../e-puck2_main-processor/ChibiOS//os/rt/include/chschd.h"
 1825              		.file 13 "../e-puck2_main-processor/ChibiOS//os/ext/CMSIS/include/core_cm4.h"
 1826              		.file 14 "../e-puck2_main-processor/ChibiOS//os/ext/CMSIS/ST/system_stm32f4xx.h"
 1827              		.file 15 "../e-puck2_main-processor/ChibiOS//os/ext/CMSIS/ST/stm32f407xx.h"
 1828              		.file 16 "../e-puck2_main-processor/ChibiOS//os/rt/ports/ARMCMx/chcore.h"
 1829              		.file 17 "../e-puck2_main-processor/ChibiOS//os/rt/ports/ARMCMx/chcore_v7m.h"
 1830              		.file 18 "../e-puck2_main-processor/ChibiOS//os/rt/include/chdebug.h"
 1831              		.file 19 "../e-puck2_main-processor/ChibiOS//os/rt/include/chtm.h"
 1832              		.file 20 "../e-puck2_main-processor/ChibiOS//os/rt/include/chstats.h"
 1833              		.file 21 "../e-puck2_main-processor/ChibiOS//os/rt/include/chsem.h"
 1834              		.file 22 "../e-puck2_main-processor/ChibiOS//os/rt/include/chmtx.h"
 1835              		.file 23 "../e-puck2_main-processor/ChibiOS//os/rt/include/chregistry.h"
 1836              		.file 24 "../e-puck2_main-processor/ChibiOS//os/rt/include/chcond.h"
 1837              		.file 25 "../e-puck2_main-processor/ChibiOS//os/rt/include/chevents.h"
 1838              		.file 26 "../e-puck2_main-processor/ChibiOS//os/rt/include/chqueues.h"
 1839              		.file 27 "../e-puck2_main-processor/ChibiOS//os/hal/ports/STM32/STM32F4xx/stm32_dma.h"
 1840              		.file 28 "../e-puck2_main-processor/ChibiOS//os/hal/include/hal_ioblock.h"
 1841              		.file 29 "../e-puck2_main-processor/ChibiOS//os/hal/ports/STM32/LLD/GPIOv2/pal_lld.h"
 1842              		.file 30 "../e-puck2_main-processor/ChibiOS//os/hal/include/adc.h"
ARM GAS  /tmp/ccqlIl9A.s 			page 34


 1843              		.file 31 "../e-puck2_main-processor/ChibiOS//os/hal/ports/STM32/STM32F4xx/adc_lld.h"
 1844              		.file 32 "../e-puck2_main-processor/ChibiOS//os/hal/include/can.h"
 1845              		.file 33 "../e-puck2_main-processor/ChibiOS//os/hal/ports/STM32/LLD/can_lld.h"
 1846              		.file 34 "../e-puck2_main-processor/ChibiOS//os/hal/include/dac.h"
 1847              		.file 35 "../e-puck2_main-processor/ChibiOS//os/hal/ports/STM32/LLD/DACv1/dac_lld.h"
 1848              		.file 36 "../e-puck2_main-processor/ChibiOS//os/hal/include/ext.h"
 1849              		.file 37 "../e-puck2_main-processor/ChibiOS//os/hal/ports/STM32/LLD/ext_lld.h"
 1850              		.file 38 "../e-puck2_main-processor/ChibiOS//os/hal/include/gpt.h"
 1851              		.file 39 "../e-puck2_main-processor/ChibiOS//os/hal/ports/STM32/LLD/TIMv1/gpt_lld.h"
 1852              		.file 40 "../e-puck2_main-processor/ChibiOS//os/hal/ports/STM32/LLD/TIMv1/stm32_tim.h"
 1853              		.file 41 "../e-puck2_main-processor/ChibiOS//os/hal/include/i2c.h"
 1854              		.file 42 "../e-puck2_main-processor/ChibiOS//os/hal/ports/STM32/LLD/I2Cv1/i2c_lld.h"
 1855              		.file 43 "../e-puck2_main-processor/ChibiOS//os/hal/include/i2s.h"
 1856              		.file 44 "../e-puck2_main-processor/ChibiOS//os/hal/ports/STM32/LLD/SPIv1/i2s_lld.h"
 1857              		.file 45 "../e-puck2_main-processor/ChibiOS//os/hal/include/pwm.h"
 1858              		.file 46 "../e-puck2_main-processor/ChibiOS//os/hal/ports/STM32/LLD/TIMv1/pwm_lld.h"
 1859              		.file 47 "../e-puck2_main-processor/ChibiOS//os/hal/include/serial.h"
 1860              		.file 48 "../e-puck2_main-processor/ChibiOS//os/hal/ports/STM32/LLD/USARTv1/serial_lld.h"
 1861              		.file 49 "../e-puck2_main-processor/ChibiOS//os/hal/include/sdc.h"
 1862              		.file 50 "../e-puck2_main-processor/ChibiOS//os/hal/ports/STM32/LLD/sdc_lld.h"
 1863              		.file 51 "../e-puck2_main-processor/ChibiOS//os/hal/include/spi.h"
 1864              		.file 52 "../e-puck2_main-processor/ChibiOS//os/hal/ports/STM32/LLD/SPIv1/spi_lld.h"
 1865              		.file 53 "../e-puck2_main-processor/ChibiOS//os/hal/include/usb.h"
 1866              		.file 54 "../e-puck2_main-processor/ChibiOS//os/hal/ports/STM32/LLD/OTGv1/usb_lld.h"
 1867              		.file 55 "../e-puck2_main-processor/ChibiOS//os/hal/ports/STM32/LLD/OTGv1/stm32_otg.h"
 1868              		.file 56 "/home/leander/uos_codes/epuck2_lab/Eclipse_e-puck2/Tools/gcc-arm-none-eabi-7-2017-q4-maj
 1869              		.file 57 "../e-puck2_main-processor/src/msgbus/messagebus.h"
 1870              		.file 58 "../e-puck2_main-processor/src/parameter/parameter.h"
 1871              		.file 59 "./main.h"
 1872              		.file 60 "../e-puck2_main-processor/src/motors.h"
 1873              		.file 61 "../e-puck2_main-processor/ChibiOS//os/rt/include/chsys.h"
 1874              		.file 62 "../e-puck2_main-processor/src/selector.h"
 1875              		.file 63 "../e-puck2_main-processor/ChibiOS//os/rt/include/chthreads.h"
 1876              		.file 64 "../e-puck2_main-processor/src/sensors/proximity.h"
 1877              		.file 65 "../e-puck2_main-processor/src/sensors/VL53L0X/VL53L0X.h"
 1878              		.file 66 "/home/leander/uos_codes/epuck2_lab/Eclipse_e-puck2/Tools/gcc-arm-none-eabi-7-2017-q4-maj
 1879              		.file 67 "../e-puck2_main-processor/src/epuck1x/uart/e_uart_char.h"
 1880              		.file 68 "../e-puck2_main-processor/ChibiOS//os/hal/include/hal.h"
 1881              		.file 69 "../e-puck2_main-processor/src/memory_protection.h"
 1882              		.file 70 "../e-puck2_main-processor/src/leds.h"
 1883              		.file 71 "../e-puck2_main-processor/src/spi_comm.h"
 1884              		.file 72 "../e-puck2_main-processor/src/serial_comm.h"
 1885              		.file 73 "<built-in>"