ARM GAS  /tmp/cccQOMoQ.s 			page 1


   1              		.cpu cortex-m4
   2              		.eabi_attribute 27, 1
   3              		.eabi_attribute 28, 1
   4              		.eabi_attribute 20, 1
   5              		.eabi_attribute 21, 1
   6              		.eabi_attribute 23, 3
   7              		.eabi_attribute 24, 1
   8              		.eabi_attribute 25, 1
   9              		.eabi_attribute 26, 1
  10              		.eabi_attribute 30, 2
  11              		.eabi_attribute 34, 1
  12              		.eabi_attribute 18, 4
  13              		.file	"play_sound_file.c"
  14              		.text
  15              	.Ltext0:
  16              		.cfi_sections	.debug_frame
  17              		.section	.text.end_cb,"ax",%progbits
  18              		.align	1
  19              		.p2align 4,,15
  20              		.syntax unified
  21              		.thumb
  22              		.thumb_func
  23              		.fpu fpv4-sp-d16
  24              		.type	end_cb, %function
  25              	end_cb:
  26              	.LFB257:
  27              		.file 1 "../e-puck2_main-processor/src/audio/play_sound_file.c"
  28              		.loc 1 56 0
  29              		.cfi_startproc
  30              		@ args = 0, pretend = 0, frame = 8
  31              		@ frame_needed = 0, uses_anonymous_args = 0
  32              	.LVL0:
  33 0000 70B5     		push	{r4, r5, r6, lr}
  34              		.cfi_def_cfa_offset 16
  35              		.cfi_offset 4, -16
  36              		.cfi_offset 5, -12
  37              		.cfi_offset 6, -8
  38              		.cfi_offset 14, -4
  39              		.loc 1 64 0
  40 0002 264B     		ldr	r3, .L21
  41              		.loc 1 56 0
  42 0004 264C     		ldr	r4, .L21+4
  43 0006 82B0     		sub	sp, sp, #8
  44              		.cfi_def_cfa_offset 24
  45              		.loc 1 56 0
  46 0008 2268     		ldr	r2, [r4]
  47              	.LVL1:
  48 000a 0192     		str	r2, [sp, #4]
  49              		.loc 1 64 0
  50 000c 9942     		cmp	r1, r3
  51 000e 2DD0     		beq	.L1
  52              		.loc 1 64 0 is_stmt 0 discriminator 1
  53 0010 244A     		ldr	r2, .L21+8
  54 0012 9142     		cmp	r1, r2
  55 0014 2AD0     		beq	.L1
  56              	.LVL2:
  57              	.LBB97:
ARM GAS  /tmp/cccQOMoQ.s 			page 2


  58              	.LBB98:
  59              		.loc 1 69 0 is_stmt 1
  60 0016 244D     		ldr	r5, .L21+12
  61 0018 2968     		ldr	r1, [r5]
  62              	.LVL3:
  63              		.loc 1 70 0
  64 001a 9942     		cmp	r1, r3
  65 001c 08BF     		it	eq
  66 001e 1346     		moveq	r3, r2
  67 0020 2B60     		str	r3, [r5]
  68              	.LVL4:
  69              	.LBB99:
  70              	.LBB100:
  71              	.LBB101:
  72              	.LBB102:
  73              	.LBB103:
  74              	.LBB104:
  75              		.file 2 "../e-puck2_main-processor/ChibiOS//os/ext/CMSIS/include/core_cmFunc.h"
  76              		.loc 2 546 0
  77 0022 2023     		movs	r3, #32
  78              		.syntax unified
  79              	@ 546 "../e-puck2_main-processor/ChibiOS//os/ext/CMSIS/include/core_cmFunc.h" 1
  80 0024 83F31188 		MSR basepri, r3
  81              	@ 0 "" 2
  82              	.LVL5:
  83              		.thumb
  84              		.syntax unified
  85              	.LBE104:
  86              	.LBE103:
  87              	.LBE102:
  88              	.LBE101:
  89              	.LBE100:
  90              	.LBE99:
  91              		.loc 1 77 0
  92 0028 204E     		ldr	r6, .L21+16
  93              	.LBB106:
  94              	.LBB105:
  95              		.file 3 "../e-puck2_main-processor/ChibiOS//os/rt/include/chsys.h"
  96              		.loc 3 389 0
  97 002a FFF7FEFF 		bl	_stats_start_measure_crit_isr
  98              	.LVL6:
  99              		.loc 3 390 0
 100 002e FFF7FEFF 		bl	_dbg_check_lock_from_isr
 101              	.LVL7:
 102              	.LBE105:
 103              	.LBE106:
 104              		.loc 1 77 0
 105 0032 3168     		ldr	r1, [r6]
 106 0034 01B3     		cbz	r1, .L5
 107              		.loc 1 80 0
 108 0036 0129     		cmp	r1, #1
 109 0038 2CD9     		bls	.L12
 110 003a CB07     		lsls	r3, r1, #31
 111 003c 27D4     		bmi	.L19
 112              	.L6:
 113              		.loc 1 83 0
 114 003e 1C4B     		ldr	r3, .L21+20
ARM GAS  /tmp/cccQOMoQ.s 			page 3


 115 0040 2868     		ldr	r0, [r5]
 116 0042 1A68     		ldr	r2, [r3]
 117 0044 FFF7FEFF 		bl	dac_change_bufferI
 118              	.LVL8:
 119              		.loc 1 86 0
 120 0048 3368     		ldr	r3, [r6]
 121 004a FF2B     		cmp	r3, #255
 122              		.loc 1 87 0
 123 004c 9CBF     		itt	ls
 124 004e 0023     		movls	r3, #0
 125 0050 3360     		strls	r3, [r6]
 126              	.LVL9:
 127              	.LBB107:
 128              	.LBB108:
 129              		.file 4 "../e-puck2_main-processor/ChibiOS//os/rt/include/chbsem.h"
 130              		.loc 4 268 0
 131 0052 FFF7FEFF 		bl	chDbgCheckClassI
 132              	.LVL10:
 133              		.loc 4 270 0
 134 0056 1748     		ldr	r0, .L21+24
 135 0058 8368     		ldr	r3, [r0, #8]
 136 005a 002B     		cmp	r3, #0
 137 005c 14DD     		ble	.L17
 138              	.LVL11:
 139              	.L9:
 140              	.LBE108:
 141              	.LBE107:
 142              	.LBB109:
 143              	.LBB110:
 144              		.loc 3 408 0
 145 005e FFF7FEFF 		bl	_dbg_check_unlock_from_isr
 146              	.LVL12:
 147              		.loc 3 409 0
 148 0062 FFF7FEFF 		bl	_stats_stop_measure_crit_isr
 149              	.LVL13:
 150              	.LBB111:
 151              	.LBB112:
 152              	.LBB113:
 153              	.LBB114:
 154              		.loc 2 546 0
 155 0066 0023     		movs	r3, #0
 156              		.syntax unified
 157              	@ 546 "../e-puck2_main-processor/ChibiOS//os/ext/CMSIS/include/core_cmFunc.h" 1
 158 0068 83F31188 		MSR basepri, r3
 159              	@ 0 "" 2
 160              	.LVL14:
 161              		.thumb
 162              		.syntax unified
 163              	.L1:
 164              	.LBE114:
 165              	.LBE113:
 166              	.LBE112:
 167              	.LBE111:
 168              	.LBE110:
 169              	.LBE109:
 170              	.LBE98:
 171              	.LBE97:
ARM GAS  /tmp/cccQOMoQ.s 			page 4


 172              		.loc 1 96 0
 173 006c 019A     		ldr	r2, [sp, #4]
 174 006e 2368     		ldr	r3, [r4]
 175 0070 9A42     		cmp	r2, r3
 176 0072 11D1     		bne	.L20
 177 0074 02B0     		add	sp, sp, #8
 178              		.cfi_remember_state
 179              		.cfi_def_cfa_offset 16
 180              		@ sp needed
 181 0076 70BD     		pop	{r4, r5, r6, pc}
 182              	.LVL15:
 183              	.L5:
 184              		.cfi_restore_state
 185              	.LBB118:
 186              	.LBB117:
 187              		.loc 1 92 0
 188 0078 FFF7FEFF 		bl	dac_stopI
 189              	.LVL16:
 190              	.LBB115:
 191              	.LBB116:
 192              		.loc 4 268 0
 193 007c FFF7FEFF 		bl	chDbgCheckClassI
 194              	.LVL17:
 195              		.loc 4 270 0
 196 0080 0D48     		ldr	r0, .L21+28
 197 0082 8368     		ldr	r3, [r0, #8]
 198 0084 002B     		cmp	r3, #0
 199 0086 EADC     		bgt	.L9
 200              	.LVL18:
 201              	.L17:
 202              		.loc 4 271 0
 203 0088 FFF7FEFF 		bl	chSemSignalI
 204              	.LVL19:
 205 008c E7E7     		b	.L9
 206              	.L19:
 207              	.LBE116:
 208              	.LBE115:
 209              		.loc 1 81 0
 210 008e 0139     		subs	r1, r1, #1
 211 0090 3160     		str	r1, [r6]
 212 0092 D4E7     		b	.L6
 213              	.L12:
 214              		.loc 1 80 0
 215 0094 0121     		movs	r1, #1
 216 0096 D2E7     		b	.L6
 217              	.LVL20:
 218              	.L20:
 219              	.LBE117:
 220              	.LBE118:
 221              		.loc 1 96 0
 222 0098 FFF7FEFF 		bl	__stack_chk_fail
 223              	.LVL21:
 224              	.L22:
 225              		.align	2
 226              	.L21:
 227 009c 00000000 		.word	.LANCHOR0
 228 00a0 00000000 		.word	__stack_chk_guard
ARM GAS  /tmp/cccQOMoQ.s 			page 5


 229 00a4 00000000 		.word	.LANCHOR1
 230 00a8 00000000 		.word	.LANCHOR2
 231 00ac 00000000 		.word	.LANCHOR3
 232 00b0 00000000 		.word	.LANCHOR4
 233 00b4 00000000 		.word	.LANCHOR5
 234 00b8 00000000 		.word	.LANCHOR6
 235              		.cfi_endproc
 236              	.LFE257:
 237              		.size	end_cb, .-end_cb
 238              		.section	.text.waitSoundFileHasFinished.part.1,"ax",%progbits
 239              		.align	1
 240              		.p2align 4,,15
 241              		.syntax unified
 242              		.thumb
 243              		.thumb_func
 244              		.fpu fpv4-sp-d16
 245              		.type	waitSoundFileHasFinished.part.1, %function
 246              	waitSoundFileHasFinished.part.1:
 247              	.LFB266:
 248              		.loc 1 282 0
 249              		.cfi_startproc
 250              		@ args = 0, pretend = 0, frame = 8
 251              		@ frame_needed = 0, uses_anonymous_args = 0
 252 0000 10B5     		push	{r4, lr}
 253              		.cfi_def_cfa_offset 8
 254              		.cfi_offset 4, -8
 255              		.cfi_offset 14, -4
 256 0002 0B4C     		ldr	r4, .L28
 257              		.loc 1 286 0
 258 0004 0B48     		ldr	r0, .L28+4
 259              		.loc 1 282 0
 260 0006 2368     		ldr	r3, [r4]
 261 0008 82B0     		sub	sp, sp, #8
 262              		.cfi_def_cfa_offset 16
 263              		.loc 1 282 0
 264 000a 0193     		str	r3, [sp, #4]
 265              		.loc 1 286 0
 266 000c FFF7FEFF 		bl	chMtxLock
 267              	.LVL22:
 268              		.loc 1 287 0
 269 0010 0948     		ldr	r0, .L28+8
 270 0012 FFF7FEFF 		bl	chCondWait
 271              	.LVL23:
 272              		.loc 1 288 0
 273 0016 019A     		ldr	r2, [sp, #4]
 274 0018 2368     		ldr	r3, [r4]
 275 001a 9A42     		cmp	r2, r3
 276 001c 05D1     		bne	.L27
 277 001e 0548     		ldr	r0, .L28+4
 278              		.loc 1 290 0
 279 0020 02B0     		add	sp, sp, #8
 280              		.cfi_remember_state
 281              		.cfi_def_cfa_offset 8
 282              		@ sp needed
 283 0022 BDE81040 		pop	{r4, lr}
 284              		.cfi_restore 14
 285              		.cfi_restore 4
ARM GAS  /tmp/cccQOMoQ.s 			page 6


 286              		.cfi_def_cfa_offset 0
 287              		.loc 1 288 0
 288 0026 FFF7FEBF 		b	chMtxUnlock
 289              	.LVL24:
 290              	.L27:
 291              		.cfi_restore_state
 292 002a FFF7FEFF 		bl	__stack_chk_fail
 293              	.LVL25:
 294              	.L29:
 295 002e 00BF     		.align	2
 296              	.L28:
 297 0030 00000000 		.word	__stack_chk_guard
 298 0034 00000000 		.word	.LANCHOR7
 299 0038 00000000 		.word	.LANCHOR8
 300              		.cfi_endproc
 301              	.LFE266:
 302              		.size	waitSoundFileHasFinished.part.1, .-waitSoundFileHasFinished.part.1
 303              		.section	.text.playWAVFile,"ax",%progbits
 304              		.align	1
 305              		.p2align 4,,15
 306              		.global	playWAVFile
 307              		.syntax unified
 308              		.thumb
 309              		.thumb_func
 310              		.fpu fpv4-sp-d16
 311              		.type	playWAVFile, %function
 312              	playWAVFile:
 313              	.LFB258:
 314              		.loc 1 104 0
 315              		.cfi_startproc
 316              		@ args = 0, pretend = 0, frame = 560
 317              		@ frame_needed = 0, uses_anonymous_args = 0
 318              	.LVL26:
 319 0000 2DE9F04F 		push	{r4, r5, r6, r7, r8, r9, r10, fp, lr}
 320              		.cfi_def_cfa_offset 36
 321              		.cfi_offset 4, -36
 322              		.cfi_offset 5, -32
 323              		.cfi_offset 6, -28
 324              		.cfi_offset 7, -24
 325              		.cfi_offset 8, -20
 326              		.cfi_offset 9, -16
 327              		.cfi_offset 10, -12
 328              		.cfi_offset 11, -8
 329              		.cfi_offset 14, -4
 330 0004 5C4E     		ldr	r6, .L72
 331 0006 ADF50D7D 		sub	sp, sp, #564
 332              		.cfi_def_cfa_offset 600
 333              		.loc 1 104 0
 334 000a 3368     		ldr	r3, [r6]
 335 000c 8B93     		str	r3, [sp, #556]
 336              		.loc 1 108 0
 337 000e 0023     		movs	r3, #0
 338              		.loc 1 104 0
 339 0010 0446     		mov	r4, r0
 340              		.loc 1 108 0
 341 0012 0093     		str	r3, [sp]
 342              	.LVL27:
ARM GAS  /tmp/cccQOMoQ.s 			page 7


 343              		.loc 1 115 0
 344 0014 FFF7FEFF 		bl	mountSDCard
 345              	.LVL28:
 346 0018 48B9     		cbnz	r0, .L31
 347              	.LVL29:
 348              	.L68:
 349              		.loc 1 134 0
 350 001a 0120     		movs	r0, #1
 351              	.L32:
 352              		.loc 1 212 0
 353 001c 8B9A     		ldr	r2, [sp, #556]
 354 001e 3368     		ldr	r3, [r6]
 355 0020 9A42     		cmp	r2, r3
 356 0022 40F0A280 		bne	.L69
 357 0026 0DF50D7D 		add	sp, sp, #564
 358              		.cfi_remember_state
 359              		.cfi_def_cfa_offset 36
 360              		@ sp needed
 361 002a BDE8F08F 		pop	{r4, r5, r6, r7, r8, r9, r10, fp, pc}
 362              	.LVL30:
 363              	.L31:
 364              		.cfi_restore_state
 365 002e 0546     		mov	r5, r0
 366              		.loc 1 120 0
 367 0030 2146     		mov	r1, r4
 368 0032 01A8     		add	r0, sp, #4
 369 0034 0122     		movs	r2, #1
 370 0036 FFF7FEFF 		bl	f_open
 371              	.LVL31:
 372              		.loc 1 121 0
 373 003a 0028     		cmp	r0, #0
 374 003c EDD1     		bne	.L68
 375              		.loc 1 126 0
 376 003e 4F4C     		ldr	r4, .L72+4
 377              	.LVL32:
 378 0040 DFF854A1 		ldr	r10, .L72+32
 379              		.loc 1 131 0
 380 0044 2146     		mov	r1, r4
 381 0046 6B46     		mov	r3, sp
 382 0048 2C22     		movs	r2, #44
 383 004a 01A8     		add	r0, sp, #4
 384              	.LVL33:
 385              		.loc 1 126 0
 386 004c CAF80040 		str	r4, [r10]
 387              	.LVL34:
 388              		.loc 1 131 0
 389 0050 FFF7FEFF 		bl	f_read
 390              	.LVL35:
 391              		.loc 1 132 0
 392 0054 0028     		cmp	r0, #0
 393 0056 70D1     		bne	.L35
 394              		.loc 1 138 0
 395 0058 DFF84081 		ldr	r8, .L72+36
 396              		.loc 1 146 0
 397 005c 484F     		ldr	r7, .L72+8
 398              		.loc 1 138 0
 399 005e A8F80000 		strh	r0, [r8]	@ movhi
ARM GAS  /tmp/cccQOMoQ.s 			page 8


 400              		.loc 1 140 0
 401 0062 A146     		mov	r9, r4
 402              	.LVL36:
 403              	.L40:
 404 0064 6B46     		mov	r3, sp
 405 0066 4FF40072 		mov	r2, #512
 406 006a 4946     		mov	r1, r9
 407 006c 01A8     		add	r0, sp, #4
 408 006e FFF7FEFF 		bl	f_read
 409              	.LVL37:
 410              		.loc 1 141 0
 411 0072 0028     		cmp	r0, #0
 412 0074 61D1     		bne	.L35
 413              		.loc 1 146 0
 414 0076 0099     		ldr	r1, [sp]
 415 0078 4908     		lsrs	r1, r1, #1
 416 007a 3960     		str	r1, [r7]
 417              	.LVL38:
 418              		.loc 1 147 0
 419 007c B1B1     		cbz	r1, .L36
 420 007e B8F800C0 		ldrh	ip, [r8]
 421 0082 0346     		mov	r3, r0
 422 0084 0246     		mov	r2, r0
 423              	.LVL39:
 424              	.L38:
 425              		.loc 1 148 0
 426 0086 34F91220 		ldrsh	r2, [r4, r2, lsl #1]
 427 008a 002A     		cmp	r2, #0
 428 008c B8BF     		it	lt
 429 008e 5242     		rsblt	r2, r2, #0
 430              		.loc 1 147 0
 431 0090 0133     		adds	r3, r3, #1
 432              	.LVL40:
 433              		.loc 1 148 0
 434 0092 6245     		cmp	r2, ip
 435              		.loc 1 147 0
 436 0094 9BB2     		uxth	r3, r3
 437              	.LVL41:
 438              		.loc 1 149 0
 439 0096 C4BF     		itt	gt
 440 0098 1FFA82FC 		uxthgt	ip, r2
 441 009c 2846     		movgt	r0, r5
 442              		.loc 1 147 0
 443 009e 9942     		cmp	r1, r3
 444 00a0 1A46     		mov	r2, r3
 445 00a2 F0D8     		bhi	.L38
 446 00a4 0028     		cmp	r0, #0
 447 00a6 62D1     		bne	.L70
 448              	.L39:
 449              		.loc 1 152 0
 450 00a8 FF29     		cmp	r1, #255
 451 00aa DBD8     		bhi	.L40
 452              	.LVL42:
 453              	.L36:
 454              		.loc 1 153 0
 455 00ac 2C21     		movs	r1, #44
 456 00ae 01A8     		add	r0, sp, #4
ARM GAS  /tmp/cccQOMoQ.s 			page 9


 457 00b0 FFF7FEFF 		bl	f_lseek
 458              	.LVL43:
 459              		.loc 1 127 0
 460 00b4 314D     		ldr	r5, .L72+4
 461 00b6 DFF8E8B0 		ldr	fp, .L72+40
 462              		.loc 1 109 0
 463 00ba 4FF00109 		mov	r9, #1
 464              	.LVL44:
 465              	.L41:
 466              		.loc 1 158 0
 467 00be 9BF80030 		ldrb	r3, [fp]	@ zero_extendqisi2
 468 00c2 002B     		cmp	r3, #0
 469 00c4 4ED0     		beq	.L71
 470              		.loc 1 165 0
 471 00c6 6B46     		mov	r3, sp
 472 00c8 4FF40072 		mov	r2, #512
 473 00cc 2946     		mov	r1, r5
 474 00ce 01A8     		add	r0, sp, #4
 475 00d0 FFF7FEFF 		bl	f_read
 476              	.LVL45:
 477              		.loc 1 166 0
 478 00d4 88BB     		cbnz	r0, .L35
 479              		.loc 1 172 0
 480 00d6 0099     		ldr	r1, [sp]
 481 00d8 4908     		lsrs	r1, r1, #1
 482 00da 3960     		str	r1, [r7]
 483              	.LVL46:
 484              		.loc 1 177 0
 485 00dc C9B1     		cbz	r1, .L44
 486              		.loc 1 179 0
 487 00de 294A     		ldr	r2, .L72+12
 488 00e0 B8F80030 		ldrh	r3, [r8]
 489 00e4 92F800E0 		ldrb	lr, [r2]	@ zero_extendqisi2
 490 00e8 4FF0640C 		mov	ip, #100
 491              		.loc 1 177 0
 492 00ec 0246     		mov	r2, r0
 493              		.loc 1 179 0
 494 00ee 0CFB03FC 		mul	ip, ip, r3
 495              	.LVL47:
 496              	.L45:
 497              		.loc 1 178 0 discriminator 3
 498 00f2 35F91230 		ldrsh	r3, [r5, r2, lsl #1]
 499              		.loc 1 177 0 discriminator 3
 500 00f6 0130     		adds	r0, r0, #1
 501              	.LVL48:
 502 00f8 80B2     		uxth	r0, r0
 503              	.LVL49:
 504              		.loc 1 178 0 discriminator 3
 505 00fa DB02     		lsls	r3, r3, #11
 506              		.loc 1 179 0 discriminator 3
 507 00fc 0EFB03F3 		mul	r3, lr, r3
 508              		.loc 1 177 0 discriminator 3
 509 0100 8142     		cmp	r1, r0
 510              		.loc 1 179 0 discriminator 3
 511 0102 93FBFCF3 		sdiv	r3, r3, ip
 512 0106 03F50063 		add	r3, r3, #2048
 513              		.loc 1 180 0 discriminator 3
ARM GAS  /tmp/cccQOMoQ.s 			page 10


 514 010a 25F81230 		strh	r3, [r5, r2, lsl #1]	@ movhi
 515              		.loc 1 177 0 discriminator 3
 516 010e 0246     		mov	r2, r0
 517 0110 EFD8     		bhi	.L45
 518              	.LVL50:
 519              	.L44:
 520              		.loc 1 186 0
 521 0112 B9F1000F 		cmp	r9, #0
 522 0116 14D0     		beq	.L46
 523              		.loc 1 187 0
 524 0118 1B4A     		ldr	r2, .L72+16
 525 011a 1C4B     		ldr	r3, .L72+20
 526 011c 1268     		ldr	r2, [r2]
 527 011e DAF80000 		ldr	r0, [r10]
 528 0122 FFF7FEFF 		bl	dac_play_buffer
 529              	.LVL51:
 530              		.loc 1 190 0
 531 0126 3B68     		ldr	r3, [r7]
 532 0128 FF2B     		cmp	r3, #255
 533 012a 17D8     		bhi	.L47
 534              		.loc 1 191 0
 535 012c 0023     		movs	r3, #0
 536 012e 3B60     		str	r3, [r7]
 537              	.LVL52:
 538              	.L43:
 539              		.loc 1 208 0
 540 0130 01A8     		add	r0, sp, #4
 541 0132 FFF7FEFF 		bl	f_close
 542              	.LVL53:
 543              		.loc 1 210 0
 544 0136 0020     		movs	r0, #0
 545 0138 70E7     		b	.L32
 546              	.LVL54:
 547              	.L35:
 548              		.loc 1 133 0
 549 013a 01A8     		add	r0, sp, #4
 550              	.LVL55:
 551 013c FFF7FEFF 		bl	f_close
 552              	.LVL56:
 553 0140 6BE7     		b	.L68
 554              	.LVL57:
 555              	.L46:
 556              	.LBB119:
 557              	.LBB120:
 558              		.loc 4 143 0
 559 0142 1348     		ldr	r0, .L72+24
 560 0144 FFF7FEFF 		bl	chSemWait
 561              	.LVL58:
 562 0148 3B68     		ldr	r3, [r7]
 563              	.LBE120:
 564              	.LBE119:
 565              		.loc 1 199 0
 566 014a A542     		cmp	r5, r4
 567              		.loc 1 200 0
 568 014c 0CBF     		ite	eq
 569 014e 114D     		ldreq	r5, .L72+28
 570              	.LVL59:
ARM GAS  /tmp/cccQOMoQ.s 			page 11


 571              		.loc 1 202 0
 572 0150 0A4D     		ldrne	r5, .L72+4
 573              	.LVL60:
 574              		.loc 1 205 0
 575 0152 FF2B     		cmp	r3, #255
 576 0154 ECD9     		bls	.L43
 577              	.LVL61:
 578              	.L50:
 579 0156 4FF00009 		mov	r9, #0
 580 015a B0E7     		b	.L41
 581              	.LVL62:
 582              	.L47:
 583              		.loc 1 199 0
 584 015c A542     		cmp	r5, r4
 585 015e 09D1     		bne	.L53
 586              		.loc 1 200 0
 587 0160 0C4D     		ldr	r5, .L72+28
 588              	.LVL63:
 589 0162 F8E7     		b	.L50
 590              	.LVL64:
 591              	.L71:
 592              		.loc 1 160 0
 593 0164 FFF7FEFF 		bl	dac_stop
 594              	.LVL65:
 595              		.loc 1 161 0
 596 0168 E2E7     		b	.L43
 597              	.LVL66:
 598              	.L69:
 599              		.loc 1 212 0
 600 016a FFF7FEFF 		bl	__stack_chk_fail
 601              	.LVL67:
 602              	.L70:
 603 016e A8F800C0 		strh	ip, [r8]	@ movhi
 604 0172 99E7     		b	.L39
 605              	.LVL68:
 606              	.L53:
 607              		.loc 1 202 0
 608 0174 014D     		ldr	r5, .L72+4
 609              	.LVL69:
 610 0176 EEE7     		b	.L50
 611              	.L73:
 612              		.align	2
 613              	.L72:
 614 0178 00000000 		.word	__stack_chk_guard
 615 017c 00000000 		.word	.LANCHOR0
 616 0180 00000000 		.word	.LANCHOR3
 617 0184 00000000 		.word	.LANCHOR11
 618 0188 00000000 		.word	.LANCHOR4
 619 018c 00000000 		.word	end_cb
 620 0190 00000000 		.word	.LANCHOR5
 621 0194 00000000 		.word	.LANCHOR1
 622 0198 00000000 		.word	.LANCHOR2
 623 019c 00000000 		.word	.LANCHOR9
 624 01a0 00000000 		.word	.LANCHOR10
 625              		.cfi_endproc
 626              	.LFE258:
 627              		.size	playWAVFile, .-playWAVFile
ARM GAS  /tmp/cccQOMoQ.s 			page 12


 628              		.section	.text.PlaySoundFileThd,"ax",%progbits
 629              		.align	1
 630              		.p2align 4,,15
 631              		.syntax unified
 632              		.thumb
 633              		.thumb_func
 634              		.fpu fpv4-sp-d16
 635              		.type	PlaySoundFileThd, %function
 636              	PlaySoundFileThd:
 637              	.LFB259:
 638              		.loc 1 215 0
 639              		.cfi_startproc
 640              		@ args = 0, pretend = 0, frame = 8
 641              		@ frame_needed = 0, uses_anonymous_args = 0
 642              	.LVL70:
 643 0000 2DE9F043 		push	{r4, r5, r6, r7, r8, r9, lr}
 644              		.cfi_def_cfa_offset 28
 645              		.cfi_offset 4, -28
 646              		.cfi_offset 5, -24
 647              		.cfi_offset 6, -20
 648              		.cfi_offset 7, -16
 649              		.cfi_offset 8, -12
 650              		.cfi_offset 9, -8
 651              		.cfi_offset 14, -4
 652              	.LBB135:
 653              	.LBB136:
 654              		.file 5 "../e-puck2_main-processor/ChibiOS//os/rt/include/chregistry.h"
 655              		.loc 5 135 0
 656 0004 1D4C     		ldr	r4, .L80
 657              	.LBE136:
 658              	.LBE135:
 659              		.loc 1 215 0
 660 0006 1E4B     		ldr	r3, .L80+4
 661              	.LBB139:
 662              	.LBB137:
 663              		.loc 5 135 0
 664 0008 A269     		ldr	r2, [r4, #24]
 665 000a 1E49     		ldr	r1, .L80+8
 666              	.LBE137:
 667              	.LBE139:
 668              		.loc 1 215 0
 669 000c 1B68     		ldr	r3, [r3]
 670 000e DFF88480 		ldr	r8, .L80+24
 671              		.loc 1 226 0
 672 0012 1D4F     		ldr	r7, .L80+12
 673              	.LBB140:
 674              	.LBB138:
 675              		.loc 5 135 0
 676 0014 9161     		str	r1, [r2, #24]
 677              	.LBE138:
 678              	.LBE140:
 679              		.loc 1 215 0
 680 0016 83B0     		sub	sp, sp, #12
 681              		.cfi_def_cfa_offset 40
 682              	.LBB141:
 683              	.LBB142:
 684              		.loc 3 367 0
ARM GAS  /tmp/cccQOMoQ.s 			page 13


 685 0018 DFF87C90 		ldr	r9, .L80+28
 686              	.LBE142:
 687              	.LBE141:
 688              		.loc 1 215 0
 689 001c 0193     		str	r3, [sp, #4]
 690              	.LVL71:
 691              	.LBB151:
 692              	.LBB149:
 693              	.LBB143:
 694              	.LBB144:
 695              	.LBB145:
 696              		.loc 2 546 0
 697 001e 0025     		movs	r5, #0
 698 0020 07E0     		b	.L77
 699              	.LVL72:
 700              	.L76:
 701              	.LBE145:
 702              	.LBE144:
 703              	.LBE143:
 704              	.LBE149:
 705              	.LBE151:
 706              		.loc 1 234 0
 707 0022 0A20     		movs	r0, #10
 708              		.loc 1 232 0
 709 0024 88F80050 		strb	r5, [r8]
 710              		.loc 1 234 0
 711 0028 FFF7FEFF 		bl	chThdSleep
 712              	.LVL73:
 713              		.loc 1 236 0
 714 002c 1748     		ldr	r0, .L80+16
 715 002e FFF7FEFF 		bl	chCondBroadcast
 716              	.LVL74:
 717              	.L77:
 718              	.LBB152:
 719              	.LBB153:
 720              	.LBB154:
 721              	.LBB155:
 722              	.LBB156:
 723              		.loc 2 546 0
 724 0032 2023     		movs	r3, #32
 725              		.syntax unified
 726              	@ 546 "../e-puck2_main-processor/ChibiOS//os/ext/CMSIS/include/core_cmFunc.h" 1
 727 0034 83F31188 		MSR basepri, r3
 728              	@ 0 "" 2
 729              	.LVL75:
 730              		.thumb
 731              		.syntax unified
 732              	.LBE156:
 733              	.LBE155:
 734              	.LBE154:
 735              		.loc 3 349 0
 736 0038 FFF7FEFF 		bl	_stats_start_measure_crit_thd
 737              	.LVL76:
 738              		.loc 3 350 0
 739 003c FFF7FEFF 		bl	_dbg_check_lock
 740              	.LVL77:
 741              	.LBE153:
ARM GAS  /tmp/cccQOMoQ.s 			page 14


 742              	.LBE152:
 743              		.loc 1 226 0
 744 0040 3846     		mov	r0, r7
 745 0042 FFF7FEFF 		bl	chThdSuspendS
 746              	.LVL78:
 747 0046 0646     		mov	r6, r0
 748              	.LVL79:
 749              	.LBB157:
 750              	.LBB150:
 751              		.loc 3 360 0
 752 0048 FFF7FEFF 		bl	_dbg_check_unlock
 753              	.LVL80:
 754              		.loc 3 361 0
 755 004c FFF7FEFF 		bl	_stats_stop_measure_crit_thd
 756              	.LVL81:
 757              		.loc 3 367 0
 758 0050 2368     		ldr	r3, [r4]
 759 0052 A342     		cmp	r3, r4
 760 0054 07D0     		beq	.L75
 761 0056 A269     		ldr	r2, [r4, #24]
 762 0058 9B68     		ldr	r3, [r3, #8]
 763 005a 9268     		ldr	r2, [r2, #8]
 764 005c 9A42     		cmp	r2, r3
 765 005e 02D2     		bcs	.L75
 766 0060 4846     		mov	r0, r9
 767 0062 FFF7FEFF 		bl	chSysHalt
 768              	.LVL82:
 769              	.L75:
 770              	.LBB148:
 771              	.LBB147:
 772              	.LBB146:
 773              		.loc 2 546 0
 774              		.syntax unified
 775              	@ 546 "../e-puck2_main-processor/ChibiOS//os/ext/CMSIS/include/core_cmFunc.h" 1
 776 0066 85F31188 		MSR basepri, r5
 777              	@ 0 "" 2
 778              	.LVL83:
 779              		.thumb
 780              		.syntax unified
 781              	.LBE146:
 782              	.LBE147:
 783              	.LBE148:
 784              	.LBE150:
 785              	.LBE157:
 786              		.loc 1 229 0
 787 006a 3046     		mov	r0, r6
 788 006c FFF7FEFF 		bl	playWAVFile
 789              	.LVL84:
 790 0070 0028     		cmp	r0, #0
 791 0072 D6D1     		bne	.L76
 792              	.LVL85:
 793              	.LBB158:
 794              	.LBB159:
 795              		.loc 4 143 0
 796 0074 0648     		ldr	r0, .L80+20
 797 0076 FFF7FEFF 		bl	chSemWait
 798              	.LVL86:
ARM GAS  /tmp/cccQOMoQ.s 			page 15


 799 007a D2E7     		b	.L76
 800              	.L81:
 801              		.align	2
 802              	.L80:
 803 007c 00000000 		.word	ch
 804 0080 00000000 		.word	__stack_chk_guard
 805 0084 00000000 		.word	.LC0
 806 0088 00000000 		.word	.LANCHOR12
 807 008c 00000000 		.word	.LANCHOR8
 808 0090 00000000 		.word	.LANCHOR6
 809 0094 00000000 		.word	.LANCHOR10
 810 0098 00000000 		.word	.LANCHOR13
 811              	.LBE159:
 812              	.LBE158:
 813              		.cfi_endproc
 814              	.LFE259:
 815              		.size	PlaySoundFileThd, .-PlaySoundFileThd
 816              		.section	.text.playSoundFileStart,"ax",%progbits
 817              		.align	1
 818              		.p2align 4,,15
 819              		.global	playSoundFileStart
 820              		.syntax unified
 821              		.thumb
 822              		.thumb_func
 823              		.fpu fpv4-sp-d16
 824              		.type	playSoundFileStart, %function
 825              	playSoundFileStart:
 826              	.LFB260:
 827              		.loc 1 243 0
 828              		.cfi_startproc
 829              		@ args = 0, pretend = 0, frame = 8
 830              		@ frame_needed = 0, uses_anonymous_args = 0
 831 0000 10B5     		push	{r4, lr}
 832              		.cfi_def_cfa_offset 8
 833              		.cfi_offset 4, -8
 834              		.cfi_offset 14, -4
 835 0002 0A4C     		ldr	r4, .L86
 836              		.loc 1 246 0
 837 0004 0A4B     		ldr	r3, .L86+4
 838              		.loc 1 243 0
 839 0006 2268     		ldr	r2, [r4]
 840              		.loc 1 246 0
 841 0008 0A48     		ldr	r0, .L86+8
 842              		.loc 1 243 0
 843 000a 84B0     		sub	sp, sp, #16
 844              		.cfi_def_cfa_offset 24
 845              		.loc 1 246 0
 846 000c 4FF4EF61 		mov	r1, #1912
 847              		.loc 1 243 0
 848 0010 0392     		str	r2, [sp, #12]
 849              		.loc 1 246 0
 850 0012 0022     		movs	r2, #0
 851 0014 0092     		str	r2, [sp]
 852 0016 4022     		movs	r2, #64
 853 0018 FFF7FEFF 		bl	chThdCreateStatic
 854              	.LVL87:
 855              		.loc 1 247 0
ARM GAS  /tmp/cccQOMoQ.s 			page 16


 856 001c 039A     		ldr	r2, [sp, #12]
 857 001e 2368     		ldr	r3, [r4]
 858 0020 9A42     		cmp	r2, r3
 859 0022 01D1     		bne	.L85
 860 0024 04B0     		add	sp, sp, #16
 861              		.cfi_remember_state
 862              		.cfi_def_cfa_offset 8
 863              		@ sp needed
 864 0026 10BD     		pop	{r4, pc}
 865              	.L85:
 866              		.cfi_restore_state
 867 0028 FFF7FEFF 		bl	__stack_chk_fail
 868              	.LVL88:
 869              	.L87:
 870              		.align	2
 871              	.L86:
 872 002c 00000000 		.word	__stack_chk_guard
 873 0030 00000000 		.word	PlaySoundFileThd
 874 0034 00000000 		.word	.LANCHOR14
 875              		.cfi_endproc
 876              	.LFE260:
 877              		.size	playSoundFileStart, .-playSoundFileStart
 878              		.section	.text.playSoundFile,"ax",%progbits
 879              		.align	1
 880              		.p2align 4,,15
 881              		.global	playSoundFile
 882              		.syntax unified
 883              		.thumb
 884              		.thumb_func
 885              		.fpu fpv4-sp-d16
 886              		.type	playSoundFile, %function
 887              	playSoundFile:
 888              	.LFB261:
 889              		.loc 1 249 0
 890              		.cfi_startproc
 891              		@ args = 0, pretend = 0, frame = 16
 892              		@ frame_needed = 0, uses_anonymous_args = 0
 893              	.LVL89:
 894 0000 30B5     		push	{r4, r5, lr}
 895              		.cfi_def_cfa_offset 12
 896              		.cfi_offset 4, -12
 897              		.cfi_offset 5, -8
 898              		.cfi_offset 14, -4
 899 0002 164C     		ldr	r4, .L106
 900 0004 85B0     		sub	sp, sp, #20
 901              		.cfi_def_cfa_offset 32
 902              		.loc 1 249 0
 903 0006 2368     		ldr	r3, [r4]
 904 0008 0393     		str	r3, [sp, #12]
 905              		.loc 1 251 0
 906 000a D0B1     		cbz	r0, .L88
 907              		.loc 1 255 0
 908 000c 144D     		ldr	r5, .L106+4
 909 000e 154B     		ldr	r3, .L106+8
 910 0010 2A60     		str	r2, [r5]
 911 0012 1B68     		ldr	r3, [r3]
 912              		.loc 1 258 0
ARM GAS  /tmp/cccQOMoQ.s 			page 17


 913 0014 91B1     		cbz	r1, .L104
 914              		.loc 1 268 0
 915 0016 0229     		cmp	r1, #2
 916              	.LBB160:
 917              	.LBB161:
 918              		.loc 1 279 0
 919 0018 134D     		ldr	r5, .L106+12
 920 001a 04BF     		itt	eq
 921 001c 0022     		moveq	r2, #0
 922              	.LVL90:
 923 001e 2A70     		strbeq	r2, [r5]
 924              	.LBE161:
 925              	.LBE160:
 926              	.LBB162:
 927              	.LBB163:
 928              		.loc 1 284 0
 929 0020 ABB1     		cbz	r3, .L105
 930              	.LVL91:
 931              	.L95:
 932              	.LBE163:
 933              	.LBE162:
 934              		.loc 1 264 0
 935 0022 039A     		ldr	r2, [sp, #12]
 936 0024 2368     		ldr	r3, [r4]
 937              		.loc 1 262 0
 938 0026 0121     		movs	r1, #1
 939              		.loc 1 264 0
 940 0028 9A42     		cmp	r2, r3
 941              		.loc 1 262 0
 942 002a 2970     		strb	r1, [r5]
 943              		.loc 1 264 0
 944 002c 14D1     		bne	.L103
 945 002e 0146     		mov	r1, r0
 946 0030 0C48     		ldr	r0, .L106+8
 947              		.loc 1 276 0
 948 0032 05B0     		add	sp, sp, #20
 949              		.cfi_remember_state
 950              		.cfi_def_cfa_offset 12
 951              		@ sp needed
 952 0034 BDE83040 		pop	{r4, r5, lr}
 953              		.cfi_restore 14
 954              		.cfi_restore 5
 955              		.cfi_restore 4
 956              		.cfi_def_cfa_offset 0
 957              		.loc 1 264 0
 958 0038 FFF7FEBF 		b	chThdResume
 959              	.LVL92:
 960              	.L104:
 961              		.cfi_restore_state
 962              		.loc 1 261 0
 963 003c 0BB1     		cbz	r3, .L88
 964 003e 0A4D     		ldr	r5, .L106+12
 965 0040 EFE7     		b	.L95
 966              	.L88:
 967              		.loc 1 276 0
 968 0042 039A     		ldr	r2, [sp, #12]
 969              	.LVL93:
ARM GAS  /tmp/cccQOMoQ.s 			page 18


 970 0044 2368     		ldr	r3, [r4]
 971 0046 9A42     		cmp	r2, r3
 972 0048 06D1     		bne	.L103
 973 004a 05B0     		add	sp, sp, #20
 974              		.cfi_remember_state
 975              		.cfi_def_cfa_offset 12
 976              		@ sp needed
 977 004c 30BD     		pop	{r4, r5, pc}
 978              	.LVL94:
 979              	.L105:
 980              		.cfi_restore_state
 981 004e 0190     		str	r0, [sp, #4]
 982              	.LBB165:
 983              	.LBB164:
 984 0050 FFF7FEFF 		bl	waitSoundFileHasFinished.part.1
 985              	.LVL95:
 986 0054 0198     		ldr	r0, [sp, #4]
 987 0056 E4E7     		b	.L95
 988              	.LVL96:
 989              	.L103:
 990              	.LBE164:
 991              	.LBE165:
 992 0058 FFF7FEFF 		bl	__stack_chk_fail
 993              	.LVL97:
 994              	.L107:
 995              		.align	2
 996              	.L106:
 997 005c 00000000 		.word	__stack_chk_guard
 998 0060 00000000 		.word	.LANCHOR4
 999 0064 00000000 		.word	.LANCHOR12
 1000 0068 00000000 		.word	.LANCHOR10
 1001              		.cfi_endproc
 1002              	.LFE261:
 1003              		.size	playSoundFile, .-playSoundFile
 1004              		.section	.text.stopCurrentSoundFile,"ax",%progbits
 1005              		.align	1
 1006              		.p2align 4,,15
 1007              		.global	stopCurrentSoundFile
 1008              		.syntax unified
 1009              		.thumb
 1010              		.thumb_func
 1011              		.fpu fpv4-sp-d16
 1012              		.type	stopCurrentSoundFile, %function
 1013              	stopCurrentSoundFile:
 1014              	.LFB262:
 1015              		.loc 1 278 0
 1016              		.cfi_startproc
 1017              		@ args = 0, pretend = 0, frame = 8
 1018              		@ frame_needed = 0, uses_anonymous_args = 0
 1019 0000 00B5     		push	{lr}
 1020              		.cfi_def_cfa_offset 4
 1021              		.cfi_offset 14, -4
 1022 0002 084B     		ldr	r3, .L112
 1023              		.loc 1 279 0
 1024 0004 0849     		ldr	r1, .L112+4
 1025              		.loc 1 278 0
 1026 0006 1A68     		ldr	r2, [r3]
ARM GAS  /tmp/cccQOMoQ.s 			page 19


 1027 0008 83B0     		sub	sp, sp, #12
 1028              		.cfi_def_cfa_offset 16
 1029              		.loc 1 279 0
 1030 000a 0020     		movs	r0, #0
 1031              		.loc 1 278 0
 1032 000c 0192     		str	r2, [sp, #4]
 1033              		.loc 1 280 0
 1034 000e 019A     		ldr	r2, [sp, #4]
 1035 0010 1B68     		ldr	r3, [r3]
 1036              		.loc 1 279 0
 1037 0012 0870     		strb	r0, [r1]
 1038              		.loc 1 280 0
 1039 0014 9A42     		cmp	r2, r3
 1040 0016 02D1     		bne	.L111
 1041 0018 03B0     		add	sp, sp, #12
 1042              		.cfi_remember_state
 1043              		.cfi_def_cfa_offset 4
 1044              		@ sp needed
 1045 001a 5DF804FB 		ldr	pc, [sp], #4
 1046              	.L111:
 1047              		.cfi_restore_state
 1048 001e FFF7FEFF 		bl	__stack_chk_fail
 1049              	.LVL98:
 1050              	.L113:
 1051 0022 00BF     		.align	2
 1052              	.L112:
 1053 0024 00000000 		.word	__stack_chk_guard
 1054 0028 00000000 		.word	.LANCHOR10
 1055              		.cfi_endproc
 1056              	.LFE262:
 1057              		.size	stopCurrentSoundFile, .-stopCurrentSoundFile
 1058              		.section	.text.waitSoundFileHasFinished,"ax",%progbits
 1059              		.align	1
 1060              		.p2align 4,,15
 1061              		.global	waitSoundFileHasFinished
 1062              		.syntax unified
 1063              		.thumb
 1064              		.thumb_func
 1065              		.fpu fpv4-sp-d16
 1066              		.type	waitSoundFileHasFinished, %function
 1067              	waitSoundFileHasFinished:
 1068              	.LFB263:
 1069              		.loc 1 282 0
 1070              		.cfi_startproc
 1071              		@ args = 0, pretend = 0, frame = 8
 1072              		@ frame_needed = 0, uses_anonymous_args = 0
 1073 0000 00B5     		push	{lr}
 1074              		.cfi_def_cfa_offset 4
 1075              		.cfi_offset 14, -4
 1076              		.loc 1 284 0
 1077 0002 0C4A     		ldr	r2, .L121
 1078              		.loc 1 282 0
 1079 0004 0C4B     		ldr	r3, .L121+4
 1080              		.loc 1 284 0
 1081 0006 1268     		ldr	r2, [r2]
 1082              		.loc 1 282 0
 1083 0008 1968     		ldr	r1, [r3]
ARM GAS  /tmp/cccQOMoQ.s 			page 20


 1084 000a 83B0     		sub	sp, sp, #12
 1085              		.cfi_def_cfa_offset 16
 1086              		.loc 1 282 0
 1087 000c 0191     		str	r1, [sp, #4]
 1088              		.loc 1 284 0
 1089 000e 32B1     		cbz	r2, .L120
 1090              		.loc 1 290 0
 1091 0010 019A     		ldr	r2, [sp, #4]
 1092 0012 1B68     		ldr	r3, [r3]
 1093 0014 9A42     		cmp	r2, r3
 1094 0016 0BD1     		bne	.L119
 1095 0018 03B0     		add	sp, sp, #12
 1096              		.cfi_remember_state
 1097              		.cfi_def_cfa_offset 4
 1098              		@ sp needed
 1099 001a 5DF804FB 		ldr	pc, [sp], #4
 1100              	.L120:
 1101              		.cfi_restore_state
 1102 001e 019A     		ldr	r2, [sp, #4]
 1103 0020 1B68     		ldr	r3, [r3]
 1104 0022 9A42     		cmp	r2, r3
 1105 0024 04D1     		bne	.L119
 1106 0026 03B0     		add	sp, sp, #12
 1107              		.cfi_remember_state
 1108              		.cfi_def_cfa_offset 4
 1109              		@ sp needed
 1110 0028 5DF804EB 		ldr	lr, [sp], #4
 1111              		.cfi_restore 14
 1112              		.cfi_def_cfa_offset 0
 1113 002c FFF7FEBF 		b	waitSoundFileHasFinished.part.1
 1114              	.LVL99:
 1115              	.L119:
 1116              		.cfi_restore_state
 1117 0030 FFF7FEFF 		bl	__stack_chk_fail
 1118              	.LVL100:
 1119              	.L122:
 1120              		.align	2
 1121              	.L121:
 1122 0034 00000000 		.word	.LANCHOR12
 1123 0038 00000000 		.word	__stack_chk_guard
 1124              		.cfi_endproc
 1125              	.LFE263:
 1126              		.size	waitSoundFileHasFinished, .-waitSoundFileHasFinished
 1127              		.section	.text.setSoundFileVolume,"ax",%progbits
 1128              		.align	1
 1129              		.p2align 4,,15
 1130              		.global	setSoundFileVolume
 1131              		.syntax unified
 1132              		.thumb
 1133              		.thumb_func
 1134              		.fpu fpv4-sp-d16
 1135              		.type	setSoundFileVolume, %function
 1136              	setSoundFileVolume:
 1137              	.LFB264:
 1138              		.loc 1 292 0
 1139              		.cfi_startproc
 1140              		@ args = 0, pretend = 0, frame = 8
ARM GAS  /tmp/cccQOMoQ.s 			page 21


 1141              		@ frame_needed = 0, uses_anonymous_args = 0
 1142              	.LVL101:
 1143 0000 00B5     		push	{lr}
 1144              		.cfi_def_cfa_offset 4
 1145              		.cfi_offset 14, -4
 1146 0002 0B4B     		ldr	r3, .L129
 1147 0004 83B0     		sub	sp, sp, #12
 1148              		.cfi_def_cfa_offset 16
 1149              		.loc 1 292 0
 1150 0006 1A68     		ldr	r2, [r3]
 1151 0008 0192     		str	r2, [sp, #4]
 1152              		.loc 1 293 0
 1153 000a 6428     		cmp	r0, #100
 1154 000c 0BD8     		bhi	.L126
 1155              		.loc 1 296 0
 1156 000e 0028     		cmp	r0, #0
 1157              		.loc 1 297 0
 1158 0010 08BF     		it	eq
 1159 0012 0120     		moveq	r0, #1
 1160              	.LVL102:
 1161              	.L124:
 1162              		.loc 1 311 0
 1163 0014 019A     		ldr	r2, [sp, #4]
 1164 0016 1B68     		ldr	r3, [r3]
 1165              		.loc 1 310 0
 1166 0018 0649     		ldr	r1, .L129+4
 1167              		.loc 1 311 0
 1168 001a 9A42     		cmp	r2, r3
 1169              		.loc 1 310 0
 1170 001c 0870     		strb	r0, [r1]
 1171              		.loc 1 311 0
 1172 001e 04D1     		bne	.L128
 1173 0020 03B0     		add	sp, sp, #12
 1174              		.cfi_remember_state
 1175              		.cfi_def_cfa_offset 4
 1176              		@ sp needed
 1177 0022 5DF804FB 		ldr	pc, [sp], #4
 1178              	.L126:
 1179              		.cfi_restore_state
 1180              		.loc 1 294 0
 1181 0026 6420     		movs	r0, #100
 1182              	.LVL103:
 1183 0028 F4E7     		b	.L124
 1184              	.LVL104:
 1185              	.L128:
 1186              		.loc 1 311 0
 1187 002a FFF7FEFF 		bl	__stack_chk_fail
 1188              	.LVL105:
 1189              	.L130:
 1190 002e 00BF     		.align	2
 1191              	.L129:
 1192 0030 00000000 		.word	__stack_chk_guard
 1193 0034 00000000 		.word	.LANCHOR11
 1194              		.cfi_endproc
 1195              	.LFE264:
 1196              		.size	setSoundFileVolume, .-setSoundFileVolume
 1197              		.section	.bss.buffer_to_read,"aw",%nobits
ARM GAS  /tmp/cccQOMoQ.s 			page 22


 1198              		.align	2
 1199              		.set	.LANCHOR2,. + 0
 1200              		.type	buffer_to_read, %object
 1201              		.size	buffer_to_read, 4
 1202              	buffer_to_read:
 1203 0000 00000000 		.space	4
 1204              		.section	.bss.play,"aw",%nobits
 1205              		.set	.LANCHOR10,. + 0
 1206              		.type	play, %object
 1207              		.size	play, 1
 1208              	play:
 1209 0000 00       		.space	1
 1210              		.section	.bss.play_sound_file_ref,"aw",%nobits
 1211              		.align	2
 1212              		.set	.LANCHOR12,. + 0
 1213              		.type	play_sound_file_ref, %object
 1214              		.size	play_sound_file_ref, 4
 1215              	play_sound_file_ref:
 1216 0000 00000000 		.space	4
 1217              		.section	.bss.size_buffer_to_read,"aw",%nobits
 1218              		.align	2
 1219              		.set	.LANCHOR3,. + 0
 1220              		.type	size_buffer_to_read, %object
 1221              		.size	size_buffer_to_read, 4
 1222              	size_buffer_to_read:
 1223 0000 00000000 		.space	4
 1224              		.section	.bss.sound_buffer1,"aw",%nobits
 1225              		.align	2
 1226              		.set	.LANCHOR0,. + 0
 1227              		.type	sound_buffer1, %object
 1228              		.size	sound_buffer1, 512
 1229              	sound_buffer1:
 1230 0000 00000000 		.space	512
 1230      00000000 
 1230      00000000 
 1230      00000000 
 1230      00000000 
 1231              		.section	.bss.sound_buffer2,"aw",%nobits
 1232              		.align	2
 1233              		.set	.LANCHOR1,. + 0
 1234              		.type	sound_buffer2, %object
 1235              		.size	sound_buffer2, 512
 1236              	sound_buffer2:
 1237 0000 00000000 		.space	512
 1237      00000000 
 1237      00000000 
 1237      00000000 
 1237      00000000 
 1238              		.section	.bss.waPlaySoundFileThd,"aw",%nobits
 1239              		.align	3
 1240              		.set	.LANCHOR14,. + 0
 1241              		.type	waPlaySoundFileThd, %object
 1242              		.size	waPlaySoundFileThd, 1912
 1243              	waPlaySoundFileThd:
 1244 0000 00000000 		.space	1912
 1244      00000000 
 1244      00000000 
ARM GAS  /tmp/cccQOMoQ.s 			page 23


 1244      00000000 
 1244      00000000 
 1245              		.section	.bss.wav_max_value,"aw",%nobits
 1246              		.align	1
 1247              		.set	.LANCHOR9,. + 0
 1248              		.type	wav_max_value, %object
 1249              		.size	wav_max_value, 2
 1250              	wav_max_value:
 1251 0000 0000     		.space	2
 1252              		.section	.data.change_buffer,"aw",%progbits
 1253              		.align	2
 1254              		.set	.LANCHOR5,. + 0
 1255              		.type	change_buffer, %object
 1256              		.size	change_buffer, 12
 1257              	change_buffer:
 1258 0000 00000000 		.word	change_buffer
 1259 0004 00000000 		.word	change_buffer
 1260 0008 00000000 		.word	0
 1261              		.section	.data.dac_stopped,"aw",%progbits
 1262              		.align	2
 1263              		.set	.LANCHOR6,. + 0
 1264              		.type	dac_stopped, %object
 1265              		.size	dac_stopped, 12
 1266              	dac_stopped:
 1267 0000 00000000 		.word	dac_stopped
 1268 0004 00000000 		.word	dac_stopped
 1269 0008 00000000 		.word	0
 1270              		.section	.data.play_sound_file_condvar,"aw",%progbits
 1271              		.align	2
 1272              		.set	.LANCHOR8,. + 0
 1273              		.type	play_sound_file_condvar, %object
 1274              		.size	play_sound_file_condvar, 8
 1275              	play_sound_file_condvar:
 1276 0000 00000000 		.word	play_sound_file_condvar
 1277 0004 00000000 		.word	play_sound_file_condvar
 1278              		.section	.data.play_sound_file_lock,"aw",%progbits
 1279              		.align	2
 1280              		.set	.LANCHOR7,. + 0
 1281              		.type	play_sound_file_lock, %object
 1282              		.size	play_sound_file_lock, 20
 1283              	play_sound_file_lock:
 1284 0000 00000000 		.word	play_sound_file_lock
 1285 0004 00000000 		.word	play_sound_file_lock
 1286 0008 00000000 		.word	0
 1287 000c 00000000 		.word	0
 1288 0010 00000000 		.word	0
 1289              		.section	.data.samp_freq,"aw",%progbits
 1290              		.align	2
 1291              		.set	.LANCHOR4,. + 0
 1292              		.type	samp_freq, %object
 1293              		.size	samp_freq, 4
 1294              	samp_freq:
 1295 0000 44AC0000 		.word	44100
 1296              		.section	.data.sound_file_volume,"aw",%progbits
 1297              		.set	.LANCHOR11,. + 0
 1298              		.type	sound_file_volume, %object
 1299              		.size	sound_file_volume, 1
ARM GAS  /tmp/cccQOMoQ.s 			page 24


 1300              	sound_file_volume:
 1301 0000 14       		.byte	20
 1302              		.section	.rodata.PlaySoundFileThd.str1.4,"aMS",%progbits,1
 1303              		.align	2
 1304              	.LC0:
 1305 0000 506C6179 		.ascii	"PlaySoundFile Thd\000"
 1305      536F756E 
 1305      6446696C 
 1305      65205468 
 1305      6400
 1306              		.section	.rodata.__func__.7153,"a",%progbits
 1307              		.align	2
 1308              		.set	.LANCHOR13,. + 0
 1309              		.type	__func__.7153, %object
 1310              		.size	__func__.7153, 12
 1311              	__func__.7153:
 1312 0000 63685379 		.ascii	"chSysUnlock\000"
 1312      73556E6C 
 1312      6F636B00 
 1313              		.text
 1314              	.Letext0:
 1315              		.file 6 "/home/leander/uos_codes/epuck2_lab/Eclipse_e-puck2/Tools/gcc-arm-none-eabi-7-2017-q4-majo
 1316              		.file 7 "/home/leander/uos_codes/epuck2_lab/Eclipse_e-puck2/Tools/gcc-arm-none-eabi-7-2017-q4-majo
 1317              		.file 8 "/home/leander/uos_codes/epuck2_lab/Eclipse_e-puck2/Tools/gcc-arm-none-eabi-7-2017-q4-majo
 1318              		.file 9 "../e-puck2_main-processor/ChibiOS//os/rt/ports/ARMCMx/compilers/GCC/chtypes.h"
 1319              		.file 10 "../e-puck2_main-processor/ChibiOS//os/rt/include/chsystypes.h"
 1320              		.file 11 "../e-puck2_main-processor/ChibiOS//os/rt/include/chschd.h"
 1321              		.file 12 "../e-puck2_main-processor/ChibiOS//os/ext/CMSIS/include/core_cm4.h"
 1322              		.file 13 "../e-puck2_main-processor/ChibiOS//os/ext/CMSIS/ST/system_stm32f4xx.h"
 1323              		.file 14 "../e-puck2_main-processor/ChibiOS//os/ext/CMSIS/ST/stm32f407xx.h"
 1324              		.file 15 "../e-puck2_main-processor/ChibiOS//os/rt/ports/ARMCMx/chcore.h"
 1325              		.file 16 "../e-puck2_main-processor/ChibiOS//os/rt/ports/ARMCMx/chcore_v7m.h"
 1326              		.file 17 "../e-puck2_main-processor/ChibiOS//os/rt/include/chdebug.h"
 1327              		.file 18 "../e-puck2_main-processor/ChibiOS//os/rt/include/chtm.h"
 1328              		.file 19 "../e-puck2_main-processor/ChibiOS//os/rt/include/chstats.h"
 1329              		.file 20 "../e-puck2_main-processor/ChibiOS//os/rt/include/chsem.h"
 1330              		.file 21 "../e-puck2_main-processor/ChibiOS//os/rt/include/chmtx.h"
 1331              		.file 22 "../e-puck2_main-processor/ChibiOS//os/rt/include/chcond.h"
 1332              		.file 23 "../e-puck2_main-processor/ChibiOS//os/rt/include/chevents.h"
 1333              		.file 24 "../e-puck2_main-processor/ChibiOS//os/rt/include/chqueues.h"
 1334              		.file 25 "../e-puck2_main-processor/ChibiOS//os/hal/ports/STM32/STM32F4xx/stm32_dma.h"
 1335              		.file 26 "../e-puck2_main-processor/ChibiOS//os/hal/include/hal_ioblock.h"
 1336              		.file 27 "../e-puck2_main-processor/ChibiOS//os/hal/ports/STM32/LLD/GPIOv2/pal_lld.h"
 1337              		.file 28 "../e-puck2_main-processor/ChibiOS//os/hal/include/adc.h"
 1338              		.file 29 "../e-puck2_main-processor/ChibiOS//os/hal/ports/STM32/STM32F4xx/adc_lld.h"
 1339              		.file 30 "../e-puck2_main-processor/ChibiOS//os/hal/include/can.h"
 1340              		.file 31 "../e-puck2_main-processor/ChibiOS//os/hal/ports/STM32/LLD/can_lld.h"
 1341              		.file 32 "../e-puck2_main-processor/ChibiOS//os/hal/include/dac.h"
 1342              		.file 33 "../e-puck2_main-processor/ChibiOS//os/hal/ports/STM32/LLD/DACv1/dac_lld.h"
 1343              		.file 34 "../e-puck2_main-processor/ChibiOS//os/hal/include/ext.h"
 1344              		.file 35 "../e-puck2_main-processor/ChibiOS//os/hal/ports/STM32/LLD/ext_lld.h"
 1345              		.file 36 "../e-puck2_main-processor/ChibiOS//os/hal/include/gpt.h"
 1346              		.file 37 "../e-puck2_main-processor/ChibiOS//os/hal/ports/STM32/LLD/TIMv1/gpt_lld.h"
 1347              		.file 38 "../e-puck2_main-processor/ChibiOS//os/hal/ports/STM32/LLD/TIMv1/stm32_tim.h"
 1348              		.file 39 "../e-puck2_main-processor/ChibiOS//os/hal/include/i2c.h"
 1349              		.file 40 "../e-puck2_main-processor/ChibiOS//os/hal/ports/STM32/LLD/I2Cv1/i2c_lld.h"
 1350              		.file 41 "../e-puck2_main-processor/ChibiOS//os/hal/include/i2s.h"
ARM GAS  /tmp/cccQOMoQ.s 			page 25


 1351              		.file 42 "../e-puck2_main-processor/ChibiOS//os/hal/ports/STM32/LLD/SPIv1/i2s_lld.h"
 1352              		.file 43 "../e-puck2_main-processor/ChibiOS//os/hal/include/pwm.h"
 1353              		.file 44 "../e-puck2_main-processor/ChibiOS//os/hal/ports/STM32/LLD/TIMv1/pwm_lld.h"
 1354              		.file 45 "../e-puck2_main-processor/ChibiOS//os/hal/include/serial.h"
 1355              		.file 46 "../e-puck2_main-processor/ChibiOS//os/hal/ports/STM32/LLD/USARTv1/serial_lld.h"
 1356              		.file 47 "../e-puck2_main-processor/ChibiOS//os/hal/include/sdc.h"
 1357              		.file 48 "../e-puck2_main-processor/ChibiOS//os/hal/ports/STM32/LLD/sdc_lld.h"
 1358              		.file 49 "../e-puck2_main-processor/ChibiOS//os/hal/include/spi.h"
 1359              		.file 50 "../e-puck2_main-processor/ChibiOS//os/hal/ports/STM32/LLD/SPIv1/spi_lld.h"
 1360              		.file 51 "../e-puck2_main-processor/ChibiOS//os/hal/include/usb.h"
 1361              		.file 52 "../e-puck2_main-processor/ChibiOS//os/hal/ports/STM32/LLD/OTGv1/usb_lld.h"
 1362              		.file 53 "../e-puck2_main-processor/ChibiOS//os/hal/ports/STM32/LLD/OTGv1/stm32_otg.h"
 1363              		.file 54 "../e-puck2_main-processor/ChibiOS_ext//ext/fatfs/src/integer.h"
 1364              		.file 55 "../e-puck2_main-processor/ChibiOS_ext//ext/fatfs/src/ff.h"
 1365              		.file 56 "../e-puck2_main-processor/src/audio/play_sound_file.h"
 1366              		.file 57 "/home/leander/uos_codes/epuck2_lab/Eclipse_e-puck2/Tools/gcc-arm-none-eabi-7-2017-q4-maj
 1367              		.file 58 "/home/leander/uos_codes/epuck2_lab/Eclipse_e-puck2/Tools/gcc-arm-none-eabi-7-2017-q4-maj
 1368              		.file 59 "/home/leander/uos_codes/epuck2_lab/Eclipse_e-puck2/Tools/gcc-arm-none-eabi-7-2017-q4-maj
 1369              		.file 60 "/home/leander/uos_codes/epuck2_lab/Eclipse_e-puck2/Tools/gcc-arm-none-eabi-7-2017-q4-maj
 1370              		.file 61 "../e-puck2_main-processor/ChibiOS//os/rt/include/chthreads.h"
 1371              		.file 62 "../e-puck2_main-processor/src/fat.h"
 1372              		.file 63 "../e-puck2_main-processor/src/audio/audio_thread.h"