ARM GAS  /tmp/ccmq2l6R.s 			page 1


   1              		.cpu cortex-m4
   2              		.eabi_attribute 27, 1
   3              		.eabi_attribute 28, 1
   4              		.eabi_attribute 20, 1
   5              		.eabi_attribute 21, 1
   6              		.eabi_attribute 23, 3
   7              		.eabi_attribute 24, 1
   8              		.eabi_attribute 25, 1
   9              		.eabi_attribute 26, 1
  10              		.eabi_attribute 30, 2
  11              		.eabi_attribute 34, 1
  12              		.eabi_attribute 18, 4
  13              		.file	"skel_user.c"
  14              		.text
  15              	.Ltext0:
  16              		.cfi_sections	.debug_frame
  17              		.section	.text.AsebaNative__system_reboot,"ax",%progbits
  18              		.align	1
  19              		.p2align 4,,15
  20              		.global	AsebaNative__system_reboot
  21              		.syntax unified
  22              		.thumb
  23              		.thumb_func
  24              		.fpu fpv4-sp-d16
  25              		.type	AsebaNative__system_reboot, %function
  26              	AsebaNative__system_reboot:
  27              	.LFB266:
  28              		.file 1 "../e-puck2_main-processor/src/aseba_vm/skel_user.c"
  29              		.loc 1 134 0
  30              		.cfi_startproc
  31              		@ Volatile: function does not return.
  32              		@ args = 0, pretend = 0, frame = 8
  33              		@ frame_needed = 0, uses_anonymous_args = 0
  34              		@ link register save eliminated.
  35              	.LVL0:
  36 0000 074B     		ldr	r3, .L6
  37 0002 82B0     		sub	sp, sp, #8
  38              		.cfi_def_cfa_offset 8
  39              		.loc 1 134 0
  40 0004 1B68     		ldr	r3, [r3]
  41 0006 0193     		str	r3, [sp, #4]
  42              	.LBB20:
  43              	.LBB21:
  44              	.LBB22:
  45              	.LBB23:
  46              		.file 2 "../e-puck2_main-processor/ChibiOS//os/ext/CMSIS/include/core_cmInstr.h"
  47              		.loc 2 382 0
  48              		.syntax unified
  49              	@ 382 "../e-puck2_main-processor/ChibiOS//os/ext/CMSIS/include/core_cmInstr.h" 1
  50 0008 BFF34F8F 		dsb
  51              	@ 0 "" 2
  52              		.thumb
  53              		.syntax unified
  54              	.LBE23:
  55              	.LBE22:
  56              		.file 3 "../e-puck2_main-processor/ChibiOS//os/ext/CMSIS/include/core_cm4.h"
  57              		.loc 3 1643 0
ARM GAS  /tmp/ccmq2l6R.s 			page 2


  58 000c 0549     		ldr	r1, .L6+4
  59 000e 064B     		ldr	r3, .L6+8
  60 0010 CA68     		ldr	r2, [r1, #12]
  61 0012 02F4E062 		and	r2, r2, #1792
  62 0016 1343     		orrs	r3, r3, r2
  63              		.loc 3 1642 0
  64 0018 CB60     		str	r3, [r1, #12]
  65              	.LBB24:
  66              	.LBB25:
  67              		.loc 2 382 0
  68              		.syntax unified
  69              	@ 382 "../e-puck2_main-processor/ChibiOS//os/ext/CMSIS/include/core_cmInstr.h" 1
  70 001a BFF34F8F 		dsb
  71              	@ 0 "" 2
  72              		.thumb
  73              		.syntax unified
  74              	.L2:
  75 001e FEE7     		b	.L2
  76              	.L7:
  77              		.align	2
  78              	.L6:
  79 0020 00000000 		.word	__stack_chk_guard
  80 0024 00ED00E0 		.word	-536810240
  81 0028 0400FA05 		.word	100270084
  82              	.LBE25:
  83              	.LBE24:
  84              	.LBE21:
  85              	.LBE20:
  86              		.cfi_endproc
  87              	.LFE266:
  88              		.size	AsebaNative__system_reboot, .-AsebaNative__system_reboot
  89              		.section	.text.clear_all_leds,"ax",%progbits
  90              		.align	1
  91              		.p2align 4,,15
  92              		.global	clear_all_leds
  93              		.syntax unified
  94              		.thumb
  95              		.thumb_func
  96              		.fpu fpv4-sp-d16
  97              		.type	clear_all_leds, %function
  98              	clear_all_leds:
  99              	.LFB271:
 100              		.loc 1 242 0
 101              		.cfi_startproc
 102              		@ args = 0, pretend = 0, frame = 8
 103              		@ frame_needed = 0, uses_anonymous_args = 0
 104              	.LVL1:
 105 0000 00B5     		push	{lr}
 106              		.cfi_def_cfa_offset 4
 107              		.cfi_offset 14, -4
 108 0002 174A     		ldr	r2, .L12
 109              		.loc 1 245 0
 110 0004 174B     		ldr	r3, .L12+4
 111              		.loc 1 242 0
 112 0006 1168     		ldr	r1, [r2]
 113 0008 83B0     		sub	sp, sp, #12
 114              		.cfi_def_cfa_offset 16
ARM GAS  /tmp/ccmq2l6R.s 			page 3


 115              		.loc 1 242 0
 116 000a 0191     		str	r1, [sp, #4]
 117              		.loc 1 262 0
 118 000c 0198     		ldr	r0, [sp, #4]
 119              	.LVL2:
 120 000e 1168     		ldr	r1, [r2]
 121              		.loc 1 245 0
 122 0010 0022     		movs	r2, #0
 123              		.loc 1 262 0
 124 0012 8842     		cmp	r0, r1
 125              		.loc 1 245 0
 126 0014 A3F84A20 		strh	r2, [r3, #74]	@ movhi
 127              		.loc 1 246 0
 128 0018 A3F84C20 		strh	r2, [r3, #76]	@ movhi
 129              		.loc 1 247 0
 130 001c A3F84E20 		strh	r2, [r3, #78]	@ movhi
 131              		.loc 1 248 0
 132 0020 A3F85020 		strh	r2, [r3, #80]	@ movhi
 133              		.loc 1 249 0
 134 0024 A3F85220 		strh	r2, [r3, #82]	@ movhi
 135              		.loc 1 250 0
 136 0028 A3F85420 		strh	r2, [r3, #84]	@ movhi
 137              		.loc 1 251 0
 138 002c A3F85620 		strh	r2, [r3, #86]	@ movhi
 139              		.loc 1 252 0
 140 0030 A3F85820 		strh	r2, [r3, #88]	@ movhi
 141              		.loc 1 253 0
 142 0034 A3F85A20 		strh	r2, [r3, #90]	@ movhi
 143              		.loc 1 254 0
 144 0038 A3F85C20 		strh	r2, [r3, #92]	@ movhi
 145              		.loc 1 255 0
 146 003c A3F85E20 		strh	r2, [r3, #94]	@ movhi
 147              		.loc 1 256 0
 148 0040 A3F86020 		strh	r2, [r3, #96]	@ movhi
 149              		.loc 1 257 0
 150 0044 A3F86220 		strh	r2, [r3, #98]	@ movhi
 151              		.loc 1 258 0
 152 0048 A3F86420 		strh	r2, [r3, #100]	@ movhi
 153              		.loc 1 259 0
 154 004c A3F86620 		strh	r2, [r3, #102]	@ movhi
 155              		.loc 1 260 0
 156 0050 A3F86820 		strh	r2, [r3, #104]	@ movhi
 157              		.loc 1 262 0
 158 0054 02D1     		bne	.L11
 159 0056 03B0     		add	sp, sp, #12
 160              		.cfi_remember_state
 161              		.cfi_def_cfa_offset 4
 162              		@ sp needed
 163 0058 5DF804FB 		ldr	pc, [sp], #4
 164              	.L11:
 165              		.cfi_restore_state
 166 005c FFF7FEFF 		bl	__stack_chk_fail
 167              	.LVL3:
 168              	.L13:
 169              		.align	2
 170              	.L12:
 171 0060 00000000 		.word	__stack_chk_guard
ARM GAS  /tmp/ccmq2l6R.s 			page 4


 172 0064 00000000 		.word	.LANCHOR0
 173              		.cfi_endproc
 174              	.LFE271:
 175              		.size	clear_all_leds, .-clear_all_leds
 176              		.section	.text.AsebaNative_settings_save,"ax",%progbits
 177              		.align	1
 178              		.p2align 4,,15
 179              		.global	AsebaNative_settings_save
 180              		.syntax unified
 181              		.thumb
 182              		.thumb_func
 183              		.fpu fpv4-sp-d16
 184              		.type	AsebaNative_settings_save, %function
 185              	AsebaNative_settings_save:
 186              	.LFB269:
 187              		.loc 1 197 0
 188              		.cfi_startproc
 189              		@ args = 0, pretend = 0, frame = 8
 190              		@ frame_needed = 0, uses_anonymous_args = 0
 191              	.LVL4:
 192 0000 70B5     		push	{r4, r5, r6, lr}
 193              		.cfi_def_cfa_offset 16
 194              		.cfi_offset 4, -16
 195              		.cfi_offset 5, -12
 196              		.cfi_offset 6, -8
 197              		.cfi_offset 14, -4
 198              		.loc 1 199 0
 199 0002 1149     		ldr	r1, .L21
 200 0004 114C     		ldr	r4, .L21+4
 201              		.loc 1 197 0
 202 0006 124D     		ldr	r5, .L21+8
 203              		.loc 1 203 0
 204 0008 124A     		ldr	r2, .L21+12
 205              		.loc 1 197 0
 206 000a 2B68     		ldr	r3, [r5]
 207 000c 82B0     		sub	sp, sp, #8
 208              		.cfi_def_cfa_offset 24
 209              		.loc 1 199 0
 210 000e 091B     		subs	r1, r1, r4
 211              		.loc 1 203 0
 212 0010 8910     		asrs	r1, r1, #2
 213              		.loc 1 197 0
 214 0012 0646     		mov	r6, r0
 215              		.loc 1 203 0
 216 0014 2046     		mov	r0, r4
 217              	.LVL5:
 218              		.loc 1 197 0
 219 0016 0193     		str	r3, [sp, #4]
 220              	.LVL6:
 221              		.loc 1 203 0
 222 0018 FFF7FEFF 		bl	config_save
 223              	.LVL7:
 224              		.loc 1 206 0
 225 001c 2146     		mov	r1, r4
 226 001e 0D48     		ldr	r0, .L21+12
 227 0020 FFF7FEFF 		bl	config_load
 228              	.LVL8:
ARM GAS  /tmp/ccmq2l6R.s 			page 5


 229              		.loc 1 209 0
 230 0024 019A     		ldr	r2, [sp, #4]
 231 0026 2B68     		ldr	r3, [r5]
 232              		.loc 1 208 0
 233 0028 18B1     		cbz	r0, .L20
 234              		.loc 1 211 0
 235 002a 9A42     		cmp	r2, r3
 236 002c 0AD1     		bne	.L19
 237 002e 02B0     		add	sp, sp, #8
 238              		.cfi_remember_state
 239              		.cfi_def_cfa_offset 16
 240              		@ sp needed
 241 0030 70BD     		pop	{r4, r5, r6, pc}
 242              	.LVL9:
 243              	.L20:
 244              		.cfi_restore_state
 245              		.loc 1 209 0
 246 0032 9A42     		cmp	r2, r3
 247 0034 06D1     		bne	.L19
 248 0036 0849     		ldr	r1, .L21+16
 249 0038 3046     		mov	r0, r6
 250              	.LVL10:
 251              		.loc 1 211 0
 252 003a 02B0     		add	sp, sp, #8
 253              		.cfi_remember_state
 254              		.cfi_def_cfa_offset 16
 255              		@ sp needed
 256 003c BDE87040 		pop	{r4, r5, r6, lr}
 257              		.cfi_restore 14
 258              		.cfi_restore 6
 259              		.cfi_restore 5
 260              		.cfi_restore 4
 261              		.cfi_def_cfa_offset 0
 262              	.LVL11:
 263              		.loc 1 209 0
 264 0040 FFF7FEBF 		b	AsebaVMEmitNodeSpecificError
 265              	.LVL12:
 266              	.L19:
 267              		.cfi_restore_state
 268              		.loc 1 211 0
 269 0044 FFF7FEFF 		bl	__stack_chk_fail
 270              	.LVL13:
 271              	.L22:
 272              		.align	2
 273              	.L21:
 274 0048 00000000 		.word	_config_end
 275 004c 00000000 		.word	_config_start
 276 0050 00000000 		.word	__stack_chk_guard
 277 0054 00000000 		.word	parameter_root
 278 0058 00000000 		.word	.LC0
 279              		.cfi_endproc
 280              	.LFE269:
 281              		.size	AsebaNative_settings_save, .-AsebaNative_settings_save
 282              		.section	.text.AsebaNative_settings_erase,"ax",%progbits
 283              		.align	1
 284              		.p2align 4,,15
 285              		.global	AsebaNative_settings_erase
ARM GAS  /tmp/ccmq2l6R.s 			page 6


 286              		.syntax unified
 287              		.thumb
 288              		.thumb_func
 289              		.fpu fpv4-sp-d16
 290              		.type	AsebaNative_settings_erase, %function
 291              	AsebaNative_settings_erase:
 292              	.LFB270:
 293              		.loc 1 224 0
 294              		.cfi_startproc
 295              		@ args = 0, pretend = 0, frame = 8
 296              		@ frame_needed = 0, uses_anonymous_args = 0
 297              	.LVL14:
 298 0000 00B5     		push	{lr}
 299              		.cfi_def_cfa_offset 4
 300              		.cfi_offset 14, -4
 301 0002 084B     		ldr	r3, .L28
 302 0004 83B0     		sub	sp, sp, #12
 303              		.cfi_def_cfa_offset 16
 304              		.loc 1 224 0
 305 0006 1A68     		ldr	r2, [r3]
 306 0008 0192     		str	r2, [sp, #4]
 307              		.loc 1 229 0
 308 000a 019A     		ldr	r2, [sp, #4]
 309 000c 1B68     		ldr	r3, [r3]
 310 000e 9A42     		cmp	r2, r3
 311 0010 05D1     		bne	.L27
 312 0012 0548     		ldr	r0, .L28+4
 313              	.LVL15:
 314              		.loc 1 230 0
 315 0014 03B0     		add	sp, sp, #12
 316              		.cfi_remember_state
 317              		.cfi_def_cfa_offset 4
 318              		@ sp needed
 319 0016 5DF804EB 		ldr	lr, [sp], #4
 320              		.cfi_restore 14
 321              		.cfi_def_cfa_offset 0
 322              		.loc 1 229 0
 323 001a FFF7FEBF 		b	config_erase
 324              	.LVL16:
 325              	.L27:
 326              		.cfi_restore_state
 327 001e FFF7FEFF 		bl	__stack_chk_fail
 328              	.LVL17:
 329              	.L29:
 330 0022 00BF     		.align	2
 331              	.L28:
 332 0024 00000000 		.word	__stack_chk_guard
 333 0028 00000000 		.word	_config_start
 334              		.cfi_endproc
 335              	.LFE270:
 336              		.size	AsebaNative_settings_erase, .-AsebaNative_settings_erase
 337              		.section	.text.AsebaNative__system_settings_write,"ax",%progbits
 338              		.align	1
 339              		.p2align 4,,15
 340              		.syntax unified
 341              		.thumb
 342              		.thumb_func
ARM GAS  /tmp/ccmq2l6R.s 			page 7


 343              		.fpu fpv4-sp-d16
 344              		.type	AsebaNative__system_settings_write, %function
 345              	AsebaNative__system_settings_write:
 346              	.LFB268:
 347              		.loc 1 173 0
 348              		.cfi_startproc
 349              		@ args = 0, pretend = 0, frame = 8
 350              		@ frame_needed = 0, uses_anonymous_args = 0
 351              	.LVL18:
 352 0000 F0B5     		push	{r4, r5, r6, r7, lr}
 353              		.cfi_def_cfa_offset 20
 354              		.cfi_offset 4, -20
 355              		.cfi_offset 5, -16
 356              		.cfi_offset 6, -12
 357              		.cfi_offset 7, -8
 358              		.cfi_offset 14, -4
 359              	.LBB26:
 360              	.LBB27:
 361              		.file 4 "../e-puck2_main-processor/aseba/vm/natives.h"
 362              		.loc 4 90 0
 363 0002 B0F91C40 		ldrsh	r4, [r0, #28]
 364 0006 4769     		ldr	r7, [r0, #20]
 365              	.LVL19:
 366              	.LBE27:
 367              	.LBE26:
 368              		.loc 1 174 0
 369 0008 C668     		ldr	r6, [r0, #12]
 370              		.loc 1 173 0
 371 000a 174D     		ldr	r5, .L38
 372              	.LBB29:
 373              	.LBB28:
 374              		.loc 4 90 0
 375 000c A2B2     		uxth	r2, r4
 376 000e 511E     		subs	r1, r2, #1
 377 0010 09B2     		sxth	r1, r1
 378 0012 8183     		strh	r1, [r0, #28]	@ movhi
 379              	.LBE28:
 380              	.LBE29:
 381              		.loc 1 174 0
 382 0014 37F91440 		ldrsh	r4, [r7, r4, lsl #1]
 383              		.loc 1 173 0
 384 0018 D5F800C0 		ldr	ip, [r5]
 385              		.loc 1 174 0
 386 001c 36F81440 		ldrh	r4, [r6, r4, lsl #1]
 387              	.LVL20:
 388              		.loc 1 173 0
 389 0020 83B0     		sub	sp, sp, #12
 390              		.cfi_def_cfa_offset 32
 391              	.LBB30:
 392              	.LBB31:
 393              		.loc 4 90 0
 394 0022 023A     		subs	r2, r2, #2
 395              	.LBE31:
 396              	.LBE30:
 397              		.loc 1 173 0
 398 0024 CDF804C0 		str	ip, [sp, #4]
 399              		.loc 1 177 0
ARM GAS  /tmp/ccmq2l6R.s 			page 8


 400 0028 1F2C     		cmp	r4, #31
 401              	.LBB33:
 402              	.LBB32:
 403              		.loc 4 90 0
 404 002a 8283     		strh	r2, [r0, #28]	@ movhi
 405              	.LVL21:
 406              	.LBE32:
 407              	.LBE33:
 408              		.loc 1 178 0
 409 002c 019A     		ldr	r2, [sp, #4]
 410 002e 2B68     		ldr	r3, [r5]
 411              		.loc 1 177 0
 412 0030 07D9     		bls	.L37
 413              		.loc 1 180 0
 414 0032 9A42     		cmp	r2, r3
 415 0034 15D1     		bne	.L36
 416 0036 0D49     		ldr	r1, .L38+4
 417              	.LVL22:
 418              		.loc 1 182 0
 419 0038 03B0     		add	sp, sp, #12
 420              		.cfi_remember_state
 421              		.cfi_def_cfa_offset 20
 422              		@ sp needed
 423 003a BDE8F040 		pop	{r4, r5, r6, r7, lr}
 424              		.cfi_restore 14
 425              		.cfi_restore 7
 426              		.cfi_restore 6
 427              		.cfi_restore 5
 428              		.cfi_restore 4
 429              		.cfi_def_cfa_offset 0
 430              	.LVL23:
 431              		.loc 1 180 0
 432 003e FFF7FEBF 		b	AsebaVMEmitNodeSpecificError
 433              	.LVL24:
 434              	.L37:
 435              		.cfi_restore_state
 436              		.loc 1 178 0
 437 0042 9A42     		cmp	r2, r3
 438 0044 0DD1     		bne	.L36
 439              		.loc 1 175 0
 440 0046 37F91130 		ldrsh	r3, [r7, r1, lsl #1]
 441              		.loc 1 178 0
 442 004a 0948     		ldr	r0, .L38+8
 443              	.LVL25:
 444 004c 36F81310 		ldrh	r1, [r6, r3, lsl #1]
 445              	.LVL26:
 446 0050 04EB4404 		add	r4, r4, r4, lsl #1
 447              	.LVL27:
 448 0054 00EBC400 		add	r0, r0, r4, lsl #3
 449              		.loc 1 182 0
 450 0058 03B0     		add	sp, sp, #12
 451              		.cfi_remember_state
 452              		.cfi_def_cfa_offset 20
 453              		@ sp needed
 454 005a BDE8F040 		pop	{r4, r5, r6, r7, lr}
 455              		.cfi_restore 14
 456              		.cfi_restore 7
ARM GAS  /tmp/ccmq2l6R.s 			page 9


 457              		.cfi_restore 6
 458              		.cfi_restore 5
 459              		.cfi_restore 4
 460              		.cfi_def_cfa_offset 0
 461              		.loc 1 178 0
 462 005e FFF7FEBF 		b	parameter_integer_set
 463              	.LVL28:
 464              	.L36:
 465              		.cfi_restore_state
 466              		.loc 1 180 0
 467 0062 FFF7FEFF 		bl	__stack_chk_fail
 468              	.LVL29:
 469              	.L39:
 470 0066 00BF     		.align	2
 471              	.L38:
 472 0068 00000000 		.word	__stack_chk_guard
 473 006c 00000000 		.word	.LC1
 474 0070 00000000 		.word	.LANCHOR1
 475              		.cfi_endproc
 476              	.LFE268:
 477              		.size	AsebaNative__system_settings_write, .-AsebaNative__system_settings_write
 478              		.section	.text.AsebaNative__system_settings_read,"ax",%progbits
 479              		.align	1
 480              		.p2align 4,,15
 481              		.syntax unified
 482              		.thumb
 483              		.thumb_func
 484              		.fpu fpv4-sp-d16
 485              		.type	AsebaNative__system_settings_read, %function
 486              	AsebaNative__system_settings_read:
 487              	.LFB267:
 488              		.loc 1 151 0
 489              		.cfi_startproc
 490              		@ args = 0, pretend = 0, frame = 8
 491              		@ frame_needed = 0, uses_anonymous_args = 0
 492              	.LVL30:
 493 0000 F0B5     		push	{r4, r5, r6, r7, lr}
 494              		.cfi_def_cfa_offset 20
 495              		.cfi_offset 4, -20
 496              		.cfi_offset 5, -16
 497              		.cfi_offset 6, -12
 498              		.cfi_offset 7, -8
 499              		.cfi_offset 14, -4
 500              	.LBB34:
 501              	.LBB35:
 502              		.loc 4 90 0
 503 0002 B0F91C10 		ldrsh	r1, [r0, #28]
 504 0006 4769     		ldr	r7, [r0, #20]
 505              	.LVL31:
 506              	.LBE35:
 507              	.LBE34:
 508              		.loc 1 152 0
 509 0008 C668     		ldr	r6, [r0, #12]
 510              		.loc 1 151 0
 511 000a 184D     		ldr	r5, .L48
 512              	.LBB37:
 513              	.LBB36:
ARM GAS  /tmp/ccmq2l6R.s 			page 10


 514              		.loc 4 90 0
 515 000c 8BB2     		uxth	r3, r1
 516 000e 5A1E     		subs	r2, r3, #1
 517 0010 12B2     		sxth	r2, r2
 518 0012 8283     		strh	r2, [r0, #28]	@ movhi
 519              	.LBE36:
 520              	.LBE37:
 521              		.loc 1 152 0
 522 0014 37F91110 		ldrsh	r1, [r7, r1, lsl #1]
 523 0018 36F81110 		ldrh	r1, [r6, r1, lsl #1]
 524              	.LVL32:
 525              		.loc 1 151 0
 526 001c 2E68     		ldr	r6, [r5]
 527 001e 83B0     		sub	sp, sp, #12
 528              		.cfi_def_cfa_offset 32
 529              	.LBB38:
 530              	.LBB39:
 531              		.loc 4 90 0
 532 0020 023B     		subs	r3, r3, #2
 533              	.LBE39:
 534              	.LBE38:
 535              		.loc 1 154 0
 536 0022 1F29     		cmp	r1, #31
 537              		.loc 1 151 0
 538 0024 0196     		str	r6, [sp, #4]
 539              	.LBB42:
 540              	.LBB40:
 541              		.loc 4 90 0
 542 0026 8383     		strh	r3, [r0, #28]	@ movhi
 543              	.LVL33:
 544              	.LBE40:
 545              	.LBE42:
 546              		.loc 1 154 0
 547 0028 09D9     		bls	.L47
 548              		.loc 1 157 0
 549 002a 019A     		ldr	r2, [sp, #4]
 550              	.LVL34:
 551 002c 2B68     		ldr	r3, [r5]
 552              	.LVL35:
 553 002e 9A42     		cmp	r2, r3
 554 0030 19D1     		bne	.L45
 555 0032 0F49     		ldr	r1, .L48+4
 556              	.LVL36:
 557              		.loc 1 159 0
 558 0034 03B0     		add	sp, sp, #12
 559              		.cfi_remember_state
 560              		.cfi_def_cfa_offset 20
 561              		@ sp needed
 562 0036 BDE8F040 		pop	{r4, r5, r6, r7, lr}
 563              		.cfi_restore 14
 564              		.cfi_restore 7
 565              		.cfi_restore 6
 566              		.cfi_restore 5
 567              		.cfi_restore 4
 568              		.cfi_def_cfa_offset 0
 569              		.loc 1 157 0
 570 003a FFF7FEBF 		b	AsebaVMEmitNodeSpecificError
ARM GAS  /tmp/ccmq2l6R.s 			page 11


 571              	.LVL37:
 572              	.L47:
 573              		.cfi_restore_state
 574 003e 0446     		mov	r4, r0
 575              		.loc 1 155 0
 576 0040 0C48     		ldr	r0, .L48+8
 577              	.LVL38:
 578              	.LBB43:
 579              	.LBB41:
 580              		.loc 4 90 0
 581 0042 37F91260 		ldrsh	r6, [r7, r2, lsl #1]
 582              	.LBE41:
 583              	.LBE43:
 584              		.loc 1 155 0
 585 0046 01EB4101 		add	r1, r1, r1, lsl #1
 586              	.LVL39:
 587 004a 00EBC100 		add	r0, r0, r1, lsl #3
 588 004e FFF7FEFF 		bl	parameter_integer_get
 589              	.LVL40:
 590 0052 B6B2     		uxth	r6, r6
 591 0054 E368     		ldr	r3, [r4, #12]
 592              		.loc 1 159 0
 593 0056 019A     		ldr	r2, [sp, #4]
 594              		.loc 1 155 0
 595 0058 23F81600 		strh	r0, [r3, r6, lsl #1]	@ movhi
 596              		.loc 1 159 0
 597 005c 2B68     		ldr	r3, [r5]
 598 005e 9A42     		cmp	r2, r3
 599 0060 01D1     		bne	.L45
 600 0062 03B0     		add	sp, sp, #12
 601              		.cfi_remember_state
 602              		.cfi_def_cfa_offset 20
 603              		@ sp needed
 604 0064 F0BD     		pop	{r4, r5, r6, r7, pc}
 605              	.LVL41:
 606              	.L45:
 607              		.cfi_restore_state
 608 0066 FFF7FEFF 		bl	__stack_chk_fail
 609              	.LVL42:
 610              	.L49:
 611 006a 00BF     		.align	2
 612              	.L48:
 613 006c 00000000 		.word	__stack_chk_guard
 614 0070 00000000 		.word	.LC1
 615 0074 00000000 		.word	.LANCHOR1
 616              		.cfi_endproc
 617              	.LFE267:
 618              		.size	AsebaNative__system_settings_read, .-AsebaNative__system_settings_read
 619              		.section	.text.aseba_variables_init,"ax",%progbits
 620              		.align	1
 621              		.p2align 4,,15
 622              		.global	aseba_variables_init
 623              		.syntax unified
 624              		.thumb
 625              		.thumb_func
 626              		.fpu fpv4-sp-d16
 627              		.type	aseba_variables_init, %function
ARM GAS  /tmp/ccmq2l6R.s 			page 12


 628              	aseba_variables_init:
 629              	.LFB260:
 630              		.loc 1 57 0
 631              		.cfi_startproc
 632              		@ args = 0, pretend = 0, frame = 8
 633              		@ frame_needed = 0, uses_anonymous_args = 0
 634              	.LVL43:
 635 0000 2DE9F043 		push	{r4, r5, r6, r7, r8, r9, lr}
 636              		.cfi_def_cfa_offset 28
 637              		.cfi_offset 4, -28
 638              		.cfi_offset 5, -24
 639              		.cfi_offset 6, -20
 640              		.cfi_offset 7, -16
 641              		.cfi_offset 8, -12
 642              		.cfi_offset 9, -8
 643              		.cfi_offset 14, -4
 644 0004 DFF87090 		ldr	r9, .L56+16
 645              		.loc 1 59 0
 646 0008 174B     		ldr	r3, .L56
 647              		.loc 1 57 0
 648 000a D9F80020 		ldr	r2, [r9]
 649 000e 174D     		ldr	r5, .L56+4
 650 0010 174E     		ldr	r6, .L56+8
 651              		.loc 1 70 0
 652 0012 184F     		ldr	r7, .L56+12
 653              		.loc 1 57 0
 654 0014 83B0     		sub	sp, sp, #12
 655              		.cfi_def_cfa_offset 40
 656              		.loc 1 57 0
 657 0016 8046     		mov	r8, r0
 658 0018 0192     		str	r2, [sp, #4]
 659              		.loc 1 59 0
 660 001a 1846     		mov	r0, r3
 661              	.LVL44:
 662 001c 40F27622 		movw	r2, #630
 663 0020 0021     		movs	r1, #0
 664 0022 FFF7FEFF 		bl	memset
 665              	.LVL45:
 666              		.loc 1 63 0
 667 0026 0122     		movs	r2, #1
 668 0028 A0F84620 		strh	r2, [r0, #70]	@ movhi
 669              	.LVL46:
 670              		.loc 1 69 0
 671 002c 1F24     		movs	r4, #31
 672              	.LVL47:
 673              	.L51:
 674              		.loc 1 70 0 discriminator 3
 675 002e 2246     		mov	r2, r4
 676 0030 3946     		mov	r1, r7
 677 0032 2846     		mov	r0, r5
 678 0034 FFF7FEFF 		bl	sprintf
 679              	.LVL48:
 680              		.loc 1 69 0 discriminator 3
 681 0038 013C     		subs	r4, r4, #1
 682              	.LVL49:
 683              		.loc 1 71 0 discriminator 3
 684 003a 0023     		movs	r3, #0
ARM GAS  /tmp/ccmq2l6R.s 			page 13


 685 003c 2A46     		mov	r2, r5
 686 003e 3046     		mov	r0, r6
 687 0040 4146     		mov	r1, r8
 688 0042 FFF7FEFF 		bl	parameter_integer_declare_with_default
 689              	.LVL50:
 690              		.loc 1 69 0 discriminator 3
 691 0046 631C     		adds	r3, r4, #1
 692 0048 A5F10A05 		sub	r5, r5, #10
 693 004c A6F11806 		sub	r6, r6, #24
 694 0050 EDD1     		bne	.L51
 695              		.loc 1 76 0
 696 0052 019A     		ldr	r2, [sp, #4]
 697 0054 D9F80030 		ldr	r3, [r9]
 698 0058 9A42     		cmp	r2, r3
 699 005a 02D1     		bne	.L55
 700 005c 03B0     		add	sp, sp, #12
 701              		.cfi_remember_state
 702              		.cfi_def_cfa_offset 28
 703              		@ sp needed
 704 005e BDE8F083 		pop	{r4, r5, r6, r7, r8, r9, pc}
 705              	.LVL51:
 706              	.L55:
 707              		.cfi_restore_state
 708 0062 FFF7FEFF 		bl	__stack_chk_fail
 709              	.LVL52:
 710              	.L57:
 711 0066 00BF     		.align	2
 712              	.L56:
 713 0068 00000000 		.word	.LANCHOR0
 714 006c 36010000 		.word	.LANCHOR2+310
 715 0070 E8020000 		.word	.LANCHOR1+744
 716 0074 00000000 		.word	.LC2
 717 0078 00000000 		.word	__stack_chk_guard
 718              		.cfi_endproc
 719              	.LFE260:
 720              		.size	aseba_variables_init, .-aseba_variables_init
 721              		.section	.text.aseba_read_variables_from_system,"ax",%progbits
 722              		.align	1
 723              		.p2align 4,,15
 724              		.global	aseba_read_variables_from_system
 725              		.syntax unified
 726              		.thumb
 727              		.thumb_func
 728              		.fpu fpv4-sp-d16
 729              		.type	aseba_read_variables_from_system, %function
 730              	aseba_read_variables_from_system:
 731              	.LFB261:
 732              		.loc 1 79 0
 733              		.cfi_startproc
 734              		@ args = 0, pretend = 0, frame = 8
 735              		@ frame_needed = 0, uses_anonymous_args = 0
 736              	.LVL53:
 737 0000 00B5     		push	{lr}
 738              		.cfi_def_cfa_offset 4
 739              		.cfi_offset 14, -4
 740 0002 084B     		ldr	r3, .L62
 741              		.loc 1 80 0
ARM GAS  /tmp/ccmq2l6R.s 			page 14


 742 0004 0849     		ldr	r1, .L62+4
 743              		.loc 1 79 0
 744 0006 1A68     		ldr	r2, [r3]
 745              		.loc 1 80 0
 746 0008 0088     		ldrh	r0, [r0]
 747              	.LVL54:
 748 000a 0880     		strh	r0, [r1]	@ movhi
 749              		.loc 1 79 0
 750 000c 83B0     		sub	sp, sp, #12
 751              		.cfi_def_cfa_offset 16
 752              		.loc 1 79 0
 753 000e 0192     		str	r2, [sp, #4]
 754              		.loc 1 81 0
 755 0010 019A     		ldr	r2, [sp, #4]
 756 0012 1B68     		ldr	r3, [r3]
 757 0014 9A42     		cmp	r2, r3
 758 0016 02D1     		bne	.L61
 759 0018 03B0     		add	sp, sp, #12
 760              		.cfi_remember_state
 761              		.cfi_def_cfa_offset 4
 762              		@ sp needed
 763 001a 5DF804FB 		ldr	pc, [sp], #4
 764              	.L61:
 765              		.cfi_restore_state
 766 001e FFF7FEFF 		bl	__stack_chk_fail
 767              	.LVL55:
 768              	.L63:
 769 0022 00BF     		.align	2
 770              	.L62:
 771 0024 00000000 		.word	__stack_chk_guard
 772 0028 00000000 		.word	.LANCHOR0
 773              		.cfi_endproc
 774              	.LFE261:
 775              		.size	aseba_read_variables_from_system, .-aseba_read_variables_from_system
 776              		.section	.text.imu_cb,"ax",%progbits
 777              		.align	1
 778              		.p2align 4,,15
 779              		.global	imu_cb
 780              		.syntax unified
 781              		.thumb
 782              		.thumb_func
 783              		.fpu fpv4-sp-d16
 784              		.type	imu_cb, %function
 785              	imu_cb:
 786              	.LFB263:
 787              		.loc 1 93 0
 788              		.cfi_startproc
 789              		@ args = 0, pretend = 0, frame = 8
 790              		@ frame_needed = 0, uses_anonymous_args = 0
 791 0000 70B5     		push	{r4, r5, r6, lr}
 792              		.cfi_def_cfa_offset 16
 793              		.cfi_offset 4, -16
 794              		.cfi_offset 5, -12
 795              		.cfi_offset 6, -8
 796              		.cfi_offset 14, -4
 797 0002 2DED028B 		vpush.64	{d8}
 798              		.cfi_def_cfa_offset 24
ARM GAS  /tmp/ccmq2l6R.s 			page 15


 799              		.cfi_offset 80, -24
 800              		.cfi_offset 81, -20
 801 0006 234D     		ldr	r5, .L68
 802              		.loc 1 94 0
 803 0008 9FED238A 		vldr.32	s16, .L68+4
 804              		.loc 1 93 0
 805 000c 2B68     		ldr	r3, [r5]
 806              		.loc 1 94 0
 807 000e 234C     		ldr	r4, .L68+8
 808              		.loc 1 93 0
 809 0010 82B0     		sub	sp, sp, #8
 810              		.cfi_def_cfa_offset 32
 811              		.loc 1 94 0
 812 0012 0020     		movs	r0, #0
 813              		.loc 1 93 0
 814 0014 0193     		str	r3, [sp, #4]
 815              		.loc 1 94 0
 816 0016 FFF7FEFF 		bl	get_acceleration
 817              	.LVL56:
 818 001a 20EE080A 		vmul.f32	s0, s0, s16
 819              		.loc 1 95 0
 820 001e 0120     		movs	r0, #1
 821              		.loc 1 94 0
 822 0020 BDEEC00A 		vcvt.s32.f32	s0, s0
 823 0024 10EE103A 		vmov	r3, s0	@ int
 824 0028 A4F86A30 		strh	r3, [r4, #106]	@ movhi
 825              		.loc 1 95 0
 826 002c FFF7FEFF 		bl	get_acceleration
 827              	.LVL57:
 828 0030 20EE080A 		vmul.f32	s0, s0, s16
 829              		.loc 1 96 0
 830 0034 0220     		movs	r0, #2
 831              		.loc 1 95 0
 832 0036 BDEEC00A 		vcvt.s32.f32	s0, s0
 833 003a 10EE103A 		vmov	r3, s0	@ int
 834 003e A4F86C30 		strh	r3, [r4, #108]	@ movhi
 835              		.loc 1 96 0
 836 0042 FFF7FEFF 		bl	get_acceleration
 837              	.LVL58:
 838 0046 20EE080A 		vmul.f32	s0, s0, s16
 839              		.loc 1 98 0
 840 004a 0020     		movs	r0, #0
 841              		.loc 1 96 0
 842 004c BDEEC00A 		vcvt.s32.f32	s0, s0
 843 0050 10EE103A 		vmov	r3, s0	@ int
 844 0054 A4F86E30 		strh	r3, [r4, #110]	@ movhi
 845              		.loc 1 98 0
 846 0058 FFF7FEFF 		bl	get_gyro
 847              	.LVL59:
 848 005c A4F87000 		strh	r0, [r4, #112]	@ movhi
 849              		.loc 1 99 0
 850 0060 0120     		movs	r0, #1
 851 0062 FFF7FEFF 		bl	get_gyro
 852              	.LVL60:
 853 0066 A4F87200 		strh	r0, [r4, #114]	@ movhi
 854              		.loc 1 100 0
 855 006a 0220     		movs	r0, #2
ARM GAS  /tmp/ccmq2l6R.s 			page 16


 856 006c FFF7FEFF 		bl	get_gyro
 857              	.LVL61:
 858              		.loc 1 102 0
 859 0070 0B4A     		ldr	r2, .L68+12
 860              		.loc 1 103 0
 861 0072 019E     		ldr	r6, [sp, #4]
 862              		.loc 1 102 0
 863 0074 1368     		ldr	r3, [r2]
 864              		.loc 1 103 0
 865 0076 2968     		ldr	r1, [r5]
 866              		.loc 1 100 0
 867 0078 A4F87400 		strh	r0, [r4, #116]	@ movhi
 868              		.loc 1 102 0
 869 007c 43F00103 		orr	r3, r3, #1
 870              		.loc 1 103 0
 871 0080 8E42     		cmp	r6, r1
 872              		.loc 1 102 0
 873 0082 1360     		str	r3, [r2]
 874              		.loc 1 103 0
 875 0084 03D1     		bne	.L67
 876 0086 02B0     		add	sp, sp, #8
 877              		.cfi_remember_state
 878              		.cfi_def_cfa_offset 24
 879              		@ sp needed
 880 0088 BDEC028B 		vldm	sp!, {d8}
 881              		.cfi_restore 80
 882              		.cfi_restore 81
 883              		.cfi_def_cfa_offset 16
 884 008c 70BD     		pop	{r4, r5, r6, pc}
 885              	.L67:
 886              		.cfi_restore_state
 887 008e FFF7FEFF 		bl	__stack_chk_fail
 888              	.LVL62:
 889              	.L69:
 890 0092 00BF     		.align	2
 891              	.L68:
 892 0094 00000000 		.word	__stack_chk_guard
 893 0098 00007A44 		.word	1148846080
 894 009c 00000000 		.word	.LANCHOR0
 895 00a0 00000000 		.word	events_flags
 896              		.cfi_endproc
 897              	.LFE263:
 898              		.size	imu_cb, .-imu_cb
 899              		.section	.text.leds_cb,"ax",%progbits
 900              		.align	1
 901              		.p2align 4,,15
 902              		.global	leds_cb
 903              		.syntax unified
 904              		.thumb
 905              		.thumb_func
 906              		.fpu fpv4-sp-d16
 907              		.type	leds_cb, %function
 908              	leds_cb:
 909              	.LFB264:
 910              		.loc 1 105 0
 911              		.cfi_startproc
 912              		@ args = 0, pretend = 0, frame = 8
ARM GAS  /tmp/ccmq2l6R.s 			page 17


 913              		@ frame_needed = 0, uses_anonymous_args = 0
 914 0000 30B5     		push	{r4, r5, lr}
 915              		.cfi_def_cfa_offset 12
 916              		.cfi_offset 4, -12
 917              		.cfi_offset 5, -8
 918              		.cfi_offset 14, -4
 919              		.loc 1 107 0
 920 0002 234C     		ldr	r4, .L75
 921              		.loc 1 105 0
 922 0004 234D     		ldr	r5, .L75+4
 923              		.loc 1 107 0
 924 0006 B4F84A10 		ldrh	r1, [r4, #74]
 925              		.loc 1 105 0
 926 000a 2B68     		ldr	r3, [r5]
 927 000c 83B0     		sub	sp, sp, #12
 928              		.cfi_def_cfa_offset 24
 929              		.loc 1 107 0
 930 000e 0020     		movs	r0, #0
 931              		.loc 1 105 0
 932 0010 0193     		str	r3, [sp, #4]
 933              		.loc 1 107 0
 934 0012 FFF7FEFF 		bl	set_led
 935              	.LVL63:
 936              		.loc 1 108 0
 937 0016 94F85030 		ldrb	r3, [r4, #80]	@ zero_extendqisi2
 938 001a 94F84E20 		ldrb	r2, [r4, #78]	@ zero_extendqisi2
 939 001e 94F84C10 		ldrb	r1, [r4, #76]	@ zero_extendqisi2
 940 0022 0020     		movs	r0, #0
 941 0024 FFF7FEFF 		bl	set_rgb_led
 942              	.LVL64:
 943              		.loc 1 109 0
 944 0028 B4F85210 		ldrh	r1, [r4, #82]
 945 002c 0120     		movs	r0, #1
 946 002e FFF7FEFF 		bl	set_led
 947              	.LVL65:
 948              		.loc 1 110 0
 949 0032 94F85830 		ldrb	r3, [r4, #88]	@ zero_extendqisi2
 950 0036 94F85620 		ldrb	r2, [r4, #86]	@ zero_extendqisi2
 951 003a 94F85410 		ldrb	r1, [r4, #84]	@ zero_extendqisi2
 952 003e 0120     		movs	r0, #1
 953 0040 FFF7FEFF 		bl	set_rgb_led
 954              	.LVL66:
 955              		.loc 1 111 0
 956 0044 B4F85A10 		ldrh	r1, [r4, #90]
 957 0048 0220     		movs	r0, #2
 958 004a FFF7FEFF 		bl	set_led
 959              	.LVL67:
 960              		.loc 1 112 0
 961 004e 94F86030 		ldrb	r3, [r4, #96]	@ zero_extendqisi2
 962 0052 94F85E20 		ldrb	r2, [r4, #94]	@ zero_extendqisi2
 963 0056 94F85C10 		ldrb	r1, [r4, #92]	@ zero_extendqisi2
 964 005a 0220     		movs	r0, #2
 965 005c FFF7FEFF 		bl	set_rgb_led
 966              	.LVL68:
 967              		.loc 1 113 0
 968 0060 B4F86210 		ldrh	r1, [r4, #98]
 969 0064 0320     		movs	r0, #3
ARM GAS  /tmp/ccmq2l6R.s 			page 18


 970 0066 FFF7FEFF 		bl	set_led
 971              	.LVL69:
 972              		.loc 1 114 0
 973 006a 019A     		ldr	r2, [sp, #4]
 974 006c 2B68     		ldr	r3, [r5]
 975 006e 9A42     		cmp	r2, r3
 976 0070 0BD1     		bne	.L74
 977 0072 94F86830 		ldrb	r3, [r4, #104]	@ zero_extendqisi2
 978 0076 94F86620 		ldrb	r2, [r4, #102]	@ zero_extendqisi2
 979 007a 94F86410 		ldrb	r1, [r4, #100]	@ zero_extendqisi2
 980 007e 0320     		movs	r0, #3
 981              		.loc 1 115 0
 982 0080 03B0     		add	sp, sp, #12
 983              		.cfi_remember_state
 984              		.cfi_def_cfa_offset 12
 985              		@ sp needed
 986 0082 BDE83040 		pop	{r4, r5, lr}
 987              		.cfi_restore 14
 988              		.cfi_restore 5
 989              		.cfi_restore 4
 990              		.cfi_def_cfa_offset 0
 991              		.loc 1 114 0
 992 0086 FFF7FEBF 		b	set_rgb_led
 993              	.LVL70:
 994              	.L74:
 995              		.cfi_restore_state
 996 008a FFF7FEFF 		bl	__stack_chk_fail
 997              	.LVL71:
 998              	.L76:
 999 008e 00BF     		.align	2
 1000              	.L75:
 1001 0090 00000000 		.word	.LANCHOR0
 1002 0094 00000000 		.word	__stack_chk_guard
 1003              		.cfi_endproc
 1004              	.LFE264:
 1005              		.size	leds_cb, .-leds_cb
 1006              		.section	.text.aseba_write_variables_to_system,"ax",%progbits
 1007              		.align	1
 1008              		.p2align 4,,15
 1009              		.global	aseba_write_variables_to_system
 1010              		.syntax unified
 1011              		.thumb
 1012              		.thumb_func
 1013              		.fpu fpv4-sp-d16
 1014              		.type	aseba_write_variables_to_system, %function
 1015              	aseba_write_variables_to_system:
 1016              	.LFB262:
 1017              		.loc 1 84 0
 1018              		.cfi_startproc
 1019              		@ args = 0, pretend = 0, frame = 8
 1020              		@ frame_needed = 0, uses_anonymous_args = 0
 1021              	.LVL72:
 1022 0000 10B5     		push	{r4, lr}
 1023              		.cfi_def_cfa_offset 8
 1024              		.cfi_offset 4, -8
 1025              		.cfi_offset 14, -4
 1026 0002 084C     		ldr	r4, .L82
ARM GAS  /tmp/ccmq2l6R.s 			page 19


 1027 0004 82B0     		sub	sp, sp, #8
 1028              		.cfi_def_cfa_offset 16
 1029              		.loc 1 84 0
 1030 0006 2368     		ldr	r3, [r4]
 1031 0008 0193     		str	r3, [sp, #4]
 1032              		.loc 1 87 0
 1033 000a FFF7FEFF 		bl	imu_cb
 1034              	.LVL73:
 1035              		.loc 1 88 0
 1036 000e 019A     		ldr	r2, [sp, #4]
 1037 0010 2368     		ldr	r3, [r4]
 1038 0012 9A42     		cmp	r2, r3
 1039 0014 04D1     		bne	.L81
 1040              		.loc 1 89 0
 1041 0016 02B0     		add	sp, sp, #8
 1042              		.cfi_remember_state
 1043              		.cfi_def_cfa_offset 8
 1044              		@ sp needed
 1045 0018 BDE81040 		pop	{r4, lr}
 1046              		.cfi_restore 14
 1047              		.cfi_restore 4
 1048              		.cfi_def_cfa_offset 0
 1049              		.loc 1 88 0
 1050 001c FFF7FEBF 		b	leds_cb
 1051              	.LVL74:
 1052              	.L81:
 1053              		.cfi_restore_state
 1054 0020 FFF7FEFF 		bl	__stack_chk_fail
 1055              	.LVL75:
 1056              	.L83:
 1057              		.align	2
 1058              	.L82:
 1059 0024 00000000 		.word	__stack_chk_guard
 1060              		.cfi_endproc
 1061              	.LFE262:
 1062              		.size	aseba_write_variables_to_system, .-aseba_write_variables_to_system
 1063              		.section	.text.button_cb,"ax",%progbits
 1064              		.align	1
 1065              		.p2align 4,,15
 1066              		.global	button_cb
 1067              		.syntax unified
 1068              		.thumb
 1069              		.thumb_func
 1070              		.fpu fpv4-sp-d16
 1071              		.type	button_cb, %function
 1072              	button_cb:
 1073              	.LFB265:
 1074              		.loc 1 118 0
 1075              		.cfi_startproc
 1076              		@ args = 0, pretend = 0, frame = 8
 1077              		@ frame_needed = 0, uses_anonymous_args = 0
 1078 0000 00B5     		push	{lr}
 1079              		.cfi_def_cfa_offset 4
 1080              		.cfi_offset 14, -4
 1081 0002 0949     		ldr	r1, .L88
 1082              		.loc 1 119 0
 1083 0004 094A     		ldr	r2, .L88+4
ARM GAS  /tmp/ccmq2l6R.s 			page 20


 1084              		.loc 1 118 0
 1085 0006 0B68     		ldr	r3, [r1]
 1086 0008 83B0     		sub	sp, sp, #12
 1087              		.cfi_def_cfa_offset 16
 1088              		.loc 1 118 0
 1089 000a 0193     		str	r3, [sp, #4]
 1090              		.loc 1 120 0
 1091 000c 0198     		ldr	r0, [sp, #4]
 1092              		.loc 1 119 0
 1093 000e 1368     		ldr	r3, [r2]
 1094              		.loc 1 120 0
 1095 0010 0968     		ldr	r1, [r1]
 1096              		.loc 1 119 0
 1097 0012 43F00203 		orr	r3, r3, #2
 1098              		.loc 1 120 0
 1099 0016 8842     		cmp	r0, r1
 1100              		.loc 1 119 0
 1101 0018 1360     		str	r3, [r2]
 1102              		.loc 1 120 0
 1103 001a 02D1     		bne	.L87
 1104 001c 03B0     		add	sp, sp, #12
 1105              		.cfi_remember_state
 1106              		.cfi_def_cfa_offset 4
 1107              		@ sp needed
 1108 001e 5DF804FB 		ldr	pc, [sp], #4
 1109              	.L87:
 1110              		.cfi_restore_state
 1111 0022 FFF7FEFF 		bl	__stack_chk_fail
 1112              	.LVL76:
 1113              	.L89:
 1114 0026 00BF     		.align	2
 1115              	.L88:
 1116 0028 00000000 		.word	__stack_chk_guard
 1117 002c 00000000 		.word	events_flags
 1118              		.cfi_endproc
 1119              	.LFE265:
 1120              		.size	button_cb, .-button_cb
 1121              		.global	nativeFunctions_length
 1122              		.global	nativeFunctions
 1123              		.global	nativeFunctionsDescription
 1124              		.global	AsebaNativeDescription_clear_all_leds
 1125              		.global	localEvents
 1126              		.global	vmDescription
 1127              		.global	vmVariables
 1128              		.section	.bss.aseba_settings,"aw",%nobits
 1129              		.align	2
 1130              		.set	.LANCHOR1,. + 0
 1131              		.type	aseba_settings, %object
 1132              		.size	aseba_settings, 768
 1133              	aseba_settings:
 1134 0000 00000000 		.space	768
 1134      00000000 
 1134      00000000 
 1134      00000000 
 1134      00000000 
 1135              		.section	.bss.aseba_settings_name,"aw",%nobits
 1136              		.align	2
ARM GAS  /tmp/ccmq2l6R.s 			page 21


 1137              		.set	.LANCHOR2,. + 0
 1138              		.type	aseba_settings_name, %object
 1139              		.size	aseba_settings_name, 320
 1140              	aseba_settings_name:
 1141 0000 00000000 		.space	320
 1141      00000000 
 1141      00000000 
 1141      00000000 
 1141      00000000 
 1142              		.section	.bss.vmVariables,"aw",%nobits
 1143              		.align	2
 1144              		.set	.LANCHOR0,. + 0
 1145              		.type	vmVariables, %object
 1146              		.size	vmVariables, 630
 1147              	vmVariables:
 1148 0000 00000000 		.space	630
 1148      00000000 
 1148      00000000 
 1148      00000000 
 1148      00000000 
 1149              		.section	.data.AsebaNativeDescription__system_reboot,"aw",%progbits
 1150              		.align	2
 1151              		.type	AsebaNativeDescription__system_reboot, %object
 1152              		.size	AsebaNativeDescription__system_reboot, 16
 1153              	AsebaNativeDescription__system_reboot:
 1154 0000 04010000 		.word	.LC15
 1155 0004 14010000 		.word	.LC16
 1156 0008 0000     		.short	0
 1157 000a 0000     		.space	2
 1158 000c 00000000 		.word	0
 1159              		.section	.data.AsebaNativeDescription__system_settings_read,"aw",%progbits
 1160              		.align	2
 1161              		.type	AsebaNativeDescription__system_settings_read, %object
 1162              		.size	AsebaNativeDescription__system_settings_read, 32
 1163              	AsebaNativeDescription__system_settings_read:
 1164 0000 DC000000 		.word	.LC13
 1165 0004 F4000000 		.word	.LC14
 1166 0008 0100     		.short	1
 1167 000a 0000     		.space	2
 1168 000c CC000000 		.word	.LC11
 1169 0010 0100     		.short	1
 1170 0012 0000     		.space	2
 1171 0014 D4000000 		.word	.LC12
 1172 0018 0000     		.short	0
 1173 001a 0000     		.space	2
 1174 001c 00000000 		.word	0
 1175              		.section	.data.AsebaNativeDescription__system_settings_write,"aw",%progbits
 1176              		.align	2
 1177              		.type	AsebaNativeDescription__system_settings_write, %object
 1178              		.size	AsebaNativeDescription__system_settings_write, 32
 1179              	AsebaNativeDescription__system_settings_write:
 1180 0000 A4000000 		.word	.LC9
 1181 0004 BC000000 		.word	.LC10
 1182 0008 0100     		.short	1
 1183 000a 0000     		.space	2
 1184 000c CC000000 		.word	.LC11
 1185 0010 0100     		.short	1
ARM GAS  /tmp/ccmq2l6R.s 			page 22


 1186 0012 0000     		.space	2
 1187 0014 D4000000 		.word	.LC12
 1188 0018 0000     		.short	0
 1189 001a 0000     		.space	2
 1190 001c 00000000 		.word	0
 1191              		.section	.data.AsebaNativeDescription_clear_all_leds,"aw",%progbits
 1192              		.align	2
 1193              		.type	AsebaNativeDescription_clear_all_leds, %object
 1194              		.size	AsebaNativeDescription_clear_all_leds, 16
 1195              	AsebaNativeDescription_clear_all_leds:
 1196 0000 00000000 		.word	.LC3
 1197 0004 10000000 		.word	.LC4
 1198 0008 0000     		.short	0
 1199 000a 0000     		.space	2
 1200 000c 00000000 		.word	0
 1201              		.section	.data.AsebaNativeDescription_settings_erase,"aw",%progbits
 1202              		.align	2
 1203              		.type	AsebaNativeDescription_settings_erase, %object
 1204              		.size	AsebaNativeDescription_settings_erase, 16
 1205              	AsebaNativeDescription_settings_erase:
 1206 0000 24000000 		.word	.LC5
 1207 0004 3C000000 		.word	.LC6
 1208 0008 0000     		.short	0
 1209 000a 0000     		.space	2
 1210 000c 00000000 		.word	0
 1211              		.section	.data.AsebaNativeDescription_settings_save,"aw",%progbits
 1212              		.align	2
 1213              		.type	AsebaNativeDescription_settings_save, %object
 1214              		.size	AsebaNativeDescription_settings_save, 16
 1215              	AsebaNativeDescription_settings_save:
 1216 0000 70000000 		.word	.LC7
 1217 0004 88000000 		.word	.LC8
 1218 0008 0000     		.short	0
 1219 000a 0000     		.space	2
 1220 000c 00000000 		.word	0
 1221              		.section	.data.nativeFunctions,"aw",%progbits
 1222              		.align	2
 1223              		.type	nativeFunctions, %object
 1224              		.size	nativeFunctions, 108
 1225              	nativeFunctions:
 1226 0000 00000000 		.word	AsebaNative__system_reboot
 1227 0004 00000000 		.word	AsebaNative__system_settings_read
 1228 0008 00000000 		.word	AsebaNative__system_settings_write
 1229 000c 00000000 		.word	AsebaNative_settings_save
 1230 0010 00000000 		.word	AsebaNative_settings_erase
 1231 0014 00000000 		.word	clear_all_leds
 1232 0018 00000000 		.word	AsebaNative_veccopy
 1233 001c 00000000 		.word	AsebaNative_vecfill
 1234 0020 00000000 		.word	AsebaNative_vecaddscalar
 1235 0024 00000000 		.word	AsebaNative_vecadd
 1236 0028 00000000 		.word	AsebaNative_vecsub
 1237 002c 00000000 		.word	AsebaNative_vecmul
 1238 0030 00000000 		.word	AsebaNative_vecdiv
 1239 0034 00000000 		.word	AsebaNative_vecmin
 1240 0038 00000000 		.word	AsebaNative_vecmax
 1241 003c 00000000 		.word	AsebaNative_vecclamp
 1242 0040 00000000 		.word	AsebaNative_vecdot
ARM GAS  /tmp/ccmq2l6R.s 			page 23


 1243 0044 00000000 		.word	AsebaNative_vecstat
 1244 0048 00000000 		.word	AsebaNative_vecargbounds
 1245 004c 00000000 		.word	AsebaNative_vecsort
 1246 0050 00000000 		.word	AsebaNative_mathmuldiv
 1247 0054 00000000 		.word	AsebaNative_mathatan2
 1248 0058 00000000 		.word	AsebaNative_mathsin
 1249 005c 00000000 		.word	AsebaNative_mathcos
 1250 0060 00000000 		.word	AsebaNative_mathrot2
 1251 0064 00000000 		.word	AsebaNative_mathsqrt
 1252 0068 00000000 		.word	AsebaNative_rand
 1253              		.section	.data.nativeFunctionsDescription,"aw",%progbits
 1254              		.align	2
 1255              		.type	nativeFunctionsDescription, %object
 1256              		.size	nativeFunctionsDescription, 112
 1257              	nativeFunctionsDescription:
 1258 0000 00000000 		.word	AsebaNativeDescription__system_reboot
 1259 0004 00000000 		.word	AsebaNativeDescription__system_settings_read
 1260 0008 00000000 		.word	AsebaNativeDescription__system_settings_write
 1261 000c 00000000 		.word	AsebaNativeDescription_settings_save
 1262 0010 00000000 		.word	AsebaNativeDescription_settings_erase
 1263 0014 00000000 		.word	AsebaNativeDescription_clear_all_leds
 1264 0018 00000000 		.word	AsebaNativeDescription_veccopy
 1265 001c 00000000 		.word	AsebaNativeDescription_vecfill
 1266 0020 00000000 		.word	AsebaNativeDescription_vecaddscalar
 1267 0024 00000000 		.word	AsebaNativeDescription_vecadd
 1268 0028 00000000 		.word	AsebaNativeDescription_vecsub
 1269 002c 00000000 		.word	AsebaNativeDescription_vecmul
 1270 0030 00000000 		.word	AsebaNativeDescription_vecdiv
 1271 0034 00000000 		.word	AsebaNativeDescription_vecmin
 1272 0038 00000000 		.word	AsebaNativeDescription_vecmax
 1273 003c 00000000 		.word	AsebaNativeDescription_vecclamp
 1274 0040 00000000 		.word	AsebaNativeDescription_vecdot
 1275 0044 00000000 		.word	AsebaNativeDescription_vecstat
 1276 0048 00000000 		.word	AsebaNativeDescription_vecargbounds
 1277 004c 00000000 		.word	AsebaNativeDescription_vecsort
 1278 0050 00000000 		.word	AsebaNativeDescription_mathmuldiv
 1279 0054 00000000 		.word	AsebaNativeDescription_mathatan2
 1280 0058 00000000 		.word	AsebaNativeDescription_mathsin
 1281 005c 00000000 		.word	AsebaNativeDescription_mathcos
 1282 0060 00000000 		.word	AsebaNativeDescription_mathrot2
 1283 0064 00000000 		.word	AsebaNativeDescription_mathsqrt
 1284 0068 00000000 		.word	AsebaNativeDescription_rand
 1285 006c 00000000 		.word	0
 1286              		.section	.rodata.AsebaNative__system_settings_write.str1.4,"aMS",%progbits,1
 1287              		.align	2
 1288              	.LC1:
 1289 0000 496E7661 		.ascii	"Invalid settings address.\000"
 1289      6C696420 
 1289      73657474 
 1289      696E6773 
 1289      20616464 
 1290              		.section	.rodata.AsebaNative_settings_save.str1.4,"aMS",%progbits,1
 1291              		.align	2
 1292              	.LC0:
 1293 0000 436F6E66 		.ascii	"Config save failed!\000"
 1293      69672073 
 1293      61766520 
ARM GAS  /tmp/ccmq2l6R.s 			page 24


 1293      6661696C 
 1293      65642100 
 1294              		.section	.rodata.aseba_variables_init.str1.4,"aMS",%progbits,1
 1295              		.align	2
 1296              	.LC2:
 1297 0000 256400   		.ascii	"%d\000"
 1298              		.section	.rodata.localEvents,"a",%progbits
 1299              		.align	2
 1300              		.type	localEvents, %object
 1301              		.size	localEvents, 24
 1302              	localEvents:
 1303 0000 30010000 		.word	.LC17
 1304 0004 38010000 		.word	.LC18
 1305 0008 4C010000 		.word	.LC19
 1306 000c 54010000 		.word	.LC20
 1307 0010 00000000 		.word	0
 1308 0014 00000000 		.word	0
 1309              		.section	.rodata.nativeFunctions_length,"a",%progbits
 1310              		.align	2
 1311              		.type	nativeFunctions_length, %object
 1312              		.size	nativeFunctions_length, 4
 1313              	nativeFunctions_length:
 1314 0000 1B000000 		.word	27
 1315              		.section	.rodata.str1.4,"aMS",%progbits,1
 1316              		.align	2
 1317              	.LC3:
 1318 0000 6C656473 		.ascii	"leds.clear_all\000"
 1318      2E636C65 
 1318      61725F61 
 1318      6C6C00
 1319 000f 00       		.space	1
 1320              	.LC4:
 1321 0010 436C6561 		.ascii	"Clear all the LEDs\000"
 1321      7220616C 
 1321      6C207468 
 1321      65204C45 
 1321      447300
 1322 0023 00       		.space	1
 1323              	.LC5:
 1324 0024 5F737973 		.ascii	"_system.settings.erase\000"
 1324      74656D2E 
 1324      73657474 
 1324      696E6773 
 1324      2E657261 
 1325 003b 00       		.space	1
 1326              	.LC6:
 1327 003c 52657374 		.ascii	"Restore settings to default value (erases flash)\000"
 1327      6F726520 
 1327      73657474 
 1327      696E6773 
 1327      20746F20 
 1328 006d 000000   		.space	3
 1329              	.LC7:
 1330 0070 5F737973 		.ascii	"_system.settings.flash\000"
 1330      74656D2E 
 1330      73657474 
 1330      696E6773 
ARM GAS  /tmp/ccmq2l6R.s 			page 25


 1330      2E666C61 
 1331 0087 00       		.space	1
 1332              	.LC8:
 1333 0088 53617665 		.ascii	"Save settings into flash\000"
 1333      20736574 
 1333      74696E67 
 1333      7320696E 
 1333      746F2066 
 1334 00a1 000000   		.space	3
 1335              	.LC9:
 1336 00a4 5F737973 		.ascii	"_system.settings.write\000"
 1336      74656D2E 
 1336      73657474 
 1336      696E6773 
 1336      2E777269 
 1337 00bb 00       		.space	1
 1338              	.LC10:
 1339 00bc 57726974 		.ascii	"Write a setting\000"
 1339      65206120 
 1339      73657474 
 1339      696E6700 
 1340              	.LC11:
 1341 00cc 61646472 		.ascii	"address\000"
 1341      65737300 
 1342              	.LC12:
 1343 00d4 76616C75 		.ascii	"value\000"
 1343      6500
 1344 00da 0000     		.space	2
 1345              	.LC13:
 1346 00dc 5F737973 		.ascii	"_system.settings.read\000"
 1346      74656D2E 
 1346      73657474 
 1346      696E6773 
 1346      2E726561 
 1347 00f2 0000     		.space	2
 1348              	.LC14:
 1349 00f4 52656164 		.ascii	"Read a setting\000"
 1349      20612073 
 1349      65747469 
 1349      6E6700
 1350 0103 00       		.space	1
 1351              	.LC15:
 1352 0104 5F737973 		.ascii	"_system.reboot\000"
 1352      74656D2E 
 1352      7265626F 
 1352      6F7400
 1353 0113 00       		.space	1
 1354              	.LC16:
 1355 0114 5265626F 		.ascii	"Reboot the microcontroller\000"
 1355      6F742074 
 1355      6865206D 
 1355      6963726F 
 1355      636F6E74 
 1356 012f 00       		.space	1
 1357              	.LC17:
 1358 0130 6E65775F 		.ascii	"new_imu\000"
 1358      696D7500 
ARM GAS  /tmp/ccmq2l6R.s 			page 26


 1359              	.LC18:
 1360 0138 4E657720 		.ascii	"New imu measurement\000"
 1360      696D7520 
 1360      6D656173 
 1360      7572656D 
 1360      656E7400 
 1361              	.LC19:
 1362 014c 62757474 		.ascii	"button\000"
 1362      6F6E00
 1363 0153 00       		.space	1
 1364              	.LC20:
 1365 0154 55736572 		.ascii	"User button clicked\000"
 1365      20627574 
 1365      746F6E20 
 1365      636C6963 
 1365      6B656400 
 1366              	.LC21:
 1367 0168 47435472 		.ascii	"GCTronic-MobotsEPFL e-puck V2.0_F\000"
 1367      6F6E6963 
 1367      2D4D6F62 
 1367      6F747345 
 1367      50464C20 
 1368 018a 0000     		.space	2
 1369              	.LC22:
 1370 018c 5F696400 		.ascii	"_id\000"
 1371              	.LC23:
 1372 0190 6576656E 		.ascii	"event.source\000"
 1372      742E736F 
 1372      75726365 
 1372      00
 1373 019d 000000   		.space	3
 1374              	.LC24:
 1375 01a0 6576656E 		.ascii	"event.args\000"
 1375      742E6172 
 1375      677300
 1376 01ab 00       		.space	1
 1377              	.LC25:
 1378 01ac 5F667776 		.ascii	"_fwversion\000"
 1378      65727369 
 1378      6F6E00
 1379 01b7 00       		.space	1
 1380              	.LC26:
 1381 01b8 5F70726F 		.ascii	"_productId\000"
 1381      64756374 
 1381      496400
 1382 01c3 00       		.space	1
 1383              	.LC27:
 1384 01c4 6C656431 		.ascii	"led1\000"
 1384      00
 1385 01c9 000000   		.space	3
 1386              	.LC28:
 1387 01cc 6C656432 		.ascii	"led2\000"
 1387      00
 1388 01d1 000000   		.space	3
 1389              	.LC29:
 1390 01d4 6C656433 		.ascii	"led3\000"
 1390      00
ARM GAS  /tmp/ccmq2l6R.s 			page 27


 1391 01d9 000000   		.space	3
 1392              	.LC30:
 1393 01dc 6C656434 		.ascii	"led4\000"
 1393      00
 1394 01e1 000000   		.space	3
 1395              	.LC31:
 1396 01e4 6C656435 		.ascii	"led5\000"
 1396      00
 1397 01e9 000000   		.space	3
 1398              	.LC32:
 1399 01ec 6C656436 		.ascii	"led6\000"
 1399      00
 1400 01f1 000000   		.space	3
 1401              	.LC33:
 1402 01f4 6C656437 		.ascii	"led7\000"
 1402      00
 1403 01f9 000000   		.space	3
 1404              	.LC34:
 1405 01fc 6C656438 		.ascii	"led8\000"
 1405      00
 1406 0201 000000   		.space	3
 1407              	.LC35:
 1408 0204 61636300 		.ascii	"acc\000"
 1409              	.LC36:
 1410 0208 6779726F 		.ascii	"gyro\000"
 1410      00
 1411              		.section	.rodata.vmDescription,"a",%progbits
 1412              		.align	2
 1413              		.type	vmDescription, %object
 1414              		.size	vmDescription, 132
 1415              	vmDescription:
 1416 0000 68010000 		.word	.LC21
 1417 0004 0100     		.short	1
 1418 0006 0000     		.space	2
 1419 0008 8C010000 		.word	.LC22
 1420 000c 0100     		.short	1
 1421 000e 0000     		.space	2
 1422 0010 90010000 		.word	.LC23
 1423 0014 2000     		.short	32
 1424 0016 0000     		.space	2
 1425 0018 A0010000 		.word	.LC24
 1426 001c 0200     		.short	2
 1427 001e 0000     		.space	2
 1428 0020 AC010000 		.word	.LC25
 1429 0024 0100     		.short	1
 1430 0026 0000     		.space	2
 1431 0028 B8010000 		.word	.LC26
 1432 002c 0100     		.short	1
 1433 002e 0000     		.space	2
 1434 0030 C4010000 		.word	.LC27
 1435 0034 0300     		.short	3
 1436 0036 0000     		.space	2
 1437 0038 CC010000 		.word	.LC28
 1438 003c 0100     		.short	1
 1439 003e 0000     		.space	2
 1440 0040 D4010000 		.word	.LC29
 1441 0044 0300     		.short	3
ARM GAS  /tmp/ccmq2l6R.s 			page 28


 1442 0046 0000     		.space	2
 1443 0048 DC010000 		.word	.LC30
 1444 004c 0100     		.short	1
 1445 004e 0000     		.space	2
 1446 0050 E4010000 		.word	.LC31
 1447 0054 0300     		.short	3
 1448 0056 0000     		.space	2
 1449 0058 EC010000 		.word	.LC32
 1450 005c 0100     		.short	1
 1451 005e 0000     		.space	2
 1452 0060 F4010000 		.word	.LC33
 1453 0064 0300     		.short	3
 1454 0066 0000     		.space	2
 1455 0068 FC010000 		.word	.LC34
 1456 006c 0300     		.short	3
 1457 006e 0000     		.space	2
 1458 0070 04020000 		.word	.LC35
 1459 0074 0300     		.short	3
 1460 0076 0000     		.space	2
 1461 0078 08020000 		.word	.LC36
 1462 007c 0000     		.short	0
 1463 007e 0000     		.space	2
 1464 0080 00000000 		.word	0
 1465              		.text
 1466              	.Letext0:
 1467              		.file 5 "/home/leander/uos_codes/epuck2_lab/Eclipse_e-puck2/Tools/gcc-arm-none-eabi-7-2017-q4-majo
 1468              		.file 6 "/home/leander/uos_codes/epuck2_lab/Eclipse_e-puck2/Tools/gcc-arm-none-eabi-7-2017-q4-majo
 1469              		.file 7 "/home/leander/uos_codes/epuck2_lab/Eclipse_e-puck2/Tools/gcc-arm-none-eabi-7-2017-q4-majo
 1470              		.file 8 "/home/leander/uos_codes/epuck2_lab/Eclipse_e-puck2/Tools/gcc-arm-none-eabi-7-2017-q4-majo
 1471              		.file 9 "/home/leander/uos_codes/epuck2_lab/Eclipse_e-puck2/Tools/gcc-arm-none-eabi-7-2017-q4-majo
 1472              		.file 10 "/home/leander/uos_codes/epuck2_lab/Eclipse_e-puck2/Tools/gcc-arm-none-eabi-7-2017-q4-maj
 1473              		.file 11 "../e-puck2_main-processor/ChibiOS//os/rt/ports/ARMCMx/compilers/GCC/chtypes.h"
 1474              		.file 12 "../e-puck2_main-processor/ChibiOS//os/rt/include/chsystypes.h"
 1475              		.file 13 "../e-puck2_main-processor/ChibiOS//os/rt/include/chschd.h"
 1476              		.file 14 "../e-puck2_main-processor/ChibiOS//os/ext/CMSIS/ST/system_stm32f4xx.h"
 1477              		.file 15 "../e-puck2_main-processor/ChibiOS//os/ext/CMSIS/ST/stm32f407xx.h"
 1478              		.file 16 "../e-puck2_main-processor/ChibiOS//os/rt/ports/ARMCMx/chcore.h"
 1479              		.file 17 "../e-puck2_main-processor/ChibiOS//os/rt/ports/ARMCMx/chcore_v7m.h"
 1480              		.file 18 "../e-puck2_main-processor/ChibiOS//os/rt/include/chdebug.h"
 1481              		.file 19 "../e-puck2_main-processor/ChibiOS//os/rt/include/chtm.h"
 1482              		.file 20 "../e-puck2_main-processor/ChibiOS//os/rt/include/chstats.h"
 1483              		.file 21 "../e-puck2_main-processor/ChibiOS//os/rt/include/chsem.h"
 1484              		.file 22 "../e-puck2_main-processor/ChibiOS//os/rt/include/chmtx.h"
 1485              		.file 23 "../e-puck2_main-processor/ChibiOS//os/rt/include/chregistry.h"
 1486              		.file 24 "../e-puck2_main-processor/ChibiOS//os/rt/include/chevents.h"
 1487              		.file 25 "../e-puck2_main-processor/ChibiOS//os/rt/include/chqueues.h"
 1488              		.file 26 "../e-puck2_main-processor/ChibiOS//os/hal/ports/STM32/STM32F4xx/stm32_dma.h"
 1489              		.file 27 "../e-puck2_main-processor/ChibiOS//os/hal/include/hal_ioblock.h"
 1490              		.file 28 "../e-puck2_main-processor/ChibiOS//os/hal/ports/STM32/LLD/GPIOv2/pal_lld.h"
 1491              		.file 29 "../e-puck2_main-processor/ChibiOS//os/hal/include/adc.h"
 1492              		.file 30 "../e-puck2_main-processor/ChibiOS//os/hal/ports/STM32/STM32F4xx/adc_lld.h"
 1493              		.file 31 "../e-puck2_main-processor/ChibiOS//os/hal/include/can.h"
 1494              		.file 32 "../e-puck2_main-processor/ChibiOS//os/hal/ports/STM32/LLD/can_lld.h"
 1495              		.file 33 "../e-puck2_main-processor/ChibiOS//os/hal/include/dac.h"
 1496              		.file 34 "../e-puck2_main-processor/ChibiOS//os/hal/ports/STM32/LLD/DACv1/dac_lld.h"
 1497              		.file 35 "../e-puck2_main-processor/ChibiOS//os/hal/include/ext.h"
 1498              		.file 36 "../e-puck2_main-processor/ChibiOS//os/hal/ports/STM32/LLD/ext_lld.h"
ARM GAS  /tmp/ccmq2l6R.s 			page 29


 1499              		.file 37 "../e-puck2_main-processor/ChibiOS//os/hal/include/gpt.h"
 1500              		.file 38 "../e-puck2_main-processor/ChibiOS//os/hal/ports/STM32/LLD/TIMv1/gpt_lld.h"
 1501              		.file 39 "../e-puck2_main-processor/ChibiOS//os/hal/ports/STM32/LLD/TIMv1/stm32_tim.h"
 1502              		.file 40 "../e-puck2_main-processor/ChibiOS//os/hal/include/i2c.h"
 1503              		.file 41 "../e-puck2_main-processor/ChibiOS//os/hal/ports/STM32/LLD/I2Cv1/i2c_lld.h"
 1504              		.file 42 "../e-puck2_main-processor/ChibiOS//os/hal/include/i2s.h"
 1505              		.file 43 "../e-puck2_main-processor/ChibiOS//os/hal/ports/STM32/LLD/SPIv1/i2s_lld.h"
 1506              		.file 44 "../e-puck2_main-processor/ChibiOS//os/hal/include/pwm.h"
 1507              		.file 45 "../e-puck2_main-processor/ChibiOS//os/hal/ports/STM32/LLD/TIMv1/pwm_lld.h"
 1508              		.file 46 "../e-puck2_main-processor/ChibiOS//os/hal/include/serial.h"
 1509              		.file 47 "../e-puck2_main-processor/ChibiOS//os/hal/ports/STM32/LLD/USARTv1/serial_lld.h"
 1510              		.file 48 "../e-puck2_main-processor/ChibiOS//os/hal/include/sdc.h"
 1511              		.file 49 "../e-puck2_main-processor/ChibiOS//os/hal/ports/STM32/LLD/sdc_lld.h"
 1512              		.file 50 "../e-puck2_main-processor/ChibiOS//os/hal/include/spi.h"
 1513              		.file 51 "../e-puck2_main-processor/ChibiOS//os/hal/ports/STM32/LLD/SPIv1/spi_lld.h"
 1514              		.file 52 "../e-puck2_main-processor/ChibiOS//os/hal/include/usb.h"
 1515              		.file 53 "../e-puck2_main-processor/ChibiOS//os/hal/ports/STM32/LLD/OTGv1/usb_lld.h"
 1516              		.file 54 "../e-puck2_main-processor/ChibiOS//os/hal/ports/STM32/LLD/OTGv1/stm32_otg.h"
 1517              		.file 55 "/home/leander/uos_codes/epuck2_lab/Eclipse_e-puck2/Tools/gcc-arm-none-eabi-7-2017-q4-maj
 1518              		.file 56 "../e-puck2_main-processor/aseba/common/types.h"
 1519              		.file 57 "../e-puck2_main-processor/aseba/vm/vm.h"
 1520              		.file 58 "../e-puck2_main-processor/src/parameter/parameter.h"
 1521              		.file 59 "../e-puck2_main-processor/src/aseba_vm/aseba_node.h"
 1522              		.file 60 "../e-puck2_main-processor/src/sensors/mpu9250.h"
 1523              		.file 61 "../e-puck2_main-processor/src/leds.h"
 1524              		.file 62 "../e-puck2_main-processor/src/aseba_vm/skel_user.h"
 1525              		.file 63 "../e-puck2_main-processor/aseba/common/productids.h"
 1526              		.file 64 "/home/leander/uos_codes/epuck2_lab/Eclipse_e-puck2/Tools/gcc-arm-none-eabi-7-2017-q4-maj
 1527              		.file 65 "../e-puck2_main-processor/src/msgbus/messagebus.h"
 1528              		.file 66 "./main.h"
 1529              		.file 67 "../e-puck2_main-processor/src/config_flash_storage.h"
 1530              		.file 68 "../e-puck2_main-processor/src/sensors/imu.h"
 1531              		.file 69 "/home/leander/uos_codes/epuck2_lab/Eclipse_e-puck2/Tools/gcc-arm-none-eabi-7-2017-q4-maj
 1532              		.file 70 "<built-in>"