ARM GAS  /tmp/ccggoIxD.s 			page 1


   1              		.cpu cortex-m4
   2              		.eabi_attribute 27, 1
   3              		.eabi_attribute 28, 1
   4              		.eabi_attribute 20, 1
   5              		.eabi_attribute 21, 1
   6              		.eabi_attribute 23, 3
   7              		.eabi_attribute 24, 1
   8              		.eabi_attribute 25, 1
   9              		.eabi_attribute 26, 1
  10              		.eabi_attribute 30, 2
  11              		.eabi_attribute 34, 1
  12              		.eabi_attribute 18, 4
  13              		.file	"transceiver.c"
  14              		.text
  15              	.Ltext0:
  16              		.cfi_sections	.debug_frame
  17              		.section	.text.chprintf.constprop.0,"ax",%progbits
  18              		.align	1
  19              		.p2align 4,,15
  20              		.syntax unified
  21              		.thumb
  22              		.thumb_func
  23              		.fpu fpv4-sp-d16
  24              		.type	chprintf.constprop.0, %function
  25              	chprintf.constprop.0:
  26              	.LFB262:
  27              		.file 1 "../e-puck2_main-processor/ChibiOS//os/hal/lib/streams/chprintf.h"
  28              		.loc 1 69 0
  29              		.cfi_startproc
  30              		@ args = 4, pretend = 12, frame = 8
  31              		@ frame_needed = 0, uses_anonymous_args = 1
  32              	.LVL0:
  33 0000 0EB4     		push	{r1, r2, r3}
  34              		.cfi_def_cfa_offset 12
  35              		.cfi_offset 1, -12
  36              		.cfi_offset 2, -8
  37              		.cfi_offset 3, -4
  38 0002 10B5     		push	{r4, lr}
  39              		.cfi_def_cfa_offset 20
  40              		.cfi_offset 4, -20
  41              		.cfi_offset 14, -16
  42 0004 83B0     		sub	sp, sp, #12
  43              		.cfi_def_cfa_offset 32
  44              		.loc 1 69 0
  45 0006 05AA     		add	r2, sp, #20
  46 0008 094C     		ldr	r4, .L6
  47 000a 52F8041B 		ldr	r1, [r2], #4
  48 000e 2368     		ldr	r3, [r4]
  49              		.loc 1 74 0
  50 0010 0848     		ldr	r0, .L6+4
  51              	.LVL1:
  52              		.loc 1 73 0
  53 0012 0092     		str	r2, [sp]
  54              		.loc 1 69 0
  55 0014 0193     		str	r3, [sp, #4]
  56              	.LVL2:
  57              		.loc 1 74 0
ARM GAS  /tmp/ccggoIxD.s 			page 2


  58 0016 FFF7FEFF 		bl	chvprintf
  59              	.LVL3:
  60              		.loc 1 78 0
  61 001a 019A     		ldr	r2, [sp, #4]
  62 001c 2368     		ldr	r3, [r4]
  63 001e 9A42     		cmp	r2, r3
  64 0020 04D1     		bne	.L5
  65 0022 03B0     		add	sp, sp, #12
  66              		.cfi_remember_state
  67              		.cfi_def_cfa_offset 20
  68              		@ sp needed
  69 0024 BDE81040 		pop	{r4, lr}
  70              		.cfi_restore 14
  71              		.cfi_restore 4
  72              		.cfi_def_cfa_offset 12
  73 0028 03B0     		add	sp, sp, #12
  74              		.cfi_restore 3
  75              		.cfi_restore 2
  76              		.cfi_restore 1
  77              		.cfi_def_cfa_offset 0
  78 002a 7047     		bx	lr
  79              	.L5:
  80              		.cfi_restore_state
  81 002c FFF7FEFF 		bl	__stack_chk_fail
  82              	.LVL4:
  83              	.L7:
  84              		.align	2
  85              	.L6:
  86 0030 00000000 		.word	__stack_chk_guard
  87 0034 00000000 		.word	SDU1
  88              		.cfi_endproc
  89              	.LFE262:
  90              		.size	chprintf.constprop.0, .-chprintf.constprop.0
  91              		.global	__aeabi_f2d
  92              		.section	.text.transceiver_thd,"ax",%progbits
  93              		.align	1
  94              		.p2align 4,,15
  95              		.syntax unified
  96              		.thumb
  97              		.thumb_func
  98              		.fpu fpv4-sp-d16
  99              		.type	transceiver_thd, %function
 100              	transceiver_thd:
 101              	.LFB260:
 102              		.file 2 "../e-puck2_main-processor/src/ircom/transceiver.c"
 103              		.loc 2 15 0
 104              		.cfi_startproc
 105              		@ args = 0, pretend = 0, frame = 24
 106              		@ frame_needed = 0, uses_anonymous_args = 0
 107              	.LVL5:
 108 0000 2DE9F04F 		push	{r4, r5, r6, r7, r8, r9, r10, fp, lr}
 109              		.cfi_def_cfa_offset 36
 110              		.cfi_offset 4, -36
 111              		.cfi_offset 5, -32
 112              		.cfi_offset 6, -28
 113              		.cfi_offset 7, -24
 114              		.cfi_offset 8, -20
ARM GAS  /tmp/ccggoIxD.s 			page 3


 115              		.cfi_offset 9, -16
 116              		.cfi_offset 10, -12
 117              		.cfi_offset 11, -8
 118              		.cfi_offset 14, -4
 119              	.LBB50:
 120              	.LBB51:
 121              		.file 3 "../e-puck2_main-processor/ChibiOS//os/rt/include/chregistry.h"
 122              		.loc 3 135 0
 123 0004 344D     		ldr	r5, .L24
 124              	.LBE51:
 125              	.LBE50:
 126              		.loc 2 15 0
 127 0006 354B     		ldr	r3, .L24+4
 128              	.LBB54:
 129              	.LBB52:
 130              		.loc 3 135 0
 131 0008 AA69     		ldr	r2, [r5, #24]
 132 000a 354F     		ldr	r7, .L24+8
 133 000c 3549     		ldr	r1, .L24+12
 134              	.LBE52:
 135              	.LBE54:
 136              		.loc 2 15 0
 137 000e 1B68     		ldr	r3, [r3]
 138              	.LBB55:
 139              	.LBB56:
 140              	.LBB57:
 141              	.LBB58:
 142              		.file 4 "../e-puck2_main-processor/ChibiOS//os/rt/include/chsys.h"
 143              		.loc 4 367 0
 144 0010 DFF8D880 		ldr	r8, .L24+20
 145              	.LBE58:
 146              	.LBE57:
 147              	.LBE56:
 148              	.LBE55:
 149              		.loc 2 61 0
 150 0014 DFF8D8A0 		ldr	r10, .L24+24
 151              	.LBB72:
 152              	.LBB53:
 153              		.loc 3 135 0
 154 0018 9161     		str	r1, [r2, #24]
 155              	.LBE53:
 156              	.LBE72:
 157              		.loc 2 15 0
 158 001a 8BB0     		sub	sp, sp, #44
 159              		.cfi_def_cfa_offset 80
 160              		.loc 2 61 0
 161 001c B946     		mov	r9, r7
 162              		.loc 2 15 0
 163 001e 0993     		str	r3, [sp, #36]
 164              	.LVL6:
 165              		.loc 2 20 0
 166 0020 0024     		movs	r4, #0
 167              	.LVL7:
 168              	.L16:
 169              	.LBB73:
 170              	.LBB71:
 171              	.LBB63:
ARM GAS  /tmp/ccggoIxD.s 			page 4


 172              	.LBB64:
 173              	.LBB65:
 174              	.LBB66:
 175              	.LBB67:
 176              		.file 5 "../e-puck2_main-processor/ChibiOS//os/ext/CMSIS/include/core_cmFunc.h"
 177              		.loc 5 546 0
 178 0022 2023     		movs	r3, #32
 179              		.syntax unified
 180              	@ 546 "../e-puck2_main-processor/ChibiOS//os/ext/CMSIS/include/core_cmFunc.h" 1
 181 0024 83F31188 		MSR basepri, r3
 182              	@ 0 "" 2
 183              	.LVL8:
 184              		.thumb
 185              		.syntax unified
 186              	.LBE67:
 187              	.LBE66:
 188              	.LBE65:
 189              		.loc 4 349 0
 190 0028 FFF7FEFF 		bl	_stats_start_measure_crit_thd
 191              	.LVL9:
 192              		.loc 4 350 0
 193 002c FFF7FEFF 		bl	_dbg_check_lock
 194              	.LVL10:
 195              	.LBE64:
 196              	.LBE63:
 197              	.LBB68:
 198              	.LBB69:
 199              		.file 6 "../e-puck2_main-processor/ChibiOS//os/rt/include/chvt.h"
 200              		.loc 6 231 0
 201 0030 AE6A     		ldr	r6, [r5, #40]
 202              	.LBE69:
 203              	.LBE68:
 204              	.LBB70:
 205              	.LBB62:
 206              		.loc 4 360 0
 207 0032 FFF7FEFF 		bl	_dbg_check_unlock
 208              	.LVL11:
 209              		.loc 4 361 0
 210 0036 FFF7FEFF 		bl	_stats_stop_measure_crit_thd
 211              	.LVL12:
 212              		.loc 4 367 0
 213 003a 2B68     		ldr	r3, [r5]
 214 003c AB42     		cmp	r3, r5
 215 003e 07D0     		beq	.L9
 216 0040 AA69     		ldr	r2, [r5, #24]
 217 0042 9B68     		ldr	r3, [r3, #8]
 218 0044 9268     		ldr	r2, [r2, #8]
 219 0046 9A42     		cmp	r2, r3
 220 0048 02D2     		bcs	.L9
 221 004a 4046     		mov	r0, r8
 222 004c FFF7FEFF 		bl	chSysHalt
 223              	.LVL13:
 224              	.L9:
 225              	.LBB59:
 226              	.LBB60:
 227              	.LBB61:
 228              		.loc 5 546 0
ARM GAS  /tmp/ccggoIxD.s 			page 5


 229 0050 0023     		movs	r3, #0
 230              		.syntax unified
 231              	@ 546 "../e-puck2_main-processor/ChibiOS//os/ext/CMSIS/include/core_cmFunc.h" 1
 232 0052 83F31188 		MSR basepri, r3
 233              	@ 0 "" 2
 234              	.LVL14:
 235              		.thumb
 236              		.syntax unified
 237              	.LBE61:
 238              	.LBE60:
 239              	.LBE59:
 240              	.LBE62:
 241              	.LBE70:
 242              	.LBE71:
 243              	.LBE73:
 244              		.loc 2 52 0
 245 0056 04A8     		add	r0, sp, #16
 246 0058 FFF7FEFF 		bl	ircomPopMessage
 247              	.LVL15:
 248              		.loc 2 53 0
 249 005c 089B     		ldr	r3, [sp, #32]
 250 005e 002B     		cmp	r3, #0
 251 0060 19D0     		beq	.L22
 252              		.loc 2 59 0
 253 0062 05DD     		ble	.L12
 254              		.loc 2 60 0
 255 0064 D7F85432 		ldr	r3, [r7, #596]
 256 0068 1B68     		ldr	r3, [r3]
 257 006a 1B78     		ldrb	r3, [r3]	@ zero_extendqisi2
 258 006c 042B     		cmp	r3, #4
 259 006e 2DD0     		beq	.L23
 260              	.L12:
 261              		.loc 2 67 0
 262 0070 2046     		mov	r0, r4
 263 0072 FFF7FEFF 		bl	ircomSend
 264              	.LVL16:
 265              	.L14:
 266              		.loc 2 68 0 discriminator 1
 267 0076 FFF7FEFF 		bl	ircomSendDone
 268              	.LVL17:
 269 007a 0028     		cmp	r0, #0
 270 007c FBD0     		beq	.L14
 271              		.loc 2 69 0
 272 007e FF2C     		cmp	r4, #255
 273              		.loc 2 72 0
 274 0080 18BF     		it	ne
 275 0082 0134     		addne	r4, r4, #1
 276              	.LVL18:
 277              		.loc 2 75 0
 278 0084 06F16401 		add	r1, r6, #100
 279 0088 3046     		mov	r0, r6
 280              		.loc 2 72 0
 281 008a 14BF     		ite	ne
 282 008c E4B2     		uxtbne	r4, r4
 283              	.LVL19:
 284              		.loc 2 70 0
 285 008e 0024     		moveq	r4, #0
ARM GAS  /tmp/ccggoIxD.s 			page 6


 286              	.LVL20:
 287              		.loc 2 75 0
 288 0090 FFF7FEFF 		bl	chThdSleepUntilWindowed
 289              	.LVL21:
 290              		.loc 2 23 0
 291 0094 C5E7     		b	.L16
 292              	.L22:
 293              	.LBB74:
 294              		.loc 2 54 0
 295 0096 0220     		movs	r0, #2
 296 0098 FFF7FEFF 		bl	set_body_led
 297              	.LVL22:
 298              		.loc 2 56 0
 299 009c D7F85432 		ldr	r3, [r7, #596]
 300 00a0 1B68     		ldr	r3, [r3]
 301 00a2 1B78     		ldrb	r3, [r3]	@ zero_extendqisi2
 302 00a4 042B     		cmp	r3, #4
 303 00a6 E3D1     		bne	.L12
 304              		.loc 2 57 0
 305 00a8 0698     		ldr	r0, [sp, #24]	@ float
 306 00aa DDF810B0 		ldr	fp, [sp, #16]
 307 00ae FFF7FEFF 		bl	__aeabi_f2d
 308              	.LVL23:
 309 00b2 CDE90201 		strd	r0, [sp, #8]
 310 00b6 0598     		ldr	r0, [sp, #20]	@ float
 311 00b8 FFF7FEFF 		bl	__aeabi_f2d
 312              	.LVL24:
 313 00bc 5A46     		mov	r2, fp
 314 00be CDE90001 		strd	r0, [sp]
 315 00c2 0949     		ldr	r1, .L24+16
 316 00c4 4846     		mov	r0, r9
 317 00c6 FFF7FEFF 		bl	chprintf.constprop.0
 318              	.LVL25:
 319 00ca D1E7     		b	.L12
 320              	.LVL26:
 321              	.L23:
 322              	.LBE74:
 323              		.loc 2 61 0
 324 00cc 5146     		mov	r1, r10
 325 00ce 4846     		mov	r0, r9
 326 00d0 FFF7FEFF 		bl	chprintf.constprop.0
 327              	.LVL27:
 328 00d4 CCE7     		b	.L12
 329              	.L25:
 330 00d6 00BF     		.align	2
 331              	.L24:
 332 00d8 00000000 		.word	ch
 333 00dc 00000000 		.word	__stack_chk_guard
 334 00e0 00000000 		.word	SDU1
 335 00e4 00000000 		.word	.LANCHOR0
 336 00e8 00000000 		.word	.LC0
 337 00ec 00000000 		.word	.LANCHOR1
 338 00f0 38000000 		.word	.LC1
 339              		.cfi_endproc
 340              	.LFE260:
 341              		.size	transceiver_thd, .-transceiver_thd
 342              		.section	.text.startTransceiver,"ax",%progbits
ARM GAS  /tmp/ccggoIxD.s 			page 7


 343              		.align	1
 344              		.p2align 4,,15
 345              		.global	startTransceiver
 346              		.syntax unified
 347              		.thumb
 348              		.thumb_func
 349              		.fpu fpv4-sp-d16
 350              		.type	startTransceiver, %function
 351              	startTransceiver:
 352              	.LFB261:
 353              		.loc 2 81 0
 354              		.cfi_startproc
 355              		@ args = 0, pretend = 0, frame = 8
 356              		@ frame_needed = 0, uses_anonymous_args = 0
 357 0000 10B5     		push	{r4, lr}
 358              		.cfi_def_cfa_offset 8
 359              		.cfi_offset 4, -8
 360              		.cfi_offset 14, -4
 361 0002 0D4C     		ldr	r4, .L30
 362 0004 84B0     		sub	sp, sp, #16
 363              		.cfi_def_cfa_offset 24
 364              		.loc 2 81 0
 365 0006 2368     		ldr	r3, [r4]
 366 0008 0393     		str	r3, [sp, #12]
 367              		.loc 2 84 0
 368 000a FFF7FEFF 		bl	ircomStart
 369              	.LVL28:
 370              		.loc 2 85 0
 371 000e FFF7FEFF 		bl	ircomEnableContinuousListening
 372              	.LVL29:
 373              		.loc 2 86 0
 374 0012 FFF7FEFF 		bl	ircomListen
 375              	.LVL30:
 376              		.loc 2 88 0
 377 0016 0023     		movs	r3, #0
 378 0018 0093     		str	r3, [sp]
 379 001a 4022     		movs	r2, #64
 380 001c 074B     		ldr	r3, .L30+4
 381 001e 0848     		ldr	r0, .L30+8
 382 0020 4FF41E71 		mov	r1, #632
 383 0024 FFF7FEFF 		bl	chThdCreateStatic
 384              	.LVL31:
 385              		.loc 2 90 0
 386 0028 039A     		ldr	r2, [sp, #12]
 387 002a 2368     		ldr	r3, [r4]
 388 002c 9A42     		cmp	r2, r3
 389 002e 01D1     		bne	.L29
 390 0030 04B0     		add	sp, sp, #16
 391              		.cfi_remember_state
 392              		.cfi_def_cfa_offset 8
 393              		@ sp needed
 394 0032 10BD     		pop	{r4, pc}
 395              	.L29:
 396              		.cfi_restore_state
 397 0034 FFF7FEFF 		bl	__stack_chk_fail
 398              	.LVL32:
 399              	.L31:
ARM GAS  /tmp/ccggoIxD.s 			page 8


 400              		.align	2
 401              	.L30:
 402 0038 00000000 		.word	__stack_chk_guard
 403 003c 00000000 		.word	transceiver_thd
 404 0040 00000000 		.word	.LANCHOR2
 405              		.cfi_endproc
 406              	.LFE261:
 407              		.size	startTransceiver, .-startTransceiver
 408              		.section	.bss.transceiver_thd_wa,"aw",%nobits
 409              		.align	3
 410              		.set	.LANCHOR2,. + 0
 411              		.type	transceiver_thd_wa, %object
 412              		.size	transceiver_thd_wa, 632
 413              	transceiver_thd_wa:
 414 0000 00000000 		.space	632
 414      00000000 
 414      00000000 
 414      00000000 
 414      00000000 
 415              		.section	.rodata.__FUNCTION__.11480,"a",%progbits
 416              		.align	2
 417              		.set	.LANCHOR0,. + 0
 418              		.type	__FUNCTION__.11480, %object
 419              		.size	__FUNCTION__.11480, 16
 420              	__FUNCTION__.11480:
 421 0000 7472616E 		.ascii	"transceiver_thd\000"
 421      73636569 
 421      7665725F 
 421      74686400 
 422              		.section	.rodata.__func__.8581,"a",%progbits
 423              		.align	2
 424              		.set	.LANCHOR1,. + 0
 425              		.type	__func__.8581, %object
 426              		.size	__func__.8581, 12
 427              	__func__.8581:
 428 0000 63685379 		.ascii	"chSysUnlock\000"
 428      73556E6C 
 428      6F636B00 
 429              		.section	.rodata.transceiver_thd.str1.4,"aMS",%progbits,1
 430              		.align	2
 431              	.LC0:
 432 0000 52656365 		.ascii	"Receive successful : %d  - distance=%f \011 directi"
 432      69766520 
 432      73756363 
 432      65737366 
 432      756C203A 
 433 0030 6F6E3D25 		.ascii	"on=%f\015\012\000"
 433      660D0A00 
 434              	.LC1:
 435 0038 52656365 		.ascii	"Receive failed\015\012\000"
 435      69766520 
 435      6661696C 
 435      65640D0A 
 435      00
 436              		.text
 437              	.Letext0:
 438              		.file 7 "/home/leander/uos_codes/epuck2_lab/Eclipse_e-puck2/Tools/gcc-arm-none-eabi-7-2017-q4-majo
ARM GAS  /tmp/ccggoIxD.s 			page 9


 439              		.file 8 "/home/leander/uos_codes/epuck2_lab/Eclipse_e-puck2/Tools/gcc-arm-none-eabi-7-2017-q4-majo
 440              		.file 9 "/home/leander/uos_codes/epuck2_lab/Eclipse_e-puck2/Tools/gcc-arm-none-eabi-7-2017-q4-majo
 441              		.file 10 "/home/leander/uos_codes/epuck2_lab/Eclipse_e-puck2/Tools/gcc-arm-none-eabi-7-2017-q4-maj
 442              		.file 11 "/home/leander/uos_codes/epuck2_lab/Eclipse_e-puck2/Tools/gcc-arm-none-eabi-7-2017-q4-maj
 443              		.file 12 "/home/leander/uos_codes/epuck2_lab/Eclipse_e-puck2/Tools/gcc-arm-none-eabi-7-2017-q4-maj
 444              		.file 13 "/home/leander/uos_codes/epuck2_lab/Eclipse_e-puck2/Tools/gcc-arm-none-eabi-7-2017-q4-maj
 445              		.file 14 "<built-in>"
 446              		.file 15 "/home/leander/uos_codes/epuck2_lab/Eclipse_e-puck2/Tools/gcc-arm-none-eabi-7-2017-q4-maj
 447              		.file 16 "/home/leander/uos_codes/epuck2_lab/Eclipse_e-puck2/Tools/gcc-arm-none-eabi-7-2017-q4-maj
 448              		.file 17 "../e-puck2_main-processor/ChibiOS//os/rt/ports/ARMCMx/compilers/GCC/chtypes.h"
 449              		.file 18 "../e-puck2_main-processor/ChibiOS//os/rt/include/chsystypes.h"
 450              		.file 19 "../e-puck2_main-processor/ChibiOS//os/rt/include/chschd.h"
 451              		.file 20 "../e-puck2_main-processor/ChibiOS//os/ext/CMSIS/include/core_cm4.h"
 452              		.file 21 "../e-puck2_main-processor/ChibiOS//os/ext/CMSIS/ST/system_stm32f4xx.h"
 453              		.file 22 "../e-puck2_main-processor/ChibiOS//os/ext/CMSIS/ST/stm32f407xx.h"
 454              		.file 23 "../e-puck2_main-processor/ChibiOS//os/rt/ports/ARMCMx/chcore.h"
 455              		.file 24 "../e-puck2_main-processor/ChibiOS//os/rt/ports/ARMCMx/chcore_v7m.h"
 456              		.file 25 "../e-puck2_main-processor/ChibiOS//os/rt/include/chdebug.h"
 457              		.file 26 "../e-puck2_main-processor/ChibiOS//os/rt/include/chtm.h"
 458              		.file 27 "../e-puck2_main-processor/ChibiOS//os/rt/include/chstats.h"
 459              		.file 28 "../e-puck2_main-processor/ChibiOS//os/rt/include/chsem.h"
 460              		.file 29 "../e-puck2_main-processor/ChibiOS//os/rt/include/chmtx.h"
 461              		.file 30 "../e-puck2_main-processor/ChibiOS//os/rt/include/chevents.h"
 462              		.file 31 "../e-puck2_main-processor/ChibiOS//os/rt/include/chqueues.h"
 463              		.file 32 "../e-puck2_main-processor/ChibiOS//os/rt/include/chstreams.h"
 464              		.file 33 "../e-puck2_main-processor/ChibiOS//os/hal/ports/STM32/STM32F4xx/stm32_dma.h"
 465              		.file 34 "../e-puck2_main-processor/ChibiOS//os/hal/include/hal_ioblock.h"
 466              		.file 35 "../e-puck2_main-processor/ChibiOS//os/hal/ports/STM32/LLD/GPIOv2/pal_lld.h"
 467              		.file 36 "../e-puck2_main-processor/ChibiOS//os/hal/include/adc.h"
 468              		.file 37 "../e-puck2_main-processor/ChibiOS//os/hal/ports/STM32/STM32F4xx/adc_lld.h"
 469              		.file 38 "../e-puck2_main-processor/ChibiOS//os/hal/include/can.h"
 470              		.file 39 "../e-puck2_main-processor/ChibiOS//os/hal/ports/STM32/LLD/can_lld.h"
 471              		.file 40 "../e-puck2_main-processor/ChibiOS//os/hal/include/dac.h"
 472              		.file 41 "../e-puck2_main-processor/ChibiOS//os/hal/ports/STM32/LLD/DACv1/dac_lld.h"
 473              		.file 42 "../e-puck2_main-processor/ChibiOS//os/hal/include/ext.h"
 474              		.file 43 "../e-puck2_main-processor/ChibiOS//os/hal/ports/STM32/LLD/ext_lld.h"
 475              		.file 44 "../e-puck2_main-processor/ChibiOS//os/hal/include/gpt.h"
 476              		.file 45 "../e-puck2_main-processor/ChibiOS//os/hal/ports/STM32/LLD/TIMv1/gpt_lld.h"
 477              		.file 46 "../e-puck2_main-processor/ChibiOS//os/hal/ports/STM32/LLD/TIMv1/stm32_tim.h"
 478              		.file 47 "../e-puck2_main-processor/ChibiOS//os/hal/include/i2c.h"
 479              		.file 48 "../e-puck2_main-processor/ChibiOS//os/hal/ports/STM32/LLD/I2Cv1/i2c_lld.h"
 480              		.file 49 "../e-puck2_main-processor/ChibiOS//os/hal/include/i2s.h"
 481              		.file 50 "../e-puck2_main-processor/ChibiOS//os/hal/ports/STM32/LLD/SPIv1/i2s_lld.h"
 482              		.file 51 "../e-puck2_main-processor/ChibiOS//os/hal/include/pwm.h"
 483              		.file 52 "../e-puck2_main-processor/ChibiOS//os/hal/ports/STM32/LLD/TIMv1/pwm_lld.h"
 484              		.file 53 "../e-puck2_main-processor/ChibiOS//os/hal/include/serial.h"
 485              		.file 54 "../e-puck2_main-processor/ChibiOS//os/hal/ports/STM32/LLD/USARTv1/serial_lld.h"
 486              		.file 55 "../e-puck2_main-processor/ChibiOS//os/hal/include/sdc.h"
 487              		.file 56 "../e-puck2_main-processor/ChibiOS//os/hal/ports/STM32/LLD/sdc_lld.h"
 488              		.file 57 "../e-puck2_main-processor/ChibiOS//os/hal/include/spi.h"
 489              		.file 58 "../e-puck2_main-processor/ChibiOS//os/hal/ports/STM32/LLD/SPIv1/spi_lld.h"
 490              		.file 59 "../e-puck2_main-processor/ChibiOS//os/hal/include/usb.h"
 491              		.file 60 "../e-puck2_main-processor/ChibiOS//os/hal/ports/STM32/LLD/OTGv1/usb_lld.h"
 492              		.file 61 "../e-puck2_main-processor/ChibiOS//os/hal/ports/STM32/LLD/OTGv1/stm32_otg.h"
 493              		.file 62 "../e-puck2_main-processor/ChibiOS//os/hal/include/serial_usb.h"
 494              		.file 63 "../e-puck2_main-processor/src/usbcfg.h"
 495              		.file 64 "../e-puck2_main-processor/src/ircom/ircom.h"
ARM GAS  /tmp/ccggoIxD.s 			page 10


 496              		.file 65 "../e-puck2_main-processor/src/ircom/ircomReceive.h"
 497              		.file 66 "../e-puck2_main-processor/ChibiOS//os/rt/include/chthreads.h"
 498              		.file 67 "../e-puck2_main-processor/src/leds.h"
 499              		.file 68 "../e-puck2_main-processor/src/ircom/ircomMessages.h"
 500              		.file 69 "../e-puck2_main-processor/src/ircom/ircomSend.h"