ARM GAS  /tmp/ccV1r92o.s 			page 1


   1              		.cpu cortex-m4
   2              		.eabi_attribute 27, 1
   3              		.eabi_attribute 28, 1
   4              		.eabi_attribute 20, 1
   5              		.eabi_attribute 21, 1
   6              		.eabi_attribute 23, 3
   7              		.eabi_attribute 24, 1
   8              		.eabi_attribute 25, 1
   9              		.eabi_attribute 26, 1
  10              		.eabi_attribute 30, 2
  11              		.eabi_attribute 34, 1
  12              		.eabi_attribute 18, 4
  13              		.file	"behaviors.c"
  14              		.text
  15              	.Ltext0:
  16              		.cfi_sections	.debug_frame
  17              		.section	.text.behaviors_thd,"ax",%progbits
  18              		.align	1
  19              		.p2align 4,,15
  20              		.syntax unified
  21              		.thumb
  22              		.thumb_func
  23              		.fpu fpv4-sp-d16
  24              		.type	behaviors_thd, %function
  25              	behaviors_thd:
  26              	.LFB265:
  27              		.file 1 "../e-puck2_main-processor/src/behaviors.c"
  28              		.loc 1 43 0
  29              		.cfi_startproc
  30              		@ args = 0, pretend = 0, frame = 24
  31              		@ frame_needed = 0, uses_anonymous_args = 0
  32              	.LVL0:
  33 0000 2DE9F04F 		push	{r4, r5, r6, r7, r8, r9, r10, fp, lr}
  34              		.cfi_def_cfa_offset 36
  35              		.cfi_offset 4, -36
  36              		.cfi_offset 5, -32
  37              		.cfi_offset 6, -28
  38              		.cfi_offset 7, -24
  39              		.cfi_offset 8, -20
  40              		.cfi_offset 9, -16
  41              		.cfi_offset 10, -12
  42              		.cfi_offset 11, -8
  43              		.cfi_offset 14, -4
  44              	.LBB58:
  45              	.LBB59:
  46              		.file 2 "../e-puck2_main-processor/ChibiOS//os/rt/include/chregistry.h"
  47              		.loc 2 135 0
  48 0004 4D4C     		ldr	r4, .L23
  49 0006 4E4A     		ldr	r2, .L23+4
  50 0008 A369     		ldr	r3, [r4, #24]
  51              	.LBE59:
  52              	.LBE58:
  53              		.loc 1 43 0
  54 000a DFF84891 		ldr	r9, .L23+24
  55              	.LBB61:
  56              	.LBB60:
  57              		.loc 2 135 0
ARM GAS  /tmp/ccV1r92o.s 			page 2


  58 000e 9A61     		str	r2, [r3, #24]
  59              	.LBE60:
  60              	.LBE61:
  61              	.LBB62:
  62              	.LBB63:
  63              		.file 3 "../e-puck2_main-processor/ChibiOS//os/rt/include/chthreads.h"
  64              		.loc 3 233 0
  65 0010 A369     		ldr	r3, [r4, #24]
  66              	.LBE63:
  67              	.LBE62:
  68              		.loc 1 43 0
  69 0012 D9F80020 		ldr	r2, [r9]
  70              		.loc 1 53 0
  71 0016 93F82130 		ldrb	r3, [r3, #33]	@ zero_extendqisi2
  72              		.loc 1 43 0
  73 001a 87B0     		sub	sp, sp, #28
  74              		.cfi_def_cfa_offset 64
  75              		.loc 1 43 0
  76 001c 0592     		str	r2, [sp, #20]
  77              	.LVL1:
  78              		.loc 1 53 0
  79 001e 5A07     		lsls	r2, r3, #29
  80 0020 00F18180 		bmi	.L1
  81 0024 DFF83081 		ldr	r8, .L23+28
  82              		.loc 1 87 0
  83 0028 DFF830B1 		ldr	fp, .L23+32
  84 002c 09E0     		b	.L12
  85              	.LVL2:
  86              	.L4:
  87              		.loc 1 103 0
  88 002e 06F11401 		add	r1, r6, #20
  89 0032 3046     		mov	r0, r6
  90 0034 FFF7FEFF 		bl	chThdSleepUntilWindowed
  91              	.LVL3:
  92              	.LBB65:
  93              	.LBB64:
  94              		.loc 3 233 0
  95 0038 A369     		ldr	r3, [r4, #24]
  96              	.LBE64:
  97              	.LBE65:
  98              		.loc 1 53 0
  99 003a 93F82130 		ldrb	r3, [r3, #33]	@ zero_extendqisi2
 100 003e 5B07     		lsls	r3, r3, #29
 101 0040 71D4     		bmi	.L1
 102              	.L12:
 103              	.LVL4:
 104              	.LBB66:
 105              	.LBB67:
 106              	.LBB68:
 107              	.LBB69:
 108              	.LBB70:
 109              	.LBB71:
 110              	.LBB72:
 111              		.file 4 "../e-puck2_main-processor/ChibiOS//os/ext/CMSIS/include/core_cmFunc.h"
 112              		.loc 4 546 0
 113 0042 2023     		movs	r3, #32
 114              		.syntax unified
ARM GAS  /tmp/ccV1r92o.s 			page 3


 115              	@ 546 "../e-puck2_main-processor/ChibiOS//os/ext/CMSIS/include/core_cmFunc.h" 1
 116 0044 83F31188 		MSR basepri, r3
 117              	@ 0 "" 2
 118              	.LVL5:
 119              		.thumb
 120              		.syntax unified
 121              	.LBE72:
 122              	.LBE71:
 123              	.LBE70:
 124              		.file 5 "../e-puck2_main-processor/ChibiOS//os/rt/include/chsys.h"
 125              		.loc 5 349 0
 126 0048 FFF7FEFF 		bl	_stats_start_measure_crit_thd
 127              	.LVL6:
 128              		.loc 5 350 0
 129 004c FFF7FEFF 		bl	_dbg_check_lock
 130              	.LVL7:
 131              	.LBE69:
 132              	.LBE68:
 133              	.LBB73:
 134              	.LBB74:
 135              		.file 6 "../e-puck2_main-processor/ChibiOS//os/rt/include/chvt.h"
 136              		.loc 6 231 0
 137 0050 A66A     		ldr	r6, [r4, #40]
 138              	.LBE74:
 139              	.LBE73:
 140              	.LBB75:
 141              	.LBB76:
 142              		.loc 5 360 0
 143 0052 FFF7FEFF 		bl	_dbg_check_unlock
 144              	.LVL8:
 145              		.loc 5 361 0
 146 0056 FFF7FEFF 		bl	_stats_stop_measure_crit_thd
 147              	.LVL9:
 148              		.loc 5 367 0
 149 005a 2368     		ldr	r3, [r4]
 150 005c A342     		cmp	r3, r4
 151 005e 07D0     		beq	.L3
 152 0060 A269     		ldr	r2, [r4, #24]
 153 0062 9B68     		ldr	r3, [r3, #8]
 154 0064 9268     		ldr	r2, [r2, #8]
 155 0066 9A42     		cmp	r2, r3
 156 0068 02D2     		bcs	.L3
 157 006a 3648     		ldr	r0, .L23+8
 158 006c FFF7FEFF 		bl	chSysHalt
 159              	.LVL10:
 160              	.L3:
 161              	.LBB77:
 162              	.LBB78:
 163              	.LBB79:
 164              		.loc 4 546 0
 165 0070 0023     		movs	r3, #0
 166              		.syntax unified
 167              	@ 546 "../e-puck2_main-processor/ChibiOS//os/ext/CMSIS/include/core_cmFunc.h" 1
 168 0072 83F31188 		MSR basepri, r3
 169              	@ 0 "" 2
 170              	.LVL11:
 171              		.thumb
ARM GAS  /tmp/ccV1r92o.s 			page 4


 172              		.syntax unified
 173              	.LBE79:
 174              	.LBE78:
 175              	.LBE77:
 176              	.LBE76:
 177              	.LBE75:
 178              	.LBE67:
 179              	.LBE66:
 180              		.loc 1 55 0
 181 0076 98F80020 		ldrb	r2, [r8]	@ zero_extendqisi2
 182 007a 002A     		cmp	r2, #0
 183 007c D7D0     		beq	.L4
 184 007e 9A46     		mov	r10, r3
 185              		.loc 1 78 0
 186 0080 1F46     		mov	r7, r3
 187 0082 01AD     		add	r5, sp, #4
 188              	.L7:
 189              	.LVL12:
 190              		.loc 1 76 0
 191 0084 5046     		mov	r0, r10
 192 0086 FFF7FEFF 		bl	get_calibrated_prox
 193              	.LVL13:
 194 008a 00B2     		sxth	r0, r0
 195              		.loc 1 77 0
 196 008c 0428     		cmp	r0, #4
 197              		.loc 1 76 0
 198 008e CCBF     		ite	gt
 199 0090 25F81A00 		strhgt	r0, [r5, r10, lsl #1]	@ movhi
 200              		.loc 1 78 0
 201 0094 25F81A70 		strhle	r7, [r5, r10, lsl #1]	@ movhi
 202              	.LVL14:
 203 0098 0AF1010A 		add	r10, r10, #1
 204              	.LVL15:
 205              		.loc 1 75 0
 206 009c BAF1080F 		cmp	r10, #8
 207 00a0 F0D1     		bne	.L7
 208              		.loc 1 83 0
 209 00a2 BDF90650 		ldrsh	r5, [sp, #6]
 210 00a6 BDF90420 		ldrsh	r2, [sp, #4]
 211              		.loc 1 84 0
 212 00aa BDF90810 		ldrsh	r1, [sp, #8]
 213              		.loc 1 83 0
 214 00ae BDF90A00 		ldrsh	r0, [sp, #10]
 215 00b2 6D10     		asrs	r5, r5, #1
 216              		.loc 1 84 0
 217 00b4 05EB6203 		add	r3, r5, r2, asr #1
 218 00b8 0B44     		add	r3, r3, r1
 219              		.loc 1 83 0
 220 00ba 5242     		negs	r2, r2
 221 00bc BDF90C10 		ldrsh	r1, [sp, #12]
 222 00c0 521B     		subs	r2, r2, r5
 223              		.loc 1 84 0
 224 00c2 03EB6003 		add	r3, r3, r0, asr #1
 225              		.loc 1 83 0
 226 00c6 A0EBA000 		sub	r0, r0, r0, asr #2
 227              		.loc 1 84 0
 228 00ca BDF90E50 		ldrsh	r5, [sp, #14]
ARM GAS  /tmp/ccV1r92o.s 			page 5


 229              		.loc 1 83 0
 230 00ce 0244     		add	r2, r2, r0
 231 00d0 BDF91000 		ldrsh	r0, [sp, #16]
 232              		.loc 1 84 0
 233 00d4 A3EB6103 		sub	r3, r3, r1, asr #1
 234              		.loc 1 83 0
 235 00d8 A1EBA101 		sub	r1, r1, r1, asr #2
 236 00dc 4010     		asrs	r0, r0, #1
 237 00de 0A44     		add	r2, r2, r1
 238              		.loc 1 84 0
 239 00e0 5B1B     		subs	r3, r3, r5
 240              		.loc 1 83 0
 241 00e2 BDF91250 		ldrsh	r5, [sp, #18]
 242              	.LVL16:
 243              		.loc 1 87 0
 244 00e6 DBF80010 		ldr	r1, [fp]
 245              		.loc 1 84 0
 246 00ea 1B1A     		subs	r3, r3, r0
 247              		.loc 1 83 0
 248 00ec 121A     		subs	r2, r2, r0
 249              		.loc 1 84 0
 250 00ee A3EB6503 		sub	r3, r3, r5, asr #1
 251              		.loc 1 83 0
 252 00f2 521B     		subs	r2, r2, r5
 253 00f4 9B00     		lsls	r3, r3, #2
 254              		.loc 1 87 0
 255 00f6 0029     		cmp	r1, #0
 256 00f8 4FEA6202 		asr	r2, r2, #1
 257              		.loc 1 88 0
 258 00fc ABBF     		itete	ge
 259 00fe D01A     		subge	r0, r2, r3
 260              	.LVL17:
 261              		.loc 1 90 0
 262 0100 D018     		addlt	r0, r2, r3
 263              		.loc 1 88 0
 264 0102 0918     		addge	r1, r1, r0
 265              	.LVL18:
 266              		.loc 1 90 0
 267 0104 091A     		sublt	r1, r1, r0
 268              	.LVL19:
 269              		.loc 1 92 0
 270 0106 1048     		ldr	r0, .L23+12
 271 0108 0568     		ldr	r5, [r0]
 272              	.LVL20:
 273              		.loc 1 98 0
 274 010a 1048     		ldr	r0, .L23+16
 275              		.loc 1 92 0
 276 010c 002D     		cmp	r5, #0
 277              		.loc 1 93 0
 278 010e ABBF     		itete	ge
 279 0110 9B18     		addge	r3, r3, r2
 280              		.loc 1 95 0
 281 0112 D31A     		sublt	r3, r2, r3
 282              		.loc 1 93 0
 283 0114 ED18     		addge	r5, r5, r3
 284              	.LVL21:
 285              		.loc 1 95 0
ARM GAS  /tmp/ccV1r92o.s 			page 6


 286 0116 ED1A     		sublt	r5, r5, r3
 287              	.LVL22:
 288              		.loc 1 98 0
 289 0118 FFF7FEFF 		bl	motor_set_speed
 290              	.LVL23:
 291              		.loc 1 99 0
 292 011c 2946     		mov	r1, r5
 293 011e 0C48     		ldr	r0, .L23+20
 294 0120 FFF7FEFF 		bl	motor_set_speed
 295              	.LVL24:
 296 0124 83E7     		b	.L4
 297              	.LVL25:
 298              	.L1:
 299              		.loc 1 105 0
 300 0126 059A     		ldr	r2, [sp, #20]
 301 0128 D9F80030 		ldr	r3, [r9]
 302 012c 9A42     		cmp	r2, r3
 303 012e 02D1     		bne	.L22
 304 0130 07B0     		add	sp, sp, #28
 305              		.cfi_remember_state
 306              		.cfi_def_cfa_offset 36
 307              		@ sp needed
 308 0132 BDE8F08F 		pop	{r4, r5, r6, r7, r8, r9, r10, fp, pc}
 309              	.L22:
 310              		.cfi_restore_state
 311 0136 FFF7FEFF 		bl	__stack_chk_fail
 312              	.LVL26:
 313              	.L24:
 314 013a 00BF     		.align	2
 315              	.L23:
 316 013c 00000000 		.word	ch
 317 0140 00000000 		.word	.LANCHOR0
 318 0144 00000000 		.word	.LANCHOR1
 319 0148 00000000 		.word	.LANCHOR4
 320 014c 00000000 		.word	left_motor
 321 0150 00000000 		.word	right_motor
 322 0154 00000000 		.word	__stack_chk_guard
 323 0158 00000000 		.word	.LANCHOR2
 324 015c 00000000 		.word	.LANCHOR3
 325              		.cfi_endproc
 326              	.LFE265:
 327              		.size	behaviors_thd, .-behaviors_thd
 328              		.section	.text.enable_obstacle_avoidance,"ax",%progbits
 329              		.align	1
 330              		.p2align 4,,15
 331              		.global	enable_obstacle_avoidance
 332              		.syntax unified
 333              		.thumb
 334              		.thumb_func
 335              		.fpu fpv4-sp-d16
 336              		.type	enable_obstacle_avoidance, %function
 337              	enable_obstacle_avoidance:
 338              	.LFB260:
 339              		.loc 1 22 0
 340              		.cfi_startproc
 341              		@ args = 0, pretend = 0, frame = 8
 342              		@ frame_needed = 0, uses_anonymous_args = 0
ARM GAS  /tmp/ccV1r92o.s 			page 7


 343 0000 00B5     		push	{lr}
 344              		.cfi_def_cfa_offset 4
 345              		.cfi_offset 14, -4
 346 0002 084B     		ldr	r3, .L29
 347              		.loc 1 23 0
 348 0004 0849     		ldr	r1, .L29+4
 349              		.loc 1 22 0
 350 0006 1A68     		ldr	r2, [r3]
 351 0008 83B0     		sub	sp, sp, #12
 352              		.cfi_def_cfa_offset 16
 353              		.loc 1 23 0
 354 000a 0120     		movs	r0, #1
 355              		.loc 1 22 0
 356 000c 0192     		str	r2, [sp, #4]
 357              		.loc 1 24 0
 358 000e 019A     		ldr	r2, [sp, #4]
 359 0010 1B68     		ldr	r3, [r3]
 360              		.loc 1 23 0
 361 0012 0870     		strb	r0, [r1]
 362              		.loc 1 24 0
 363 0014 9A42     		cmp	r2, r3
 364 0016 02D1     		bne	.L28
 365 0018 03B0     		add	sp, sp, #12
 366              		.cfi_remember_state
 367              		.cfi_def_cfa_offset 4
 368              		@ sp needed
 369 001a 5DF804FB 		ldr	pc, [sp], #4
 370              	.L28:
 371              		.cfi_restore_state
 372 001e FFF7FEFF 		bl	__stack_chk_fail
 373              	.LVL27:
 374              	.L30:
 375 0022 00BF     		.align	2
 376              	.L29:
 377 0024 00000000 		.word	__stack_chk_guard
 378 0028 00000000 		.word	.LANCHOR2
 379              		.cfi_endproc
 380              	.LFE260:
 381              		.size	enable_obstacle_avoidance, .-enable_obstacle_avoidance
 382              		.section	.text.disable_obstacle_avoidance,"ax",%progbits
 383              		.align	1
 384              		.p2align 4,,15
 385              		.global	disable_obstacle_avoidance
 386              		.syntax unified
 387              		.thumb
 388              		.thumb_func
 389              		.fpu fpv4-sp-d16
 390              		.type	disable_obstacle_avoidance, %function
 391              	disable_obstacle_avoidance:
 392              	.LFB261:
 393              		.loc 1 26 0
 394              		.cfi_startproc
 395              		@ args = 0, pretend = 0, frame = 8
 396              		@ frame_needed = 0, uses_anonymous_args = 0
 397 0000 00B5     		push	{lr}
 398              		.cfi_def_cfa_offset 4
 399              		.cfi_offset 14, -4
ARM GAS  /tmp/ccV1r92o.s 			page 8


 400 0002 084B     		ldr	r3, .L35
 401              		.loc 1 27 0
 402 0004 0849     		ldr	r1, .L35+4
 403              		.loc 1 26 0
 404 0006 1A68     		ldr	r2, [r3]
 405 0008 83B0     		sub	sp, sp, #12
 406              		.cfi_def_cfa_offset 16
 407              		.loc 1 27 0
 408 000a 0020     		movs	r0, #0
 409              		.loc 1 26 0
 410 000c 0192     		str	r2, [sp, #4]
 411              		.loc 1 28 0
 412 000e 019A     		ldr	r2, [sp, #4]
 413 0010 1B68     		ldr	r3, [r3]
 414              		.loc 1 27 0
 415 0012 0870     		strb	r0, [r1]
 416              		.loc 1 28 0
 417 0014 9A42     		cmp	r2, r3
 418 0016 02D1     		bne	.L34
 419 0018 03B0     		add	sp, sp, #12
 420              		.cfi_remember_state
 421              		.cfi_def_cfa_offset 4
 422              		@ sp needed
 423 001a 5DF804FB 		ldr	pc, [sp], #4
 424              	.L34:
 425              		.cfi_restore_state
 426 001e FFF7FEFF 		bl	__stack_chk_fail
 427              	.LVL28:
 428              	.L36:
 429 0022 00BF     		.align	2
 430              	.L35:
 431 0024 00000000 		.word	__stack_chk_guard
 432 0028 00000000 		.word	.LANCHOR2
 433              		.cfi_endproc
 434              	.LFE261:
 435              		.size	disable_obstacle_avoidance, .-disable_obstacle_avoidance
 436              		.section	.text.obstacle_avoidance_enabled,"ax",%progbits
 437              		.align	1
 438              		.p2align 4,,15
 439              		.global	obstacle_avoidance_enabled
 440              		.syntax unified
 441              		.thumb
 442              		.thumb_func
 443              		.fpu fpv4-sp-d16
 444              		.type	obstacle_avoidance_enabled, %function
 445              	obstacle_avoidance_enabled:
 446              	.LFB262:
 447              		.loc 1 30 0
 448              		.cfi_startproc
 449              		@ args = 0, pretend = 0, frame = 8
 450              		@ frame_needed = 0, uses_anonymous_args = 0
 451 0000 00B5     		push	{lr}
 452              		.cfi_def_cfa_offset 4
 453              		.cfi_offset 14, -4
 454 0002 074B     		ldr	r3, .L41
 455              		.loc 1 31 0
 456 0004 0749     		ldr	r1, .L41+4
ARM GAS  /tmp/ccV1r92o.s 			page 9


 457              		.loc 1 30 0
 458 0006 1A68     		ldr	r2, [r3]
 459              		.loc 1 32 0
 460 0008 0878     		ldrb	r0, [r1]	@ zero_extendqisi2
 461              		.loc 1 30 0
 462 000a 83B0     		sub	sp, sp, #12
 463              		.cfi_def_cfa_offset 16
 464              		.loc 1 30 0
 465 000c 0192     		str	r2, [sp, #4]
 466              		.loc 1 32 0
 467 000e 019A     		ldr	r2, [sp, #4]
 468 0010 1B68     		ldr	r3, [r3]
 469 0012 9A42     		cmp	r2, r3
 470 0014 02D1     		bne	.L40
 471 0016 03B0     		add	sp, sp, #12
 472              		.cfi_remember_state
 473              		.cfi_def_cfa_offset 4
 474              		@ sp needed
 475 0018 5DF804FB 		ldr	pc, [sp], #4
 476              	.L40:
 477              		.cfi_restore_state
 478 001c FFF7FEFF 		bl	__stack_chk_fail
 479              	.LVL29:
 480              	.L42:
 481              		.align	2
 482              	.L41:
 483 0020 00000000 		.word	__stack_chk_guard
 484 0024 00000000 		.word	.LANCHOR2
 485              		.cfi_endproc
 486              	.LFE262:
 487              		.size	obstacle_avoidance_enabled, .-obstacle_avoidance_enabled
 488              		.section	.text.obstacle_avoidance_set_speed_left,"ax",%progbits
 489              		.align	1
 490              		.p2align 4,,15
 491              		.global	obstacle_avoidance_set_speed_left
 492              		.syntax unified
 493              		.thumb
 494              		.thumb_func
 495              		.fpu fpv4-sp-d16
 496              		.type	obstacle_avoidance_set_speed_left, %function
 497              	obstacle_avoidance_set_speed_left:
 498              	.LFB263:
 499              		.loc 1 34 0
 500              		.cfi_startproc
 501              		@ args = 0, pretend = 0, frame = 8
 502              		@ frame_needed = 0, uses_anonymous_args = 0
 503              	.LVL30:
 504 0000 00B5     		push	{lr}
 505              		.cfi_def_cfa_offset 4
 506              		.cfi_offset 14, -4
 507 0002 074B     		ldr	r3, .L47
 508              		.loc 1 35 0
 509 0004 0749     		ldr	r1, .L47+4
 510              		.loc 1 34 0
 511 0006 1A68     		ldr	r2, [r3]
 512              		.loc 1 35 0
 513 0008 0860     		str	r0, [r1]
ARM GAS  /tmp/ccV1r92o.s 			page 10


 514              		.loc 1 34 0
 515 000a 83B0     		sub	sp, sp, #12
 516              		.cfi_def_cfa_offset 16
 517              		.loc 1 34 0
 518 000c 0192     		str	r2, [sp, #4]
 519              		.loc 1 36 0
 520 000e 019A     		ldr	r2, [sp, #4]
 521 0010 1B68     		ldr	r3, [r3]
 522 0012 9A42     		cmp	r2, r3
 523 0014 02D1     		bne	.L46
 524 0016 03B0     		add	sp, sp, #12
 525              		.cfi_remember_state
 526              		.cfi_def_cfa_offset 4
 527              		@ sp needed
 528 0018 5DF804FB 		ldr	pc, [sp], #4
 529              	.L46:
 530              		.cfi_restore_state
 531 001c FFF7FEFF 		bl	__stack_chk_fail
 532              	.LVL31:
 533              	.L48:
 534              		.align	2
 535              	.L47:
 536 0020 00000000 		.word	__stack_chk_guard
 537 0024 00000000 		.word	.LANCHOR3
 538              		.cfi_endproc
 539              	.LFE263:
 540              		.size	obstacle_avoidance_set_speed_left, .-obstacle_avoidance_set_speed_left
 541              		.section	.text.obstacle_avoidance_set_speed_right,"ax",%progbits
 542              		.align	1
 543              		.p2align 4,,15
 544              		.global	obstacle_avoidance_set_speed_right
 545              		.syntax unified
 546              		.thumb
 547              		.thumb_func
 548              		.fpu fpv4-sp-d16
 549              		.type	obstacle_avoidance_set_speed_right, %function
 550              	obstacle_avoidance_set_speed_right:
 551              	.LFB264:
 552              		.loc 1 38 0
 553              		.cfi_startproc
 554              		@ args = 0, pretend = 0, frame = 8
 555              		@ frame_needed = 0, uses_anonymous_args = 0
 556              	.LVL32:
 557 0000 00B5     		push	{lr}
 558              		.cfi_def_cfa_offset 4
 559              		.cfi_offset 14, -4
 560 0002 074B     		ldr	r3, .L53
 561              		.loc 1 39 0
 562 0004 0749     		ldr	r1, .L53+4
 563              		.loc 1 38 0
 564 0006 1A68     		ldr	r2, [r3]
 565              		.loc 1 39 0
 566 0008 0860     		str	r0, [r1]
 567              		.loc 1 38 0
 568 000a 83B0     		sub	sp, sp, #12
 569              		.cfi_def_cfa_offset 16
 570              		.loc 1 38 0
ARM GAS  /tmp/ccV1r92o.s 			page 11


 571 000c 0192     		str	r2, [sp, #4]
 572              		.loc 1 40 0
 573 000e 019A     		ldr	r2, [sp, #4]
 574 0010 1B68     		ldr	r3, [r3]
 575 0012 9A42     		cmp	r2, r3
 576 0014 02D1     		bne	.L52
 577 0016 03B0     		add	sp, sp, #12
 578              		.cfi_remember_state
 579              		.cfi_def_cfa_offset 4
 580              		@ sp needed
 581 0018 5DF804FB 		ldr	pc, [sp], #4
 582              	.L52:
 583              		.cfi_restore_state
 584 001c FFF7FEFF 		bl	__stack_chk_fail
 585              	.LVL33:
 586              	.L54:
 587              		.align	2
 588              	.L53:
 589 0020 00000000 		.word	__stack_chk_guard
 590 0024 00000000 		.word	.LANCHOR4
 591              		.cfi_endproc
 592              	.LFE264:
 593              		.size	obstacle_avoidance_set_speed_right, .-obstacle_avoidance_set_speed_right
 594              		.section	.text.behaviors_start,"ax",%progbits
 595              		.align	1
 596              		.p2align 4,,15
 597              		.global	behaviors_start
 598              		.syntax unified
 599              		.thumb
 600              		.thumb_func
 601              		.fpu fpv4-sp-d16
 602              		.type	behaviors_start, %function
 603              	behaviors_start:
 604              	.LFB266:
 605              		.loc 1 107 0
 606              		.cfi_startproc
 607              		@ args = 0, pretend = 0, frame = 8
 608              		@ frame_needed = 0, uses_anonymous_args = 0
 609 0000 30B5     		push	{r4, r5, lr}
 610              		.cfi_def_cfa_offset 12
 611              		.cfi_offset 4, -12
 612              		.cfi_offset 5, -8
 613              		.cfi_offset 14, -4
 614 0002 0B4C     		ldr	r4, .L59
 615              		.loc 1 108 0
 616 0004 0B4D     		ldr	r5, .L59+4
 617              		.loc 1 107 0
 618 0006 2268     		ldr	r2, [r4]
 619              		.loc 1 109 0
 620 0008 0B4B     		ldr	r3, .L59+8
 621 000a 0C48     		ldr	r0, .L59+12
 622              		.loc 1 107 0
 623 000c 85B0     		sub	sp, sp, #20
 624              		.cfi_def_cfa_offset 32
 625              		.loc 1 108 0
 626 000e 0021     		movs	r1, #0
 627              		.loc 1 107 0
ARM GAS  /tmp/ccV1r92o.s 			page 12


 628 0010 0392     		str	r2, [sp, #12]
 629              		.loc 1 109 0
 630 0012 0091     		str	r1, [sp]
 631 0014 4022     		movs	r2, #64
 632              		.loc 1 108 0
 633 0016 2970     		strb	r1, [r5]
 634              		.loc 1 109 0
 635 0018 4FF4FC71 		mov	r1, #504
 636 001c FFF7FEFF 		bl	chThdCreateStatic
 637              	.LVL34:
 638              		.loc 1 110 0
 639 0020 039A     		ldr	r2, [sp, #12]
 640 0022 2368     		ldr	r3, [r4]
 641 0024 9A42     		cmp	r2, r3
 642 0026 01D1     		bne	.L58
 643 0028 05B0     		add	sp, sp, #20
 644              		.cfi_remember_state
 645              		.cfi_def_cfa_offset 12
 646              		@ sp needed
 647 002a 30BD     		pop	{r4, r5, pc}
 648              	.L58:
 649              		.cfi_restore_state
 650 002c FFF7FEFF 		bl	__stack_chk_fail
 651              	.LVL35:
 652              	.L60:
 653              		.align	2
 654              	.L59:
 655 0030 00000000 		.word	__stack_chk_guard
 656 0034 00000000 		.word	.LANCHOR2
 657 0038 00000000 		.word	behaviors_thd
 658 003c 00000000 		.word	.LANCHOR5
 659              		.cfi_endproc
 660              	.LFE266:
 661              		.size	behaviors_start, .-behaviors_start
 662              		.global	target_speed_right
 663              		.global	target_speed_left
 664              		.global	oa_enabled
 665              		.section	.bss.behaviors_thd_wa,"aw",%nobits
 666              		.align	3
 667              		.set	.LANCHOR5,. + 0
 668              		.type	behaviors_thd_wa, %object
 669              		.size	behaviors_thd_wa, 504
 670              	behaviors_thd_wa:
 671 0000 00000000 		.space	504
 671      00000000 
 671      00000000 
 671      00000000 
 671      00000000 
 672              		.section	.bss.oa_enabled,"aw",%nobits
 673              		.set	.LANCHOR2,. + 0
 674              		.type	oa_enabled, %object
 675              		.size	oa_enabled, 1
 676              	oa_enabled:
 677 0000 00       		.space	1
 678              		.section	.bss.target_speed_left,"aw",%nobits
 679              		.align	2
 680              		.set	.LANCHOR3,. + 0
ARM GAS  /tmp/ccV1r92o.s 			page 13


 681              		.type	target_speed_left, %object
 682              		.size	target_speed_left, 4
 683              	target_speed_left:
 684 0000 00000000 		.space	4
 685              		.section	.bss.target_speed_right,"aw",%nobits
 686              		.align	2
 687              		.set	.LANCHOR4,. + 0
 688              		.type	target_speed_right, %object
 689              		.size	target_speed_right, 4
 690              	target_speed_right:
 691 0000 00000000 		.space	4
 692              		.section	.rodata.__FUNCTION__.11152,"a",%progbits
 693              		.align	2
 694              		.set	.LANCHOR0,. + 0
 695              		.type	__FUNCTION__.11152, %object
 696              		.size	__FUNCTION__.11152, 14
 697              	__FUNCTION__.11152:
 698 0000 62656861 		.ascii	"behaviors_thd\000"
 698      76696F72 
 698      735F7468 
 698      6400
 699              		.section	.rodata.__func__.7153,"a",%progbits
 700              		.align	2
 701              		.set	.LANCHOR1,. + 0
 702              		.type	__func__.7153, %object
 703              		.size	__func__.7153, 12
 704              	__func__.7153:
 705 0000 63685379 		.ascii	"chSysUnlock\000"
 705      73556E6C 
 705      6F636B00 
 706              		.text
 707              	.Letext0:
 708              		.file 7 "/home/leander/uos_codes/epuck2_lab/Eclipse_e-puck2/Tools/gcc-arm-none-eabi-7-2017-q4-majo
 709              		.file 8 "/home/leander/uos_codes/epuck2_lab/Eclipse_e-puck2/Tools/gcc-arm-none-eabi-7-2017-q4-majo
 710              		.file 9 "/home/leander/uos_codes/epuck2_lab/Eclipse_e-puck2/Tools/gcc-arm-none-eabi-7-2017-q4-majo
 711              		.file 10 "../e-puck2_main-processor/ChibiOS//os/rt/ports/ARMCMx/compilers/GCC/chtypes.h"
 712              		.file 11 "../e-puck2_main-processor/ChibiOS//os/rt/include/chsystypes.h"
 713              		.file 12 "../e-puck2_main-processor/ChibiOS//os/rt/include/chschd.h"
 714              		.file 13 "../e-puck2_main-processor/ChibiOS//os/ext/CMSIS/include/core_cm4.h"
 715              		.file 14 "../e-puck2_main-processor/ChibiOS//os/ext/CMSIS/ST/system_stm32f4xx.h"
 716              		.file 15 "../e-puck2_main-processor/ChibiOS//os/ext/CMSIS/ST/stm32f407xx.h"
 717              		.file 16 "../e-puck2_main-processor/ChibiOS//os/rt/ports/ARMCMx/chcore.h"
 718              		.file 17 "../e-puck2_main-processor/ChibiOS//os/rt/ports/ARMCMx/chcore_v7m.h"
 719              		.file 18 "../e-puck2_main-processor/ChibiOS//os/rt/include/chdebug.h"
 720              		.file 19 "../e-puck2_main-processor/ChibiOS//os/rt/include/chtm.h"
 721              		.file 20 "../e-puck2_main-processor/ChibiOS//os/rt/include/chstats.h"
 722              		.file 21 "../e-puck2_main-processor/ChibiOS//os/rt/include/chsem.h"
 723              		.file 22 "../e-puck2_main-processor/ChibiOS//os/rt/include/chmtx.h"
 724              		.file 23 "../e-puck2_main-processor/ChibiOS//os/rt/include/chevents.h"
 725              		.file 24 "../e-puck2_main-processor/ChibiOS//os/rt/include/chqueues.h"
 726              		.file 25 "../e-puck2_main-processor/ChibiOS//os/hal/ports/STM32/STM32F4xx/stm32_dma.h"
 727              		.file 26 "../e-puck2_main-processor/ChibiOS//os/hal/include/hal_ioblock.h"
 728              		.file 27 "../e-puck2_main-processor/ChibiOS//os/hal/ports/STM32/LLD/GPIOv2/pal_lld.h"
 729              		.file 28 "../e-puck2_main-processor/ChibiOS//os/hal/include/adc.h"
 730              		.file 29 "../e-puck2_main-processor/ChibiOS//os/hal/ports/STM32/STM32F4xx/adc_lld.h"
 731              		.file 30 "../e-puck2_main-processor/ChibiOS//os/hal/include/can.h"
 732              		.file 31 "../e-puck2_main-processor/ChibiOS//os/hal/ports/STM32/LLD/can_lld.h"
ARM GAS  /tmp/ccV1r92o.s 			page 14


 733              		.file 32 "../e-puck2_main-processor/ChibiOS//os/hal/include/dac.h"
 734              		.file 33 "../e-puck2_main-processor/ChibiOS//os/hal/ports/STM32/LLD/DACv1/dac_lld.h"
 735              		.file 34 "../e-puck2_main-processor/ChibiOS//os/hal/include/ext.h"
 736              		.file 35 "../e-puck2_main-processor/ChibiOS//os/hal/ports/STM32/LLD/ext_lld.h"
 737              		.file 36 "../e-puck2_main-processor/ChibiOS//os/hal/include/gpt.h"
 738              		.file 37 "../e-puck2_main-processor/ChibiOS//os/hal/ports/STM32/LLD/TIMv1/gpt_lld.h"
 739              		.file 38 "../e-puck2_main-processor/ChibiOS//os/hal/ports/STM32/LLD/TIMv1/stm32_tim.h"
 740              		.file 39 "../e-puck2_main-processor/ChibiOS//os/hal/include/i2c.h"
 741              		.file 40 "../e-puck2_main-processor/ChibiOS//os/hal/ports/STM32/LLD/I2Cv1/i2c_lld.h"
 742              		.file 41 "../e-puck2_main-processor/ChibiOS//os/hal/include/i2s.h"
 743              		.file 42 "../e-puck2_main-processor/ChibiOS//os/hal/ports/STM32/LLD/SPIv1/i2s_lld.h"
 744              		.file 43 "../e-puck2_main-processor/ChibiOS//os/hal/include/pwm.h"
 745              		.file 44 "../e-puck2_main-processor/ChibiOS//os/hal/ports/STM32/LLD/TIMv1/pwm_lld.h"
 746              		.file 45 "../e-puck2_main-processor/ChibiOS//os/hal/include/serial.h"
 747              		.file 46 "../e-puck2_main-processor/ChibiOS//os/hal/ports/STM32/LLD/USARTv1/serial_lld.h"
 748              		.file 47 "../e-puck2_main-processor/ChibiOS//os/hal/include/sdc.h"
 749              		.file 48 "../e-puck2_main-processor/ChibiOS//os/hal/ports/STM32/LLD/sdc_lld.h"
 750              		.file 49 "../e-puck2_main-processor/ChibiOS//os/hal/include/spi.h"
 751              		.file 50 "../e-puck2_main-processor/ChibiOS//os/hal/ports/STM32/LLD/SPIv1/spi_lld.h"
 752              		.file 51 "../e-puck2_main-processor/ChibiOS//os/hal/include/usb.h"
 753              		.file 52 "../e-puck2_main-processor/ChibiOS//os/hal/ports/STM32/LLD/OTGv1/usb_lld.h"
 754              		.file 53 "../e-puck2_main-processor/ChibiOS//os/hal/ports/STM32/LLD/OTGv1/stm32_otg.h"
 755              		.file 54 "../e-puck2_main-processor/ChibiOS//os/hal/include/serial_usb.h"
 756              		.file 55 "../e-puck2_main-processor/src/motors.h"
 757              		.file 56 "../e-puck2_main-processor/src/epuck1x/../usbcfg.h"
 758              		.file 57 "/home/leander/uos_codes/epuck2_lab/Eclipse_e-puck2/Tools/gcc-arm-none-eabi-7-2017-q4-maj
 759              		.file 58 "/home/leander/uos_codes/epuck2_lab/Eclipse_e-puck2/Tools/gcc-arm-none-eabi-7-2017-q4-maj
 760              		.file 59 "/home/leander/uos_codes/epuck2_lab/Eclipse_e-puck2/Tools/gcc-arm-none-eabi-7-2017-q4-maj
 761              		.file 60 "../e-puck2_main-processor/src/sensors/proximity.h"