ARM GAS  /tmp/cclKUMhl.s 			page 1


   1              		.cpu cortex-m4
   2              		.eabi_attribute 27, 1
   3              		.eabi_attribute 28, 1
   4              		.eabi_attribute 20, 1
   5              		.eabi_attribute 21, 1
   6              		.eabi_attribute 23, 3
   7              		.eabi_attribute 24, 1
   8              		.eabi_attribute 25, 1
   9              		.eabi_attribute 26, 1
  10              		.eabi_attribute 30, 2
  11              		.eabi_attribute 34, 1
  12              		.eabi_attribute 18, 4
  13              		.file	"camera.c"
  14              		.text
  15              	.Ltext0:
  16              		.cfi_sections	.debug_frame
  17              		.section	.text.cam_start,"ax",%progbits
  18              		.align	1
  19              		.p2align 4,,15
  20              		.global	cam_start
  21              		.syntax unified
  22              		.thumb
  23              		.thumb_func
  24              		.fpu fpv4-sp-d16
  25              		.type	cam_start, %function
  26              	cam_start:
  27              	.LFB257:
  28              		.file 1 "../e-puck2_main-processor/src/camera/camera.c"
  29              		.loc 1 27 0
  30              		.cfi_startproc
  31              		@ args = 0, pretend = 0, frame = 8
  32              		@ frame_needed = 0, uses_anonymous_args = 0
  33 0000 30B5     		push	{r4, r5, lr}
  34              		.cfi_def_cfa_offset 12
  35              		.cfi_offset 4, -12
  36              		.cfi_offset 5, -8
  37              		.cfi_offset 14, -4
  38 0002 274C     		ldr	r4, .L16
  39 0004 83B0     		sub	sp, sp, #12
  40              		.cfi_def_cfa_offset 24
  41              		.loc 1 27 0
  42 0006 2368     		ldr	r3, [r4]
  43 0008 0193     		str	r3, [sp, #4]
  44              		.loc 1 28 0
  45 000a FFF7FEFF 		bl	i2c_start
  46              	.LVL0:
  47              		.loc 1 45 0
  48 000e 2549     		ldr	r1, .L16+4
  49 0010 2548     		ldr	r0, .L16+8
  50 0012 FFF7FEFF 		bl	pwmStart
  51              	.LVL1:
  52              		.loc 1 47 0
  53 0016 0122     		movs	r2, #1
  54 0018 0021     		movs	r1, #0
  55 001a 2348     		ldr	r0, .L16+8
  56 001c FFF7FEFF 		bl	pwmEnableChannel
  57              	.LVL2:
ARM GAS  /tmp/cclKUMhl.s 			page 2


  58              		.loc 1 48 0
  59 0020 4FF47A70 		mov	r0, #1000
  60 0024 FFF7FEFF 		bl	chThdSleep
  61              	.LVL3:
  62              		.loc 1 50 0
  63 0028 FFF7FEFF 		bl	po8030_is_connected
  64              	.LVL4:
  65 002c 0128     		cmp	r0, #1
  66 002e 1DD0     		beq	.L13
  67              		.loc 1 54 0
  68 0030 FFF7FEFF 		bl	po6030_is_connected
  69              	.LVL5:
  70 0034 0128     		cmp	r0, #1
  71 0036 0546     		mov	r5, r0
  72 0038 09D0     		beq	.L14
  73              		.loc 1 59 0
  74 003a FFF7FEFF 		bl	ov7670_is_connected
  75              	.LVL6:
  76 003e 0128     		cmp	r0, #1
  77 0040 20D0     		beq	.L15
  78              		.loc 1 70 0
  79 0042 019A     		ldr	r2, [sp, #4]
  80 0044 2368     		ldr	r3, [r4]
  81 0046 9A42     		cmp	r2, r3
  82 0048 28D1     		bne	.L11
  83 004a 03B0     		add	sp, sp, #12
  84              		.cfi_remember_state
  85              		.cfi_def_cfa_offset 12
  86              		@ sp needed
  87 004c 30BD     		pop	{r4, r5, pc}
  88              	.L14:
  89              		.cfi_restore_state
  90              		.loc 1 55 0
  91 004e 174B     		ldr	r3, .L16+12
  92 0050 1870     		strb	r0, [r3]
  93              		.loc 1 56 0
  94 0052 FFF7FEFF 		bl	po6030_start
  95              	.LVL7:
  96              		.loc 1 57 0
  97 0056 019A     		ldr	r2, [sp, #4]
  98 0058 2368     		ldr	r3, [r4]
  99 005a 9A42     		cmp	r2, r3
 100 005c 1ED1     		bne	.L11
 101 005e 2946     		mov	r1, r5
 102 0060 2846     		mov	r0, r5
 103              		.loc 1 70 0
 104 0062 03B0     		add	sp, sp, #12
 105              		.cfi_remember_state
 106              		.cfi_def_cfa_offset 12
 107              		@ sp needed
 108 0064 BDE83040 		pop	{r4, r5, lr}
 109              		.cfi_restore 14
 110              		.cfi_restore 5
 111              		.cfi_restore 4
 112              		.cfi_def_cfa_offset 0
 113              		.loc 1 57 0
 114 0068 FFF7FEBF 		b	po6030_set_mirror
ARM GAS  /tmp/cclKUMhl.s 			page 3


 115              	.LVL8:
 116              	.L13:
 117              		.cfi_restore_state
 118              		.loc 1 52 0
 119 006c 019A     		ldr	r2, [sp, #4]
 120 006e 2368     		ldr	r3, [r4]
 121              		.loc 1 51 0
 122 0070 0E49     		ldr	r1, .L16+12
 123 0072 0020     		movs	r0, #0
 124              		.loc 1 52 0
 125 0074 9A42     		cmp	r2, r3
 126              		.loc 1 51 0
 127 0076 0870     		strb	r0, [r1]
 128              		.loc 1 52 0
 129 0078 10D1     		bne	.L11
 130              		.loc 1 70 0
 131 007a 03B0     		add	sp, sp, #12
 132              		.cfi_remember_state
 133              		.cfi_def_cfa_offset 12
 134              		@ sp needed
 135 007c BDE83040 		pop	{r4, r5, lr}
 136              		.cfi_restore 14
 137              		.cfi_restore 5
 138              		.cfi_restore 4
 139              		.cfi_def_cfa_offset 0
 140              		.loc 1 52 0
 141 0080 FFF7FEBF 		b	po8030_start
 142              	.LVL9:
 143              	.L15:
 144              		.cfi_restore_state
 145              		.loc 1 61 0
 146 0084 019A     		ldr	r2, [sp, #4]
 147 0086 2368     		ldr	r3, [r4]
 148              		.loc 1 60 0
 149 0088 0849     		ldr	r1, .L16+12
 150 008a 0220     		movs	r0, #2
 151              		.loc 1 61 0
 152 008c 9A42     		cmp	r2, r3
 153              		.loc 1 60 0
 154 008e 0870     		strb	r0, [r1]
 155              		.loc 1 61 0
 156 0090 04D1     		bne	.L11
 157              		.loc 1 70 0
 158 0092 03B0     		add	sp, sp, #12
 159              		.cfi_remember_state
 160              		.cfi_def_cfa_offset 12
 161              		@ sp needed
 162 0094 BDE83040 		pop	{r4, r5, lr}
 163              		.cfi_restore 14
 164              		.cfi_restore 5
 165              		.cfi_restore 4
 166              		.cfi_def_cfa_offset 0
 167              		.loc 1 61 0
 168 0098 FFF7FEBF 		b	ov7670_start
 169              	.LVL10:
 170              	.L11:
 171              		.cfi_restore_state
ARM GAS  /tmp/cclKUMhl.s 			page 4


 172              		.loc 1 70 0
 173 009c FFF7FEFF 		bl	__stack_chk_fail
 174              	.LVL11:
 175              	.L17:
 176              		.align	2
 177              	.L16:
 178 00a0 00000000 		.word	__stack_chk_guard
 179 00a4 00000000 		.word	.LANCHOR0
 180 00a8 00000000 		.word	PWMD5
 181 00ac 00000000 		.word	.LANCHOR1
 182              		.cfi_endproc
 183              	.LFE257:
 184              		.size	cam_start, .-cam_start
 185              		.section	.text.cam_config,"ax",%progbits
 186              		.align	1
 187              		.p2align 4,,15
 188              		.global	cam_config
 189              		.syntax unified
 190              		.thumb
 191              		.thumb_func
 192              		.fpu fpv4-sp-d16
 193              		.type	cam_config, %function
 194              	cam_config:
 195              	.LFB258:
 196              		.loc 1 72 0
 197              		.cfi_startproc
 198              		@ args = 0, pretend = 0, frame = 8
 199              		@ frame_needed = 0, uses_anonymous_args = 0
 200              	.LVL12:
 201 0000 30B5     		push	{r4, r5, lr}
 202              		.cfi_def_cfa_offset 12
 203              		.cfi_offset 4, -12
 204              		.cfi_offset 5, -8
 205              		.cfi_offset 14, -4
 206              		.loc 1 74 0
 207 0002 284A     		ldr	r2, .L41
 208              		.loc 1 72 0
 209 0004 284B     		ldr	r3, .L41+4
 210              		.loc 1 73 0
 211 0006 294C     		ldr	r4, .L41+8
 212              		.loc 1 74 0
 213 0008 92F90020 		ldrsb	r2, [r2]
 214              		.loc 1 72 0
 215 000c 1D68     		ldr	r5, [r3]
 216              		.loc 1 73 0
 217 000e 2070     		strb	r0, [r4]
 218              		.loc 1 72 0
 219 0010 83B0     		sub	sp, sp, #12
 220              		.cfi_def_cfa_offset 24
 221              		.loc 1 72 0
 222 0012 0195     		str	r5, [sp, #4]
 223              		.loc 1 74 0
 224 0014 5AB9     		cbnz	r2, .L19
 225              		.loc 1 76 0
 226 0016 019A     		ldr	r2, [sp, #4]
 227 0018 1B68     		ldr	r3, [r3]
 228              		.loc 1 75 0
ARM GAS  /tmp/cclKUMhl.s 			page 5


 229 001a C0B1     		cbz	r0, .L38
 230              		.loc 1 78 0
 231 001c 9A42     		cmp	r2, r3
 232 001e 08BF     		it	eq
 233 0020 3020     		moveq	r0, #48
 234              	.LVL13:
 235 0022 18D1     		bne	.L35
 236              	.L33:
 237              		.loc 1 94 0
 238 0024 03B0     		add	sp, sp, #12
 239              		.cfi_remember_state
 240              		.cfi_def_cfa_offset 12
 241              		@ sp needed
 242 0026 BDE83040 		pop	{r4, r5, lr}
 243              		.cfi_restore 14
 244              		.cfi_restore 5
 245              		.cfi_restore 4
 246              		.cfi_def_cfa_offset 0
 247              		.loc 1 78 0
 248 002a FFF7FEBF 		b	po8030_config
 249              	.LVL14:
 250              	.L19:
 251              		.cfi_restore_state
 252              		.loc 1 80 0
 253 002e 012A     		cmp	r2, #1
 254 0030 13D0     		beq	.L39
 255              		.loc 1 86 0
 256 0032 022A     		cmp	r2, #2
 257 0034 2DD1     		bne	.L27
 258              		.loc 1 87 0
 259 0036 E0B1     		cbz	r0, .L40
 260              		.loc 1 90 0
 261 0038 019A     		ldr	r2, [sp, #4]
 262 003a 1B68     		ldr	r3, [r3]
 263 003c 9A42     		cmp	r2, r3
 264 003e 08BF     		it	eq
 265 0040 0120     		moveq	r0, #1
 266              	.LVL15:
 267 0042 08D1     		bne	.L35
 268              		.loc 1 94 0
 269 0044 03B0     		add	sp, sp, #12
 270              		.cfi_remember_state
 271              		.cfi_def_cfa_offset 12
 272              		@ sp needed
 273 0046 BDE83040 		pop	{r4, r5, lr}
 274              		.cfi_restore 14
 275              		.cfi_restore 5
 276              		.cfi_restore 4
 277              		.cfi_def_cfa_offset 0
 278              		.loc 1 90 0
 279 004a FFF7FEBF 		b	ov7670_config
 280              	.LVL16:
 281              	.L38:
 282              		.cfi_restore_state
 283              		.loc 1 76 0
 284 004e 9A42     		cmp	r2, r3
 285 0050 08BF     		it	eq
ARM GAS  /tmp/cclKUMhl.s 			page 6


 286 0052 4420     		moveq	r0, #68
 287              	.LVL17:
 288 0054 E6D0     		beq	.L33
 289              	.L35:
 290              		.loc 1 94 0
 291 0056 FFF7FEFF 		bl	__stack_chk_fail
 292              	.LVL18:
 293              	.L39:
 294              		.loc 1 82 0
 295 005a 019A     		ldr	r2, [sp, #4]
 296 005c 1B68     		ldr	r3, [r3]
 297              		.loc 1 81 0
 298 005e 98B9     		cbnz	r0, .L24
 299              		.loc 1 82 0
 300 0060 9A42     		cmp	r2, r3
 301 0062 08BF     		it	eq
 302 0064 0D20     		moveq	r0, #13
 303              	.LVL19:
 304 0066 F6D1     		bne	.L35
 305              	.L34:
 306              		.loc 1 94 0
 307 0068 03B0     		add	sp, sp, #12
 308              		.cfi_remember_state
 309              		.cfi_def_cfa_offset 12
 310              		@ sp needed
 311 006a BDE83040 		pop	{r4, r5, lr}
 312              		.cfi_restore 14
 313              		.cfi_restore 5
 314              		.cfi_restore 4
 315              		.cfi_def_cfa_offset 0
 316              		.loc 1 84 0
 317 006e FFF7FEBF 		b	po6030_config
 318              	.LVL20:
 319              	.L40:
 320              		.cfi_restore_state
 321              		.loc 1 88 0
 322 0072 0198     		ldr	r0, [sp, #4]
 323              	.LVL21:
 324 0074 1B68     		ldr	r3, [r3]
 325 0076 9842     		cmp	r0, r3
 326 0078 08BF     		it	eq
 327 007a 1046     		moveq	r0, r2
 328 007c EBD1     		bne	.L35
 329              		.loc 1 94 0
 330 007e 03B0     		add	sp, sp, #12
 331              		.cfi_remember_state
 332              		.cfi_def_cfa_offset 12
 333              		@ sp needed
 334 0080 BDE83040 		pop	{r4, r5, lr}
 335              		.cfi_restore 14
 336              		.cfi_restore 5
 337              		.cfi_restore 4
 338              		.cfi_def_cfa_offset 0
 339              		.loc 1 90 0
 340 0084 FFF7FEBF 		b	ov7670_config
 341              	.LVL22:
 342              	.L24:
ARM GAS  /tmp/cclKUMhl.s 			page 7


 343              		.cfi_restore_state
 344              		.loc 1 84 0
 345 0088 9A42     		cmp	r2, r3
 346 008a 08BF     		it	eq
 347 008c 0820     		moveq	r0, #8
 348              	.LVL23:
 349 008e EBD0     		beq	.L34
 350 0090 E1E7     		b	.L35
 351              	.LVL24:
 352              	.L27:
 353              		.loc 1 94 0
 354 0092 019A     		ldr	r2, [sp, #4]
 355 0094 1B68     		ldr	r3, [r3]
 356 0096 9A42     		cmp	r2, r3
 357 0098 4FF0FF30 		mov	r0, #-1
 358              	.LVL25:
 359 009c DBD1     		bne	.L35
 360 009e 03B0     		add	sp, sp, #12
 361              		.cfi_def_cfa_offset 12
 362              		@ sp needed
 363 00a0 30BD     		pop	{r4, r5, pc}
 364              	.L42:
 365 00a2 00BF     		.align	2
 366              	.L41:
 367 00a4 00000000 		.word	.LANCHOR1
 368 00a8 00000000 		.word	__stack_chk_guard
 369 00ac 00000000 		.word	.LANCHOR2
 370              		.cfi_endproc
 371              	.LFE258:
 372              		.size	cam_config, .-cam_config
 373              		.section	.text.cam_get_image_size,"ax",%progbits
 374              		.align	1
 375              		.p2align 4,,15
 376              		.global	cam_get_image_size
 377              		.syntax unified
 378              		.thumb
 379              		.thumb_func
 380              		.fpu fpv4-sp-d16
 381              		.type	cam_get_image_size, %function
 382              	cam_get_image_size:
 383              	.LFB259:
 384              		.loc 1 96 0
 385              		.cfi_startproc
 386              		@ args = 0, pretend = 0, frame = 8
 387              		@ frame_needed = 0, uses_anonymous_args = 0
 388 0000 00B5     		push	{lr}
 389              		.cfi_def_cfa_offset 4
 390              		.cfi_offset 14, -4
 391              		.loc 1 97 0
 392 0002 174B     		ldr	r3, .L57
 393              		.loc 1 96 0
 394 0004 174A     		ldr	r2, .L57+4
 395              		.loc 1 97 0
 396 0006 93F90030 		ldrsb	r3, [r3]
 397              		.loc 1 96 0
 398 000a 1168     		ldr	r1, [r2]
 399 000c 83B0     		sub	sp, sp, #12
ARM GAS  /tmp/cclKUMhl.s 			page 8


 400              		.cfi_def_cfa_offset 16
 401              		.loc 1 96 0
 402 000e 0191     		str	r1, [sp, #4]
 403              		.loc 1 98 0
 404 0010 0199     		ldr	r1, [sp, #4]
 405              		.loc 1 97 0
 406 0012 5BB1     		cbz	r3, .L54
 407              		.loc 1 99 0
 408 0014 012B     		cmp	r3, #1
 409 0016 18D0     		beq	.L55
 410              		.loc 1 101 0
 411 0018 022B     		cmp	r3, #2
 412              		.loc 1 102 0
 413 001a 1368     		ldr	r3, [r2]
 414              		.loc 1 101 0
 415 001c 0ED0     		beq	.L56
 416              		.loc 1 106 0
 417 001e 9942     		cmp	r1, r3
 418 0020 4FF00000 		mov	r0, #0
 419 0024 19D1     		bne	.L53
 420 0026 03B0     		add	sp, sp, #12
 421              		.cfi_remember_state
 422              		.cfi_def_cfa_offset 4
 423              		@ sp needed
 424 0028 5DF804FB 		ldr	pc, [sp], #4
 425              	.L54:
 426              		.cfi_restore_state
 427              		.loc 1 98 0
 428 002c 1368     		ldr	r3, [r2]
 429 002e 9942     		cmp	r1, r3
 430 0030 13D1     		bne	.L53
 431              		.loc 1 106 0
 432 0032 03B0     		add	sp, sp, #12
 433              		.cfi_remember_state
 434              		.cfi_def_cfa_offset 4
 435              		@ sp needed
 436 0034 5DF804EB 		ldr	lr, [sp], #4
 437              		.cfi_restore 14
 438              		.cfi_def_cfa_offset 0
 439              		.loc 1 98 0
 440 0038 FFF7FEBF 		b	po8030_get_image_size
 441              	.LVL26:
 442              	.L56:
 443              		.cfi_restore_state
 444              		.loc 1 102 0
 445 003c 9942     		cmp	r1, r3
 446 003e 0CD1     		bne	.L53
 447              		.loc 1 106 0
 448 0040 03B0     		add	sp, sp, #12
 449              		.cfi_remember_state
 450              		.cfi_def_cfa_offset 4
 451              		@ sp needed
 452 0042 5DF804EB 		ldr	lr, [sp], #4
 453              		.cfi_restore 14
 454              		.cfi_def_cfa_offset 0
 455              		.loc 1 102 0
 456 0046 FFF7FEBF 		b	ov7670_get_image_size
ARM GAS  /tmp/cclKUMhl.s 			page 9


 457              	.LVL27:
 458              	.L55:
 459              		.cfi_restore_state
 460              		.loc 1 100 0
 461 004a 1368     		ldr	r3, [r2]
 462 004c 9942     		cmp	r1, r3
 463 004e 04D1     		bne	.L53
 464              		.loc 1 106 0
 465 0050 03B0     		add	sp, sp, #12
 466              		.cfi_remember_state
 467              		.cfi_def_cfa_offset 4
 468              		@ sp needed
 469 0052 5DF804EB 		ldr	lr, [sp], #4
 470              		.cfi_restore 14
 471              		.cfi_def_cfa_offset 0
 472              		.loc 1 100 0
 473 0056 FFF7FEBF 		b	po6030_get_image_size
 474              	.LVL28:
 475              	.L53:
 476              		.cfi_restore_state
 477              		.loc 1 106 0
 478 005a FFF7FEFF 		bl	__stack_chk_fail
 479              	.LVL29:
 480              	.L58:
 481 005e 00BF     		.align	2
 482              	.L57:
 483 0060 00000000 		.word	.LANCHOR1
 484 0064 00000000 		.word	__stack_chk_guard
 485              		.cfi_endproc
 486              	.LFE259:
 487              		.size	cam_get_image_size, .-cam_get_image_size
 488              		.section	.text.cam_get_mem_required,"ax",%progbits
 489              		.align	1
 490              		.p2align 4,,15
 491              		.global	cam_get_mem_required
 492              		.syntax unified
 493              		.thumb
 494              		.thumb_func
 495              		.fpu fpv4-sp-d16
 496              		.type	cam_get_mem_required, %function
 497              	cam_get_mem_required:
 498              	.LFB260:
 499              		.loc 1 108 0
 500              		.cfi_startproc
 501              		@ args = 0, pretend = 0, frame = 8
 502              		@ frame_needed = 0, uses_anonymous_args = 0
 503 0000 10B5     		push	{r4, lr}
 504              		.cfi_def_cfa_offset 8
 505              		.cfi_offset 4, -8
 506              		.cfi_offset 14, -4
 507              		.loc 1 109 0
 508 0002 1B4B     		ldr	r3, .L76
 509              		.loc 1 108 0
 510 0004 1B4C     		ldr	r4, .L76+4
 511              		.loc 1 109 0
 512 0006 93F90030 		ldrsb	r3, [r3]
 513              		.loc 1 108 0
ARM GAS  /tmp/cclKUMhl.s 			page 10


 514 000a 2268     		ldr	r2, [r4]
 515 000c 82B0     		sub	sp, sp, #8
 516              		.cfi_def_cfa_offset 16
 517              		.loc 1 108 0
 518 000e 0192     		str	r2, [sp, #4]
 519              		.loc 1 109 0
 520 0010 B3B1     		cbz	r3, .L72
 521              		.loc 1 111 0
 522 0012 012B     		cmp	r3, #1
 523 0014 21D0     		beq	.L73
 524              		.loc 1 113 0
 525 0016 022B     		cmp	r3, #2
 526 0018 06D0     		beq	.L74
 527              		.loc 1 122 0
 528 001a 0020     		movs	r0, #0
 529              	.L59:
 530              		.loc 1 124 0
 531 001c 019A     		ldr	r2, [sp, #4]
 532 001e 2368     		ldr	r3, [r4]
 533 0020 9A42     		cmp	r2, r3
 534 0022 23D1     		bne	.L71
 535 0024 02B0     		add	sp, sp, #8
 536              		.cfi_remember_state
 537              		.cfi_def_cfa_offset 8
 538              		@ sp needed
 539 0026 10BD     		pop	{r4, pc}
 540              	.L74:
 541              		.cfi_restore_state
 542              		.loc 1 114 0
 543 0028 134B     		ldr	r3, .L76+8
 544 002a 1B78     		ldrb	r3, [r3]	@ zero_extendqisi2
 545 002c 8BB1     		cbz	r3, .L75
 546              		.loc 1 119 0
 547 002e 019A     		ldr	r2, [sp, #4]
 548 0030 2368     		ldr	r3, [r4]
 549 0032 9A42     		cmp	r2, r3
 550 0034 1AD1     		bne	.L71
 551              		.loc 1 124 0
 552 0036 02B0     		add	sp, sp, #8
 553              		.cfi_remember_state
 554              		.cfi_def_cfa_offset 8
 555              		@ sp needed
 556 0038 BDE81040 		pop	{r4, lr}
 557              		.cfi_restore 14
 558              		.cfi_restore 4
 559              		.cfi_def_cfa_offset 0
 560              		.loc 1 119 0
 561 003c FFF7FEBF 		b	ov7670_get_image_size
 562              	.LVL30:
 563              	.L72:
 564              		.cfi_restore_state
 565              		.loc 1 110 0
 566 0040 019A     		ldr	r2, [sp, #4]
 567 0042 2368     		ldr	r3, [r4]
 568 0044 9A42     		cmp	r2, r3
 569 0046 11D1     		bne	.L71
 570              		.loc 1 124 0
ARM GAS  /tmp/cclKUMhl.s 			page 11


 571 0048 02B0     		add	sp, sp, #8
 572              		.cfi_remember_state
 573              		.cfi_def_cfa_offset 8
 574              		@ sp needed
 575 004a BDE81040 		pop	{r4, lr}
 576              		.cfi_restore 14
 577              		.cfi_restore 4
 578              		.cfi_def_cfa_offset 0
 579              		.loc 1 110 0
 580 004e FFF7FEBF 		b	po8030_get_image_size
 581              	.LVL31:
 582              	.L75:
 583              		.cfi_restore_state
 584              	.LBB4:
 585              	.LBB5:
 586              		.loc 1 115 0
 587 0052 FFF7FEFF 		bl	ov7670_get_image_size
 588              	.LVL32:
 589 0056 4000     		lsls	r0, r0, #1
 590 0058 E0E7     		b	.L59
 591              	.L73:
 592              	.LBE5:
 593              	.LBE4:
 594              		.loc 1 112 0
 595 005a 019A     		ldr	r2, [sp, #4]
 596 005c 2368     		ldr	r3, [r4]
 597 005e 9A42     		cmp	r2, r3
 598 0060 04D1     		bne	.L71
 599              		.loc 1 124 0
 600 0062 02B0     		add	sp, sp, #8
 601              		.cfi_remember_state
 602              		.cfi_def_cfa_offset 8
 603              		@ sp needed
 604 0064 BDE81040 		pop	{r4, lr}
 605              		.cfi_restore 14
 606              		.cfi_restore 4
 607              		.cfi_def_cfa_offset 0
 608              		.loc 1 112 0
 609 0068 FFF7FEBF 		b	po6030_get_image_size
 610              	.LVL33:
 611              	.L71:
 612              		.cfi_restore_state
 613              		.loc 1 124 0
 614 006c FFF7FEFF 		bl	__stack_chk_fail
 615              	.LVL34:
 616              	.L77:
 617              		.align	2
 618              	.L76:
 619 0070 00000000 		.word	.LANCHOR1
 620 0074 00000000 		.word	__stack_chk_guard
 621 0078 00000000 		.word	.LANCHOR2
 622              		.cfi_endproc
 623              	.LFE260:
 624              		.size	cam_get_mem_required, .-cam_get_mem_required
 625              		.section	.text.cam_advanced_config,"ax",%progbits
 626              		.align	1
 627              		.p2align 4,,15
ARM GAS  /tmp/cclKUMhl.s 			page 12


 628              		.global	cam_advanced_config
 629              		.syntax unified
 630              		.thumb
 631              		.thumb_func
 632              		.fpu fpv4-sp-d16
 633              		.type	cam_advanced_config, %function
 634              	cam_advanced_config:
 635              	.LFB261:
 636              		.loc 1 128 0
 637              		.cfi_startproc
 638              		@ args = 12, pretend = 0, frame = 8
 639              		@ frame_needed = 0, uses_anonymous_args = 0
 640              	.LVL35:
 641 0000 F0B5     		push	{r4, r5, r6, r7, lr}
 642              		.cfi_def_cfa_offset 20
 643              		.cfi_offset 4, -20
 644              		.cfi_offset 5, -16
 645              		.cfi_offset 6, -12
 646              		.cfi_offset 7, -8
 647              		.cfi_offset 14, -4
 648              		.loc 1 130 0
 649 0002 314D     		ldr	r5, .L100
 650              		.loc 1 128 0
 651 0004 314C     		ldr	r4, .L100+4
 652              		.loc 1 129 0
 653 0006 324E     		ldr	r6, .L100+8
 654              		.loc 1 130 0
 655 0008 95F90050 		ldrsb	r5, [r5]
 656              		.loc 1 128 0
 657 000c 2768     		ldr	r7, [r4]
 658              		.loc 1 129 0
 659 000e 3070     		strb	r0, [r6]
 660              		.loc 1 128 0
 661 0010 83B0     		sub	sp, sp, #12
 662              		.cfi_def_cfa_offset 32
 663              		.loc 1 128 0
 664 0012 0197     		str	r7, [sp, #4]
 665 0014 9DF82460 		ldrb	r6, [sp, #36]	@ zero_extendqisi2
 666 0018 9DF82870 		ldrb	r7, [sp, #40]	@ zero_extendqisi2
 667              		.loc 1 130 0
 668 001c 65B9     		cbnz	r5, .L79
 669              		.loc 1 132 0
 670 001e 019D     		ldr	r5, [sp, #4]
 671              		.loc 1 131 0
 672 0020 D8B1     		cbz	r0, .L97
 673              		.loc 1 134 0
 674 0022 2068     		ldr	r0, [r4]
 675              	.LVL36:
 676 0024 8542     		cmp	r5, r0
 677 0026 4CD1     		bne	.L95
 678 0028 3020     		movs	r0, #48
 679 002a CDE90967 		strd	r6, r7, [sp, #36]
 680              	.LVL37:
 681              		.loc 1 150 0
 682 002e 03B0     		add	sp, sp, #12
 683              		.cfi_remember_state
 684              		.cfi_def_cfa_offset 20
ARM GAS  /tmp/cclKUMhl.s 			page 13


 685              		@ sp needed
 686 0030 BDE8F040 		pop	{r4, r5, r6, r7, lr}
 687              		.cfi_restore 14
 688              		.cfi_restore 7
 689              		.cfi_restore 6
 690              		.cfi_restore 5
 691              		.cfi_restore 4
 692              		.cfi_def_cfa_offset 0
 693              	.LVL38:
 694              		.loc 1 134 0
 695 0034 FFF7FEBF 		b	po8030_advanced_config
 696              	.LVL39:
 697              	.L79:
 698              		.cfi_restore_state
 699              		.loc 1 136 0
 700 0038 012D     		cmp	r5, #1
 701 003a 19D0     		beq	.L98
 702              		.loc 1 142 0
 703 003c 022D     		cmp	r5, #2
 704 003e 38D1     		bne	.L87
 705              		.loc 1 143 0
 706 0040 18B3     		cbz	r0, .L99
 707              		.loc 1 146 0
 708 0042 019D     		ldr	r5, [sp, #4]
 709 0044 2068     		ldr	r0, [r4]
 710              	.LVL40:
 711 0046 8542     		cmp	r5, r0
 712 0048 3BD1     		bne	.L95
 713 004a 0120     		movs	r0, #1
 714 004c CDE90967 		strd	r6, r7, [sp, #36]
 715              	.LVL41:
 716              		.loc 1 150 0
 717 0050 03B0     		add	sp, sp, #12
 718              		.cfi_remember_state
 719              		.cfi_def_cfa_offset 20
 720              		@ sp needed
 721 0052 BDE8F040 		pop	{r4, r5, r6, r7, lr}
 722              		.cfi_restore 14
 723              		.cfi_restore 7
 724              		.cfi_restore 6
 725              		.cfi_restore 5
 726              		.cfi_restore 4
 727              		.cfi_def_cfa_offset 0
 728              	.LVL42:
 729              		.loc 1 146 0
 730 0056 FFF7FEBF 		b	ov7670_advanced_config
 731              	.LVL43:
 732              	.L97:
 733              		.cfi_restore_state
 734              		.loc 1 132 0
 735 005a 2068     		ldr	r0, [r4]
 736              	.LVL44:
 737 005c 8542     		cmp	r5, r0
 738 005e 30D1     		bne	.L95
 739 0060 4420     		movs	r0, #68
 740 0062 CDE90967 		strd	r6, r7, [sp, #36]
 741              	.LVL45:
ARM GAS  /tmp/cclKUMhl.s 			page 14


 742              		.loc 1 150 0
 743 0066 03B0     		add	sp, sp, #12
 744              		.cfi_remember_state
 745              		.cfi_def_cfa_offset 20
 746              		@ sp needed
 747 0068 BDE8F040 		pop	{r4, r5, r6, r7, lr}
 748              		.cfi_restore 14
 749              		.cfi_restore 7
 750              		.cfi_restore 6
 751              		.cfi_restore 5
 752              		.cfi_restore 4
 753              		.cfi_def_cfa_offset 0
 754              	.LVL46:
 755              		.loc 1 134 0
 756 006c FFF7FEBF 		b	po8030_advanced_config
 757              	.LVL47:
 758              	.L98:
 759              		.cfi_restore_state
 760              		.loc 1 138 0
 761 0070 019D     		ldr	r5, [sp, #4]
 762              		.loc 1 137 0
 763 0072 B8B9     		cbnz	r0, .L84
 764              		.loc 1 138 0
 765 0074 2068     		ldr	r0, [r4]
 766              	.LVL48:
 767 0076 8542     		cmp	r5, r0
 768 0078 23D1     		bne	.L95
 769 007a CDE90967 		strd	r6, r7, [sp, #36]
 770              	.LVL49:
 771 007e 0D20     		movs	r0, #13
 772              	.L94:
 773              		.loc 1 150 0
 774 0080 03B0     		add	sp, sp, #12
 775              		.cfi_remember_state
 776              		.cfi_def_cfa_offset 20
 777              		@ sp needed
 778 0082 BDE8F040 		pop	{r4, r5, r6, r7, lr}
 779              		.cfi_restore 14
 780              		.cfi_restore 7
 781              		.cfi_restore 6
 782              		.cfi_restore 5
 783              		.cfi_restore 4
 784              		.cfi_def_cfa_offset 0
 785              	.LVL50:
 786              		.loc 1 140 0
 787 0086 FFF7FEBF 		b	po6030_advanced_config
 788              	.LVL51:
 789              	.L99:
 790              		.cfi_restore_state
 791              		.loc 1 144 0
 792 008a DDF804C0 		ldr	ip, [sp, #4]
 793 008e 2068     		ldr	r0, [r4]
 794              	.LVL52:
 795 0090 8445     		cmp	ip, r0
 796 0092 16D1     		bne	.L95
 797 0094 2846     		mov	r0, r5
 798 0096 CDE90967 		strd	r6, r7, [sp, #36]
ARM GAS  /tmp/cclKUMhl.s 			page 15


 799              	.LVL53:
 800              		.loc 1 150 0
 801 009a 03B0     		add	sp, sp, #12
 802              		.cfi_remember_state
 803              		.cfi_def_cfa_offset 20
 804              		@ sp needed
 805 009c BDE8F040 		pop	{r4, r5, r6, r7, lr}
 806              		.cfi_restore 14
 807              		.cfi_restore 7
 808              		.cfi_restore 6
 809              		.cfi_restore 5
 810              		.cfi_restore 4
 811              		.cfi_def_cfa_offset 0
 812              	.LVL54:
 813              		.loc 1 146 0
 814 00a0 FFF7FEBF 		b	ov7670_advanced_config
 815              	.LVL55:
 816              	.L84:
 817              		.cfi_restore_state
 818              		.loc 1 140 0
 819 00a4 2068     		ldr	r0, [r4]
 820              	.LVL56:
 821 00a6 8542     		cmp	r5, r0
 822 00a8 0BD1     		bne	.L95
 823 00aa CDE90967 		strd	r6, r7, [sp, #36]
 824              	.LVL57:
 825 00ae 0820     		movs	r0, #8
 826 00b0 E6E7     		b	.L94
 827              	.LVL58:
 828              	.L87:
 829              		.loc 1 150 0
 830 00b2 019A     		ldr	r2, [sp, #4]
 831              	.LVL59:
 832 00b4 2368     		ldr	r3, [r4]
 833              	.LVL60:
 834 00b6 9A42     		cmp	r2, r3
 835 00b8 4FF0FF30 		mov	r0, #-1
 836              	.LVL61:
 837 00bc 01D1     		bne	.L95
 838 00be 03B0     		add	sp, sp, #12
 839              		.cfi_remember_state
 840              		.cfi_def_cfa_offset 20
 841              		@ sp needed
 842 00c0 F0BD     		pop	{r4, r5, r6, r7, pc}
 843              	.LVL62:
 844              	.L95:
 845              		.cfi_restore_state
 846 00c2 FFF7FEFF 		bl	__stack_chk_fail
 847              	.LVL63:
 848              	.L101:
 849 00c6 00BF     		.align	2
 850              	.L100:
 851 00c8 00000000 		.word	.LANCHOR1
 852 00cc 00000000 		.word	__stack_chk_guard
 853 00d0 00000000 		.word	.LANCHOR2
 854              		.cfi_endproc
 855              	.LFE261:
ARM GAS  /tmp/cclKUMhl.s 			page 16


 856              		.size	cam_advanced_config, .-cam_advanced_config
 857              		.section	.text.cam_set_brightness,"ax",%progbits
 858              		.align	1
 859              		.p2align 4,,15
 860              		.global	cam_set_brightness
 861              		.syntax unified
 862              		.thumb
 863              		.thumb_func
 864              		.fpu fpv4-sp-d16
 865              		.type	cam_set_brightness, %function
 866              	cam_set_brightness:
 867              	.LFB262:
 868              		.loc 1 152 0
 869              		.cfi_startproc
 870              		@ args = 0, pretend = 0, frame = 8
 871              		@ frame_needed = 0, uses_anonymous_args = 0
 872              	.LVL64:
 873 0000 00B5     		push	{lr}
 874              		.cfi_def_cfa_offset 4
 875              		.cfi_offset 14, -4
 876              		.loc 1 154 0
 877 0002 234B     		ldr	r3, .L117
 878              		.loc 1 152 0
 879 0004 234A     		ldr	r2, .L117+4
 880              		.loc 1 154 0
 881 0006 93F90010 		ldrsb	r1, [r3]
 882              		.loc 1 152 0
 883 000a 1368     		ldr	r3, [r2]
 884 000c 83B0     		sub	sp, sp, #12
 885              		.cfi_def_cfa_offset 16
 886              		.loc 1 152 0
 887 000e 0193     		str	r3, [sp, #4]
 888              		.loc 1 153 0
 889 0010 C3B2     		uxtb	r3, r0
 890              	.LVL65:
 891              		.loc 1 154 0
 892 0012 59B9     		cbnz	r1, .L103
 893              		.loc 1 155 0
 894 0014 0028     		cmp	r0, #0
 895 0016 1DDB     		blt	.L115
 896              		.loc 1 159 0
 897 0018 0199     		ldr	r1, [sp, #4]
 898 001a 1268     		ldr	r2, [r2]
 899 001c 9142     		cmp	r1, r2
 900 001e 2CD1     		bne	.L114
 901              	.L105:
 902 0020 1846     		mov	r0, r3
 903              	.LVL66:
 904              		.loc 1 171 0
 905 0022 03B0     		add	sp, sp, #12
 906              		.cfi_remember_state
 907              		.cfi_def_cfa_offset 4
 908              		@ sp needed
 909 0024 5DF804EB 		ldr	lr, [sp], #4
 910              		.cfi_restore 14
 911              		.cfi_def_cfa_offset 0
 912              		.loc 1 159 0
ARM GAS  /tmp/cclKUMhl.s 			page 17


 913 0028 FFF7FEBF 		b	po8030_set_brightness
 914              	.LVL67:
 915              	.L103:
 916              		.cfi_restore_state
 917              		.loc 1 160 0
 918 002c 0129     		cmp	r1, #1
 919 002e 1AD0     		beq	.L116
 920              		.loc 1 162 0
 921 0030 0229     		cmp	r1, #2
 922 0032 24D1     		bne	.L108
 923              		.loc 1 163 0
 924 0034 0028     		cmp	r0, #0
 925 0036 03DA     		bge	.L109
 926              		.loc 1 164 0
 927 0038 5B42     		negs	r3, r3
 928              	.LVL68:
 929              		.loc 1 165 0
 930 003a 63F07F03 		orn	r3, r3, #127
 931              	.LVL69:
 932 003e DBB2     		uxtb	r3, r3
 933              	.LVL70:
 934              	.L109:
 935              		.loc 1 167 0
 936 0040 0199     		ldr	r1, [sp, #4]
 937 0042 1268     		ldr	r2, [r2]
 938 0044 9142     		cmp	r1, r2
 939 0046 18D1     		bne	.L114
 940 0048 1846     		mov	r0, r3
 941              	.LVL71:
 942              		.loc 1 171 0
 943 004a 03B0     		add	sp, sp, #12
 944              		.cfi_remember_state
 945              		.cfi_def_cfa_offset 4
 946              		@ sp needed
 947 004c 5DF804EB 		ldr	lr, [sp], #4
 948              		.cfi_restore 14
 949              		.cfi_def_cfa_offset 0
 950              		.loc 1 167 0
 951 0050 FFF7FEBF 		b	ov7670_set_brightness
 952              	.LVL72:
 953              	.L115:
 954              		.cfi_restore_state
 955              		.loc 1 159 0
 956 0054 0199     		ldr	r1, [sp, #4]
 957 0056 1268     		ldr	r2, [r2]
 958              		.loc 1 156 0
 959 0058 5B42     		negs	r3, r3
 960              	.LVL73:
 961              		.loc 1 157 0
 962 005a 63F07F03 		orn	r3, r3, #127
 963              	.LVL74:
 964              		.loc 1 159 0
 965 005e 9142     		cmp	r1, r2
 966              		.loc 1 157 0
 967 0060 DBB2     		uxtb	r3, r3
 968              	.LVL75:
 969              		.loc 1 159 0
ARM GAS  /tmp/cclKUMhl.s 			page 18


 970 0062 DDD0     		beq	.L105
 971 0064 09E0     		b	.L114
 972              	.L116:
 973              		.loc 1 161 0
 974 0066 0199     		ldr	r1, [sp, #4]
 975 0068 1268     		ldr	r2, [r2]
 976 006a 9142     		cmp	r1, r2
 977 006c 05D1     		bne	.L114
 978 006e 1846     		mov	r0, r3
 979              	.LVL76:
 980              		.loc 1 171 0
 981 0070 03B0     		add	sp, sp, #12
 982              		.cfi_remember_state
 983              		.cfi_def_cfa_offset 4
 984              		@ sp needed
 985 0072 5DF804EB 		ldr	lr, [sp], #4
 986              		.cfi_restore 14
 987              		.cfi_def_cfa_offset 0
 988              		.loc 1 161 0
 989 0076 FFF7FEBF 		b	po6030_set_brightness
 990              	.LVL77:
 991              	.L114:
 992              		.cfi_restore_state
 993              		.loc 1 171 0
 994 007a FFF7FEFF 		bl	__stack_chk_fail
 995              	.LVL78:
 996              	.L108:
 997 007e 0199     		ldr	r1, [sp, #4]
 998 0080 1368     		ldr	r3, [r2]
 999              	.LVL79:
 1000 0082 9942     		cmp	r1, r3
 1001 0084 4FF0FF30 		mov	r0, #-1
 1002              	.LVL80:
 1003 0088 F7D1     		bne	.L114
 1004 008a 03B0     		add	sp, sp, #12
 1005              		.cfi_def_cfa_offset 4
 1006              		@ sp needed
 1007 008c 5DF804FB 		ldr	pc, [sp], #4
 1008              	.L118:
 1009              		.align	2
 1010              	.L117:
 1011 0090 00000000 		.word	.LANCHOR1
 1012 0094 00000000 		.word	__stack_chk_guard
 1013              		.cfi_endproc
 1014              	.LFE262:
 1015              		.size	cam_set_brightness, .-cam_set_brightness
 1016              		.section	.text.cam_set_contrast,"ax",%progbits
 1017              		.align	1
 1018              		.p2align 4,,15
 1019              		.global	cam_set_contrast
 1020              		.syntax unified
 1021              		.thumb
 1022              		.thumb_func
 1023              		.fpu fpv4-sp-d16
 1024              		.type	cam_set_contrast, %function
 1025              	cam_set_contrast:
 1026              	.LFB263:
ARM GAS  /tmp/cclKUMhl.s 			page 19


 1027              		.loc 1 173 0
 1028              		.cfi_startproc
 1029              		@ args = 0, pretend = 0, frame = 8
 1030              		@ frame_needed = 0, uses_anonymous_args = 0
 1031              	.LVL81:
 1032 0000 00B5     		push	{lr}
 1033              		.cfi_def_cfa_offset 4
 1034              		.cfi_offset 14, -4
 1035              		.loc 1 174 0
 1036 0002 174B     		ldr	r3, .L132
 1037              		.loc 1 173 0
 1038 0004 174A     		ldr	r2, .L132+4
 1039              		.loc 1 174 0
 1040 0006 93F90030 		ldrsb	r3, [r3]
 1041              		.loc 1 173 0
 1042 000a 1168     		ldr	r1, [r2]
 1043 000c 83B0     		sub	sp, sp, #12
 1044              		.cfi_def_cfa_offset 16
 1045              		.loc 1 173 0
 1046 000e 0191     		str	r1, [sp, #4]
 1047              		.loc 1 175 0
 1048 0010 0199     		ldr	r1, [sp, #4]
 1049              		.loc 1 174 0
 1050 0012 5BB1     		cbz	r3, .L130
 1051              		.loc 1 176 0
 1052 0014 012B     		cmp	r3, #1
 1053 0016 11D0     		beq	.L131
 1054              		.loc 1 178 0
 1055 0018 022B     		cmp	r3, #2
 1056              		.loc 1 179 0
 1057 001a 1368     		ldr	r3, [r2]
 1058              		.loc 1 178 0
 1059 001c 16D1     		bne	.L124
 1060              		.loc 1 179 0
 1061 001e 9942     		cmp	r1, r3
 1062 0020 1BD1     		bne	.L129
 1063              		.loc 1 183 0
 1064 0022 03B0     		add	sp, sp, #12
 1065              		.cfi_remember_state
 1066              		.cfi_def_cfa_offset 4
 1067              		@ sp needed
 1068 0024 5DF804EB 		ldr	lr, [sp], #4
 1069              		.cfi_restore 14
 1070              		.cfi_def_cfa_offset 0
 1071              		.loc 1 179 0
 1072 0028 FFF7FEBF 		b	ov7670_set_contrast
 1073              	.LVL82:
 1074              	.L130:
 1075              		.cfi_restore_state
 1076              		.loc 1 175 0
 1077 002c 1368     		ldr	r3, [r2]
 1078 002e 9942     		cmp	r1, r3
 1079 0030 13D1     		bne	.L129
 1080              		.loc 1 183 0
 1081 0032 03B0     		add	sp, sp, #12
 1082              		.cfi_remember_state
 1083              		.cfi_def_cfa_offset 4
ARM GAS  /tmp/cclKUMhl.s 			page 20


 1084              		@ sp needed
 1085 0034 5DF804EB 		ldr	lr, [sp], #4
 1086              		.cfi_restore 14
 1087              		.cfi_def_cfa_offset 0
 1088              		.loc 1 175 0
 1089 0038 FFF7FEBF 		b	po8030_set_contrast
 1090              	.LVL83:
 1091              	.L131:
 1092              		.cfi_restore_state
 1093              		.loc 1 177 0
 1094 003c 1368     		ldr	r3, [r2]
 1095 003e 9942     		cmp	r1, r3
 1096 0040 0BD1     		bne	.L129
 1097              		.loc 1 183 0
 1098 0042 03B0     		add	sp, sp, #12
 1099              		.cfi_remember_state
 1100              		.cfi_def_cfa_offset 4
 1101              		@ sp needed
 1102 0044 5DF804EB 		ldr	lr, [sp], #4
 1103              		.cfi_restore 14
 1104              		.cfi_def_cfa_offset 0
 1105              		.loc 1 177 0
 1106 0048 FFF7FEBF 		b	po6030_set_contrast
 1107              	.LVL84:
 1108              	.L124:
 1109              		.cfi_restore_state
 1110              		.loc 1 183 0
 1111 004c 9942     		cmp	r1, r3
 1112 004e 4FF0FF30 		mov	r0, #-1
 1113              	.LVL85:
 1114 0052 02D1     		bne	.L129
 1115 0054 03B0     		add	sp, sp, #12
 1116              		.cfi_remember_state
 1117              		.cfi_def_cfa_offset 4
 1118              		@ sp needed
 1119 0056 5DF804FB 		ldr	pc, [sp], #4
 1120              	.L129:
 1121              		.cfi_restore_state
 1122 005a FFF7FEFF 		bl	__stack_chk_fail
 1123              	.LVL86:
 1124              	.L133:
 1125 005e 00BF     		.align	2
 1126              	.L132:
 1127 0060 00000000 		.word	.LANCHOR1
 1128 0064 00000000 		.word	__stack_chk_guard
 1129              		.cfi_endproc
 1130              	.LFE263:
 1131              		.size	cam_set_contrast, .-cam_set_contrast
 1132              		.section	.text.cam_set_mirror,"ax",%progbits
 1133              		.align	1
 1134              		.p2align 4,,15
 1135              		.global	cam_set_mirror
 1136              		.syntax unified
 1137              		.thumb
 1138              		.thumb_func
 1139              		.fpu fpv4-sp-d16
 1140              		.type	cam_set_mirror, %function
ARM GAS  /tmp/cclKUMhl.s 			page 21


 1141              	cam_set_mirror:
 1142              	.LFB264:
 1143              		.loc 1 185 0
 1144              		.cfi_startproc
 1145              		@ args = 0, pretend = 0, frame = 8
 1146              		@ frame_needed = 0, uses_anonymous_args = 0
 1147              	.LVL87:
 1148 0000 10B5     		push	{r4, lr}
 1149              		.cfi_def_cfa_offset 8
 1150              		.cfi_offset 4, -8
 1151              		.cfi_offset 14, -4
 1152              		.loc 1 186 0
 1153 0002 184B     		ldr	r3, .L147
 1154              		.loc 1 185 0
 1155 0004 184A     		ldr	r2, .L147+4
 1156              		.loc 1 186 0
 1157 0006 93F90030 		ldrsb	r3, [r3]
 1158              		.loc 1 185 0
 1159 000a 1468     		ldr	r4, [r2]
 1160 000c 82B0     		sub	sp, sp, #8
 1161              		.cfi_def_cfa_offset 16
 1162              		.loc 1 185 0
 1163 000e 0194     		str	r4, [sp, #4]
 1164              		.loc 1 186 0
 1165 0010 63B1     		cbz	r3, .L145
 1166              		.loc 1 188 0
 1167 0012 012B     		cmp	r3, #1
 1168 0014 13D0     		beq	.L146
 1169              		.loc 1 190 0
 1170 0016 022B     		cmp	r3, #2
 1171 0018 1AD1     		bne	.L139
 1172              		.loc 1 191 0
 1173 001a 019C     		ldr	r4, [sp, #4]
 1174 001c 1368     		ldr	r3, [r2]
 1175 001e 9C42     		cmp	r4, r3
 1176 0020 1ED1     		bne	.L144
 1177              		.loc 1 195 0
 1178 0022 02B0     		add	sp, sp, #8
 1179              		.cfi_remember_state
 1180              		.cfi_def_cfa_offset 8
 1181              		@ sp needed
 1182 0024 BDE81040 		pop	{r4, lr}
 1183              		.cfi_restore 14
 1184              		.cfi_restore 4
 1185              		.cfi_def_cfa_offset 0
 1186              		.loc 1 191 0
 1187 0028 FFF7FEBF 		b	ov7670_set_mirror
 1188              	.LVL88:
 1189              	.L145:
 1190              		.cfi_restore_state
 1191              		.loc 1 187 0
 1192 002c 019C     		ldr	r4, [sp, #4]
 1193 002e 1368     		ldr	r3, [r2]
 1194 0030 9C42     		cmp	r4, r3
 1195 0032 15D1     		bne	.L144
 1196              		.loc 1 195 0
 1197 0034 02B0     		add	sp, sp, #8
ARM GAS  /tmp/cclKUMhl.s 			page 22


 1198              		.cfi_remember_state
 1199              		.cfi_def_cfa_offset 8
 1200              		@ sp needed
 1201 0036 BDE81040 		pop	{r4, lr}
 1202              		.cfi_restore 14
 1203              		.cfi_restore 4
 1204              		.cfi_def_cfa_offset 0
 1205              		.loc 1 187 0
 1206 003a FFF7FEBF 		b	po8030_set_mirror
 1207              	.LVL89:
 1208              	.L146:
 1209              		.cfi_restore_state
 1210              		.loc 1 189 0
 1211 003e 019C     		ldr	r4, [sp, #4]
 1212 0040 1368     		ldr	r3, [r2]
 1213 0042 9C42     		cmp	r4, r3
 1214 0044 0CD1     		bne	.L144
 1215              		.loc 1 195 0
 1216 0046 02B0     		add	sp, sp, #8
 1217              		.cfi_remember_state
 1218              		.cfi_def_cfa_offset 8
 1219              		@ sp needed
 1220 0048 BDE81040 		pop	{r4, lr}
 1221              		.cfi_restore 14
 1222              		.cfi_restore 4
 1223              		.cfi_def_cfa_offset 0
 1224              		.loc 1 189 0
 1225 004c FFF7FEBF 		b	po6030_set_mirror
 1226              	.LVL90:
 1227              	.L139:
 1228              		.cfi_restore_state
 1229              		.loc 1 195 0
 1230 0050 0199     		ldr	r1, [sp, #4]
 1231              	.LVL91:
 1232 0052 1368     		ldr	r3, [r2]
 1233 0054 9942     		cmp	r1, r3
 1234 0056 4FF0FF30 		mov	r0, #-1
 1235              	.LVL92:
 1236 005a 01D1     		bne	.L144
 1237 005c 02B0     		add	sp, sp, #8
 1238              		.cfi_remember_state
 1239              		.cfi_def_cfa_offset 8
 1240              		@ sp needed
 1241 005e 10BD     		pop	{r4, pc}
 1242              	.L144:
 1243              		.cfi_restore_state
 1244 0060 FFF7FEFF 		bl	__stack_chk_fail
 1245              	.LVL93:
 1246              	.L148:
 1247              		.align	2
 1248              	.L147:
 1249 0064 00000000 		.word	.LANCHOR1
 1250 0068 00000000 		.word	__stack_chk_guard
 1251              		.cfi_endproc
 1252              	.LFE264:
 1253              		.size	cam_set_mirror, .-cam_set_mirror
 1254              		.section	.text.cam_set_awb,"ax",%progbits
ARM GAS  /tmp/cclKUMhl.s 			page 23


 1255              		.align	1
 1256              		.p2align 4,,15
 1257              		.global	cam_set_awb
 1258              		.syntax unified
 1259              		.thumb
 1260              		.thumb_func
 1261              		.fpu fpv4-sp-d16
 1262              		.type	cam_set_awb, %function
 1263              	cam_set_awb:
 1264              	.LFB265:
 1265              		.loc 1 197 0
 1266              		.cfi_startproc
 1267              		@ args = 0, pretend = 0, frame = 8
 1268              		@ frame_needed = 0, uses_anonymous_args = 0
 1269              	.LVL94:
 1270 0000 00B5     		push	{lr}
 1271              		.cfi_def_cfa_offset 4
 1272              		.cfi_offset 14, -4
 1273              		.loc 1 198 0
 1274 0002 174B     		ldr	r3, .L162
 1275              		.loc 1 197 0
 1276 0004 174A     		ldr	r2, .L162+4
 1277              		.loc 1 198 0
 1278 0006 93F90030 		ldrsb	r3, [r3]
 1279              		.loc 1 197 0
 1280 000a 1168     		ldr	r1, [r2]
 1281 000c 83B0     		sub	sp, sp, #12
 1282              		.cfi_def_cfa_offset 16
 1283              		.loc 1 197 0
 1284 000e 0191     		str	r1, [sp, #4]
 1285              		.loc 1 199 0
 1286 0010 0199     		ldr	r1, [sp, #4]
 1287              		.loc 1 198 0
 1288 0012 5BB1     		cbz	r3, .L160
 1289              		.loc 1 200 0
 1290 0014 012B     		cmp	r3, #1
 1291 0016 11D0     		beq	.L161
 1292              		.loc 1 202 0
 1293 0018 022B     		cmp	r3, #2
 1294              		.loc 1 203 0
 1295 001a 1368     		ldr	r3, [r2]
 1296              		.loc 1 202 0
 1297 001c 16D1     		bne	.L154
 1298              		.loc 1 203 0
 1299 001e 9942     		cmp	r1, r3
 1300 0020 1BD1     		bne	.L159
 1301              		.loc 1 207 0
 1302 0022 03B0     		add	sp, sp, #12
 1303              		.cfi_remember_state
 1304              		.cfi_def_cfa_offset 4
 1305              		@ sp needed
 1306 0024 5DF804EB 		ldr	lr, [sp], #4
 1307              		.cfi_restore 14
 1308              		.cfi_def_cfa_offset 0
 1309              		.loc 1 203 0
 1310 0028 FFF7FEBF 		b	ov7670_set_awb
 1311              	.LVL95:
ARM GAS  /tmp/cclKUMhl.s 			page 24


 1312              	.L160:
 1313              		.cfi_restore_state
 1314              		.loc 1 199 0
 1315 002c 1368     		ldr	r3, [r2]
 1316 002e 9942     		cmp	r1, r3
 1317 0030 13D1     		bne	.L159
 1318              		.loc 1 207 0
 1319 0032 03B0     		add	sp, sp, #12
 1320              		.cfi_remember_state
 1321              		.cfi_def_cfa_offset 4
 1322              		@ sp needed
 1323 0034 5DF804EB 		ldr	lr, [sp], #4
 1324              		.cfi_restore 14
 1325              		.cfi_def_cfa_offset 0
 1326              		.loc 1 199 0
 1327 0038 FFF7FEBF 		b	po8030_set_awb
 1328              	.LVL96:
 1329              	.L161:
 1330              		.cfi_restore_state
 1331              		.loc 1 201 0
 1332 003c 1368     		ldr	r3, [r2]
 1333 003e 9942     		cmp	r1, r3
 1334 0040 0BD1     		bne	.L159
 1335              		.loc 1 207 0
 1336 0042 03B0     		add	sp, sp, #12
 1337              		.cfi_remember_state
 1338              		.cfi_def_cfa_offset 4
 1339              		@ sp needed
 1340 0044 5DF804EB 		ldr	lr, [sp], #4
 1341              		.cfi_restore 14
 1342              		.cfi_def_cfa_offset 0
 1343              		.loc 1 201 0
 1344 0048 FFF7FEBF 		b	po6030_set_awb
 1345              	.LVL97:
 1346              	.L154:
 1347              		.cfi_restore_state
 1348              		.loc 1 207 0
 1349 004c 9942     		cmp	r1, r3
 1350 004e 4FF0FF30 		mov	r0, #-1
 1351              	.LVL98:
 1352 0052 02D1     		bne	.L159
 1353 0054 03B0     		add	sp, sp, #12
 1354              		.cfi_remember_state
 1355              		.cfi_def_cfa_offset 4
 1356              		@ sp needed
 1357 0056 5DF804FB 		ldr	pc, [sp], #4
 1358              	.L159:
 1359              		.cfi_restore_state
 1360 005a FFF7FEFF 		bl	__stack_chk_fail
 1361              	.LVL99:
 1362              	.L163:
 1363 005e 00BF     		.align	2
 1364              	.L162:
 1365 0060 00000000 		.word	.LANCHOR1
 1366 0064 00000000 		.word	__stack_chk_guard
 1367              		.cfi_endproc
 1368              	.LFE265:
ARM GAS  /tmp/cclKUMhl.s 			page 25


 1369              		.size	cam_set_awb, .-cam_set_awb
 1370              		.section	.text.cam_set_rgb_gain,"ax",%progbits
 1371              		.align	1
 1372              		.p2align 4,,15
 1373              		.global	cam_set_rgb_gain
 1374              		.syntax unified
 1375              		.thumb
 1376              		.thumb_func
 1377              		.fpu fpv4-sp-d16
 1378              		.type	cam_set_rgb_gain, %function
 1379              	cam_set_rgb_gain:
 1380              	.LFB266:
 1381              		.loc 1 209 0
 1382              		.cfi_startproc
 1383              		@ args = 0, pretend = 0, frame = 8
 1384              		@ frame_needed = 0, uses_anonymous_args = 0
 1385              	.LVL100:
 1386 0000 30B5     		push	{r4, r5, lr}
 1387              		.cfi_def_cfa_offset 12
 1388              		.cfi_offset 4, -12
 1389              		.cfi_offset 5, -8
 1390              		.cfi_offset 14, -4
 1391              		.loc 1 210 0
 1392 0002 184B     		ldr	r3, .L177
 1393              		.loc 1 209 0
 1394 0004 184C     		ldr	r4, .L177+4
 1395              		.loc 1 210 0
 1396 0006 93F90030 		ldrsb	r3, [r3]
 1397              		.loc 1 209 0
 1398 000a 2568     		ldr	r5, [r4]
 1399 000c 83B0     		sub	sp, sp, #12
 1400              		.cfi_def_cfa_offset 24
 1401              		.loc 1 209 0
 1402 000e 0195     		str	r5, [sp, #4]
 1403              		.loc 1 210 0
 1404 0010 63B1     		cbz	r3, .L175
 1405              		.loc 1 212 0
 1406 0012 012B     		cmp	r3, #1
 1407 0014 13D0     		beq	.L176
 1408              		.loc 1 214 0
 1409 0016 022B     		cmp	r3, #2
 1410 0018 1AD1     		bne	.L169
 1411              		.loc 1 215 0
 1412 001a 019D     		ldr	r5, [sp, #4]
 1413 001c 2368     		ldr	r3, [r4]
 1414 001e 9D42     		cmp	r5, r3
 1415 0020 1ED1     		bne	.L174
 1416              		.loc 1 219 0
 1417 0022 03B0     		add	sp, sp, #12
 1418              		.cfi_remember_state
 1419              		.cfi_def_cfa_offset 12
 1420              		@ sp needed
 1421 0024 BDE83040 		pop	{r4, r5, lr}
 1422              		.cfi_restore 14
 1423              		.cfi_restore 5
 1424              		.cfi_restore 4
 1425              		.cfi_def_cfa_offset 0
ARM GAS  /tmp/cclKUMhl.s 			page 26


 1426              		.loc 1 215 0
 1427 0028 FFF7FEBF 		b	ov7670_set_rgb_gain
 1428              	.LVL101:
 1429              	.L175:
 1430              		.cfi_restore_state
 1431              		.loc 1 211 0
 1432 002c 019D     		ldr	r5, [sp, #4]
 1433 002e 2368     		ldr	r3, [r4]
 1434 0030 9D42     		cmp	r5, r3
 1435 0032 15D1     		bne	.L174
 1436              		.loc 1 219 0
 1437 0034 03B0     		add	sp, sp, #12
 1438              		.cfi_remember_state
 1439              		.cfi_def_cfa_offset 12
 1440              		@ sp needed
 1441 0036 BDE83040 		pop	{r4, r5, lr}
 1442              		.cfi_restore 14
 1443              		.cfi_restore 5
 1444              		.cfi_restore 4
 1445              		.cfi_def_cfa_offset 0
 1446              		.loc 1 211 0
 1447 003a FFF7FEBF 		b	po8030_set_rgb_gain
 1448              	.LVL102:
 1449              	.L176:
 1450              		.cfi_restore_state
 1451              		.loc 1 213 0
 1452 003e 019D     		ldr	r5, [sp, #4]
 1453 0040 2368     		ldr	r3, [r4]
 1454 0042 9D42     		cmp	r5, r3
 1455 0044 0CD1     		bne	.L174
 1456              		.loc 1 219 0
 1457 0046 03B0     		add	sp, sp, #12
 1458              		.cfi_remember_state
 1459              		.cfi_def_cfa_offset 12
 1460              		@ sp needed
 1461 0048 BDE83040 		pop	{r4, r5, lr}
 1462              		.cfi_restore 14
 1463              		.cfi_restore 5
 1464              		.cfi_restore 4
 1465              		.cfi_def_cfa_offset 0
 1466              		.loc 1 213 0
 1467 004c FFF7FEBF 		b	po6030_set_rgb_gain
 1468              	.LVL103:
 1469              	.L169:
 1470              		.cfi_restore_state
 1471              		.loc 1 219 0
 1472 0050 019A     		ldr	r2, [sp, #4]
 1473              	.LVL104:
 1474 0052 2368     		ldr	r3, [r4]
 1475 0054 9A42     		cmp	r2, r3
 1476 0056 4FF0FF30 		mov	r0, #-1
 1477              	.LVL105:
 1478 005a 01D1     		bne	.L174
 1479 005c 03B0     		add	sp, sp, #12
 1480              		.cfi_remember_state
 1481              		.cfi_def_cfa_offset 12
 1482              		@ sp needed
ARM GAS  /tmp/cclKUMhl.s 			page 27


 1483 005e 30BD     		pop	{r4, r5, pc}
 1484              	.L174:
 1485              		.cfi_restore_state
 1486 0060 FFF7FEFF 		bl	__stack_chk_fail
 1487              	.LVL106:
 1488              	.L178:
 1489              		.align	2
 1490              	.L177:
 1491 0064 00000000 		.word	.LANCHOR1
 1492 0068 00000000 		.word	__stack_chk_guard
 1493              		.cfi_endproc
 1494              	.LFE266:
 1495              		.size	cam_set_rgb_gain, .-cam_set_rgb_gain
 1496              		.section	.text.cam_set_ae,"ax",%progbits
 1497              		.align	1
 1498              		.p2align 4,,15
 1499              		.global	cam_set_ae
 1500              		.syntax unified
 1501              		.thumb
 1502              		.thumb_func
 1503              		.fpu fpv4-sp-d16
 1504              		.type	cam_set_ae, %function
 1505              	cam_set_ae:
 1506              	.LFB267:
 1507              		.loc 1 221 0
 1508              		.cfi_startproc
 1509              		@ args = 0, pretend = 0, frame = 8
 1510              		@ frame_needed = 0, uses_anonymous_args = 0
 1511              	.LVL107:
 1512 0000 00B5     		push	{lr}
 1513              		.cfi_def_cfa_offset 4
 1514              		.cfi_offset 14, -4
 1515              		.loc 1 222 0
 1516 0002 174B     		ldr	r3, .L192
 1517              		.loc 1 221 0
 1518 0004 174A     		ldr	r2, .L192+4
 1519              		.loc 1 222 0
 1520 0006 93F90030 		ldrsb	r3, [r3]
 1521              		.loc 1 221 0
 1522 000a 1168     		ldr	r1, [r2]
 1523 000c 83B0     		sub	sp, sp, #12
 1524              		.cfi_def_cfa_offset 16
 1525              		.loc 1 221 0
 1526 000e 0191     		str	r1, [sp, #4]
 1527              		.loc 1 223 0
 1528 0010 0199     		ldr	r1, [sp, #4]
 1529              		.loc 1 222 0
 1530 0012 5BB1     		cbz	r3, .L190
 1531              		.loc 1 224 0
 1532 0014 012B     		cmp	r3, #1
 1533 0016 11D0     		beq	.L191
 1534              		.loc 1 226 0
 1535 0018 022B     		cmp	r3, #2
 1536              		.loc 1 227 0
 1537 001a 1368     		ldr	r3, [r2]
 1538              		.loc 1 226 0
 1539 001c 16D1     		bne	.L184
ARM GAS  /tmp/cclKUMhl.s 			page 28


 1540              		.loc 1 227 0
 1541 001e 9942     		cmp	r1, r3
 1542 0020 1BD1     		bne	.L189
 1543              		.loc 1 231 0
 1544 0022 03B0     		add	sp, sp, #12
 1545              		.cfi_remember_state
 1546              		.cfi_def_cfa_offset 4
 1547              		@ sp needed
 1548 0024 5DF804EB 		ldr	lr, [sp], #4
 1549              		.cfi_restore 14
 1550              		.cfi_def_cfa_offset 0
 1551              		.loc 1 227 0
 1552 0028 FFF7FEBF 		b	ov7670_set_ae
 1553              	.LVL108:
 1554              	.L190:
 1555              		.cfi_restore_state
 1556              		.loc 1 223 0
 1557 002c 1368     		ldr	r3, [r2]
 1558 002e 9942     		cmp	r1, r3
 1559 0030 13D1     		bne	.L189
 1560              		.loc 1 231 0
 1561 0032 03B0     		add	sp, sp, #12
 1562              		.cfi_remember_state
 1563              		.cfi_def_cfa_offset 4
 1564              		@ sp needed
 1565 0034 5DF804EB 		ldr	lr, [sp], #4
 1566              		.cfi_restore 14
 1567              		.cfi_def_cfa_offset 0
 1568              		.loc 1 223 0
 1569 0038 FFF7FEBF 		b	po8030_set_ae
 1570              	.LVL109:
 1571              	.L191:
 1572              		.cfi_restore_state
 1573              		.loc 1 225 0
 1574 003c 1368     		ldr	r3, [r2]
 1575 003e 9942     		cmp	r1, r3
 1576 0040 0BD1     		bne	.L189
 1577              		.loc 1 231 0
 1578 0042 03B0     		add	sp, sp, #12
 1579              		.cfi_remember_state
 1580              		.cfi_def_cfa_offset 4
 1581              		@ sp needed
 1582 0044 5DF804EB 		ldr	lr, [sp], #4
 1583              		.cfi_restore 14
 1584              		.cfi_def_cfa_offset 0
 1585              		.loc 1 225 0
 1586 0048 FFF7FEBF 		b	po6030_set_ae
 1587              	.LVL110:
 1588              	.L184:
 1589              		.cfi_restore_state
 1590              		.loc 1 231 0
 1591 004c 9942     		cmp	r1, r3
 1592 004e 4FF0FF30 		mov	r0, #-1
 1593              	.LVL111:
 1594 0052 02D1     		bne	.L189
 1595 0054 03B0     		add	sp, sp, #12
 1596              		.cfi_remember_state
ARM GAS  /tmp/cclKUMhl.s 			page 29


 1597              		.cfi_def_cfa_offset 4
 1598              		@ sp needed
 1599 0056 5DF804FB 		ldr	pc, [sp], #4
 1600              	.L189:
 1601              		.cfi_restore_state
 1602 005a FFF7FEFF 		bl	__stack_chk_fail
 1603              	.LVL112:
 1604              	.L193:
 1605 005e 00BF     		.align	2
 1606              	.L192:
 1607 0060 00000000 		.word	.LANCHOR1
 1608 0064 00000000 		.word	__stack_chk_guard
 1609              		.cfi_endproc
 1610              	.LFE267:
 1611              		.size	cam_set_ae, .-cam_set_ae
 1612              		.section	.text.cam_set_exposure,"ax",%progbits
 1613              		.align	1
 1614              		.p2align 4,,15
 1615              		.global	cam_set_exposure
 1616              		.syntax unified
 1617              		.thumb
 1618              		.thumb_func
 1619              		.fpu fpv4-sp-d16
 1620              		.type	cam_set_exposure, %function
 1621              	cam_set_exposure:
 1622              	.LFB268:
 1623              		.loc 1 233 0
 1624              		.cfi_startproc
 1625              		@ args = 0, pretend = 0, frame = 8
 1626              		@ frame_needed = 0, uses_anonymous_args = 0
 1627              	.LVL113:
 1628 0000 10B5     		push	{r4, lr}
 1629              		.cfi_def_cfa_offset 8
 1630              		.cfi_offset 4, -8
 1631              		.cfi_offset 14, -4
 1632              		.loc 1 234 0
 1633 0002 174B     		ldr	r3, .L207
 1634              		.loc 1 233 0
 1635 0004 174A     		ldr	r2, .L207+4
 1636              		.loc 1 234 0
 1637 0006 93F90030 		ldrsb	r3, [r3]
 1638              		.loc 1 233 0
 1639 000a 1468     		ldr	r4, [r2]
 1640 000c 82B0     		sub	sp, sp, #8
 1641              		.cfi_def_cfa_offset 16
 1642              		.loc 1 233 0
 1643 000e 0194     		str	r4, [sp, #4]
 1644              		.loc 1 234 0
 1645 0010 63B1     		cbz	r3, .L205
 1646              		.loc 1 236 0
 1647 0012 012B     		cmp	r3, #1
 1648 0014 13D0     		beq	.L206
 1649              		.loc 1 238 0
 1650 0016 022B     		cmp	r3, #2
 1651              		.loc 1 239 0
 1652 0018 0199     		ldr	r1, [sp, #4]
 1653              	.LVL114:
ARM GAS  /tmp/cclKUMhl.s 			page 30


 1654 001a 1368     		ldr	r3, [r2]
 1655              		.loc 1 238 0
 1656 001c 18D1     		bne	.L199
 1657              		.loc 1 239 0
 1658 001e 9942     		cmp	r1, r3
 1659 0020 1CD1     		bne	.L204
 1660              		.loc 1 243 0
 1661 0022 02B0     		add	sp, sp, #8
 1662              		.cfi_remember_state
 1663              		.cfi_def_cfa_offset 8
 1664              		@ sp needed
 1665 0024 BDE81040 		pop	{r4, lr}
 1666              		.cfi_restore 14
 1667              		.cfi_restore 4
 1668              		.cfi_def_cfa_offset 0
 1669              		.loc 1 239 0
 1670 0028 FFF7FEBF 		b	ov7670_set_exposure
 1671              	.LVL115:
 1672              	.L205:
 1673              		.cfi_restore_state
 1674              		.loc 1 235 0
 1675 002c 019C     		ldr	r4, [sp, #4]
 1676 002e 1368     		ldr	r3, [r2]
 1677 0030 9C42     		cmp	r4, r3
 1678 0032 13D1     		bne	.L204
 1679              		.loc 1 243 0
 1680 0034 02B0     		add	sp, sp, #8
 1681              		.cfi_remember_state
 1682              		.cfi_def_cfa_offset 8
 1683              		@ sp needed
 1684 0036 BDE81040 		pop	{r4, lr}
 1685              		.cfi_restore 14
 1686              		.cfi_restore 4
 1687              		.cfi_def_cfa_offset 0
 1688              		.loc 1 235 0
 1689 003a FFF7FEBF 		b	po8030_set_exposure
 1690              	.LVL116:
 1691              	.L206:
 1692              		.cfi_restore_state
 1693              		.loc 1 237 0
 1694 003e 019C     		ldr	r4, [sp, #4]
 1695 0040 1368     		ldr	r3, [r2]
 1696 0042 9C42     		cmp	r4, r3
 1697 0044 0AD1     		bne	.L204
 1698              		.loc 1 243 0
 1699 0046 02B0     		add	sp, sp, #8
 1700              		.cfi_remember_state
 1701              		.cfi_def_cfa_offset 8
 1702              		@ sp needed
 1703 0048 BDE81040 		pop	{r4, lr}
 1704              		.cfi_restore 14
 1705              		.cfi_restore 4
 1706              		.cfi_def_cfa_offset 0
 1707              		.loc 1 237 0
 1708 004c FFF7FEBF 		b	po6030_set_exposure
 1709              	.LVL117:
 1710              	.L199:
ARM GAS  /tmp/cclKUMhl.s 			page 31


 1711              		.cfi_restore_state
 1712              		.loc 1 243 0
 1713 0050 9942     		cmp	r1, r3
 1714 0052 4FF0FF30 		mov	r0, #-1
 1715              	.LVL118:
 1716 0056 01D1     		bne	.L204
 1717 0058 02B0     		add	sp, sp, #8
 1718              		.cfi_remember_state
 1719              		.cfi_def_cfa_offset 8
 1720              		@ sp needed
 1721 005a 10BD     		pop	{r4, pc}
 1722              	.L204:
 1723              		.cfi_restore_state
 1724 005c FFF7FEFF 		bl	__stack_chk_fail
 1725              	.LVL119:
 1726              	.L208:
 1727              		.align	2
 1728              	.L207:
 1729 0060 00000000 		.word	.LANCHOR1
 1730 0064 00000000 		.word	__stack_chk_guard
 1731              		.cfi_endproc
 1732              	.LFE268:
 1733              		.size	cam_set_exposure, .-cam_set_exposure
 1734              		.section	.text.cam_get_id,"ax",%progbits
 1735              		.align	1
 1736              		.p2align 4,,15
 1737              		.global	cam_get_id
 1738              		.syntax unified
 1739              		.thumb
 1740              		.thumb_func
 1741              		.fpu fpv4-sp-d16
 1742              		.type	cam_get_id, %function
 1743              	cam_get_id:
 1744              	.LFB269:
 1745              		.loc 1 245 0
 1746              		.cfi_startproc
 1747              		@ args = 0, pretend = 0, frame = 8
 1748              		@ frame_needed = 0, uses_anonymous_args = 0
 1749 0000 00B5     		push	{lr}
 1750              		.cfi_def_cfa_offset 4
 1751              		.cfi_offset 14, -4
 1752              		.loc 1 246 0
 1753 0002 0F4B     		ldr	r3, .L217
 1754              		.loc 1 245 0
 1755 0004 0F4A     		ldr	r2, .L217+4
 1756              		.loc 1 246 0
 1757 0006 93F90030 		ldrsb	r3, [r3]
 1758              		.loc 1 245 0
 1759 000a 1168     		ldr	r1, [r2]
 1760 000c 83B0     		sub	sp, sp, #12
 1761              		.cfi_def_cfa_offset 16
 1762              		.loc 1 245 0
 1763 000e 0191     		str	r1, [sp, #4]
 1764              		.loc 1 246 0
 1765 0010 6BB1     		cbz	r3, .L212
 1766              		.loc 1 248 0
 1767 0012 012B     		cmp	r3, #1
ARM GAS  /tmp/cclKUMhl.s 			page 32


 1768 0014 0ED0     		beq	.L213
 1769              		.loc 1 250 0
 1770 0016 022B     		cmp	r3, #2
 1771              		.loc 1 253 0
 1772 0018 47F27060 		movw	r0, #30320
 1773 001c 18BF     		it	ne
 1774 001e 0020     		movne	r0, #0
 1775              	.L210:
 1776              		.loc 1 255 0
 1777 0020 0199     		ldr	r1, [sp, #4]
 1778 0022 1368     		ldr	r3, [r2]
 1779 0024 9942     		cmp	r1, r3
 1780 0026 08D1     		bne	.L216
 1781 0028 03B0     		add	sp, sp, #12
 1782              		.cfi_remember_state
 1783              		.cfi_def_cfa_offset 4
 1784              		@ sp needed
 1785 002a 5DF804FB 		ldr	pc, [sp], #4
 1786              	.L212:
 1787              		.cfi_restore_state
 1788              		.loc 1 247 0
 1789 002e 48F23000 		movw	r0, #32816
 1790 0032 F5E7     		b	.L210
 1791              	.L213:
 1792              		.loc 1 249 0
 1793 0034 46F23000 		movw	r0, #24624
 1794 0038 F2E7     		b	.L210
 1795              	.L216:
 1796              		.loc 1 255 0
 1797 003a FFF7FEFF 		bl	__stack_chk_fail
 1798              	.LVL120:
 1799              	.L218:
 1800 003e 00BF     		.align	2
 1801              	.L217:
 1802 0040 00000000 		.word	.LANCHOR1
 1803 0044 00000000 		.word	__stack_chk_guard
 1804              		.cfi_endproc
 1805              	.LFE269:
 1806              		.size	cam_get_id, .-cam_get_id
 1807              		.section	.text.cam_get_last_image_ptr,"ax",%progbits
 1808              		.align	1
 1809              		.p2align 4,,15
 1810              		.global	cam_get_last_image_ptr
 1811              		.syntax unified
 1812              		.thumb
 1813              		.thumb_func
 1814              		.fpu fpv4-sp-d16
 1815              		.type	cam_get_last_image_ptr, %function
 1816              	cam_get_last_image_ptr:
 1817              	.LFB270:
 1818              		.loc 1 257 0
 1819              		.cfi_startproc
 1820              		@ args = 0, pretend = 0, frame = 8
 1821              		@ frame_needed = 0, uses_anonymous_args = 0
 1822 0000 F0B5     		push	{r4, r5, r6, r7, lr}
 1823              		.cfi_def_cfa_offset 20
 1824              		.cfi_offset 4, -20
ARM GAS  /tmp/cclKUMhl.s 			page 33


 1825              		.cfi_offset 5, -16
 1826              		.cfi_offset 6, -12
 1827              		.cfi_offset 7, -8
 1828              		.cfi_offset 14, -4
 1829 0002 124F     		ldr	r7, .L229
 1830 0004 83B0     		sub	sp, sp, #12
 1831              		.cfi_def_cfa_offset 32
 1832              		.loc 1 257 0
 1833 0006 3B68     		ldr	r3, [r7]
 1834 0008 0193     		str	r3, [sp, #4]
 1835              		.loc 1 258 0
 1836 000a FFF7FEFF 		bl	dcmi_get_last_image_ptr
 1837              	.LVL121:
 1838              		.loc 1 260 0
 1839 000e 104B     		ldr	r3, .L229+4
 1840 0010 93F90030 		ldrsb	r3, [r3]
 1841 0014 022B     		cmp	r3, #2
 1842              		.loc 1 258 0
 1843 0016 0646     		mov	r6, r0
 1844              	.LVL122:
 1845              		.loc 1 260 0
 1846 0018 06D0     		beq	.L227
 1847              	.LVL123:
 1848              	.L219:
 1849              		.loc 1 269 0
 1850 001a 019A     		ldr	r2, [sp, #4]
 1851 001c 3B68     		ldr	r3, [r7]
 1852 001e 9A42     		cmp	r2, r3
 1853 0020 3046     		mov	r0, r6
 1854 0022 10D1     		bne	.L228
 1855              	.LVL124:
 1856 0024 03B0     		add	sp, sp, #12
 1857              		.cfi_remember_state
 1858              		.cfi_def_cfa_offset 20
 1859              		@ sp needed
 1860 0026 F0BD     		pop	{r4, r5, r6, r7, pc}
 1861              	.LVL125:
 1862              	.L227:
 1863              		.cfi_restore_state
 1864              		.loc 1 260 0 discriminator 1
 1865 0028 0A4B     		ldr	r3, .L229+8
 1866 002a 1C78     		ldrb	r4, [r3]	@ zero_extendqisi2
 1867 002c 24B1     		cbz	r4, .L221
 1868 002e F4E7     		b	.L219
 1869              	.LVL126:
 1870              	.L223:
 1871              		.loc 1 265 0 discriminator 3
 1872 0030 735D     		ldrb	r3, [r6, r5]	@ zero_extendqisi2
 1873 0032 3355     		strb	r3, [r6, r4]
 1874              	.LVL127:
 1875              		.loc 1 264 0 discriminator 3
 1876 0034 0134     		adds	r4, r4, #1
 1877              	.LVL128:
 1878 0036 A4B2     		uxth	r4, r4
 1879              	.LVL129:
 1880              	.L221:
 1881              		.loc 1 264 0 is_stmt 0 discriminator 1
ARM GAS  /tmp/cclKUMhl.s 			page 34


 1882 0038 FFF7FEFF 		bl	cam_get_mem_required
 1883              	.LVL130:
 1884 003c 6500     		lsls	r5, r4, #1
 1885 003e ADB2     		uxth	r5, r5
 1886 0040 8542     		cmp	r5, r0
 1887 0042 F5D3     		bcc	.L223
 1888 0044 E9E7     		b	.L219
 1889              	.LVL131:
 1890              	.L228:
 1891              		.loc 1 269 0 is_stmt 1
 1892 0046 FFF7FEFF 		bl	__stack_chk_fail
 1893              	.LVL132:
 1894              	.L230:
 1895 004a 00BF     		.align	2
 1896              	.L229:
 1897 004c 00000000 		.word	__stack_chk_guard
 1898 0050 00000000 		.word	.LANCHOR1
 1899 0054 00000000 		.word	.LANCHOR2
 1900              		.cfi_endproc
 1901              	.LFE270:
 1902              		.size	cam_get_last_image_ptr, .-cam_get_last_image_ptr
 1903              		.global	curr_format
 1904              		.global	curr_cam
 1905              		.section	.data.curr_cam,"aw",%progbits
 1906              		.set	.LANCHOR1,. + 0
 1907              		.type	curr_cam, %object
 1908              		.size	curr_cam, 1
 1909              	curr_cam:
 1910 0000 FF       		.byte	-1
 1911              		.section	.data.curr_format,"aw",%progbits
 1912              		.set	.LANCHOR2,. + 0
 1913              		.type	curr_format, %object
 1914              		.size	curr_format, 1
 1915              	curr_format:
 1916 0000 01       		.byte	1
 1917              		.section	.rodata.pwmcfg_cam.10209,"a",%progbits
 1918              		.align	2
 1919              		.set	.LANCHOR0,. + 0
 1920              		.type	pwmcfg_cam.10209, %object
 1921              		.size	pwmcfg_cam.10209, 52
 1922              	pwmcfg_cam.10209:
 1923 0000 80DE8002 		.word	42000000
 1924 0004 02000000 		.word	2
 1925 0008 00000000 		.word	0
 1926 000c 01000000 		.word	1
 1927 0010 00000000 		.word	0
 1928 0014 00000000 		.word	0
 1929 0018 00000000 		.word	0
 1930 001c 00000000 		.word	0
 1931 0020 00000000 		.word	0
 1932 0024 00000000 		.word	0
 1933 0028 00000000 		.word	0
 1934 002c 00000000 		.word	0
 1935 0030 00000000 		.space	4
 1936              		.text
 1937              	.Letext0:
 1938              		.file 2 "/home/leander/uos_codes/epuck2_lab/Eclipse_e-puck2/Tools/gcc-arm-none-eabi-7-2017-q4-majo
ARM GAS  /tmp/cclKUMhl.s 			page 35


 1939              		.file 3 "/home/leander/uos_codes/epuck2_lab/Eclipse_e-puck2/Tools/gcc-arm-none-eabi-7-2017-q4-majo
 1940              		.file 4 "/home/leander/uos_codes/epuck2_lab/Eclipse_e-puck2/Tools/gcc-arm-none-eabi-7-2017-q4-majo
 1941              		.file 5 "../e-puck2_main-processor/ChibiOS//os/rt/ports/ARMCMx/compilers/GCC/chtypes.h"
 1942              		.file 6 "../e-puck2_main-processor/ChibiOS//os/rt/include/chsystypes.h"
 1943              		.file 7 "../e-puck2_main-processor/ChibiOS//os/rt/include/chschd.h"
 1944              		.file 8 "../e-puck2_main-processor/ChibiOS//os/ext/CMSIS/include/core_cm4.h"
 1945              		.file 9 "../e-puck2_main-processor/ChibiOS//os/ext/CMSIS/ST/system_stm32f4xx.h"
 1946              		.file 10 "../e-puck2_main-processor/ChibiOS//os/ext/CMSIS/ST/stm32f407xx.h"
 1947              		.file 11 "../e-puck2_main-processor/ChibiOS//os/rt/ports/ARMCMx/chcore.h"
 1948              		.file 12 "../e-puck2_main-processor/ChibiOS//os/rt/ports/ARMCMx/chcore_v7m.h"
 1949              		.file 13 "../e-puck2_main-processor/ChibiOS//os/rt/include/chdebug.h"
 1950              		.file 14 "../e-puck2_main-processor/ChibiOS//os/rt/include/chtm.h"
 1951              		.file 15 "../e-puck2_main-processor/ChibiOS//os/rt/include/chstats.h"
 1952              		.file 16 "../e-puck2_main-processor/ChibiOS//os/rt/include/chsem.h"
 1953              		.file 17 "../e-puck2_main-processor/ChibiOS//os/rt/include/chmtx.h"
 1954              		.file 18 "../e-puck2_main-processor/ChibiOS//os/rt/include/chregistry.h"
 1955              		.file 19 "../e-puck2_main-processor/ChibiOS//os/rt/include/chevents.h"
 1956              		.file 20 "../e-puck2_main-processor/ChibiOS//os/rt/include/chqueues.h"
 1957              		.file 21 "../e-puck2_main-processor/ChibiOS//os/hal/ports/STM32/STM32F4xx/stm32_dma.h"
 1958              		.file 22 "../e-puck2_main-processor/ChibiOS//os/hal/include/hal_ioblock.h"
 1959              		.file 23 "../e-puck2_main-processor/ChibiOS//os/hal/ports/STM32/LLD/GPIOv2/pal_lld.h"
 1960              		.file 24 "../e-puck2_main-processor/ChibiOS//os/hal/include/adc.h"
 1961              		.file 25 "../e-puck2_main-processor/ChibiOS//os/hal/ports/STM32/STM32F4xx/adc_lld.h"
 1962              		.file 26 "../e-puck2_main-processor/ChibiOS//os/hal/include/can.h"
 1963              		.file 27 "../e-puck2_main-processor/ChibiOS//os/hal/ports/STM32/LLD/can_lld.h"
 1964              		.file 28 "../e-puck2_main-processor/ChibiOS//os/hal/include/dac.h"
 1965              		.file 29 "../e-puck2_main-processor/ChibiOS//os/hal/ports/STM32/LLD/DACv1/dac_lld.h"
 1966              		.file 30 "../e-puck2_main-processor/ChibiOS//os/hal/include/ext.h"
 1967              		.file 31 "../e-puck2_main-processor/ChibiOS//os/hal/ports/STM32/LLD/ext_lld.h"
 1968              		.file 32 "../e-puck2_main-processor/ChibiOS//os/hal/include/gpt.h"
 1969              		.file 33 "../e-puck2_main-processor/ChibiOS//os/hal/ports/STM32/LLD/TIMv1/gpt_lld.h"
 1970              		.file 34 "../e-puck2_main-processor/ChibiOS//os/hal/ports/STM32/LLD/TIMv1/stm32_tim.h"
 1971              		.file 35 "../e-puck2_main-processor/ChibiOS//os/hal/include/i2c.h"
 1972              		.file 36 "../e-puck2_main-processor/ChibiOS//os/hal/ports/STM32/LLD/I2Cv1/i2c_lld.h"
 1973              		.file 37 "../e-puck2_main-processor/ChibiOS//os/hal/include/i2s.h"
 1974              		.file 38 "../e-puck2_main-processor/ChibiOS//os/hal/ports/STM32/LLD/SPIv1/i2s_lld.h"
 1975              		.file 39 "../e-puck2_main-processor/ChibiOS//os/hal/include/pwm.h"
 1976              		.file 40 "../e-puck2_main-processor/ChibiOS//os/hal/ports/STM32/LLD/TIMv1/pwm_lld.h"
 1977              		.file 41 "../e-puck2_main-processor/ChibiOS//os/hal/include/serial.h"
 1978              		.file 42 "../e-puck2_main-processor/ChibiOS//os/hal/ports/STM32/LLD/USARTv1/serial_lld.h"
 1979              		.file 43 "../e-puck2_main-processor/ChibiOS//os/hal/include/sdc.h"
 1980              		.file 44 "../e-puck2_main-processor/ChibiOS//os/hal/ports/STM32/LLD/sdc_lld.h"
 1981              		.file 45 "../e-puck2_main-processor/ChibiOS//os/hal/include/spi.h"
 1982              		.file 46 "../e-puck2_main-processor/ChibiOS//os/hal/ports/STM32/LLD/SPIv1/spi_lld.h"
 1983              		.file 47 "../e-puck2_main-processor/ChibiOS//os/hal/include/usb.h"
 1984              		.file 48 "../e-puck2_main-processor/ChibiOS//os/hal/ports/STM32/LLD/OTGv1/usb_lld.h"
 1985              		.file 49 "../e-puck2_main-processor/ChibiOS//os/hal/ports/STM32/LLD/OTGv1/stm32_otg.h"
 1986              		.file 50 "../e-puck2_main-processor/ChibiOS//os/hal/include/serial_usb.h"
 1987              		.file 51 "../e-puck2_main-processor/src/camera/camera.h"
 1988              		.file 52 "../e-puck2_main-processor/src/usbcfg.h"
 1989              		.file 53 "../e-puck2_main-processor/src/camera/po8030.h"
 1990              		.file 54 "../e-puck2_main-processor/src/camera/po6030.h"
 1991              		.file 55 "../e-puck2_main-processor/src/camera/ov7670.h"
 1992              		.file 56 "../e-puck2_main-processor/ChibiOS_ext/os/hal/include/../ports/STM32/STM32F4xx/dcmi_lld.h
 1993              		.file 57 "../e-puck2_main-processor/src/camera/dcmi_camera.h"
 1994              		.file 58 "../e-puck2_main-processor/src/camera/../i2c_bus.h"
 1995              		.file 59 "../e-puck2_main-processor/ChibiOS//os/rt/include/chthreads.h"
ARM GAS  /tmp/cclKUMhl.s 			page 36

