ARM GAS  /tmp/ccHKfm7W.s 			page 1


   1              		.cpu cortex-m4
   2              		.eabi_attribute 27, 1
   3              		.eabi_attribute 28, 1
   4              		.eabi_attribute 20, 1
   5              		.eabi_attribute 21, 1
   6              		.eabi_attribute 23, 3
   7              		.eabi_attribute 24, 1
   8              		.eabi_attribute 25, 1
   9              		.eabi_attribute 26, 1
  10              		.eabi_attribute 30, 2
  11              		.eabi_attribute 34, 1
  12              		.eabi_attribute 18, 4
  13              		.file	"cmd.c"
  14              		.text
  15              	.Ltext0:
  16              		.cfi_sections	.debug_frame
  17              		.section	.text.chprintf,"ax",%progbits
  18              		.align	1
  19              		.p2align 4,,15
  20              		.syntax unified
  21              		.thumb
  22              		.thumb_func
  23              		.fpu fpv4-sp-d16
  24              		.type	chprintf, %function
  25              	chprintf:
  26              	.LFB259:
  27              		.file 1 "../e-puck2_main-processor/ChibiOS//os/hal/lib/streams/chprintf.h"
  28              		.loc 1 69 0
  29              		.cfi_startproc
  30              		@ args = 4, pretend = 12, frame = 8
  31              		@ frame_needed = 0, uses_anonymous_args = 1
  32              	.LVL0:
  33 0000 0EB4     		push	{r1, r2, r3}
  34              		.cfi_def_cfa_offset 12
  35              		.cfi_offset 1, -12
  36              		.cfi_offset 2, -8
  37              		.cfi_offset 3, -4
  38 0002 10B5     		push	{r4, lr}
  39              		.cfi_def_cfa_offset 20
  40              		.cfi_offset 4, -20
  41              		.cfi_offset 14, -16
  42 0004 83B0     		sub	sp, sp, #12
  43              		.cfi_def_cfa_offset 32
  44              		.loc 1 69 0
  45 0006 05AA     		add	r2, sp, #20
  46 0008 094C     		ldr	r4, .L6
  47 000a 52F8041B 		ldr	r1, [r2], #4
  48 000e 2368     		ldr	r3, [r4]
  49              		.loc 1 73 0
  50 0010 0092     		str	r2, [sp]
  51              		.loc 1 69 0
  52 0012 0193     		str	r3, [sp, #4]
  53              		.loc 1 74 0
  54 0014 FFF7FEFF 		bl	chvprintf
  55              	.LVL1:
  56              		.loc 1 78 0
  57 0018 019A     		ldr	r2, [sp, #4]
ARM GAS  /tmp/ccHKfm7W.s 			page 2


  58 001a 2368     		ldr	r3, [r4]
  59 001c 9A42     		cmp	r2, r3
  60 001e 04D1     		bne	.L5
  61 0020 03B0     		add	sp, sp, #12
  62              		.cfi_remember_state
  63              		.cfi_def_cfa_offset 20
  64              		@ sp needed
  65 0022 BDE81040 		pop	{r4, lr}
  66              		.cfi_restore 14
  67              		.cfi_restore 4
  68              		.cfi_def_cfa_offset 12
  69 0026 03B0     		add	sp, sp, #12
  70              		.cfi_restore 3
  71              		.cfi_restore 2
  72              		.cfi_restore 1
  73              		.cfi_def_cfa_offset 0
  74 0028 7047     		bx	lr
  75              	.L5:
  76              		.cfi_restore_state
  77 002a FFF7FEFF 		bl	__stack_chk_fail
  78              	.LVL2:
  79              	.L7:
  80 002e 00BF     		.align	2
  81              	.L6:
  82 0030 00000000 		.word	__stack_chk_guard
  83              		.cfi_endproc
  84              	.LFE259:
  85              		.size	chprintf, .-chprintf
  86              		.section	.text.cmd_mount,"ax",%progbits
  87              		.align	1
  88              		.p2align 4,,15
  89              		.global	cmd_mount
  90              		.syntax unified
  91              		.thumb
  92              		.thumb_func
  93              		.fpu fpv4-sp-d16
  94              		.type	cmd_mount, %function
  95              	cmd_mount:
  96              	.LFB261:
  97              		.file 2 "../e-puck2_main-processor/src/cmd.c"
  98              		.loc 2 54 0
  99              		.cfi_startproc
 100              		@ args = 0, pretend = 0, frame = 8
 101              		@ frame_needed = 0, uses_anonymous_args = 0
 102              	.LVL3:
 103 0000 30B5     		push	{r4, r5, lr}
 104              		.cfi_def_cfa_offset 12
 105              		.cfi_offset 4, -12
 106              		.cfi_offset 5, -8
 107              		.cfi_offset 14, -4
 108 0002 0F4C     		ldr	r4, .L17
 109 0004 83B0     		sub	sp, sp, #12
 110              		.cfi_def_cfa_offset 24
 111              		.loc 2 54 0
 112 0006 2368     		ldr	r3, [r4]
 113 0008 0193     		str	r3, [sp, #4]
 114 000a 0546     		mov	r5, r0
ARM GAS  /tmp/ccHKfm7W.s 			page 3


 115              		.loc 2 61 0
 116 000c FFF7FEFF 		bl	mountSDCard
 117              	.LVL4:
 118              		.loc 2 62 0
 119 0010 019A     		ldr	r2, [sp, #4]
 120 0012 2368     		ldr	r3, [r4]
 121              		.loc 2 61 0
 122 0014 40B1     		cbz	r0, .L16
 123              		.loc 2 65 0
 124 0016 9A42     		cmp	r2, r3
 125 0018 0FD1     		bne	.L15
 126 001a 0A49     		ldr	r1, .L17+4
 127 001c 2846     		mov	r0, r5
 128              		.loc 2 66 0
 129 001e 03B0     		add	sp, sp, #12
 130              		.cfi_remember_state
 131              		.cfi_def_cfa_offset 12
 132              		@ sp needed
 133 0020 BDE83040 		pop	{r4, r5, lr}
 134              		.cfi_restore 14
 135              		.cfi_restore 5
 136              		.cfi_restore 4
 137              		.cfi_def_cfa_offset 0
 138              	.LVL5:
 139              		.loc 2 65 0
 140 0024 FFF7FEBF 		b	chprintf
 141              	.LVL6:
 142              	.L16:
 143              		.cfi_restore_state
 144              		.loc 2 62 0
 145 0028 9A42     		cmp	r2, r3
 146 002a 06D1     		bne	.L15
 147 002c 0649     		ldr	r1, .L17+8
 148 002e 2846     		mov	r0, r5
 149              		.loc 2 66 0
 150 0030 03B0     		add	sp, sp, #12
 151              		.cfi_remember_state
 152              		.cfi_def_cfa_offset 12
 153              		@ sp needed
 154 0032 BDE83040 		pop	{r4, r5, lr}
 155              		.cfi_restore 14
 156              		.cfi_restore 5
 157              		.cfi_restore 4
 158              		.cfi_def_cfa_offset 0
 159              	.LVL7:
 160              		.loc 2 65 0
 161 0036 FFF7FEBF 		b	chprintf
 162              	.LVL8:
 163              	.L15:
 164              		.cfi_restore_state
 165 003a FFF7FEFF 		bl	__stack_chk_fail
 166              	.LVL9:
 167              	.L18:
 168 003e 00BF     		.align	2
 169              	.L17:
 170 0040 00000000 		.word	__stack_chk_guard
 171 0044 34000000 		.word	.LC1
ARM GAS  /tmp/ccHKfm7W.s 			page 4


 172 0048 00000000 		.word	.LC0
 173              		.cfi_endproc
 174              	.LFE261:
 175              		.size	cmd_mount, .-cmd_mount
 176              		.section	.text.cmd_readclock,"ax",%progbits
 177              		.align	1
 178              		.p2align 4,,15
 179              		.syntax unified
 180              		.thumb
 181              		.thumb_func
 182              		.fpu fpv4-sp-d16
 183              		.type	cmd_readclock, %function
 184              	cmd_readclock:
 185              	.LFB278:
 186              		.loc 2 407 0
 187              		.cfi_startproc
 188              		@ args = 0, pretend = 0, frame = 8
 189              		@ frame_needed = 0, uses_anonymous_args = 0
 190              	.LVL10:
 191 0000 30B5     		push	{r4, r5, lr}
 192              		.cfi_def_cfa_offset 12
 193              		.cfi_offset 4, -12
 194              		.cfi_offset 5, -8
 195              		.cfi_offset 14, -4
 196              		.loc 2 410 0
 197 0002 0A4B     		ldr	r3, .L23
 198              		.loc 2 407 0
 199 0004 0A4C     		ldr	r4, .L23+4
 200              		.loc 2 410 0
 201 0006 0B49     		ldr	r1, .L23+8
 202              	.LVL11:
 203 0008 0B4A     		ldr	r2, .L23+12
 204              	.LVL12:
 205              		.loc 2 407 0
 206 000a 2568     		ldr	r5, [r4]
 207 000c 85B0     		sub	sp, sp, #20
 208              		.cfi_def_cfa_offset 32
 209              		.loc 2 410 0
 210 000e CDE90021 		strd	r2, r1, [sp]
 211 0012 1A46     		mov	r2, r3
 212 0014 0949     		ldr	r1, .L23+16
 213              		.loc 2 407 0
 214 0016 0395     		str	r5, [sp, #12]
 215              		.loc 2 410 0
 216 0018 FFF7FEFF 		bl	chprintf
 217              	.LVL13:
 218              		.loc 2 412 0
 219 001c 039A     		ldr	r2, [sp, #12]
 220 001e 2368     		ldr	r3, [r4]
 221 0020 9A42     		cmp	r2, r3
 222 0022 01D1     		bne	.L22
 223 0024 05B0     		add	sp, sp, #20
 224              		.cfi_remember_state
 225              		.cfi_def_cfa_offset 12
 226              		@ sp needed
 227 0026 30BD     		pop	{r4, r5, pc}
 228              	.L22:
ARM GAS  /tmp/ccHKfm7W.s 			page 5


 229              		.cfi_restore_state
 230 0028 FFF7FEFF 		bl	__stack_chk_fail
 231              	.LVL14:
 232              	.L24:
 233              		.align	2
 234              	.L23:
 235 002c 007A030A 		.word	168000000
 236 0030 00000000 		.word	__stack_chk_guard
 237 0034 00BD0105 		.word	84000000
 238 0038 80DE8002 		.word	42000000
 239 003c 00000000 		.word	.LC2
 240              		.cfi_endproc
 241              	.LFE278:
 242              		.size	cmd_readclock, .-cmd_readclock
 243              		.section	.text.cmd_unmount,"ax",%progbits
 244              		.align	1
 245              		.p2align 4,,15
 246              		.global	cmd_unmount
 247              		.syntax unified
 248              		.thumb
 249              		.thumb_func
 250              		.fpu fpv4-sp-d16
 251              		.type	cmd_unmount, %function
 252              	cmd_unmount:
 253              	.LFB262:
 254              		.loc 2 68 0
 255              		.cfi_startproc
 256              		@ args = 0, pretend = 0, frame = 8
 257              		@ frame_needed = 0, uses_anonymous_args = 0
 258              	.LVL15:
 259 0000 30B5     		push	{r4, r5, lr}
 260              		.cfi_def_cfa_offset 12
 261              		.cfi_offset 4, -12
 262              		.cfi_offset 5, -8
 263              		.cfi_offset 14, -4
 264 0002 0C4C     		ldr	r4, .L32
 265 0004 83B0     		sub	sp, sp, #12
 266              		.cfi_def_cfa_offset 24
 267              		.loc 2 68 0
 268 0006 2368     		ldr	r3, [r4]
 269 0008 0193     		str	r3, [sp, #4]
 270 000a 0546     		mov	r5, r0
 271              		.loc 2 72 0
 272 000c FFF7FEFF 		bl	unmountSDCard
 273              	.LVL16:
 274              		.loc 2 73 0
 275 0010 019A     		ldr	r2, [sp, #4]
 276 0012 2368     		ldr	r3, [r4]
 277              		.loc 2 72 0
 278 0014 18B1     		cbz	r0, .L31
 279              		.loc 2 76 0
 280 0016 9A42     		cmp	r2, r3
 281 0018 0AD1     		bne	.L30
 282 001a 03B0     		add	sp, sp, #12
 283              		.cfi_remember_state
 284              		.cfi_def_cfa_offset 12
 285              		@ sp needed
ARM GAS  /tmp/ccHKfm7W.s 			page 6


 286 001c 30BD     		pop	{r4, r5, pc}
 287              	.LVL17:
 288              	.L31:
 289              		.cfi_restore_state
 290              		.loc 2 73 0
 291 001e 9A42     		cmp	r2, r3
 292 0020 06D1     		bne	.L30
 293 0022 0549     		ldr	r1, .L32+4
 294 0024 2846     		mov	r0, r5
 295              		.loc 2 76 0
 296 0026 03B0     		add	sp, sp, #12
 297              		.cfi_remember_state
 298              		.cfi_def_cfa_offset 12
 299              		@ sp needed
 300 0028 BDE83040 		pop	{r4, r5, lr}
 301              		.cfi_restore 14
 302              		.cfi_restore 5
 303              		.cfi_restore 4
 304              		.cfi_def_cfa_offset 0
 305              	.LVL18:
 306              		.loc 2 73 0
 307 002c FFF7FEBF 		b	chprintf
 308              	.LVL19:
 309              	.L30:
 310              		.cfi_restore_state
 311              		.loc 2 76 0
 312 0030 FFF7FEFF 		bl	__stack_chk_fail
 313              	.LVL20:
 314              	.L33:
 315              		.align	2
 316              	.L32:
 317 0034 00000000 		.word	__stack_chk_guard
 318 0038 00000000 		.word	.LC3
 319              		.cfi_endproc
 320              	.LFE262:
 321              		.size	cmd_unmount, .-cmd_unmount
 322              		.section	.text.cmd_free,"ax",%progbits
 323              		.align	1
 324              		.p2align 4,,15
 325              		.global	cmd_free
 326              		.syntax unified
 327              		.thumb
 328              		.thumb_func
 329              		.fpu fpv4-sp-d16
 330              		.type	cmd_free, %function
 331              	cmd_free:
 332              	.LFB263:
 333              		.loc 2 78 0
 334              		.cfi_startproc
 335              		@ args = 0, pretend = 0, frame = 16
 336              		@ frame_needed = 0, uses_anonymous_args = 0
 337              	.LVL21:
 338 0000 70B5     		push	{r4, r5, r6, lr}
 339              		.cfi_def_cfa_offset 16
 340              		.cfi_offset 4, -16
 341              		.cfi_offset 5, -12
 342              		.cfi_offset 6, -8
ARM GAS  /tmp/ccHKfm7W.s 			page 7


 343              		.cfi_offset 14, -4
 344 0002 1D4E     		ldr	r6, .L41
 345 0004 84B0     		sub	sp, sp, #16
 346              		.cfi_def_cfa_offset 32
 347              		.loc 2 78 0
 348 0006 0546     		mov	r5, r0
 349 0008 3368     		ldr	r3, [r6]
 350              		.loc 2 86 0
 351 000a 1C48     		ldr	r0, .L41+4
 352              	.LVL22:
 353              		.loc 2 78 0
 354 000c 0393     		str	r3, [sp, #12]
 355              		.loc 2 86 0
 356 000e 02AA     		add	r2, sp, #8
 357              	.LVL23:
 358 0010 01A9     		add	r1, sp, #4
 359              	.LVL24:
 360 0012 FFF7FEFF 		bl	f_getfree
 361              	.LVL25:
 362              		.loc 2 87 0
 363 0016 40BB     		cbnz	r0, .L39
 364              		.loc 2 92 0
 365 0018 FFF7FEFF 		bl	getSDCardClusterSize
 366              	.LVL26:
 367              		.loc 2 96 0
 368 001c 019A     		ldr	r2, [sp, #4]
 369 001e 1849     		ldr	r1, .L41+8
 370              		.loc 2 92 0
 371 0020 0446     		mov	r4, r0
 372              	.LVL27:
 373              		.loc 2 96 0
 374 0022 0346     		mov	r3, r0
 375 0024 2846     		mov	r0, r5
 376              	.LVL28:
 377 0026 FFF7FEFF 		bl	chprintf
 378              	.LVL29:
 379              		.loc 2 98 0
 380 002a 019A     		ldr	r2, [sp, #4]
 381 002c 1549     		ldr	r1, .L41+12
 382 002e 5202     		lsls	r2, r2, #9
 383 0030 04FB02F2 		mul	r2, r4, r2
 384 0034 2846     		mov	r0, r5
 385 0036 FFF7FEFF 		bl	chprintf
 386              	.LVL30:
 387              		.loc 2 101 0
 388 003a 019A     		ldr	r2, [sp, #4]
 389              		.loc 2 100 0
 390 003c 1249     		ldr	r1, .L41+16
 391              		.loc 2 101 0
 392 003e 5202     		lsls	r2, r2, #9
 393 0040 04FB02F2 		mul	r2, r4, r2
 394              		.loc 2 100 0
 395 0044 920A     		lsrs	r2, r2, #10
 396 0046 2846     		mov	r0, r5
 397 0048 FFF7FEFF 		bl	chprintf
 398              	.LVL31:
 399              		.loc 2 103 0
ARM GAS  /tmp/ccHKfm7W.s 			page 8


 400 004c 019A     		ldr	r2, [sp, #4]
 401              		.loc 2 102 0
 402 004e 0F49     		ldr	r1, .L41+20
 403              		.loc 2 103 0
 404 0050 5202     		lsls	r2, r2, #9
 405 0052 04FB02F2 		mul	r2, r4, r2
 406              		.loc 2 102 0
 407 0056 2846     		mov	r0, r5
 408 0058 120D     		lsrs	r2, r2, #20
 409 005a FFF7FEFF 		bl	chprintf
 410              	.LVL32:
 411              	.L34:
 412              		.loc 2 104 0
 413 005e 039A     		ldr	r2, [sp, #12]
 414 0060 3368     		ldr	r3, [r6]
 415 0062 9A42     		cmp	r2, r3
 416 0064 06D1     		bne	.L40
 417 0066 04B0     		add	sp, sp, #16
 418              		.cfi_remember_state
 419              		.cfi_def_cfa_offset 16
 420              		@ sp needed
 421 0068 70BD     		pop	{r4, r5, r6, pc}
 422              	.LVL33:
 423              	.L39:
 424              		.cfi_restore_state
 425              		.loc 2 88 0
 426 006a 2846     		mov	r0, r5
 427              	.LVL34:
 428 006c 0849     		ldr	r1, .L41+24
 429 006e FFF7FEFF 		bl	chprintf
 430              	.LVL35:
 431 0072 F4E7     		b	.L34
 432              	.L40:
 433              		.loc 2 104 0
 434 0074 FFF7FEFF 		bl	__stack_chk_fail
 435              	.LVL36:
 436              	.L42:
 437              		.align	2
 438              	.L41:
 439 0078 00000000 		.word	__stack_chk_guard
 440 007c 00000000 		.word	.LC4
 441 0080 20000000 		.word	.LC6
 442 0084 58000000 		.word	.LC7
 443 0088 68000000 		.word	.LC8
 444 008c 78000000 		.word	.LC9
 445 0090 04000000 		.word	.LC5
 446              		.cfi_endproc
 447              	.LFE263:
 448              		.size	cmd_free, .-cmd_free
 449              		.section	.text.cmd_tree,"ax",%progbits
 450              		.align	1
 451              		.p2align 4,,15
 452              		.global	cmd_tree
 453              		.syntax unified
 454              		.thumb
 455              		.thumb_func
 456              		.fpu fpv4-sp-d16
ARM GAS  /tmp/ccHKfm7W.s 			page 9


 457              		.type	cmd_tree, %function
 458              	cmd_tree:
 459              	.LFB264:
 460              		.loc 2 106 0
 461              		.cfi_startproc
 462              		@ args = 0, pretend = 0, frame = 8
 463              		@ frame_needed = 0, uses_anonymous_args = 0
 464              	.LVL37:
 465 0000 30B5     		push	{r4, r5, lr}
 466              		.cfi_def_cfa_offset 12
 467              		.cfi_offset 4, -12
 468              		.cfi_offset 5, -8
 469              		.cfi_offset 14, -4
 470 0002 0C4C     		ldr	r4, .L48
 471 0004 83B0     		sub	sp, sp, #12
 472              		.cfi_def_cfa_offset 24
 473              		.loc 2 106 0
 474 0006 2368     		ldr	r3, [r4]
 475 0008 0193     		str	r3, [sp, #4]
 476              		.loc 2 113 0
 477 000a 4FF48072 		mov	r2, #256
 478              	.LVL38:
 479              		.loc 2 106 0
 480 000e 0546     		mov	r5, r0
 481              		.loc 2 113 0
 482 0010 0021     		movs	r1, #0
 483              	.LVL39:
 484 0012 0948     		ldr	r0, .L48+4
 485              	.LVL40:
 486 0014 FFF7FEFF 		bl	memset
 487              	.LVL41:
 488              		.loc 2 115 0
 489 0018 019A     		ldr	r2, [sp, #4]
 490 001a 2368     		ldr	r3, [r4]
 491 001c 9A42     		cmp	r2, r3
 492 001e 06D1     		bne	.L47
 493 0020 0549     		ldr	r1, .L48+4
 494 0022 2846     		mov	r0, r5
 495              		.loc 2 116 0
 496 0024 03B0     		add	sp, sp, #12
 497              		.cfi_remember_state
 498              		.cfi_def_cfa_offset 12
 499              		@ sp needed
 500 0026 BDE83040 		pop	{r4, r5, lr}
 501              		.cfi_restore 14
 502              		.cfi_restore 5
 503              		.cfi_restore 4
 504              		.cfi_def_cfa_offset 0
 505              	.LVL42:
 506              		.loc 2 115 0
 507 002a FFF7FEBF 		b	scan_files
 508              	.LVL43:
 509              	.L47:
 510              		.cfi_restore_state
 511 002e FFF7FEFF 		bl	__stack_chk_fail
 512              	.LVL44:
 513              	.L49:
ARM GAS  /tmp/ccHKfm7W.s 			page 10


 514 0032 00BF     		.align	2
 515              	.L48:
 516 0034 00000000 		.word	__stack_chk_guard
 517 0038 00000000 		.word	.LANCHOR0
 518              		.cfi_endproc
 519              	.LFE264:
 520              		.size	cmd_tree, .-cmd_tree
 521              		.section	.text.cmd_hello,"ax",%progbits
 522              		.align	1
 523              		.p2align 4,,15
 524              		.global	cmd_hello
 525              		.syntax unified
 526              		.thumb
 527              		.thumb_func
 528              		.fpu fpv4-sp-d16
 529              		.type	cmd_hello, %function
 530              	cmd_hello:
 531              	.LFB265:
 532              		.loc 2 119 0
 533              		.cfi_startproc
 534              		@ args = 0, pretend = 0, frame = 560
 535              		@ frame_needed = 0, uses_anonymous_args = 0
 536              	.LVL45:
 537 0000 70B5     		push	{r4, r5, r6, lr}
 538              		.cfi_def_cfa_offset 16
 539              		.cfi_offset 4, -16
 540              		.cfi_offset 5, -12
 541              		.cfi_offset 6, -8
 542              		.cfi_offset 14, -4
 543 0002 1D4C     		ldr	r4, .L60
 544 0004 ADF50C7D 		sub	sp, sp, #560
 545              		.cfi_def_cfa_offset 576
 546              		.loc 2 119 0
 547 0008 2368     		ldr	r3, [r4]
 548 000a 8B93     		str	r3, [sp, #556]
 549              		.loc 2 127 0
 550 000c 0029     		cmp	r1, #0
 551              		.loc 2 119 0
 552 000e 0546     		mov	r5, r0
 553              		.loc 2 127 0
 554 0010 0DDD     		ble	.L51
 555              		.loc 2 128 0
 556 0012 1A49     		ldr	r1, .L60+4
 557              	.LVL46:
 558 0014 FFF7FEFF 		bl	chprintf
 559              	.LVL47:
 560              		.loc 2 129 0
 561 0018 2846     		mov	r0, r5
 562 001a 1949     		ldr	r1, .L60+8
 563 001c FFF7FEFF 		bl	chprintf
 564              	.LVL48:
 565              	.L50:
 566              		.loc 2 156 0
 567 0020 8B9A     		ldr	r2, [sp, #556]
 568 0022 2368     		ldr	r3, [r4]
 569 0024 9A42     		cmp	r2, r3
 570 0026 25D1     		bne	.L59
ARM GAS  /tmp/ccHKfm7W.s 			page 11


 571 0028 0DF50C7D 		add	sp, sp, #560
 572              		.cfi_remember_state
 573              		.cfi_def_cfa_offset 16
 574              		@ sp needed
 575 002c 70BD     		pop	{r4, r5, r6, pc}
 576              	.LVL49:
 577              	.L51:
 578              		.cfi_restore_state
 579              		.loc 2 135 0
 580 002e 01A8     		add	r0, sp, #4
 581              	.LVL50:
 582 0030 0B22     		movs	r2, #11
 583              	.LVL51:
 584 0032 1449     		ldr	r1, .L60+12
 585              	.LVL52:
 586 0034 FFF7FEFF 		bl	f_open
 587              	.LVL53:
 588              		.loc 2 136 0
 589 0038 0646     		mov	r6, r0
 590 003a 40B1     		cbz	r0, .L53
 591              		.loc 2 137 0
 592 003c 1249     		ldr	r1, .L60+16
 593 003e 2846     		mov	r0, r5
 594              	.LVL54:
 595 0040 FFF7FEFF 		bl	chprintf
 596              	.LVL55:
 597              		.loc 2 138 0
 598 0044 3146     		mov	r1, r6
 599 0046 2846     		mov	r0, r5
 600 0048 FFF7FEFF 		bl	fverbose_error
 601              	.LVL56:
 602              		.loc 2 139 0
 603 004c E8E7     		b	.L50
 604              	.LVL57:
 605              	.L53:
 606              		.loc 2 141 0
 607 004e 0F49     		ldr	r1, .L60+20
 608 0050 2846     		mov	r0, r5
 609              	.LVL58:
 610 0052 FFF7FEFF 		bl	chprintf
 611              	.LVL59:
 612              		.loc 2 146 0
 613 0056 01A9     		add	r1, sp, #4
 614 0058 0D48     		ldr	r0, .L60+24
 615 005a FFF7FEFF 		bl	f_puts
 616              	.LVL60:
 617              		.loc 2 147 0
 618 005e 0130     		adds	r0, r0, #1
 619              	.LVL61:
 620              		.loc 2 148 0
 621 0060 0CBF     		ite	eq
 622 0062 0C49     		ldreq	r1, .L60+28
 623              		.loc 2 150 0
 624 0064 0C49     		ldrne	r1, .L60+32
 625              		.loc 2 148 0
 626 0066 2846     		mov	r0, r5
 627              	.LVL62:
ARM GAS  /tmp/ccHKfm7W.s 			page 12


 628              		.loc 2 150 0
 629 0068 FFF7FEFF 		bl	chprintf
 630              	.LVL63:
 631              		.loc 2 155 0
 632 006c 01A8     		add	r0, sp, #4
 633 006e FFF7FEFF 		bl	f_close
 634              	.LVL64:
 635 0072 D5E7     		b	.L50
 636              	.L59:
 637              		.loc 2 156 0
 638 0074 FFF7FEFF 		bl	__stack_chk_fail
 639              	.LVL65:
 640              	.L61:
 641              		.align	2
 642              	.L60:
 643 0078 00000000 		.word	__stack_chk_guard
 644 007c 00000000 		.word	.LC10
 645 0080 10000000 		.word	.LC11
 646 0084 40000000 		.word	.LC12
 647 0088 4C000000 		.word	.LC13
 648 008c 70000000 		.word	.LC14
 649 0090 94000000 		.word	.LC15
 650 0094 A0000000 		.word	.LC16
 651 0098 D0000000 		.word	.LC17
 652              		.cfi_endproc
 653              	.LFE265:
 654              		.size	cmd_hello, .-cmd_hello
 655              		.section	.text.cmd_mic_data,"ax",%progbits
 656              		.align	1
 657              		.p2align 4,,15
 658              		.syntax unified
 659              		.thumb
 660              		.thumb_func
 661              		.fpu fpv4-sp-d16
 662              		.type	cmd_mic_data, %function
 663              	cmd_mic_data:
 664              	.LFB307:
 665              		.loc 2 1020 0
 666              		.cfi_startproc
 667              		@ args = 0, pretend = 0, frame = 8
 668              		@ frame_needed = 0, uses_anonymous_args = 0
 669              	.LVL66:
 670 0000 70B5     		push	{r4, r5, r6, lr}
 671              		.cfi_def_cfa_offset 16
 672              		.cfi_offset 4, -16
 673              		.cfi_offset 5, -12
 674              		.cfi_offset 6, -8
 675              		.cfi_offset 14, -4
 676 0002 164E     		ldr	r6, .L69
 677              		.loc 2 1028 0
 678 0004 164D     		ldr	r5, .L69+4
 679              		.loc 2 1020 0
 680 0006 3368     		ldr	r3, [r6]
 681 0008 82B0     		sub	sp, sp, #8
 682              		.cfi_def_cfa_offset 24
 683              		.loc 2 1020 0
 684 000a 0193     		str	r3, [sp, #4]
ARM GAS  /tmp/ccHKfm7W.s 			page 13


 685              		.loc 2 1025 0
 686 000c FFF7FEFF 		bl	mic_buffer_get_size
 687              	.LVL67:
 688              		.loc 2 1026 0
 689 0010 45F2AA52 		movw	r2, #21930
 690 0014 010A     		lsrs	r1, r0, #8
 691              		.loc 2 1028 0
 692 0016 2B68     		ldr	r3, [r5]
 693              		.loc 2 1026 0
 694 0018 8DF80300 		strb	r0, [sp, #3]
 695 001c 8DF80210 		strb	r1, [sp, #2]
 696 0020 ADF80020 		strh	r2, [sp]	@ movhi
 697              		.loc 2 1025 0
 698 0024 0446     		mov	r4, r0
 699              	.LVL68:
 700              		.loc 2 1028 0
 701 0026 1B68     		ldr	r3, [r3]
 702 0028 0422     		movs	r2, #4
 703 002a 6946     		mov	r1, sp
 704 002c 2846     		mov	r0, r5
 705              	.LVL69:
 706 002e 9847     		blx	r3
 707              	.LVL70:
 708              		.loc 2 1029 0
 709 0030 FFF7FEFF 		bl	mic_buffer_ready_reset
 710              	.LVL71:
 711              	.L63:
 712              		.loc 2 1030 0 discriminator 1
 713 0034 FFF7FEFF 		bl	mic_buffer_is_ready
 714              	.LVL72:
 715 0038 0028     		cmp	r0, #0
 716 003a FBD0     		beq	.L63
 717              		.loc 2 1031 0
 718 003c FFF7FEFF 		bl	mic_get_buffer_ptr
 719              	.LVL73:
 720              		.loc 2 1032 0
 721 0040 2B68     		ldr	r3, [r5]
 722 0042 0146     		mov	r1, r0
 723 0044 1B68     		ldr	r3, [r3]
 724 0046 0648     		ldr	r0, .L69+4
 725              	.LVL74:
 726 0048 2246     		mov	r2, r4
 727 004a 9847     		blx	r3
 728              	.LVL75:
 729              		.loc 2 1033 0
 730 004c 019A     		ldr	r2, [sp, #4]
 731 004e 3368     		ldr	r3, [r6]
 732 0050 9A42     		cmp	r2, r3
 733 0052 01D1     		bne	.L68
 734 0054 02B0     		add	sp, sp, #8
 735              		.cfi_remember_state
 736              		.cfi_def_cfa_offset 16
 737              		@ sp needed
 738 0056 70BD     		pop	{r4, r5, r6, pc}
 739              	.L68:
 740              		.cfi_restore_state
 741 0058 FFF7FEFF 		bl	__stack_chk_fail
ARM GAS  /tmp/ccHKfm7W.s 			page 14


 742              	.LVL76:
 743              	.L70:
 744              		.align	2
 745              	.L69:
 746 005c 00000000 		.word	__stack_chk_guard
 747 0060 00000000 		.word	SDU1
 748              		.cfi_endproc
 749              	.LFE307:
 750              		.size	cmd_mic_data, .-cmd_mic_data
 751              		.section	.text.cmd_audio_stop,"ax",%progbits
 752              		.align	1
 753              		.p2align 4,,15
 754              		.syntax unified
 755              		.thumb
 756              		.thumb_func
 757              		.fpu fpv4-sp-d16
 758              		.type	cmd_audio_stop, %function
 759              	cmd_audio_stop:
 760              	.LFB305:
 761              		.loc 2 1001 0
 762              		.cfi_startproc
 763              		@ args = 0, pretend = 0, frame = 8
 764              		@ frame_needed = 0, uses_anonymous_args = 0
 765              	.LVL77:
 766 0000 00B5     		push	{lr}
 767              		.cfi_def_cfa_offset 4
 768              		.cfi_offset 14, -4
 769 0002 074B     		ldr	r3, .L76
 770 0004 83B0     		sub	sp, sp, #12
 771              		.cfi_def_cfa_offset 16
 772              		.loc 2 1001 0
 773 0006 1A68     		ldr	r2, [r3]
 774              	.LVL78:
 775 0008 0192     		str	r2, [sp, #4]
 776              		.loc 2 1005 0
 777 000a 019A     		ldr	r2, [sp, #4]
 778 000c 1B68     		ldr	r3, [r3]
 779 000e 9A42     		cmp	r2, r3
 780 0010 04D1     		bne	.L75
 781              		.loc 2 1006 0
 782 0012 03B0     		add	sp, sp, #12
 783              		.cfi_remember_state
 784              		.cfi_def_cfa_offset 4
 785              		@ sp needed
 786 0014 5DF804EB 		ldr	lr, [sp], #4
 787              		.cfi_restore 14
 788              		.cfi_def_cfa_offset 0
 789              		.loc 2 1005 0
 790 0018 FFF7FEBF 		b	dac_stop
 791              	.LVL79:
 792              	.L75:
 793              		.cfi_restore_state
 794 001c FFF7FEFF 		bl	__stack_chk_fail
 795              	.LVL80:
 796              	.L77:
 797              		.align	2
 798              	.L76:
ARM GAS  /tmp/ccHKfm7W.s 			page 15


 799 0020 00000000 		.word	__stack_chk_guard
 800              		.cfi_endproc
 801              	.LFE305:
 802              		.size	cmd_audio_stop, .-cmd_audio_stop
 803              		.section	.text.cmd_get_battery,"ax",%progbits
 804              		.align	1
 805              		.p2align 4,,15
 806              		.syntax unified
 807              		.thumb
 808              		.thumb_func
 809              		.fpu fpv4-sp-d16
 810              		.type	cmd_get_battery, %function
 811              	cmd_get_battery:
 812              	.LFB303:
 813              		.loc 2 981 0
 814              		.cfi_startproc
 815              		@ args = 0, pretend = 0, frame = 8
 816              		@ frame_needed = 0, uses_anonymous_args = 0
 817              	.LVL81:
 818 0000 30B5     		push	{r4, r5, lr}
 819              		.cfi_def_cfa_offset 12
 820              		.cfi_offset 4, -12
 821              		.cfi_offset 5, -8
 822              		.cfi_offset 14, -4
 823 0002 0A4C     		ldr	r4, .L83
 824 0004 83B0     		sub	sp, sp, #12
 825              		.cfi_def_cfa_offset 24
 826              		.loc 2 981 0
 827 0006 2368     		ldr	r3, [r4]
 828 0008 0193     		str	r3, [sp, #4]
 829 000a 0546     		mov	r5, r0
 830              		.loc 2 985 0
 831 000c FFF7FEFF 		bl	get_battery_raw
 832              	.LVL82:
 833 0010 0199     		ldr	r1, [sp, #4]
 834 0012 2368     		ldr	r3, [r4]
 835 0014 9942     		cmp	r1, r3
 836 0016 07D1     		bne	.L82
 837 0018 0549     		ldr	r1, .L83+4
 838 001a 0246     		mov	r2, r0
 839 001c 2846     		mov	r0, r5
 840              		.loc 2 986 0
 841 001e 03B0     		add	sp, sp, #12
 842              		.cfi_remember_state
 843              		.cfi_def_cfa_offset 12
 844              		@ sp needed
 845 0020 BDE83040 		pop	{r4, r5, lr}
 846              		.cfi_restore 14
 847              		.cfi_restore 5
 848              		.cfi_restore 4
 849              		.cfi_def_cfa_offset 0
 850              	.LVL83:
 851              		.loc 2 985 0
 852 0024 FFF7FEBF 		b	chprintf
 853              	.LVL84:
 854              	.L82:
 855              		.cfi_restore_state
ARM GAS  /tmp/ccHKfm7W.s 			page 16


 856 0028 FFF7FEFF 		bl	__stack_chk_fail
 857              	.LVL85:
 858              	.L84:
 859              		.align	2
 860              	.L83:
 861 002c 00000000 		.word	__stack_chk_guard
 862 0030 00000000 		.word	.LC18
 863              		.cfi_endproc
 864              	.LFE303:
 865              		.size	cmd_get_battery, .-cmd_get_battery
 866              		.section	.text.cmd_cam_capture,"ax",%progbits
 867              		.align	1
 868              		.p2align 4,,15
 869              		.syntax unified
 870              		.thumb
 871              		.thumb_func
 872              		.fpu fpv4-sp-d16
 873              		.type	cmd_cam_capture, %function
 874              	cmd_cam_capture:
 875              	.LFB299:
 876              		.loc 2 907 0
 877              		.cfi_startproc
 878              		@ args = 0, pretend = 0, frame = 8
 879              		@ frame_needed = 0, uses_anonymous_args = 0
 880              	.LVL86:
 881 0000 10B5     		push	{r4, lr}
 882              		.cfi_def_cfa_offset 8
 883              		.cfi_offset 4, -8
 884              		.cfi_offset 14, -4
 885 0002 0A4C     		ldr	r4, .L90
 886 0004 82B0     		sub	sp, sp, #8
 887              		.cfi_def_cfa_offset 16
 888              		.loc 2 907 0
 889 0006 2368     		ldr	r3, [r4]
 890 0008 0193     		str	r3, [sp, #4]
 891              		.loc 2 911 0
 892 000a FFF7FEFF 		bl	spi_comm_suspend
 893              	.LVL87:
 894              		.loc 2 912 0
 895 000e FFF7FEFF 		bl	dcmi_capture_start
 896              	.LVL88:
 897              		.loc 2 913 0
 898 0012 FFF7FEFF 		bl	wait_image_ready
 899              	.LVL89:
 900              		.loc 2 914 0
 901 0016 019A     		ldr	r2, [sp, #4]
 902 0018 2368     		ldr	r3, [r4]
 903 001a 9A42     		cmp	r2, r3
 904 001c 04D1     		bne	.L89
 905              		.loc 2 915 0
 906 001e 02B0     		add	sp, sp, #8
 907              		.cfi_remember_state
 908              		.cfi_def_cfa_offset 8
 909              		@ sp needed
 910 0020 BDE81040 		pop	{r4, lr}
 911              		.cfi_restore 14
 912              		.cfi_restore 4
ARM GAS  /tmp/ccHKfm7W.s 			page 17


 913              		.cfi_def_cfa_offset 0
 914              		.loc 2 914 0
 915 0024 FFF7FEBF 		b	spi_comm_resume
 916              	.LVL90:
 917              	.L89:
 918              		.cfi_restore_state
 919 0028 FFF7FEFF 		bl	__stack_chk_fail
 920              	.LVL91:
 921              	.L91:
 922              		.align	2
 923              	.L90:
 924 002c 00000000 		.word	__stack_chk_guard
 925              		.cfi_endproc
 926              	.LFE299:
 927              		.size	cmd_cam_capture, .-cmd_cam_capture
 928              		.section	.text.cmd_cam_dcmi_unprepare,"ax",%progbits
 929              		.align	1
 930              		.p2align 4,,15
 931              		.syntax unified
 932              		.thumb
 933              		.thumb_func
 934              		.fpu fpv4-sp-d16
 935              		.type	cmd_cam_dcmi_unprepare, %function
 936              	cmd_cam_dcmi_unprepare:
 937              	.LFB298:
 938              		.loc 2 896 0
 939              		.cfi_startproc
 940              		@ args = 0, pretend = 0, frame = 8
 941              		@ frame_needed = 0, uses_anonymous_args = 0
 942              	.LVL92:
 943 0000 30B5     		push	{r4, r5, lr}
 944              		.cfi_def_cfa_offset 12
 945              		.cfi_offset 4, -12
 946              		.cfi_offset 5, -8
 947              		.cfi_offset 14, -4
 948 0002 0A4C     		ldr	r4, .L97
 949 0004 83B0     		sub	sp, sp, #12
 950              		.cfi_def_cfa_offset 24
 951              		.loc 2 896 0
 952 0006 2368     		ldr	r3, [r4]
 953 0008 0193     		str	r3, [sp, #4]
 954 000a 0546     		mov	r5, r0
 955              		.loc 2 900 0
 956 000c FFF7FEFF 		bl	dcmi_unprepare
 957              	.LVL93:
 958              		.loc 2 902 0
 959 0010 019A     		ldr	r2, [sp, #4]
 960 0012 2368     		ldr	r3, [r4]
 961 0014 9A42     		cmp	r2, r3
 962 0016 06D1     		bne	.L96
 963 0018 0549     		ldr	r1, .L97+4
 964 001a 2846     		mov	r0, r5
 965              		.loc 2 904 0
 966 001c 03B0     		add	sp, sp, #12
 967              		.cfi_remember_state
 968              		.cfi_def_cfa_offset 12
 969              		@ sp needed
ARM GAS  /tmp/ccHKfm7W.s 			page 18


 970 001e BDE83040 		pop	{r4, r5, lr}
 971              		.cfi_restore 14
 972              		.cfi_restore 5
 973              		.cfi_restore 4
 974              		.cfi_def_cfa_offset 0
 975              	.LVL94:
 976              		.loc 2 902 0
 977 0022 FFF7FEBF 		b	chprintf
 978              	.LVL95:
 979              	.L96:
 980              		.cfi_restore_state
 981 0026 FFF7FEFF 		bl	__stack_chk_fail
 982              	.LVL96:
 983              	.L98:
 984 002a 00BF     		.align	2
 985              	.L97:
 986 002c 00000000 		.word	__stack_chk_guard
 987 0030 00000000 		.word	.LC19
 988              		.cfi_endproc
 989              	.LFE298:
 990              		.size	cmd_cam_dcmi_unprepare, .-cmd_cam_dcmi_unprepare
 991              		.section	.text.cmd_config_erase,"ax",%progbits
 992              		.align	1
 993              		.p2align 4,,15
 994              		.syntax unified
 995              		.thumb
 996              		.thumb_func
 997              		.fpu fpv4-sp-d16
 998              		.type	cmd_config_erase, %function
 999              	cmd_config_erase:
 1000              	.LFB285:
 1001              		.loc 2 616 0
 1002              		.cfi_startproc
 1003              		@ args = 0, pretend = 0, frame = 8
 1004              		@ frame_needed = 0, uses_anonymous_args = 0
 1005              	.LVL97:
 1006 0000 00B5     		push	{lr}
 1007              		.cfi_def_cfa_offset 4
 1008              		.cfi_offset 14, -4
 1009 0002 084B     		ldr	r3, .L104
 1010 0004 83B0     		sub	sp, sp, #12
 1011              		.cfi_def_cfa_offset 16
 1012              		.loc 2 616 0
 1013 0006 1A68     		ldr	r2, [r3]
 1014              	.LVL98:
 1015 0008 0192     		str	r2, [sp, #4]
 1016              		.loc 2 622 0
 1017 000a 019A     		ldr	r2, [sp, #4]
 1018 000c 1B68     		ldr	r3, [r3]
 1019 000e 9A42     		cmp	r2, r3
 1020 0010 05D1     		bne	.L103
 1021 0012 0548     		ldr	r0, .L104+4
 1022              	.LVL99:
 1023              		.loc 2 623 0
 1024 0014 03B0     		add	sp, sp, #12
 1025              		.cfi_remember_state
 1026              		.cfi_def_cfa_offset 4
ARM GAS  /tmp/ccHKfm7W.s 			page 19


 1027              		@ sp needed
 1028 0016 5DF804EB 		ldr	lr, [sp], #4
 1029              		.cfi_restore 14
 1030              		.cfi_def_cfa_offset 0
 1031              		.loc 2 622 0
 1032 001a FFF7FEBF 		b	config_erase
 1033              	.LVL100:
 1034              	.L103:
 1035              		.cfi_restore_state
 1036 001e FFF7FEFF 		bl	__stack_chk_fail
 1037              	.LVL101:
 1038              	.L105:
 1039 0022 00BF     		.align	2
 1040              	.L104:
 1041 0024 00000000 		.word	__stack_chk_guard
 1042 0028 00000000 		.word	_config_start
 1043              		.cfi_endproc
 1044              	.LFE285:
 1045              		.size	cmd_config_erase, .-cmd_config_erase
 1046              		.section	.text.cmd_config_load,"ax",%progbits
 1047              		.align	1
 1048              		.p2align 4,,15
 1049              		.syntax unified
 1050              		.thumb
 1051              		.thumb_func
 1052              		.fpu fpv4-sp-d16
 1053              		.type	cmd_config_load, %function
 1054              	cmd_config_load:
 1055              	.LFB287:
 1056              		.loc 2 647 0
 1057              		.cfi_startproc
 1058              		@ args = 0, pretend = 0, frame = 8
 1059              		@ frame_needed = 0, uses_anonymous_args = 0
 1060              	.LVL102:
 1061 0000 30B5     		push	{r4, r5, lr}
 1062              		.cfi_def_cfa_offset 12
 1063              		.cfi_offset 4, -12
 1064              		.cfi_offset 5, -8
 1065              		.cfi_offset 14, -4
 1066 0002 104C     		ldr	r4, .L115
 1067              		.loc 2 653 0
 1068 0004 1049     		ldr	r1, .L115+4
 1069              	.LVL103:
 1070              		.loc 2 647 0
 1071 0006 2368     		ldr	r3, [r4]
 1072 0008 83B0     		sub	sp, sp, #12
 1073              		.cfi_def_cfa_offset 24
 1074              		.loc 2 647 0
 1075 000a 0546     		mov	r5, r0
 1076              		.loc 2 653 0
 1077 000c 0F48     		ldr	r0, .L115+8
 1078              	.LVL104:
 1079              		.loc 2 647 0
 1080 000e 0193     		str	r3, [sp, #4]
 1081              		.loc 2 653 0
 1082 0010 FFF7FEFF 		bl	config_load
 1083              	.LVL105:
ARM GAS  /tmp/ccHKfm7W.s 			page 20


 1084              		.loc 2 656 0
 1085 0014 019A     		ldr	r2, [sp, #4]
 1086 0016 2368     		ldr	r3, [r4]
 1087              		.loc 2 655 0
 1088 0018 40B9     		cbnz	r0, .L114
 1089              		.loc 2 658 0
 1090 001a 9A42     		cmp	r2, r3
 1091 001c 0FD1     		bne	.L113
 1092 001e 0C49     		ldr	r1, .L115+12
 1093 0020 2846     		mov	r0, r5
 1094              	.LVL106:
 1095              		.loc 2 660 0
 1096 0022 03B0     		add	sp, sp, #12
 1097              		.cfi_remember_state
 1098              		.cfi_def_cfa_offset 12
 1099              		@ sp needed
 1100 0024 BDE83040 		pop	{r4, r5, lr}
 1101              		.cfi_restore 14
 1102              		.cfi_restore 5
 1103              		.cfi_restore 4
 1104              		.cfi_def_cfa_offset 0
 1105              	.LVL107:
 1106              		.loc 2 658 0
 1107 0028 FFF7FEBF 		b	chprintf
 1108              	.LVL108:
 1109              	.L114:
 1110              		.cfi_restore_state
 1111              		.loc 2 656 0
 1112 002c 9A42     		cmp	r2, r3
 1113 002e 06D1     		bne	.L113
 1114 0030 0849     		ldr	r1, .L115+16
 1115 0032 2846     		mov	r0, r5
 1116              	.LVL109:
 1117              		.loc 2 660 0
 1118 0034 03B0     		add	sp, sp, #12
 1119              		.cfi_remember_state
 1120              		.cfi_def_cfa_offset 12
 1121              		@ sp needed
 1122 0036 BDE83040 		pop	{r4, r5, lr}
 1123              		.cfi_restore 14
 1124              		.cfi_restore 5
 1125              		.cfi_restore 4
 1126              		.cfi_def_cfa_offset 0
 1127              	.LVL110:
 1128              		.loc 2 658 0
 1129 003a FFF7FEBF 		b	chprintf
 1130              	.LVL111:
 1131              	.L113:
 1132              		.cfi_restore_state
 1133 003e FFF7FEFF 		bl	__stack_chk_fail
 1134              	.LVL112:
 1135              	.L116:
 1136 0042 00BF     		.align	2
 1137              	.L115:
 1138 0044 00000000 		.word	__stack_chk_guard
 1139 0048 00000000 		.word	_config_start
 1140 004c 00000000 		.word	parameter_root
ARM GAS  /tmp/ccHKfm7W.s 			page 21


 1141 0050 08000000 		.word	.LC21
 1142 0054 00000000 		.word	.LC20
 1143              		.cfi_endproc
 1144              	.LFE287:
 1145              		.size	cmd_config_load, .-cmd_config_load
 1146              		.section	.text.cmd_config_save,"ax",%progbits
 1147              		.align	1
 1148              		.p2align 4,,15
 1149              		.syntax unified
 1150              		.thumb
 1151              		.thumb_func
 1152              		.fpu fpv4-sp-d16
 1153              		.type	cmd_config_save, %function
 1154              	cmd_config_save:
 1155              	.LFB286:
 1156              		.loc 2 626 0
 1157              		.cfi_startproc
 1158              		@ args = 0, pretend = 0, frame = 8
 1159              		@ frame_needed = 0, uses_anonymous_args = 0
 1160              	.LVL113:
 1161 0000 70B5     		push	{r4, r5, r6, lr}
 1162              		.cfi_def_cfa_offset 16
 1163              		.cfi_offset 4, -16
 1164              		.cfi_offset 5, -12
 1165              		.cfi_offset 6, -8
 1166              		.cfi_offset 14, -4
 1167              		.loc 2 630 0
 1168 0002 1349     		ldr	r1, .L126
 1169              	.LVL114:
 1170 0004 134C     		ldr	r4, .L126+4
 1171              		.loc 2 626 0
 1172 0006 144D     		ldr	r5, .L126+8
 1173              		.loc 2 634 0
 1174 0008 144A     		ldr	r2, .L126+12
 1175              	.LVL115:
 1176              		.loc 2 626 0
 1177 000a 2B68     		ldr	r3, [r5]
 1178 000c 82B0     		sub	sp, sp, #8
 1179              		.cfi_def_cfa_offset 24
 1180              		.loc 2 634 0
 1181 000e 091B     		subs	r1, r1, r4
 1182              		.loc 2 626 0
 1183 0010 0646     		mov	r6, r0
 1184              		.loc 2 634 0
 1185 0012 2046     		mov	r0, r4
 1186              	.LVL116:
 1187              		.loc 2 626 0
 1188 0014 0193     		str	r3, [sp, #4]
 1189              	.LVL117:
 1190              		.loc 2 634 0
 1191 0016 FFF7FEFF 		bl	config_save
 1192              	.LVL118:
 1193              		.loc 2 637 0
 1194 001a 2146     		mov	r1, r4
 1195 001c 0F48     		ldr	r0, .L126+12
 1196 001e FFF7FEFF 		bl	config_load
 1197              	.LVL119:
ARM GAS  /tmp/ccHKfm7W.s 			page 22


 1198              		.loc 2 640 0
 1199 0022 019A     		ldr	r2, [sp, #4]
 1200 0024 2B68     		ldr	r3, [r5]
 1201              		.loc 2 639 0
 1202 0026 40B9     		cbnz	r0, .L125
 1203              		.loc 2 642 0
 1204 0028 9A42     		cmp	r2, r3
 1205 002a 0FD1     		bne	.L124
 1206 002c 0C49     		ldr	r1, .L126+16
 1207 002e 3046     		mov	r0, r6
 1208              	.LVL120:
 1209              		.loc 2 644 0
 1210 0030 02B0     		add	sp, sp, #8
 1211              		.cfi_remember_state
 1212              		.cfi_def_cfa_offset 16
 1213              		@ sp needed
 1214 0032 BDE87040 		pop	{r4, r5, r6, lr}
 1215              		.cfi_restore 14
 1216              		.cfi_restore 6
 1217              		.cfi_restore 5
 1218              		.cfi_restore 4
 1219              		.cfi_def_cfa_offset 0
 1220              	.LVL121:
 1221              		.loc 2 642 0
 1222 0036 FFF7FEBF 		b	chprintf
 1223              	.LVL122:
 1224              	.L125:
 1225              		.cfi_restore_state
 1226              		.loc 2 640 0
 1227 003a 9A42     		cmp	r2, r3
 1228 003c 06D1     		bne	.L124
 1229 003e 0949     		ldr	r1, .L126+20
 1230 0040 3046     		mov	r0, r6
 1231              	.LVL123:
 1232              		.loc 2 644 0
 1233 0042 02B0     		add	sp, sp, #8
 1234              		.cfi_remember_state
 1235              		.cfi_def_cfa_offset 16
 1236              		@ sp needed
 1237 0044 BDE87040 		pop	{r4, r5, r6, lr}
 1238              		.cfi_restore 14
 1239              		.cfi_restore 6
 1240              		.cfi_restore 5
 1241              		.cfi_restore 4
 1242              		.cfi_def_cfa_offset 0
 1243              	.LVL124:
 1244              		.loc 2 642 0
 1245 0048 FFF7FEBF 		b	chprintf
 1246              	.LVL125:
 1247              	.L124:
 1248              		.cfi_restore_state
 1249 004c FFF7FEFF 		bl	__stack_chk_fail
 1250              	.LVL126:
 1251              	.L127:
 1252              		.align	2
 1253              	.L126:
 1254 0050 00000000 		.word	_config_end
ARM GAS  /tmp/ccHKfm7W.s 			page 23


 1255 0054 00000000 		.word	_config_start
 1256 0058 00000000 		.word	__stack_chk_guard
 1257 005c 00000000 		.word	parameter_root
 1258 0060 00000000 		.word	.LC22
 1259 0064 00000000 		.word	.LC20
 1260              		.cfi_endproc
 1261              	.LFE286:
 1262              		.size	cmd_config_save, .-cmd_config_save
 1263              		.section	.text.cmd_config_set,"ax",%progbits
 1264              		.align	1
 1265              		.p2align 4,,15
 1266              		.syntax unified
 1267              		.thumb
 1268              		.thumb_func
 1269              		.fpu fpv4-sp-d16
 1270              		.type	cmd_config_set, %function
 1271              	cmd_config_set:
 1272              	.LFB284:
 1273              		.loc 2 566 0
 1274              		.cfi_startproc
 1275              		@ args = 0, pretend = 0, frame = 8
 1276              		@ frame_needed = 0, uses_anonymous_args = 0
 1277              	.LVL127:
 1278 0000 F0B5     		push	{r4, r5, r6, r7, lr}
 1279              		.cfi_def_cfa_offset 20
 1280              		.cfi_offset 4, -20
 1281              		.cfi_offset 5, -16
 1282              		.cfi_offset 6, -12
 1283              		.cfi_offset 7, -8
 1284              		.cfi_offset 14, -4
 1285 0002 2D4C     		ldr	r4, .L147
 1286 0004 83B0     		sub	sp, sp, #12
 1287              		.cfi_def_cfa_offset 32
 1288              		.loc 2 566 0
 1289 0006 2368     		ldr	r3, [r4]
 1290 0008 0193     		str	r3, [sp, #4]
 1291              		.loc 2 570 0
 1292 000a 0229     		cmp	r1, #2
 1293 000c 08D0     		beq	.L129
 1294              		.loc 2 571 0
 1295 000e 2B49     		ldr	r1, .L147+4
 1296              	.LVL128:
 1297 0010 FFF7FEFF 		bl	chprintf
 1298              	.LVL129:
 1299              	.L128:
 1300              		.loc 2 613 0
 1301 0014 019A     		ldr	r2, [sp, #4]
 1302 0016 2368     		ldr	r3, [r4]
 1303 0018 9A42     		cmp	r2, r3
 1304 001a 4BD1     		bne	.L142
 1305 001c 03B0     		add	sp, sp, #12
 1306              		.cfi_remember_state
 1307              		.cfi_def_cfa_offset 20
 1308              		@ sp needed
 1309 001e F0BD     		pop	{r4, r5, r6, r7, pc}
 1310              	.LVL130:
 1311              	.L129:
ARM GAS  /tmp/ccHKfm7W.s 			page 24


 1312              		.cfi_restore_state
 1313 0020 0646     		mov	r6, r0
 1314              		.loc 2 575 0
 1315 0022 1168     		ldr	r1, [r2]
 1316              	.LVL131:
 1317 0024 2648     		ldr	r0, .L147+8
 1318              	.LVL132:
 1319 0026 1546     		mov	r5, r2
 1320 0028 FFF7FEFF 		bl	parameter_find
 1321              	.LVL133:
 1322              		.loc 2 577 0
 1323 002c 0746     		mov	r7, r0
 1324 002e 60B3     		cbz	r0, .L143
 1325              		.loc 2 582 0
 1326 0030 837B     		ldrb	r3, [r0, #14]	@ zero_extendqisi2
 1327 0032 032B     		cmp	r3, #3
 1328 0034 0DD0     		beq	.L133
 1329 0036 042B     		cmp	r3, #4
 1330 0038 07D0     		beq	.L134
 1331 003a 022B     		cmp	r3, #2
 1332 003c 15D0     		beq	.L144
 1333              		.loc 2 610 0
 1334 003e 0268     		ldr	r2, [r0]
 1335 0040 2049     		ldr	r1, .L147+12
 1336 0042 3046     		mov	r0, r6
 1337              	.LVL134:
 1338 0044 FFF7FEFF 		bl	chprintf
 1339              	.LVL135:
 1340              		.loc 2 611 0
 1341 0048 E4E7     		b	.L128
 1342              	.LVL136:
 1343              	.L134:
 1344              		.loc 2 603 0
 1345 004a 6968     		ldr	r1, [r5, #4]
 1346 004c FFF7FEFF 		bl	parameter_string_set
 1347              	.LVL137:
 1348 0050 E0E7     		b	.L128
 1349              	.LVL138:
 1350              	.L133:
 1351              		.loc 2 584 0
 1352 0052 6868     		ldr	r0, [r5, #4]
 1353              	.LVL139:
 1354 0054 1C49     		ldr	r1, .L147+16
 1355 0056 6A46     		mov	r2, sp
 1356 0058 FFF7FEFF 		bl	sscanf
 1357              	.LVL140:
 1358 005c 0128     		cmp	r0, #1
 1359 005e 1AD0     		beq	.L145
 1360              		.loc 2 587 0
 1361 0060 3046     		mov	r0, r6
 1362 0062 1A49     		ldr	r1, .L147+20
 1363 0064 FFF7FEFF 		bl	chprintf
 1364              	.LVL141:
 1365 0068 D4E7     		b	.L128
 1366              	.LVL142:
 1367              	.L144:
 1368              		.loc 2 592 0
ARM GAS  /tmp/ccHKfm7W.s 			page 25


 1369 006a 6D68     		ldr	r5, [r5, #4]
 1370              	.LVL143:
 1371 006c 1849     		ldr	r1, .L147+24
 1372 006e 2846     		mov	r0, r5
 1373              	.LVL144:
 1374 0070 FFF7FEFF 		bl	strcmp
 1375              	.LVL145:
 1376 0074 A0B1     		cbz	r0, .L146
 1377              		.loc 2 594 0
 1378 0076 2846     		mov	r0, r5
 1379 0078 1649     		ldr	r1, .L147+28
 1380 007a FFF7FEFF 		bl	strcmp
 1381              	.LVL146:
 1382 007e A0B9     		cbnz	r0, .L138
 1383              		.loc 2 595 0
 1384 0080 0146     		mov	r1, r0
 1385 0082 3846     		mov	r0, r7
 1386 0084 FFF7FEFF 		bl	parameter_boolean_set
 1387              	.LVL147:
 1388 0088 C4E7     		b	.L128
 1389              	.LVL148:
 1390              	.L143:
 1391              		.loc 2 578 0
 1392 008a 2A68     		ldr	r2, [r5]
 1393 008c 1249     		ldr	r1, .L147+32
 1394 008e 3046     		mov	r0, r6
 1395              	.LVL149:
 1396 0090 FFF7FEFF 		bl	chprintf
 1397              	.LVL150:
 1398              		.loc 2 579 0
 1399 0094 BEE7     		b	.L128
 1400              	.L145:
 1401              		.loc 2 585 0
 1402 0096 3846     		mov	r0, r7
 1403 0098 0099     		ldr	r1, [sp]
 1404 009a FFF7FEFF 		bl	parameter_integer_set
 1405              	.LVL151:
 1406 009e B9E7     		b	.L128
 1407              	.LVL152:
 1408              	.L146:
 1409              		.loc 2 593 0
 1410 00a0 3846     		mov	r0, r7
 1411 00a2 0121     		movs	r1, #1
 1412 00a4 FFF7FEFF 		bl	parameter_boolean_set
 1413              	.LVL153:
 1414 00a8 B4E7     		b	.L128
 1415              	.L138:
 1416              		.loc 2 597 0
 1417 00aa 3046     		mov	r0, r6
 1418 00ac 0B49     		ldr	r1, .L147+36
 1419 00ae FFF7FEFF 		bl	chprintf
 1420              	.LVL154:
 1421 00b2 AFE7     		b	.L128
 1422              	.LVL155:
 1423              	.L142:
 1424              		.loc 2 613 0
 1425 00b4 FFF7FEFF 		bl	__stack_chk_fail
ARM GAS  /tmp/ccHKfm7W.s 			page 26


 1426              	.LVL156:
 1427              	.L148:
 1428              		.align	2
 1429              	.L147:
 1430 00b8 00000000 		.word	__stack_chk_guard
 1431 00bc 00000000 		.word	.LC23
 1432 00c0 00000000 		.word	parameter_root
 1433 00c4 C8000000 		.word	.LC30
 1434 00c8 4C000000 		.word	.LC25
 1435 00cc 50000000 		.word	.LC26
 1436 00d0 78000000 		.word	.LC27
 1437 00d4 80000000 		.word	.LC28
 1438 00d8 2C000000 		.word	.LC24
 1439 00dc 88000000 		.word	.LC29
 1440              		.cfi_endproc
 1441              	.LFE284:
 1442              		.size	cmd_config_set, .-cmd_config_set
 1443              		.global	__aeabi_f2d
 1444              		.section	.text.show_config_tree,"ax",%progbits
 1445              		.align	1
 1446              		.p2align 4,,15
 1447              		.syntax unified
 1448              		.thumb
 1449              		.thumb_func
 1450              		.fpu fpv4-sp-d16
 1451              		.type	show_config_tree, %function
 1452              	show_config_tree:
 1453              	.LFB282:
 1454              		.loc 2 503 0
 1455              		.cfi_startproc
 1456              		@ args = 0, pretend = 0, frame = 72
 1457              		@ frame_needed = 0, uses_anonymous_args = 0
 1458              	.LVL157:
 1459 0000 2DE9F04F 		push	{r4, r5, r6, r7, r8, r9, r10, fp, lr}
 1460              		.cfi_def_cfa_offset 36
 1461              		.cfi_offset 4, -36
 1462              		.cfi_offset 5, -32
 1463              		.cfi_offset 6, -28
 1464              		.cfi_offset 7, -24
 1465              		.cfi_offset 8, -20
 1466              		.cfi_offset 9, -16
 1467              		.cfi_offset 10, -12
 1468              		.cfi_offset 11, -8
 1469              		.cfi_offset 14, -4
 1470 0004 DFF854A1 		ldr	r10, .L186+32
 1471 0008 95B0     		sub	sp, sp, #84
 1472              		.cfi_def_cfa_offset 120
 1473              		.loc 2 503 0
 1474 000a DAF80030 		ldr	r3, [r10]
 1475 000e 1393     		str	r3, [sp, #76]
 1476              	.LBB149:
 1477              	.LBB150:
 1478              		.loc 2 497 0
 1479 0010 B2F10008 		subs	r8, r2, #0
 1480              	.LBE150:
 1481              	.LBE149:
 1482              		.loc 2 503 0
ARM GAS  /tmp/ccHKfm7W.s 			page 27


 1483 0014 0446     		mov	r4, r0
 1484              	.LVL158:
 1485 0016 8946     		mov	r9, r1
 1486              	.LBB152:
 1487              	.LBB151:
 1488              		.loc 2 497 0
 1489 0018 08DD     		ble	.L150
 1490              		.loc 2 498 0
 1491 001a 484E     		ldr	r6, .L186
 1492              		.loc 2 497 0
 1493 001c 0025     		movs	r5, #0
 1494              	.LVL159:
 1495              	.L151:
 1496 001e 0135     		adds	r5, r5, #1
 1497              	.LVL160:
 1498              		.loc 2 498 0
 1499 0020 3146     		mov	r1, r6
 1500 0022 2046     		mov	r0, r4
 1501 0024 FFF7FEFF 		bl	chprintf
 1502              	.LVL161:
 1503              		.loc 2 497 0
 1504 0028 A845     		cmp	r8, r5
 1505 002a F8D1     		bne	.L151
 1506              	.LVL162:
 1507              	.L150:
 1508              	.LBE151:
 1509              	.LBE152:
 1510              		.loc 2 508 0
 1511 002c D9F80020 		ldr	r2, [r9]
 1512 0030 4349     		ldr	r1, .L186+4
 1513 0032 2046     		mov	r0, r4
 1514 0034 FFF7FEFF 		bl	chprintf
 1515              	.LVL163:
 1516              		.loc 2 510 0
 1517 0038 D9F81450 		ldr	r5, [r9, #20]
 1518              	.LVL164:
 1519 003c 55B3     		cbz	r5, .L153
 1520              	.LBB153:
 1521              	.LBB154:
 1522              		.loc 2 498 0
 1523 003e 3F4F     		ldr	r7, .L186
 1524              	.L152:
 1525              	.LVL165:
 1526              		.loc 2 497 0
 1527 0040 B8F1000F 		cmp	r8, #0
 1528 0044 0BDB     		blt	.L165
 1529 0046 08F10106 		add	r6, r8, #1
 1530 004a 4FF0000B 		mov	fp, #0
 1531              	.LVL166:
 1532              	.L154:
 1533 004e 0BF1010B 		add	fp, fp, #1
 1534              	.LVL167:
 1535              		.loc 2 498 0
 1536 0052 3946     		mov	r1, r7
 1537 0054 2046     		mov	r0, r4
 1538 0056 FFF7FEFF 		bl	chprintf
 1539              	.LVL168:
ARM GAS  /tmp/ccHKfm7W.s 			page 28


 1540              		.loc 2 497 0
 1541 005a B345     		cmp	fp, r6
 1542 005c F7D1     		bne	.L154
 1543              	.LVL169:
 1544              	.L165:
 1545              	.LBE154:
 1546              	.LBE153:
 1547              		.loc 2 512 0
 1548 005e 2846     		mov	r0, r5
 1549 0060 FFF7FEFF 		bl	parameter_defined
 1550              	.LVL170:
 1551 0064 0028     		cmp	r0, #0
 1552 0066 50D0     		beq	.L155
 1553              		.loc 2 513 0
 1554 0068 AB7B     		ldrb	r3, [r5, #14]	@ zero_extendqisi2
 1555 006a 5A1E     		subs	r2, r3, #1
 1556 006c 032A     		cmp	r2, #3
 1557 006e 52D8     		bhi	.L156
 1558 0070 DFE802F0 		tbb	[pc, r2]
 1559              	.L158:
 1560 0074 3B       		.byte	(.L157-.L158)/2
 1561 0075 2B       		.byte	(.L159-.L158)/2
 1562 0076 20       		.byte	(.L160-.L158)/2
 1563 0077 02       		.byte	(.L161-.L158)/2
 1564              		.p2align 1
 1565              	.L161:
 1566              		.loc 2 527 0
 1567 0078 03A9     		add	r1, sp, #12
 1568 007a 4022     		movs	r2, #64
 1569 007c 2846     		mov	r0, r5
 1570 007e FFF7FEFF 		bl	parameter_string_get
 1571              	.LVL171:
 1572              		.loc 2 528 0
 1573 0082 03AB     		add	r3, sp, #12
 1574 0084 2A68     		ldr	r2, [r5]
 1575 0086 2F49     		ldr	r1, .L186+8
 1576 0088 2046     		mov	r0, r4
 1577 008a FFF7FEFF 		bl	chprintf
 1578              	.LVL172:
 1579              	.L162:
 1580              		.loc 2 510 0 discriminator 2
 1581 008e AD68     		ldr	r5, [r5, #8]
 1582              	.LVL173:
 1583 0090 002D     		cmp	r5, #0
 1584 0092 D5D1     		bne	.L152
 1585              	.L153:
 1586              		.loc 2 540 0
 1587 0094 D9F80C10 		ldr	r1, [r9, #12]
 1588 0098 0029     		cmp	r1, #0
 1589 009a 47D1     		bne	.L183
 1590              	.L166:
 1591              		.loc 2 544 0
 1592 009c D9F81010 		ldr	r1, [r9, #16]
 1593 00a0 0029     		cmp	r1, #0
 1594 00a2 3ED1     		bne	.L184
 1595              	.L149:
 1596              		.loc 2 547 0
ARM GAS  /tmp/ccHKfm7W.s 			page 29


 1597 00a4 139A     		ldr	r2, [sp, #76]
 1598 00a6 DAF80030 		ldr	r3, [r10]
 1599 00aa 9A42     		cmp	r2, r3
 1600 00ac 44D1     		bne	.L185
 1601 00ae 15B0     		add	sp, sp, #84
 1602              		.cfi_remember_state
 1603              		.cfi_def_cfa_offset 36
 1604              		@ sp needed
 1605 00b0 BDE8F08F 		pop	{r4, r5, r6, r7, r8, r9, r10, fp, pc}
 1606              	.LVL174:
 1607              	.L160:
 1608              		.cfi_restore_state
 1609              		.loc 2 519 0
 1610 00b4 2846     		mov	r0, r5
 1611 00b6 2E68     		ldr	r6, [r5]
 1612 00b8 FFF7FEFF 		bl	parameter_integer_get
 1613              	.LVL175:
 1614 00bc 3246     		mov	r2, r6
 1615 00be 0346     		mov	r3, r0
 1616 00c0 2149     		ldr	r1, .L186+12
 1617 00c2 2046     		mov	r0, r4
 1618 00c4 FFF7FEFF 		bl	chprintf
 1619              	.LVL176:
 1620              		.loc 2 520 0
 1621 00c8 E1E7     		b	.L162
 1622              	.L159:
 1623              		.loc 2 523 0
 1624 00ca 2846     		mov	r0, r5
 1625 00cc 2E68     		ldr	r6, [r5]
 1626 00ce FFF7FEFF 		bl	parameter_boolean_get
 1627              	.LVL177:
 1628 00d2 DFF88CC0 		ldr	ip, .L186+36
 1629 00d6 1D4B     		ldr	r3, .L186+16
 1630 00d8 1A49     		ldr	r1, .L186+8
 1631 00da 0028     		cmp	r0, #0
 1632 00dc 18BF     		it	ne
 1633 00de 6346     		movne	r3, ip
 1634 00e0 3246     		mov	r2, r6
 1635 00e2 2046     		mov	r0, r4
 1636 00e4 FFF7FEFF 		bl	chprintf
 1637              	.LVL178:
 1638              		.loc 2 524 0
 1639 00e8 D1E7     		b	.L162
 1640              	.L157:
 1641              		.loc 2 515 0
 1642 00ea 2846     		mov	r0, r5
 1643 00ec 2E68     		ldr	r6, [r5]
 1644 00ee FFF7FEFF 		bl	parameter_scalar_get
 1645              	.LVL179:
 1646 00f2 10EE100A 		vmov	r0, s0
 1647 00f6 FFF7FEFF 		bl	__aeabi_f2d
 1648              	.LVL180:
 1649 00fa 3246     		mov	r2, r6
 1650 00fc CDE90001 		strd	r0, [sp]
 1651 0100 1349     		ldr	r1, .L186+20
 1652 0102 2046     		mov	r0, r4
 1653 0104 FFF7FEFF 		bl	chprintf
ARM GAS  /tmp/ccHKfm7W.s 			page 30


 1654              	.LVL181:
 1655              		.loc 2 516 0
 1656 0108 C1E7     		b	.L162
 1657              	.L155:
 1658              		.loc 2 536 0
 1659 010a 2A68     		ldr	r2, [r5]
 1660 010c 1149     		ldr	r1, .L186+24
 1661 010e 2046     		mov	r0, r4
 1662 0110 FFF7FEFF 		bl	chprintf
 1663              	.LVL182:
 1664 0114 BBE7     		b	.L162
 1665              	.L156:
 1666              		.loc 2 532 0
 1667 0116 2A68     		ldr	r2, [r5]
 1668 0118 0F49     		ldr	r1, .L186+28
 1669 011a 2046     		mov	r0, r4
 1670 011c FFF7FEFF 		bl	chprintf
 1671              	.LVL183:
 1672              		.loc 2 533 0
 1673 0120 B5E7     		b	.L162
 1674              	.L184:
 1675              		.loc 2 545 0
 1676 0122 4246     		mov	r2, r8
 1677 0124 2046     		mov	r0, r4
 1678 0126 FFF76BFF 		bl	show_config_tree
 1679              	.LVL184:
 1680              		.loc 2 547 0
 1681 012a BBE7     		b	.L149
 1682              	.L183:
 1683              		.loc 2 541 0
 1684 012c 08F10102 		add	r2, r8, #1
 1685 0130 2046     		mov	r0, r4
 1686 0132 FFF765FF 		bl	show_config_tree
 1687              	.LVL185:
 1688 0136 B1E7     		b	.L166
 1689              	.L185:
 1690              		.loc 2 547 0
 1691 0138 FFF7FEFF 		bl	__stack_chk_fail
 1692              	.LVL186:
 1693              	.L187:
 1694              		.align	2
 1695              	.L186:
 1696 013c 00000000 		.word	.LC31
 1697 0140 04000000 		.word	.LC32
 1698 0144 24000000 		.word	.LC35
 1699 0148 18000000 		.word	.LC34
 1700 014c 80000000 		.word	.LC28
 1701 0150 0C000000 		.word	.LC33
 1702 0154 30000000 		.word	.LC36
 1703 0158 C8000000 		.word	.LC30
 1704 015c 00000000 		.word	__stack_chk_guard
 1705 0160 78000000 		.word	.LC27
 1706              		.cfi_endproc
 1707              	.LFE282:
 1708              		.size	show_config_tree, .-show_config_tree
 1709              		.section	.text.cmd_config_tree,"ax",%progbits
 1710              		.align	1
ARM GAS  /tmp/ccHKfm7W.s 			page 31


 1711              		.p2align 4,,15
 1712              		.syntax unified
 1713              		.thumb
 1714              		.thumb_func
 1715              		.fpu fpv4-sp-d16
 1716              		.type	cmd_config_tree, %function
 1717              	cmd_config_tree:
 1718              	.LFB283:
 1719              		.loc 2 550 0
 1720              		.cfi_startproc
 1721              		@ args = 0, pretend = 0, frame = 8
 1722              		@ frame_needed = 0, uses_anonymous_args = 0
 1723              	.LVL187:
 1724 0000 30B5     		push	{r4, r5, lr}
 1725              		.cfi_def_cfa_offset 12
 1726              		.cfi_offset 4, -12
 1727              		.cfi_offset 5, -8
 1728              		.cfi_offset 14, -4
 1729 0002 134C     		ldr	r4, .L197
 1730 0004 83B0     		sub	sp, sp, #12
 1731              		.cfi_def_cfa_offset 24
 1732              		.loc 2 550 0
 1733 0006 2368     		ldr	r3, [r4]
 1734 0008 0193     		str	r3, [sp, #4]
 1735              		.loc 2 552 0
 1736 000a 0129     		cmp	r1, #1
 1737              		.loc 2 550 0
 1738 000c 0546     		mov	r5, r0
 1739              		.loc 2 552 0
 1740 000e 0BD0     		beq	.L196
 1741              		.loc 2 553 0
 1742 0010 1049     		ldr	r1, .L197+4
 1743              	.LVL188:
 1744              	.L189:
 1745              		.loc 2 562 0
 1746 0012 019A     		ldr	r2, [sp, #4]
 1747 0014 2368     		ldr	r3, [r4]
 1748 0016 9A42     		cmp	r2, r3
 1749 0018 18D1     		bne	.L195
 1750 001a 2846     		mov	r0, r5
 1751 001c 0022     		movs	r2, #0
 1752              		.loc 2 563 0
 1753 001e 03B0     		add	sp, sp, #12
 1754              		.cfi_remember_state
 1755              		.cfi_def_cfa_offset 12
 1756              		@ sp needed
 1757 0020 BDE83040 		pop	{r4, r5, lr}
 1758              		.cfi_restore 14
 1759              		.cfi_restore 5
 1760              		.cfi_restore 4
 1761              		.cfi_def_cfa_offset 0
 1762              	.LVL189:
 1763              		.loc 2 562 0
 1764 0024 FFF7FEBF 		b	show_config_tree
 1765              	.LVL190:
 1766              	.L196:
 1767              		.cfi_restore_state
ARM GAS  /tmp/ccHKfm7W.s 			page 32


 1768              		.loc 2 555 0
 1769 0028 1168     		ldr	r1, [r2]
 1770              	.LVL191:
 1771 002a 0A48     		ldr	r0, .L197+4
 1772              	.LVL192:
 1773 002c FFF7FEFF 		bl	parameter_namespace_find
 1774              	.LVL193:
 1775              		.loc 2 556 0
 1776 0030 0146     		mov	r1, r0
 1777 0032 0028     		cmp	r0, #0
 1778 0034 EDD1     		bne	.L189
 1779              		.loc 2 557 0
 1780 0036 019A     		ldr	r2, [sp, #4]
 1781 0038 2368     		ldr	r3, [r4]
 1782 003a 9A42     		cmp	r2, r3
 1783 003c 06D1     		bne	.L195
 1784 003e 0649     		ldr	r1, .L197+8
 1785 0040 2846     		mov	r0, r5
 1786              	.LVL194:
 1787              		.loc 2 563 0
 1788 0042 03B0     		add	sp, sp, #12
 1789              		.cfi_remember_state
 1790              		.cfi_def_cfa_offset 12
 1791              		@ sp needed
 1792 0044 BDE83040 		pop	{r4, r5, lr}
 1793              		.cfi_restore 14
 1794              		.cfi_restore 5
 1795              		.cfi_restore 4
 1796              		.cfi_def_cfa_offset 0
 1797              	.LVL195:
 1798              		.loc 2 557 0
 1799 0048 FFF7FEBF 		b	chprintf
 1800              	.LVL196:
 1801              	.L195:
 1802              		.cfi_restore_state
 1803              		.loc 2 562 0
 1804 004c FFF7FEFF 		bl	__stack_chk_fail
 1805              	.LVL197:
 1806              	.L198:
 1807              		.align	2
 1808              	.L197:
 1809 0050 00000000 		.word	__stack_chk_guard
 1810 0054 00000000 		.word	parameter_root
 1811 0058 00000000 		.word	.LC37
 1812              		.cfi_endproc
 1813              	.LFE283:
 1814              		.size	cmd_config_tree, .-cmd_config_tree
 1815              		.section	.text.cmd_melody_stop,"ax",%progbits
 1816              		.align	1
 1817              		.p2align 4,,15
 1818              		.syntax unified
 1819              		.thumb
 1820              		.thumb_func
 1821              		.fpu fpv4-sp-d16
 1822              		.type	cmd_melody_stop, %function
 1823              	cmd_melody_stop:
 1824              	.LFB274:
ARM GAS  /tmp/ccHKfm7W.s 			page 33


 1825              		.loc 2 344 0
 1826              		.cfi_startproc
 1827              		@ args = 0, pretend = 0, frame = 8
 1828              		@ frame_needed = 0, uses_anonymous_args = 0
 1829              	.LVL198:
 1830 0000 00B5     		push	{lr}
 1831              		.cfi_def_cfa_offset 4
 1832              		.cfi_offset 14, -4
 1833 0002 074B     		ldr	r3, .L204
 1834 0004 83B0     		sub	sp, sp, #12
 1835              		.cfi_def_cfa_offset 16
 1836              		.loc 2 344 0
 1837 0006 1A68     		ldr	r2, [r3]
 1838              	.LVL199:
 1839 0008 0192     		str	r2, [sp, #4]
 1840              		.loc 2 349 0
 1841 000a 019A     		ldr	r2, [sp, #4]
 1842 000c 1B68     		ldr	r3, [r3]
 1843 000e 9A42     		cmp	r2, r3
 1844 0010 04D1     		bne	.L203
 1845              		.loc 2 350 0
 1846 0012 03B0     		add	sp, sp, #12
 1847              		.cfi_remember_state
 1848              		.cfi_def_cfa_offset 4
 1849              		@ sp needed
 1850 0014 5DF804EB 		ldr	lr, [sp], #4
 1851              		.cfi_restore 14
 1852              		.cfi_def_cfa_offset 0
 1853              		.loc 2 349 0
 1854 0018 FFF7FEBF 		b	stopCurrentMelody
 1855              	.LVL200:
 1856              	.L203:
 1857              		.cfi_restore_state
 1858 001c FFF7FEFF 		bl	__stack_chk_fail
 1859              	.LVL201:
 1860              	.L205:
 1861              		.align	2
 1862              	.L204:
 1863 0020 00000000 		.word	__stack_chk_guard
 1864              		.cfi_endproc
 1865              	.LFE274:
 1866              		.size	cmd_melody_stop, .-cmd_melody_stop
 1867              		.section	.text.cmd_sound_file_stop,"ax",%progbits
 1868              		.align	1
 1869              		.p2align 4,,15
 1870              		.syntax unified
 1871              		.thumb
 1872              		.thumb_func
 1873              		.fpu fpv4-sp-d16
 1874              		.type	cmd_sound_file_stop, %function
 1875              	cmd_sound_file_stop:
 1876              	.LFB271:
 1877              		.loc 2 299 0
 1878              		.cfi_startproc
 1879              		@ args = 0, pretend = 0, frame = 8
 1880              		@ frame_needed = 0, uses_anonymous_args = 0
 1881              	.LVL202:
ARM GAS  /tmp/ccHKfm7W.s 			page 34


 1882 0000 00B5     		push	{lr}
 1883              		.cfi_def_cfa_offset 4
 1884              		.cfi_offset 14, -4
 1885 0002 074B     		ldr	r3, .L211
 1886 0004 83B0     		sub	sp, sp, #12
 1887              		.cfi_def_cfa_offset 16
 1888              		.loc 2 299 0
 1889 0006 1A68     		ldr	r2, [r3]
 1890              	.LVL203:
 1891 0008 0192     		str	r2, [sp, #4]
 1892              		.loc 2 304 0
 1893 000a 019A     		ldr	r2, [sp, #4]
 1894 000c 1B68     		ldr	r3, [r3]
 1895 000e 9A42     		cmp	r2, r3
 1896 0010 04D1     		bne	.L210
 1897              		.loc 2 305 0
 1898 0012 03B0     		add	sp, sp, #12
 1899              		.cfi_remember_state
 1900              		.cfi_def_cfa_offset 4
 1901              		@ sp needed
 1902 0014 5DF804EB 		ldr	lr, [sp], #4
 1903              		.cfi_restore 14
 1904              		.cfi_def_cfa_offset 0
 1905              		.loc 2 304 0
 1906 0018 FFF7FEBF 		b	stopCurrentSoundFile
 1907              	.LVL204:
 1908              	.L210:
 1909              		.cfi_restore_state
 1910 001c FFF7FEFF 		bl	__stack_chk_fail
 1911              	.LVL205:
 1912              	.L212:
 1913              		.align	2
 1914              	.L211:
 1915 0020 00000000 		.word	__stack_chk_guard
 1916              		.cfi_endproc
 1917              	.LFE271:
 1918              		.size	cmd_sound_file_stop, .-cmd_sound_file_stop
 1919              		.section	.text.shell_spawn_thd,"ax",%progbits
 1920              		.align	1
 1921              		.p2align 4,,15
 1922              		.syntax unified
 1923              		.thumb
 1924              		.thumb_func
 1925              		.fpu fpv4-sp-d16
 1926              		.type	shell_spawn_thd, %function
 1927              	shell_spawn_thd:
 1928              	.LFB309:
 1929              		.loc 2 1300 0
 1930              		.cfi_startproc
 1931              		@ args = 0, pretend = 0, frame = 8
 1932              		@ frame_needed = 0, uses_anonymous_args = 0
 1933              	.LVL206:
 1934 0000 70B5     		push	{r4, r5, r6, lr}
 1935              		.cfi_def_cfa_offset 16
 1936              		.cfi_offset 4, -16
 1937              		.cfi_offset 5, -12
 1938              		.cfi_offset 6, -8
ARM GAS  /tmp/ccHKfm7W.s 			page 35


 1939              		.cfi_offset 14, -4
 1940 0002 144B     		ldr	r3, .L235
 1941 0004 144D     		ldr	r5, .L235+4
 1942 0006 1B68     		ldr	r3, [r3]
 1943              		.loc 2 1314 0
 1944 0008 144E     		ldr	r6, .L235+8
 1945              		.loc 2 1300 0
 1946 000a 82B0     		sub	sp, sp, #8
 1947              		.cfi_def_cfa_offset 24
 1948              		.loc 2 1302 0
 1949 000c 0024     		movs	r4, #0
 1950              		.loc 2 1300 0
 1951 000e 0193     		str	r3, [sp, #4]
 1952              	.LVL207:
 1953              		.loc 2 1309 0
 1954 0010 FFF7FEFF 		bl	shellInit
 1955              	.LVL208:
 1956              	.L219:
 1957              		.loc 2 1312 0
 1958 0014 7CB1     		cbz	r4, .L214
 1959              		.loc 2 1317 0
 1960 0016 94F82030 		ldrb	r3, [r4, #32]	@ zero_extendqisi2
 1961 001a 0F2B     		cmp	r3, #15
 1962 001c 04D0     		beq	.L234
 1963              	.L216:
 1964              		.loc 2 1322 0
 1965 001e 4FF4FA70 		mov	r0, #500
 1966 0022 FFF7FEFF 		bl	chThdSleep
 1967              	.LVL209:
 1968              		.loc 2 1312 0
 1969 0026 F5E7     		b	.L219
 1970              	.L234:
 1971              		.loc 2 1318 0
 1972 0028 2046     		mov	r0, r4
 1973 002a FFF7FEFF 		bl	chThdRelease
 1974              	.LVL210:
 1975              	.L233:
 1976              		.loc 2 1322 0
 1977 002e 4FF4FA70 		mov	r0, #500
 1978 0032 FFF7FEFF 		bl	chThdSleep
 1979              	.LVL211:
 1980              	.L214:
 1981              		.loc 2 1313 0
 1982 0036 D5F85432 		ldr	r3, [r5, #596]
 1983 003a 1B68     		ldr	r3, [r3]
 1984 003c 1B78     		ldrb	r3, [r3]	@ zero_extendqisi2
 1985 003e 042B     		cmp	r3, #4
 1986 0040 F5D1     		bne	.L233
 1987              		.loc 2 1314 0
 1988 0042 4022     		movs	r2, #64
 1989 0044 40F67811 		movw	r1, #2424
 1990 0048 3046     		mov	r0, r6
 1991 004a FFF7FEFF 		bl	shellCreate
 1992              	.LVL212:
 1993 004e 0446     		mov	r4, r0
 1994              	.LVL213:
 1995 0050 E5E7     		b	.L216
ARM GAS  /tmp/ccHKfm7W.s 			page 36


 1996              	.L236:
 1997 0052 00BF     		.align	2
 1998              	.L235:
 1999 0054 00000000 		.word	__stack_chk_guard
 2000 0058 00000000 		.word	SDU1
 2001 005c 00000000 		.word	.LANCHOR1
 2002              		.cfi_endproc
 2003              	.LFE309:
 2004              		.size	shell_spawn_thd, .-shell_spawn_thd
 2005              		.section	.text.cmd_mkdir,"ax",%progbits
 2006              		.align	1
 2007              		.p2align 4,,15
 2008              		.global	cmd_mkdir
 2009              		.syntax unified
 2010              		.thumb
 2011              		.thumb_func
 2012              		.fpu fpv4-sp-d16
 2013              		.type	cmd_mkdir, %function
 2014              	cmd_mkdir:
 2015              	.LFB266:
 2016              		.loc 2 158 0
 2017              		.cfi_startproc
 2018              		@ args = 0, pretend = 0, frame = 8
 2019              		@ frame_needed = 0, uses_anonymous_args = 0
 2020              	.LVL214:
 2021 0000 F0B5     		push	{r4, r5, r6, r7, lr}
 2022              		.cfi_def_cfa_offset 20
 2023              		.cfi_offset 4, -20
 2024              		.cfi_offset 5, -16
 2025              		.cfi_offset 6, -12
 2026              		.cfi_offset 7, -8
 2027              		.cfi_offset 14, -4
 2028 0002 1C4C     		ldr	r4, .L248
 2029 0004 83B0     		sub	sp, sp, #12
 2030              		.cfi_def_cfa_offset 32
 2031              		.loc 2 158 0
 2032 0006 2368     		ldr	r3, [r4]
 2033 0008 0193     		str	r3, [sp, #4]
 2034              		.loc 2 160 0
 2035 000a 0129     		cmp	r1, #1
 2036              		.loc 2 158 0
 2037 000c 0546     		mov	r5, r0
 2038              		.loc 2 160 0
 2039 000e 0DD0     		beq	.L238
 2040              		.loc 2 161 0
 2041 0010 1949     		ldr	r1, .L248+4
 2042              	.LVL215:
 2043 0012 FFF7FEFF 		bl	chprintf
 2044              	.LVL216:
 2045              		.loc 2 162 0
 2046 0016 019A     		ldr	r2, [sp, #4]
 2047 0018 2368     		ldr	r3, [r4]
 2048 001a 9A42     		cmp	r2, r3
 2049 001c 28D1     		bne	.L246
 2050 001e 1749     		ldr	r1, .L248+8
 2051 0020 2846     		mov	r0, r5
 2052              		.loc 2 180 0
ARM GAS  /tmp/ccHKfm7W.s 			page 37


 2053 0022 03B0     		add	sp, sp, #12
 2054              		.cfi_remember_state
 2055              		.cfi_def_cfa_offset 20
 2056              		@ sp needed
 2057 0024 BDE8F040 		pop	{r4, r5, r6, r7, lr}
 2058              		.cfi_restore 14
 2059              		.cfi_restore 7
 2060              		.cfi_restore 6
 2061              		.cfi_restore 5
 2062              		.cfi_restore 4
 2063              		.cfi_def_cfa_offset 0
 2064              	.LVL217:
 2065              		.loc 2 162 0
 2066 0028 FFF7FEBF 		b	chprintf
 2067              	.LVL218:
 2068              	.L238:
 2069              		.cfi_restore_state
 2070              		.loc 2 168 0
 2071 002c 1068     		ldr	r0, [r2]
 2072              	.LVL219:
 2073 002e 1646     		mov	r6, r2
 2074 0030 FFF7FEFF 		bl	f_mkdir
 2075              	.LVL220:
 2076              		.loc 2 169 0
 2077 0034 0746     		mov	r7, r0
 2078 0036 58B9     		cbnz	r0, .L247
 2079              	.LVL221:
 2080              	.LBB157:
 2081              	.LBB158:
 2082              		.loc 2 177 0
 2083 0038 019A     		ldr	r2, [sp, #4]
 2084 003a 2368     		ldr	r3, [r4]
 2085 003c 9A42     		cmp	r2, r3
 2086 003e 17D1     		bne	.L246
 2087 0040 3268     		ldr	r2, [r6]
 2088 0042 0F49     		ldr	r1, .L248+12
 2089 0044 2846     		mov	r0, r5
 2090              	.LVL222:
 2091              	.LBE158:
 2092              	.LBE157:
 2093              		.loc 2 180 0
 2094 0046 03B0     		add	sp, sp, #12
 2095              		.cfi_remember_state
 2096              		.cfi_def_cfa_offset 20
 2097              		@ sp needed
 2098 0048 BDE8F040 		pop	{r4, r5, r6, r7, lr}
 2099              		.cfi_restore 14
 2100              		.cfi_restore 7
 2101              		.cfi_restore 6
 2102              		.cfi_restore 5
 2103              		.cfi_restore 4
 2104              		.cfi_def_cfa_offset 0
 2105              	.LVL223:
 2106              	.LBB161:
 2107              	.LBB159:
 2108              		.loc 2 177 0
 2109 004c FFF7FEBF 		b	chprintf
ARM GAS  /tmp/ccHKfm7W.s 			page 38


 2110              	.LVL224:
 2111              	.L247:
 2112              		.cfi_restore_state
 2113              	.LBE159:
 2114              	.LBE161:
 2115              		.loc 2 173 0
 2116 0050 3268     		ldr	r2, [r6]
 2117 0052 0C49     		ldr	r1, .L248+16
 2118 0054 2846     		mov	r0, r5
 2119              	.LVL225:
 2120 0056 FFF7FEFF 		bl	chprintf
 2121              	.LVL226:
 2122              		.loc 2 174 0
 2123 005a 019A     		ldr	r2, [sp, #4]
 2124 005c 2368     		ldr	r3, [r4]
 2125 005e 9A42     		cmp	r2, r3
 2126 0060 06D1     		bne	.L246
 2127 0062 3946     		mov	r1, r7
 2128 0064 2846     		mov	r0, r5
 2129              		.loc 2 180 0
 2130 0066 03B0     		add	sp, sp, #12
 2131              		.cfi_remember_state
 2132              		.cfi_def_cfa_offset 20
 2133              		@ sp needed
 2134 0068 BDE8F040 		pop	{r4, r5, r6, r7, lr}
 2135              		.cfi_restore 14
 2136              		.cfi_restore 7
 2137              		.cfi_restore 6
 2138              		.cfi_restore 5
 2139              		.cfi_restore 4
 2140              		.cfi_def_cfa_offset 0
 2141              	.LVL227:
 2142              		.loc 2 174 0
 2143 006c FFF7FEBF 		b	fverbose_error
 2144              	.LVL228:
 2145              	.L246:
 2146              		.cfi_restore_state
 2147              	.LBB162:
 2148              	.LBB160:
 2149              		.loc 2 177 0
 2150 0070 FFF7FEFF 		bl	__stack_chk_fail
 2151              	.LVL229:
 2152              	.L249:
 2153              		.align	2
 2154              	.L248:
 2155 0074 00000000 		.word	__stack_chk_guard
 2156 0078 00000000 		.word	.LC38
 2157 007c 18000000 		.word	.LC39
 2158 0080 68000000 		.word	.LC41
 2159 0084 4C000000 		.word	.LC40
 2160              	.LBE160:
 2161              	.LBE162:
 2162              		.cfi_endproc
 2163              	.LFE266:
 2164              		.size	cmd_mkdir, .-cmd_mkdir
 2165              		.section	.text.cmd_setlabel,"ax",%progbits
 2166              		.align	1
ARM GAS  /tmp/ccHKfm7W.s 			page 39


 2167              		.p2align 4,,15
 2168              		.global	cmd_setlabel
 2169              		.syntax unified
 2170              		.thumb
 2171              		.thumb_func
 2172              		.fpu fpv4-sp-d16
 2173              		.type	cmd_setlabel, %function
 2174              	cmd_setlabel:
 2175              	.LFB267:
 2176              		.loc 2 182 0
 2177              		.cfi_startproc
 2178              		@ args = 0, pretend = 0, frame = 8
 2179              		@ frame_needed = 0, uses_anonymous_args = 0
 2180              	.LVL230:
 2181 0000 70B5     		push	{r4, r5, r6, lr}
 2182              		.cfi_def_cfa_offset 16
 2183              		.cfi_offset 4, -16
 2184              		.cfi_offset 5, -12
 2185              		.cfi_offset 6, -8
 2186              		.cfi_offset 14, -4
 2187 0002 1B4C     		ldr	r4, .L261
 2188 0004 82B0     		sub	sp, sp, #8
 2189              		.cfi_def_cfa_offset 24
 2190              		.loc 2 182 0
 2191 0006 2368     		ldr	r3, [r4]
 2192 0008 0193     		str	r3, [sp, #4]
 2193              		.loc 2 184 0
 2194 000a 0129     		cmp	r1, #1
 2195              		.loc 2 182 0
 2196 000c 0546     		mov	r5, r0
 2197              		.loc 2 184 0
 2198 000e 0DD0     		beq	.L251
 2199              		.loc 2 185 0
 2200 0010 1849     		ldr	r1, .L261+4
 2201              	.LVL231:
 2202 0012 FFF7FEFF 		bl	chprintf
 2203              	.LVL232:
 2204              		.loc 2 186 0
 2205 0016 019A     		ldr	r2, [sp, #4]
 2206 0018 2368     		ldr	r3, [r4]
 2207 001a 9A42     		cmp	r2, r3
 2208 001c 25D1     		bne	.L259
 2209 001e 1649     		ldr	r1, .L261+8
 2210 0020 2846     		mov	r0, r5
 2211              		.loc 2 201 0
 2212 0022 02B0     		add	sp, sp, #8
 2213              		.cfi_remember_state
 2214              		.cfi_def_cfa_offset 16
 2215              		@ sp needed
 2216 0024 BDE87040 		pop	{r4, r5, r6, lr}
 2217              		.cfi_restore 14
 2218              		.cfi_restore 6
 2219              		.cfi_restore 5
 2220              		.cfi_restore 4
 2221              		.cfi_def_cfa_offset 0
 2222              	.LVL233:
 2223              	.LBB165:
ARM GAS  /tmp/ccHKfm7W.s 			page 40


 2224              	.LBB166:
 2225              		.loc 2 198 0
 2226 0028 FFF7FEBF 		b	chprintf
 2227              	.LVL234:
 2228              	.L251:
 2229              		.cfi_restore_state
 2230              		.loc 2 192 0
 2231 002c 1068     		ldr	r0, [r2]
 2232              	.LVL235:
 2233 002e FFF7FEFF 		bl	f_setlabel
 2234              	.LVL236:
 2235              		.loc 2 193 0
 2236 0032 0646     		mov	r6, r0
 2237 0034 50B9     		cbnz	r0, .L260
 2238              		.loc 2 198 0
 2239 0036 019A     		ldr	r2, [sp, #4]
 2240 0038 2368     		ldr	r3, [r4]
 2241 003a 9A42     		cmp	r2, r3
 2242 003c 15D1     		bne	.L259
 2243 003e 0F49     		ldr	r1, .L261+12
 2244 0040 2846     		mov	r0, r5
 2245              	.LVL237:
 2246              	.LBE166:
 2247              	.LBE165:
 2248              		.loc 2 201 0
 2249 0042 02B0     		add	sp, sp, #8
 2250              		.cfi_remember_state
 2251              		.cfi_def_cfa_offset 16
 2252              		@ sp needed
 2253 0044 BDE87040 		pop	{r4, r5, r6, lr}
 2254              		.cfi_restore 14
 2255              		.cfi_restore 6
 2256              		.cfi_restore 5
 2257              		.cfi_restore 4
 2258              		.cfi_def_cfa_offset 0
 2259              	.LVL238:
 2260              	.LBB169:
 2261              	.LBB167:
 2262              		.loc 2 198 0
 2263 0048 FFF7FEBF 		b	chprintf
 2264              	.LVL239:
 2265              	.L260:
 2266              		.cfi_restore_state
 2267              		.loc 2 194 0
 2268 004c 0C49     		ldr	r1, .L261+16
 2269 004e 2846     		mov	r0, r5
 2270              	.LVL240:
 2271 0050 FFF7FEFF 		bl	chprintf
 2272              	.LVL241:
 2273              		.loc 2 195 0
 2274 0054 019A     		ldr	r2, [sp, #4]
 2275 0056 2368     		ldr	r3, [r4]
 2276 0058 9A42     		cmp	r2, r3
 2277 005a 06D1     		bne	.L259
 2278 005c 3146     		mov	r1, r6
 2279 005e 2846     		mov	r0, r5
 2280              	.LBE167:
ARM GAS  /tmp/ccHKfm7W.s 			page 41


 2281              	.LBE169:
 2282              		.loc 2 201 0
 2283 0060 02B0     		add	sp, sp, #8
 2284              		.cfi_remember_state
 2285              		.cfi_def_cfa_offset 16
 2286              		@ sp needed
 2287 0062 BDE87040 		pop	{r4, r5, r6, lr}
 2288              		.cfi_restore 14
 2289              		.cfi_restore 6
 2290              		.cfi_restore 5
 2291              		.cfi_restore 4
 2292              		.cfi_def_cfa_offset 0
 2293              	.LVL242:
 2294              	.LBB170:
 2295              	.LBB168:
 2296              		.loc 2 195 0
 2297 0066 FFF7FEBF 		b	fverbose_error
 2298              	.LVL243:
 2299              	.L259:
 2300              		.cfi_restore_state
 2301              		.loc 2 198 0
 2302 006a FFF7FEFF 		bl	__stack_chk_fail
 2303              	.LVL244:
 2304              	.L262:
 2305 006e 00BF     		.align	2
 2306              	.L261:
 2307 0070 00000000 		.word	__stack_chk_guard
 2308 0074 00000000 		.word	.LC42
 2309 0078 18000000 		.word	.LC43
 2310 007c 5C000000 		.word	.LC45
 2311 0080 3C000000 		.word	.LC44
 2312              	.LBE168:
 2313              	.LBE170:
 2314              		.cfi_endproc
 2315              	.LFE267:
 2316              		.size	cmd_setlabel, .-cmd_setlabel
 2317              		.section	.text.cmd_getlabel,"ax",%progbits
 2318              		.align	1
 2319              		.p2align 4,,15
 2320              		.global	cmd_getlabel
 2321              		.syntax unified
 2322              		.thumb
 2323              		.thumb_func
 2324              		.fpu fpv4-sp-d16
 2325              		.type	cmd_getlabel, %function
 2326              	cmd_getlabel:
 2327              	.LFB268:
 2328              		.loc 2 203 0
 2329              		.cfi_startproc
 2330              		@ args = 0, pretend = 0, frame = 24
 2331              		@ frame_needed = 0, uses_anonymous_args = 0
 2332              	.LVL245:
 2333 0000 70B5     		push	{r4, r5, r6, lr}
 2334              		.cfi_def_cfa_offset 16
 2335              		.cfi_offset 4, -16
 2336              		.cfi_offset 5, -12
 2337              		.cfi_offset 6, -8
ARM GAS  /tmp/ccHKfm7W.s 			page 42


 2338              		.cfi_offset 14, -4
 2339 0002 1A4C     		ldr	r4, .L272
 2340 0004 86B0     		sub	sp, sp, #24
 2341              		.cfi_def_cfa_offset 40
 2342              		.loc 2 203 0
 2343 0006 2368     		ldr	r3, [r4]
 2344 0008 0593     		str	r3, [sp, #20]
 2345              		.loc 2 208 0
 2346 000a 0029     		cmp	r1, #0
 2347              		.loc 2 203 0
 2348 000c 0546     		mov	r5, r0
 2349              		.loc 2 208 0
 2350 000e 0CDD     		ble	.L264
 2351              		.loc 2 209 0
 2352 0010 1749     		ldr	r1, .L272+4
 2353              	.LVL246:
 2354 0012 FFF7FEFF 		bl	chprintf
 2355              	.LVL247:
 2356              		.loc 2 210 0
 2357 0016 2846     		mov	r0, r5
 2358 0018 1649     		ldr	r1, .L272+8
 2359 001a FFF7FEFF 		bl	chprintf
 2360              	.LVL248:
 2361              	.L263:
 2362              		.loc 2 229 0
 2363 001e 059A     		ldr	r2, [sp, #20]
 2364 0020 2368     		ldr	r3, [r4]
 2365 0022 9A42     		cmp	r2, r3
 2366 0024 20D1     		bne	.L270
 2367 0026 06B0     		add	sp, sp, #24
 2368              		.cfi_remember_state
 2369              		.cfi_def_cfa_offset 16
 2370              		@ sp needed
 2371 0028 70BD     		pop	{r4, r5, r6, pc}
 2372              	.LVL249:
 2373              	.L264:
 2374              		.cfi_restore_state
 2375              	.LBB173:
 2376              	.LBB174:
 2377              		.loc 2 213 0
 2378 002a 0023     		movs	r3, #0
 2379              		.loc 2 217 0
 2380 002c 02A9     		add	r1, sp, #8
 2381              	.LVL250:
 2382 002e 01AA     		add	r2, sp, #4
 2383              	.LVL251:
 2384 0030 1148     		ldr	r0, .L272+12
 2385              	.LVL252:
 2386              		.loc 2 213 0
 2387 0032 0493     		str	r3, [sp, #16]
 2388 0034 CDE90233 		strd	r3, r3, [sp, #8]
 2389              		.loc 2 217 0
 2390 0038 FFF7FEFF 		bl	f_getlabel
 2391              	.LVL253:
 2392              		.loc 2 218 0
 2393 003c 0646     		mov	r6, r0
 2394 003e 50B9     		cbnz	r0, .L271
ARM GAS  /tmp/ccHKfm7W.s 			page 43


 2395              		.loc 2 226 0
 2396 0040 02AA     		add	r2, sp, #8
 2397 0042 0E49     		ldr	r1, .L272+16
 2398 0044 2846     		mov	r0, r5
 2399              	.LVL254:
 2400 0046 FFF7FEFF 		bl	chprintf
 2401              	.LVL255:
 2402              		.loc 2 227 0
 2403 004a 2846     		mov	r0, r5
 2404 004c 019A     		ldr	r2, [sp, #4]
 2405 004e 0C49     		ldr	r1, .L272+20
 2406 0050 FFF7FEFF 		bl	chprintf
 2407              	.LVL256:
 2408 0054 E3E7     		b	.L263
 2409              	.LVL257:
 2410              	.L271:
 2411              		.loc 2 219 0
 2412 0056 0B49     		ldr	r1, .L272+24
 2413 0058 2846     		mov	r0, r5
 2414              	.LVL258:
 2415 005a FFF7FEFF 		bl	chprintf
 2416              	.LVL259:
 2417              		.loc 2 220 0
 2418 005e 3146     		mov	r1, r6
 2419 0060 2846     		mov	r0, r5
 2420 0062 FFF7FEFF 		bl	fverbose_error
 2421              	.LVL260:
 2422 0066 DAE7     		b	.L263
 2423              	.LVL261:
 2424              	.L270:
 2425              	.LBE174:
 2426              	.LBE173:
 2427              		.loc 2 229 0
 2428 0068 FFF7FEFF 		bl	__stack_chk_fail
 2429              	.LVL262:
 2430              	.L273:
 2431              		.align	2
 2432              	.L272:
 2433 006c 00000000 		.word	__stack_chk_guard
 2434 0070 00000000 		.word	.LC46
 2435 0074 14000000 		.word	.LC47
 2436 0078 38000000 		.word	.LC48
 2437 007c 58000000 		.word	.LC50
 2438 0080 64000000 		.word	.LC51
 2439 0084 3C000000 		.word	.LC49
 2440              		.cfi_endproc
 2441              	.LFE268:
 2442              		.size	cmd_getlabel, .-cmd_getlabel
 2443              		.section	.text.cmd_cat.part.3,"ax",%progbits
 2444              		.align	1
 2445              		.p2align 4,,15
 2446              		.syntax unified
 2447              		.thumb
 2448              		.thumb_func
 2449              		.fpu fpv4-sp-d16
 2450              		.type	cmd_cat.part.3, %function
 2451              	cmd_cat.part.3:
ARM GAS  /tmp/ccHKfm7W.s 			page 44


 2452              	.LFB314:
 2453              		.loc 2 234 0
 2454              		.cfi_startproc
 2455              		@ args = 0, pretend = 0, frame = 816
 2456              		@ frame_needed = 0, uses_anonymous_args = 0
 2457              	.LVL263:
 2458 0000 F0B5     		push	{r4, r5, r6, r7, lr}
 2459              		.cfi_def_cfa_offset 20
 2460              		.cfi_offset 4, -20
 2461              		.cfi_offset 5, -16
 2462              		.cfi_offset 6, -12
 2463              		.cfi_offset 7, -8
 2464              		.cfi_offset 14, -4
 2465 0002 264F     		ldr	r7, .L285
 2466 0004 ADF54D7D 		sub	sp, sp, #820
 2467              		.cfi_def_cfa_offset 840
 2468              		.loc 2 234 0
 2469 0008 0E46     		mov	r6, r1
 2470 000a 3B68     		ldr	r3, [r7]
 2471              		.loc 2 251 0
 2472 000c 0968     		ldr	r1, [r1]
 2473              	.LVL264:
 2474              		.loc 2 234 0
 2475 000e CB93     		str	r3, [sp, #812]
 2476              	.LVL265:
 2477 0010 0546     		mov	r5, r0
 2478              		.loc 2 251 0
 2479 0012 0122     		movs	r2, #1
 2480 0014 01A8     		add	r0, sp, #4
 2481              	.LVL266:
 2482 0016 FFF7FEFF 		bl	f_open
 2483              	.LVL267:
 2484              		.loc 2 252 0
 2485 001a 88BB     		cbnz	r0, .L281
 2486              		.loc 2 276 0
 2487 001c 204E     		ldr	r6, .L285+4
 2488              	.LVL268:
 2489 001e 07E0     		b	.L275
 2490              	.L277:
 2491 0020 8BAA     		add	r2, sp, #556
 2492 0022 3146     		mov	r1, r6
 2493 0024 2846     		mov	r0, r5
 2494              	.LVL269:
 2495 0026 FFF7FEFF 		bl	chprintf
 2496              	.LVL270:
 2497              		.loc 2 277 0
 2498 002a 009B     		ldr	r3, [sp]
 2499 002c FE2B     		cmp	r3, #254
 2500 002e 1FD9     		bls	.L283
 2501              	.L275:
 2502              		.loc 2 265 0
 2503 0030 FF22     		movs	r2, #255
 2504 0032 0021     		movs	r1, #0
 2505 0034 8BA8     		add	r0, sp, #556
 2506 0036 FFF7FEFF 		bl	memset
 2507              	.LVL271:
 2508              		.loc 2 269 0
ARM GAS  /tmp/ccHKfm7W.s 			page 45


 2509 003a 6B46     		mov	r3, sp
 2510 003c FF22     		movs	r2, #255
 2511 003e 8BA9     		add	r1, sp, #556
 2512 0040 01A8     		add	r0, sp, #4
 2513 0042 FFF7FEFF 		bl	f_read
 2514              	.LVL272:
 2515              		.loc 2 270 0
 2516 0046 0446     		mov	r4, r0
 2517 0048 0028     		cmp	r0, #0
 2518 004a E9D0     		beq	.L277
 2519              		.loc 2 271 0
 2520 004c 1549     		ldr	r1, .L285+8
 2521 004e 2846     		mov	r0, r5
 2522              	.LVL273:
 2523 0050 FFF7FEFF 		bl	chprintf
 2524              	.LVL274:
 2525              		.loc 2 272 0
 2526 0054 2846     		mov	r0, r5
 2527 0056 2146     		mov	r1, r4
 2528 0058 FFF7FEFF 		bl	fverbose_error
 2529              	.LVL275:
 2530              		.loc 2 273 0
 2531 005c 01A8     		add	r0, sp, #4
 2532 005e FFF7FEFF 		bl	f_close
 2533              	.LVL276:
 2534              	.L274:
 2535              		.loc 2 284 0
 2536 0062 CB9A     		ldr	r2, [sp, #812]
 2537 0064 3B68     		ldr	r3, [r7]
 2538 0066 9A42     		cmp	r2, r3
 2539 0068 15D1     		bne	.L284
 2540 006a 0DF54D7D 		add	sp, sp, #820
 2541              		.cfi_remember_state
 2542              		.cfi_def_cfa_offset 20
 2543              		@ sp needed
 2544 006e F0BD     		pop	{r4, r5, r6, r7, pc}
 2545              	.LVL277:
 2546              	.L283:
 2547              		.cfi_restore_state
 2548              		.loc 2 278 0
 2549 0070 2846     		mov	r0, r5
 2550 0072 0D49     		ldr	r1, .L285+12
 2551 0074 FFF7FEFF 		bl	chprintf
 2552              	.LVL278:
 2553              		.loc 2 282 0
 2554 0078 01A8     		add	r0, sp, #4
 2555 007a FFF7FEFF 		bl	f_close
 2556              	.LVL279:
 2557 007e F0E7     		b	.L274
 2558              	.LVL280:
 2559              	.L281:
 2560 0080 0446     		mov	r4, r0
 2561              		.loc 2 253 0
 2562 0082 3268     		ldr	r2, [r6]
 2563 0084 0949     		ldr	r1, .L285+16
 2564 0086 2846     		mov	r0, r5
 2565              	.LVL281:
ARM GAS  /tmp/ccHKfm7W.s 			page 46


 2566 0088 FFF7FEFF 		bl	chprintf
 2567              	.LVL282:
 2568              		.loc 2 254 0
 2569 008c 2146     		mov	r1, r4
 2570 008e 2846     		mov	r0, r5
 2571 0090 FFF7FEFF 		bl	fverbose_error
 2572              	.LVL283:
 2573 0094 E5E7     		b	.L274
 2574              	.LVL284:
 2575              	.L284:
 2576              		.loc 2 284 0
 2577 0096 FFF7FEFF 		bl	__stack_chk_fail
 2578              	.LVL285:
 2579              	.L286:
 2580 009a 00BF     		.align	2
 2581              	.L285:
 2582 009c 00000000 		.word	__stack_chk_guard
 2583 00a0 34000000 		.word	.LC54
 2584 00a4 1C000000 		.word	.LC53
 2585 00a8 38000000 		.word	.LC55
 2586 00ac 00000000 		.word	.LC52
 2587              		.cfi_endproc
 2588              	.LFE314:
 2589              		.size	cmd_cat.part.3, .-cmd_cat.part.3
 2590              		.section	.text.cmd_cat,"ax",%progbits
 2591              		.align	1
 2592              		.p2align 4,,15
 2593              		.global	cmd_cat
 2594              		.syntax unified
 2595              		.thumb
 2596              		.thumb_func
 2597              		.fpu fpv4-sp-d16
 2598              		.type	cmd_cat, %function
 2599              	cmd_cat:
 2600              	.LFB269:
 2601              		.loc 2 234 0
 2602              		.cfi_startproc
 2603              		@ args = 0, pretend = 0, frame = 8
 2604              		@ frame_needed = 0, uses_anonymous_args = 0
 2605              	.LVL286:
 2606 0000 30B5     		push	{r4, r5, lr}
 2607              		.cfi_def_cfa_offset 12
 2608              		.cfi_offset 4, -12
 2609              		.cfi_offset 5, -8
 2610              		.cfi_offset 14, -4
 2611 0002 104C     		ldr	r4, .L294
 2612 0004 83B0     		sub	sp, sp, #12
 2613              		.cfi_def_cfa_offset 24
 2614              		.loc 2 234 0
 2615 0006 2368     		ldr	r3, [r4]
 2616 0008 0193     		str	r3, [sp, #4]
 2617              	.LVL287:
 2618              		.loc 2 243 0
 2619 000a 0129     		cmp	r1, #1
 2620 000c 0ED0     		beq	.L288
 2621              		.loc 2 244 0
 2622 000e 0E49     		ldr	r1, .L294+4
ARM GAS  /tmp/ccHKfm7W.s 			page 47


 2623              	.LVL288:
 2624 0010 0546     		mov	r5, r0
 2625 0012 FFF7FEFF 		bl	chprintf
 2626              	.LVL289:
 2627              		.loc 2 245 0
 2628 0016 019A     		ldr	r2, [sp, #4]
 2629 0018 2368     		ldr	r3, [r4]
 2630 001a 9A42     		cmp	r2, r3
 2631 001c 10D1     		bne	.L293
 2632 001e 0B49     		ldr	r1, .L294+8
 2633 0020 2846     		mov	r0, r5
 2634              		.loc 2 284 0
 2635 0022 03B0     		add	sp, sp, #12
 2636              		.cfi_remember_state
 2637              		.cfi_def_cfa_offset 12
 2638              		@ sp needed
 2639 0024 BDE83040 		pop	{r4, r5, lr}
 2640              		.cfi_restore 14
 2641              		.cfi_restore 5
 2642              		.cfi_restore 4
 2643              		.cfi_def_cfa_offset 0
 2644              	.LVL290:
 2645              		.loc 2 245 0
 2646 0028 FFF7FEBF 		b	chprintf
 2647              	.LVL291:
 2648              	.L288:
 2649              		.cfi_restore_state
 2650 002c 0199     		ldr	r1, [sp, #4]
 2651              	.LVL292:
 2652 002e 2368     		ldr	r3, [r4]
 2653 0030 9942     		cmp	r1, r3
 2654 0032 05D1     		bne	.L293
 2655 0034 1146     		mov	r1, r2
 2656              		.loc 2 284 0
 2657 0036 03B0     		add	sp, sp, #12
 2658              		.cfi_remember_state
 2659              		.cfi_def_cfa_offset 12
 2660              		@ sp needed
 2661 0038 BDE83040 		pop	{r4, r5, lr}
 2662              		.cfi_restore 14
 2663              		.cfi_restore 5
 2664              		.cfi_restore 4
 2665              		.cfi_def_cfa_offset 0
 2666 003c FFF7FEBF 		b	cmd_cat.part.3
 2667              	.LVL293:
 2668              	.L293:
 2669              		.cfi_restore_state
 2670 0040 FFF7FEFF 		bl	__stack_chk_fail
 2671              	.LVL294:
 2672              	.L295:
 2673              		.align	2
 2674              	.L294:
 2675 0044 00000000 		.word	__stack_chk_guard
 2676 0048 00000000 		.word	.LC56
 2677 004c 18000000 		.word	.LC57
 2678              		.cfi_endproc
 2679              	.LFE269:
ARM GAS  /tmp/ccHKfm7W.s 			page 48


 2680              		.size	cmd_cat, .-cmd_cat
 2681              		.section	.text.cmd_cam_set_conf1,"ax",%progbits
 2682              		.align	1
 2683              		.p2align 4,,15
 2684              		.syntax unified
 2685              		.thumb
 2686              		.thumb_func
 2687              		.fpu fpv4-sp-d16
 2688              		.type	cmd_cam_set_conf1, %function
 2689              	cmd_cam_set_conf1:
 2690              	.LFB290:
 2691              		.loc 2 699 0
 2692              		.cfi_startproc
 2693              		@ args = 0, pretend = 0, frame = 8
 2694              		@ frame_needed = 0, uses_anonymous_args = 0
 2695              	.LVL295:
 2696 0000 2DE9F041 		push	{r4, r5, r6, r7, r8, lr}
 2697              		.cfi_def_cfa_offset 24
 2698              		.cfi_offset 4, -24
 2699              		.cfi_offset 5, -20
 2700              		.cfi_offset 6, -16
 2701              		.cfi_offset 7, -12
 2702              		.cfi_offset 8, -8
 2703              		.cfi_offset 14, -4
 2704 0004 2F4C     		ldr	r4, .L316
 2705 0006 82B0     		sub	sp, sp, #8
 2706              		.cfi_def_cfa_offset 32
 2707              		.loc 2 699 0
 2708 0008 2368     		ldr	r3, [r4]
 2709 000a 0193     		str	r3, [sp, #4]
 2710              		.loc 2 703 0
 2711 000c 0329     		cmp	r1, #3
 2712 000e 09D0     		beq	.L297
 2713              		.loc 2 704 0
 2714 0010 019A     		ldr	r2, [sp, #4]
 2715              	.LVL296:
 2716 0012 2368     		ldr	r3, [r4]
 2717 0014 9A42     		cmp	r2, r3
 2718 0016 53D1     		bne	.L312
 2719 0018 2B49     		ldr	r1, .L316+4
 2720              	.LVL297:
 2721              	.L311:
 2722              		.loc 2 740 0
 2723 001a 02B0     		add	sp, sp, #8
 2724              		.cfi_remember_state
 2725              		.cfi_def_cfa_offset 24
 2726              		@ sp needed
 2727 001c BDE8F041 		pop	{r4, r5, r6, r7, r8, lr}
 2728              		.cfi_restore 14
 2729              		.cfi_restore 8
 2730              		.cfi_restore 7
 2731              		.cfi_restore 6
 2732              		.cfi_restore 5
 2733              		.cfi_restore 4
 2734              		.cfi_def_cfa_offset 0
 2735              	.LBB177:
 2736              	.LBB178:
ARM GAS  /tmp/ccHKfm7W.s 			page 49


 2737              		.loc 2 737 0
 2738 0020 FFF7FEBF 		b	chprintf
 2739              	.LVL298:
 2740              	.L297:
 2741              		.cfi_restore_state
 2742 0024 0546     		mov	r5, r0
 2743              	.LVL299:
 2744              		.loc 2 707 0
 2745 0026 1068     		ldr	r0, [r2]
 2746              	.LVL300:
 2747 0028 1646     		mov	r6, r2
 2748 002a FFF7FEFF 		bl	atoi
 2749              	.LVL301:
 2750 002e 8046     		mov	r8, r0
 2751              	.LVL302:
 2752              		.loc 2 708 0
 2753 0030 7068     		ldr	r0, [r6, #4]
 2754 0032 FFF7FEFF 		bl	atoi
 2755              	.LVL303:
 2756 0036 C7B2     		uxtb	r7, r0
 2757              	.LVL304:
 2758              		.loc 2 709 0
 2759 0038 B068     		ldr	r0, [r6, #8]
 2760 003a FFF7FEFF 		bl	atoi
 2761              	.LVL305:
 2762              		.loc 2 711 0
 2763 003e 18F0FF0F 		tst	r8, #255
 2764              		.loc 2 712 0
 2765 0042 224B     		ldr	r3, .L316+8
 2766              		.loc 2 713 0
 2767 0044 0BBF     		itete	eq
 2768 0046 2249     		ldreq	r1, .L316+12
 2769              		.loc 2 716 0
 2770 0048 2249     		ldrne	r1, .L316+16
 2771              		.loc 2 712 0
 2772 004a 0122     		moveq	r2, #1
 2773              		.loc 2 715 0
 2774 004c 0022     		movne	r2, #0
 2775              		.loc 2 709 0
 2776 004e C6B2     		uxtb	r6, r0
 2777              	.LVL306:
 2778              		.loc 2 716 0
 2779 0050 2846     		mov	r0, r5
 2780              		.loc 2 715 0
 2781 0052 1A70     		strb	r2, [r3]
 2782              		.loc 2 716 0
 2783 0054 FFF7FEFF 		bl	chprintf
 2784              	.LVL307:
 2785              		.loc 2 719 0
 2786 0058 012F     		cmp	r7, #1
 2787              		.loc 2 720 0
 2788 005a 1F4B     		ldr	r3, .L316+20
 2789              		.loc 2 719 0
 2790 005c 22D0     		beq	.L313
 2791              		.loc 2 722 0
 2792 005e 022F     		cmp	r7, #2
 2793              		.loc 2 723 0
ARM GAS  /tmp/ccHKfm7W.s 			page 50


 2794 0060 0BBF     		itete	eq
 2795 0062 4022     		moveq	r2, #64
 2796              		.loc 2 726 0
 2797 0064 8022     		movne	r2, #128
 2798              		.loc 2 724 0
 2799 0066 1D49     		ldreq	r1, .L316+24
 2800              		.loc 2 727 0
 2801 0068 1D49     		ldrne	r1, .L316+28
 2802              		.loc 2 726 0
 2803 006a 1A70     		strb	r2, [r3]
 2804              		.loc 2 727 0
 2805 006c 2846     		mov	r0, r5
 2806 006e FFF7FEFF 		bl	chprintf
 2807              	.LVL308:
 2808              	.L302:
 2809              		.loc 2 729 0
 2810 0072 012E     		cmp	r6, #1
 2811              		.loc 2 731 0
 2812 0074 019A     		ldr	r2, [sp, #4]
 2813              		.loc 2 730 0
 2814 0076 1B49     		ldr	r1, .L316+32
 2815              		.loc 2 731 0
 2816 0078 2368     		ldr	r3, [r4]
 2817              		.loc 2 729 0
 2818 007a 1AD0     		beq	.L314
 2819              		.loc 2 732 0
 2820 007c 022E     		cmp	r6, #2
 2821 007e 0AD0     		beq	.L315
 2822              		.loc 2 736 0
 2823 0080 8020     		movs	r0, #128
 2824              		.loc 2 737 0
 2825 0082 9A42     		cmp	r2, r3
 2826              		.loc 2 736 0
 2827 0084 0870     		strb	r0, [r1]
 2828              		.loc 2 737 0
 2829 0086 1BD1     		bne	.L312
 2830 0088 1749     		ldr	r1, .L316+36
 2831 008a 2846     		mov	r0, r5
 2832              	.LBE178:
 2833              	.LBE177:
 2834              		.loc 2 740 0
 2835 008c 02B0     		add	sp, sp, #8
 2836              		.cfi_remember_state
 2837              		.cfi_def_cfa_offset 24
 2838              		@ sp needed
 2839 008e BDE8F041 		pop	{r4, r5, r6, r7, r8, lr}
 2840              		.cfi_restore 14
 2841              		.cfi_restore 8
 2842              		.cfi_restore 7
 2843              		.cfi_restore 6
 2844              		.cfi_restore 5
 2845              		.cfi_restore 4
 2846              		.cfi_def_cfa_offset 0
 2847              	.LVL309:
 2848              	.LBB180:
 2849              	.LBB179:
 2850              		.loc 2 737 0
ARM GAS  /tmp/ccHKfm7W.s 			page 51


 2851 0092 FFF7FEBF 		b	chprintf
 2852              	.LVL310:
 2853              	.L315:
 2854              		.cfi_restore_state
 2855              		.loc 2 733 0
 2856 0096 4020     		movs	r0, #64
 2857              		.loc 2 734 0
 2858 0098 9A42     		cmp	r2, r3
 2859              		.loc 2 733 0
 2860 009a 0870     		strb	r0, [r1]
 2861              		.loc 2 734 0
 2862 009c 10D1     		bne	.L312
 2863 009e 2846     		mov	r0, r5
 2864 00a0 1249     		ldr	r1, .L316+40
 2865 00a2 BAE7     		b	.L311
 2866              	.L313:
 2867              		.loc 2 720 0
 2868 00a4 2022     		movs	r2, #32
 2869              		.loc 2 721 0
 2870 00a6 1249     		ldr	r1, .L316+44
 2871              		.loc 2 720 0
 2872 00a8 1A70     		strb	r2, [r3]
 2873              		.loc 2 721 0
 2874 00aa 2846     		mov	r0, r5
 2875 00ac FFF7FEFF 		bl	chprintf
 2876              	.LVL311:
 2877 00b0 DFE7     		b	.L302
 2878              	.L314:
 2879              		.loc 2 730 0
 2880 00b2 2020     		movs	r0, #32
 2881              		.loc 2 731 0
 2882 00b4 9A42     		cmp	r2, r3
 2883              		.loc 2 730 0
 2884 00b6 0870     		strb	r0, [r1]
 2885              		.loc 2 731 0
 2886 00b8 02D1     		bne	.L312
 2887 00ba 2846     		mov	r0, r5
 2888 00bc 0D49     		ldr	r1, .L316+48
 2889 00be ACE7     		b	.L311
 2890              	.LVL312:
 2891              	.L312:
 2892              		.loc 2 737 0
 2893 00c0 FFF7FEFF 		bl	__stack_chk_fail
 2894              	.LVL313:
 2895              	.L317:
 2896              		.align	2
 2897              	.L316:
 2898 00c4 00000000 		.word	__stack_chk_guard
 2899 00c8 00000000 		.word	.LC58
 2900 00cc 00000000 		.word	.LANCHOR2
 2901 00d0 68000000 		.word	.LC59
 2902 00d4 84000000 		.word	.LC60
 2903 00d8 00000000 		.word	.LANCHOR3
 2904 00dc C4000000 		.word	.LC62
 2905 00e0 E4000000 		.word	.LC63
 2906 00e4 00000000 		.word	.LANCHOR4
 2907 00e8 44010000 		.word	.LC66
ARM GAS  /tmp/ccHKfm7W.s 			page 52


 2908 00ec 24010000 		.word	.LC65
 2909 00f0 A4000000 		.word	.LC61
 2910 00f4 04010000 		.word	.LC64
 2911              	.LBE179:
 2912              	.LBE180:
 2913              		.cfi_endproc
 2914              	.LFE290:
 2915              		.size	cmd_cam_set_conf1, .-cmd_cam_set_conf1
 2916              		.section	.text.cmd_volume,"ax",%progbits
 2917              		.align	1
 2918              		.p2align 4,,15
 2919              		.syntax unified
 2920              		.thumb
 2921              		.thumb_func
 2922              		.fpu fpv4-sp-d16
 2923              		.type	cmd_volume, %function
 2924              	cmd_volume:
 2925              	.LFB306:
 2926              		.loc 2 1009 0
 2927              		.cfi_startproc
 2928              		@ args = 0, pretend = 0, frame = 8
 2929              		@ frame_needed = 0, uses_anonymous_args = 0
 2930              	.LVL314:
 2931 0000 30B5     		push	{r4, r5, lr}
 2932              		.cfi_def_cfa_offset 12
 2933              		.cfi_offset 4, -12
 2934              		.cfi_offset 5, -8
 2935              		.cfi_offset 14, -4
 2936 0002 124C     		ldr	r4, .L325
 2937 0004 83B0     		sub	sp, sp, #12
 2938              		.cfi_def_cfa_offset 24
 2939              		.loc 2 1009 0
 2940 0006 2368     		ldr	r3, [r4]
 2941 0008 0193     		str	r3, [sp, #4]
 2942              		.loc 2 1011 0
 2943 000a 0129     		cmp	r1, #1
 2944 000c 09D0     		beq	.L319
 2945              		.loc 2 1012 0
 2946 000e 019A     		ldr	r2, [sp, #4]
 2947              	.LVL315:
 2948 0010 2368     		ldr	r3, [r4]
 2949 0012 9A42     		cmp	r2, r3
 2950 0014 18D1     		bne	.L324
 2951 0016 0E49     		ldr	r1, .L325+4
 2952              	.LVL316:
 2953              		.loc 2 1017 0
 2954 0018 03B0     		add	sp, sp, #12
 2955              		.cfi_remember_state
 2956              		.cfi_def_cfa_offset 12
 2957              		@ sp needed
 2958 001a BDE83040 		pop	{r4, r5, lr}
 2959              		.cfi_restore 14
 2960              		.cfi_restore 5
 2961              		.cfi_restore 4
 2962              		.cfi_def_cfa_offset 0
 2963              		.loc 2 1012 0
 2964 001e FFF7FEBF 		b	chprintf
ARM GAS  /tmp/ccHKfm7W.s 			page 53


 2965              	.LVL317:
 2966              	.L319:
 2967              		.cfi_restore_state
 2968 0022 0546     		mov	r5, r0
 2969              	.LVL318:
 2970              	.LBB183:
 2971              	.LBB184:
 2972              		.loc 2 1014 0
 2973 0024 1068     		ldr	r0, [r2]
 2974              	.LVL319:
 2975 0026 FFF7FEFF 		bl	atoi
 2976              	.LVL320:
 2977              		.loc 2 1015 0
 2978 002a C0B2     		uxtb	r0, r0
 2979 002c FFF7FEFF 		bl	mic_get_volume
 2980              	.LVL321:
 2981 0030 0199     		ldr	r1, [sp, #4]
 2982 0032 2368     		ldr	r3, [r4]
 2983 0034 9942     		cmp	r1, r3
 2984 0036 0246     		mov	r2, r0
 2985 0038 06D1     		bne	.L324
 2986 003a 0649     		ldr	r1, .L325+8
 2987 003c 2846     		mov	r0, r5
 2988              	.LBE184:
 2989              	.LBE183:
 2990              		.loc 2 1017 0
 2991 003e 03B0     		add	sp, sp, #12
 2992              		.cfi_remember_state
 2993              		.cfi_def_cfa_offset 12
 2994              		@ sp needed
 2995 0040 BDE83040 		pop	{r4, r5, lr}
 2996              		.cfi_restore 14
 2997              		.cfi_restore 5
 2998              		.cfi_restore 4
 2999              		.cfi_def_cfa_offset 0
 3000              	.LVL322:
 3001              	.LBB186:
 3002              	.LBB185:
 3003              		.loc 2 1015 0
 3004 0044 FFF7FEBF 		b	chprintf
 3005              	.LVL323:
 3006              	.L324:
 3007              		.cfi_restore_state
 3008 0048 FFF7FEFF 		bl	__stack_chk_fail
 3009              	.LVL324:
 3010              	.L326:
 3011              		.align	2
 3012              	.L325:
 3013 004c 00000000 		.word	__stack_chk_guard
 3014 0050 00000000 		.word	.LC67
 3015 0054 28000000 		.word	.LC68
 3016              	.LBE185:
 3017              	.LBE186:
 3018              		.cfi_endproc
 3019              	.LFE306:
 3020              		.size	cmd_volume, .-cmd_volume
 3021              		.section	.text.cmd_audio_play,"ax",%progbits
ARM GAS  /tmp/ccHKfm7W.s 			page 54


 3022              		.align	1
 3023              		.p2align 4,,15
 3024              		.syntax unified
 3025              		.thumb
 3026              		.thumb_func
 3027              		.fpu fpv4-sp-d16
 3028              		.type	cmd_audio_play, %function
 3029              	cmd_audio_play:
 3030              	.LFB304:
 3031              		.loc 2 989 0
 3032              		.cfi_startproc
 3033              		@ args = 0, pretend = 0, frame = 8
 3034              		@ frame_needed = 0, uses_anonymous_args = 0
 3035              	.LVL325:
 3036 0000 10B5     		push	{r4, lr}
 3037              		.cfi_def_cfa_offset 8
 3038              		.cfi_offset 4, -8
 3039              		.cfi_offset 14, -4
 3040 0002 0F4C     		ldr	r4, .L334
 3041 0004 82B0     		sub	sp, sp, #8
 3042              		.cfi_def_cfa_offset 16
 3043              		.loc 2 989 0
 3044 0006 2368     		ldr	r3, [r4]
 3045 0008 0193     		str	r3, [sp, #4]
 3046              		.loc 2 991 0
 3047 000a 0129     		cmp	r1, #1
 3048 000c 09D0     		beq	.L328
 3049              		.loc 2 992 0
 3050 000e 019A     		ldr	r2, [sp, #4]
 3051              	.LVL326:
 3052 0010 2368     		ldr	r3, [r4]
 3053 0012 9A42     		cmp	r2, r3
 3054 0014 12D1     		bne	.L333
 3055 0016 0B49     		ldr	r1, .L334+4
 3056              	.LVL327:
 3057              		.loc 2 998 0
 3058 0018 02B0     		add	sp, sp, #8
 3059              		.cfi_remember_state
 3060              		.cfi_def_cfa_offset 8
 3061              		@ sp needed
 3062 001a BDE81040 		pop	{r4, lr}
 3063              		.cfi_restore 14
 3064              		.cfi_restore 4
 3065              		.cfi_def_cfa_offset 0
 3066              		.loc 2 992 0
 3067 001e FFF7FEBF 		b	chprintf
 3068              	.LVL328:
 3069              	.L328:
 3070              		.cfi_restore_state
 3071              	.LBB189:
 3072              	.LBB190:
 3073              		.loc 2 995 0
 3074 0022 1068     		ldr	r0, [r2]
 3075              	.LVL329:
 3076 0024 FFF7FEFF 		bl	atoi
 3077              	.LVL330:
 3078              		.loc 2 996 0
ARM GAS  /tmp/ccHKfm7W.s 			page 55


 3079 0028 019A     		ldr	r2, [sp, #4]
 3080 002a 2368     		ldr	r3, [r4]
 3081 002c 9A42     		cmp	r2, r3
 3082 002e 05D1     		bne	.L333
 3083 0030 80B2     		uxth	r0, r0
 3084              	.LBE190:
 3085              	.LBE189:
 3086              		.loc 2 998 0
 3087 0032 02B0     		add	sp, sp, #8
 3088              		.cfi_remember_state
 3089              		.cfi_def_cfa_offset 8
 3090              		@ sp needed
 3091 0034 BDE81040 		pop	{r4, lr}
 3092              		.cfi_restore 14
 3093              		.cfi_restore 4
 3094              		.cfi_def_cfa_offset 0
 3095              	.LBB192:
 3096              	.LBB191:
 3097              		.loc 2 996 0
 3098 0038 FFF7FEBF 		b	dac_play
 3099              	.LVL331:
 3100              	.L333:
 3101              		.cfi_restore_state
 3102 003c FFF7FEFF 		bl	__stack_chk_fail
 3103              	.LVL332:
 3104              	.L335:
 3105              		.align	2
 3106              	.L334:
 3107 0040 00000000 		.word	__stack_chk_guard
 3108 0044 00000000 		.word	.LC69
 3109              	.LBE191:
 3110              	.LBE192:
 3111              		.cfi_endproc
 3112              	.LFE304:
 3113              		.size	cmd_audio_play, .-cmd_audio_play
 3114              		.section	.text.cmd_set_speed,"ax",%progbits
 3115              		.align	1
 3116              		.p2align 4,,15
 3117              		.syntax unified
 3118              		.thumb
 3119              		.thumb_func
 3120              		.fpu fpv4-sp-d16
 3121              		.type	cmd_set_speed, %function
 3122              	cmd_set_speed:
 3123              	.LFB302:
 3124              		.loc 2 965 0
 3125              		.cfi_startproc
 3126              		@ args = 0, pretend = 0, frame = 8
 3127              		@ frame_needed = 0, uses_anonymous_args = 0
 3128              	.LVL333:
 3129 0000 F0B5     		push	{r4, r5, r6, r7, lr}
 3130              		.cfi_def_cfa_offset 20
 3131              		.cfi_offset 4, -20
 3132              		.cfi_offset 5, -16
 3133              		.cfi_offset 6, -12
 3134              		.cfi_offset 7, -8
 3135              		.cfi_offset 14, -4
ARM GAS  /tmp/ccHKfm7W.s 			page 56


 3136 0002 194C     		ldr	r4, .L343
 3137 0004 83B0     		sub	sp, sp, #12
 3138              		.cfi_def_cfa_offset 32
 3139              		.loc 2 965 0
 3140 0006 2368     		ldr	r3, [r4]
 3141 0008 0193     		str	r3, [sp, #4]
 3142              	.LVL334:
 3143              		.loc 2 969 0
 3144 000a 0229     		cmp	r1, #2
 3145 000c 0CD0     		beq	.L337
 3146              		.loc 2 970 0
 3147 000e 019A     		ldr	r2, [sp, #4]
 3148              	.LVL335:
 3149 0010 2368     		ldr	r3, [r4]
 3150 0012 9A42     		cmp	r2, r3
 3151 0014 26D1     		bne	.L342
 3152 0016 154A     		ldr	r2, .L343+4
 3153 0018 1549     		ldr	r1, .L343+8
 3154              	.LVL336:
 3155 001a 40F24C43 		movw	r3, #1100
 3156              		.loc 2 978 0
 3157 001e 03B0     		add	sp, sp, #12
 3158              		.cfi_remember_state
 3159              		.cfi_def_cfa_offset 20
 3160              		@ sp needed
 3161 0020 BDE8F040 		pop	{r4, r5, r6, r7, lr}
 3162              		.cfi_restore 14
 3163              		.cfi_restore 7
 3164              		.cfi_restore 6
 3165              		.cfi_restore 5
 3166              		.cfi_restore 4
 3167              		.cfi_def_cfa_offset 0
 3168              		.loc 2 970 0
 3169 0024 FFF7FEBF 		b	chprintf
 3170              	.LVL337:
 3171              	.L337:
 3172              		.cfi_restore_state
 3173 0028 0746     		mov	r7, r0
 3174              	.LVL338:
 3175              	.LBB195:
 3176              	.LBB196:
 3177              		.loc 2 972 0
 3178 002a 1068     		ldr	r0, [r2]
 3179              	.LVL339:
 3180 002c 1646     		mov	r6, r2
 3181 002e FFF7FEFF 		bl	atoi
 3182              	.LVL340:
 3183 0032 0546     		mov	r5, r0
 3184              	.LVL341:
 3185              		.loc 2 973 0
 3186 0034 7068     		ldr	r0, [r6, #4]
 3187 0036 FFF7FEFF 		bl	atoi
 3188              	.LVL342:
 3189              		.loc 2 974 0
 3190 003a 2DB2     		sxth	r5, r5
 3191 003c 06B2     		sxth	r6, r0
 3192              	.LVL343:
ARM GAS  /tmp/ccHKfm7W.s 			page 57


 3193 003e 3346     		mov	r3, r6
 3194 0040 2A46     		mov	r2, r5
 3195 0042 0C49     		ldr	r1, .L343+12
 3196 0044 3846     		mov	r0, r7
 3197              	.LVL344:
 3198 0046 FFF7FEFF 		bl	chprintf
 3199              	.LVL345:
 3200              		.loc 2 975 0
 3201 004a 3046     		mov	r0, r6
 3202 004c FFF7FEFF 		bl	right_motor_set_speed
 3203              	.LVL346:
 3204              		.loc 2 976 0
 3205 0050 019A     		ldr	r2, [sp, #4]
 3206 0052 2368     		ldr	r3, [r4]
 3207 0054 9A42     		cmp	r2, r3
 3208 0056 05D1     		bne	.L342
 3209 0058 2846     		mov	r0, r5
 3210              	.LBE196:
 3211              	.LBE195:
 3212              		.loc 2 978 0
 3213 005a 03B0     		add	sp, sp, #12
 3214              		.cfi_remember_state
 3215              		.cfi_def_cfa_offset 20
 3216              		@ sp needed
 3217 005c BDE8F040 		pop	{r4, r5, r6, r7, lr}
 3218              		.cfi_restore 14
 3219              		.cfi_restore 7
 3220              		.cfi_restore 6
 3221              		.cfi_restore 5
 3222              		.cfi_restore 4
 3223              		.cfi_def_cfa_offset 0
 3224              	.LVL347:
 3225              	.LBB198:
 3226              	.LBB197:
 3227              		.loc 2 976 0
 3228 0060 FFF7FEBF 		b	left_motor_set_speed
 3229              	.LVL348:
 3230              	.L342:
 3231              		.cfi_restore_state
 3232 0064 FFF7FEFF 		bl	__stack_chk_fail
 3233              	.LVL349:
 3234              	.L344:
 3235              		.align	2
 3236              	.L343:
 3237 0068 00000000 		.word	__stack_chk_guard
 3238 006c B4FBFFFF 		.word	-1100
 3239 0070 00000000 		.word	.LC70
 3240 0074 30000000 		.word	.LC71
 3241              	.LBE197:
 3242              	.LBE198:
 3243              		.cfi_endproc
 3244              	.LFE302:
 3245              		.size	cmd_set_speed, .-cmd_set_speed
 3246              		.section	.text.cmd_set_led,"ax",%progbits
 3247              		.align	1
 3248              		.p2align 4,,15
 3249              		.syntax unified
ARM GAS  /tmp/ccHKfm7W.s 			page 58


 3250              		.thumb
 3251              		.thumb_func
 3252              		.fpu fpv4-sp-d16
 3253              		.type	cmd_set_led, %function
 3254              	cmd_set_led:
 3255              	.LFB301:
 3256              		.loc 2 944 0
 3257              		.cfi_startproc
 3258              		@ args = 0, pretend = 0, frame = 8
 3259              		@ frame_needed = 0, uses_anonymous_args = 0
 3260              	.LVL350:
 3261 0000 70B5     		push	{r4, r5, r6, lr}
 3262              		.cfi_def_cfa_offset 16
 3263              		.cfi_offset 4, -16
 3264              		.cfi_offset 5, -12
 3265              		.cfi_offset 6, -8
 3266              		.cfi_offset 14, -4
 3267 0002 1F4C     		ldr	r4, .L361
 3268 0004 82B0     		sub	sp, sp, #8
 3269              		.cfi_def_cfa_offset 24
 3270              		.loc 2 944 0
 3271 0006 2368     		ldr	r3, [r4]
 3272 0008 0193     		str	r3, [sp, #4]
 3273              	.LVL351:
 3274              		.loc 2 948 0
 3275 000a 0229     		cmp	r1, #2
 3276 000c 09D0     		beq	.L346
 3277              		.loc 2 949 0
 3278 000e 019A     		ldr	r2, [sp, #4]
 3279              	.LVL352:
 3280 0010 2368     		ldr	r3, [r4]
 3281 0012 9A42     		cmp	r2, r3
 3282 0014 32D1     		bne	.L357
 3283 0016 1B49     		ldr	r1, .L361+4
 3284              	.LVL353:
 3285              		.loc 2 962 0
 3286 0018 02B0     		add	sp, sp, #8
 3287              		.cfi_remember_state
 3288              		.cfi_def_cfa_offset 16
 3289              		@ sp needed
 3290 001a BDE87040 		pop	{r4, r5, r6, lr}
 3291              		.cfi_restore 14
 3292              		.cfi_restore 6
 3293              		.cfi_restore 5
 3294              		.cfi_restore 4
 3295              		.cfi_def_cfa_offset 0
 3296              		.loc 2 949 0
 3297 001e FFF7FEBF 		b	chprintf
 3298              	.LVL354:
 3299              	.L346:
 3300              		.cfi_restore_state
 3301              	.LBB201:
 3302              	.LBB202:
 3303              		.loc 2 951 0
 3304 0022 1068     		ldr	r0, [r2]
 3305              	.LVL355:
 3306 0024 1546     		mov	r5, r2
ARM GAS  /tmp/ccHKfm7W.s 			page 59


 3307 0026 FFF7FEFF 		bl	atoi
 3308              	.LVL356:
 3309 002a C6B2     		uxtb	r6, r0
 3310              	.LVL357:
 3311              		.loc 2 952 0
 3312 002c 6868     		ldr	r0, [r5, #4]
 3313 002e FFF7FEFF 		bl	atoi
 3314              	.LVL358:
 3315              		.loc 2 954 0
 3316 0032 032E     		cmp	r6, #3
 3317              		.loc 2 955 0
 3318 0034 019A     		ldr	r2, [sp, #4]
 3319 0036 2368     		ldr	r3, [r4]
 3320              		.loc 2 954 0
 3321 0038 0FD9     		bls	.L358
 3322              		.loc 2 956 0
 3323 003a 042E     		cmp	r6, #4
 3324 003c 16D0     		beq	.L359
 3325              		.loc 2 958 0
 3326 003e 052E     		cmp	r6, #5
 3327 0040 03D0     		beq	.L360
 3328              	.LBE202:
 3329              	.LBE201:
 3330              		.loc 2 962 0
 3331 0042 9A42     		cmp	r2, r3
 3332 0044 1AD1     		bne	.L357
 3333 0046 02B0     		add	sp, sp, #8
 3334              		.cfi_remember_state
 3335              		.cfi_def_cfa_offset 16
 3336              		@ sp needed
 3337 0048 70BD     		pop	{r4, r5, r6, pc}
 3338              	.LVL359:
 3339              	.L360:
 3340              		.cfi_restore_state
 3341              	.LBB207:
 3342              	.LBB203:
 3343              		.loc 2 959 0
 3344 004a 9A42     		cmp	r2, r3
 3345 004c 16D1     		bne	.L357
 3346 004e C0B2     		uxtb	r0, r0
 3347              	.LBE203:
 3348              	.LBE207:
 3349              		.loc 2 962 0
 3350 0050 02B0     		add	sp, sp, #8
 3351              		.cfi_remember_state
 3352              		.cfi_def_cfa_offset 16
 3353              		@ sp needed
 3354 0052 BDE87040 		pop	{r4, r5, r6, lr}
 3355              		.cfi_restore 14
 3356              		.cfi_restore 6
 3357              		.cfi_restore 5
 3358              		.cfi_restore 4
 3359              		.cfi_def_cfa_offset 0
 3360              	.LVL360:
 3361              	.LBB208:
 3362              	.LBB204:
 3363              		.loc 2 959 0
ARM GAS  /tmp/ccHKfm7W.s 			page 60


 3364 0056 FFF7FEBF 		b	set_front_led
 3365              	.LVL361:
 3366              	.L358:
 3367              		.cfi_restore_state
 3368              		.loc 2 955 0
 3369 005a 9A42     		cmp	r2, r3
 3370 005c 0ED1     		bne	.L357
 3371 005e C1B2     		uxtb	r1, r0
 3372 0060 3046     		mov	r0, r6
 3373              	.LVL362:
 3374              	.LBE204:
 3375              	.LBE208:
 3376              		.loc 2 962 0
 3377 0062 02B0     		add	sp, sp, #8
 3378              		.cfi_remember_state
 3379              		.cfi_def_cfa_offset 16
 3380              		@ sp needed
 3381 0064 BDE87040 		pop	{r4, r5, r6, lr}
 3382              		.cfi_restore 14
 3383              		.cfi_restore 6
 3384              		.cfi_restore 5
 3385              		.cfi_restore 4
 3386              		.cfi_def_cfa_offset 0
 3387              	.LVL363:
 3388              	.LBB209:
 3389              	.LBB205:
 3390              		.loc 2 955 0
 3391 0068 FFF7FEBF 		b	set_led
 3392              	.LVL364:
 3393              	.L359:
 3394              		.cfi_restore_state
 3395              		.loc 2 957 0
 3396 006c 9A42     		cmp	r2, r3
 3397 006e 05D1     		bne	.L357
 3398 0070 C0B2     		uxtb	r0, r0
 3399              	.LBE205:
 3400              	.LBE209:
 3401              		.loc 2 962 0
 3402 0072 02B0     		add	sp, sp, #8
 3403              		.cfi_remember_state
 3404              		.cfi_def_cfa_offset 16
 3405              		@ sp needed
 3406 0074 BDE87040 		pop	{r4, r5, r6, lr}
 3407              		.cfi_restore 14
 3408              		.cfi_restore 6
 3409              		.cfi_restore 5
 3410              		.cfi_restore 4
 3411              		.cfi_def_cfa_offset 0
 3412              	.LVL365:
 3413              	.LBB210:
 3414              	.LBB206:
 3415              		.loc 2 957 0
 3416 0078 FFF7FEBF 		b	set_body_led
 3417              	.LVL366:
 3418              	.L357:
 3419              		.cfi_restore_state
 3420              	.LBE206:
ARM GAS  /tmp/ccHKfm7W.s 			page 61


 3421              	.LBE210:
 3422              		.loc 2 962 0
 3423 007c FFF7FEFF 		bl	__stack_chk_fail
 3424              	.LVL367:
 3425              	.L362:
 3426              		.align	2
 3427              	.L361:
 3428 0080 00000000 		.word	__stack_chk_guard
 3429 0084 00000000 		.word	.LC72
 3430              		.cfi_endproc
 3431              	.LFE301:
 3432              		.size	cmd_set_led, .-cmd_set_led
 3433              		.section	.text.cmd_cam_send,"ax",%progbits
 3434              		.align	1
 3435              		.p2align 4,,15
 3436              		.syntax unified
 3437              		.thumb
 3438              		.thumb_func
 3439              		.fpu fpv4-sp-d16
 3440              		.type	cmd_cam_send, %function
 3441              	cmd_cam_send:
 3442              	.LFB300:
 3443              		.loc 2 918 0
 3444              		.cfi_startproc
 3445              		@ args = 0, pretend = 0, frame = 8
 3446              		@ frame_needed = 0, uses_anonymous_args = 0
 3447              	.LVL368:
 3448 0000 F0B5     		push	{r4, r5, r6, r7, lr}
 3449              		.cfi_def_cfa_offset 20
 3450              		.cfi_offset 4, -20
 3451              		.cfi_offset 5, -16
 3452              		.cfi_offset 6, -12
 3453              		.cfi_offset 7, -8
 3454              		.cfi_offset 14, -4
 3455 0002 284C     		ldr	r4, .L376
 3456 0004 83B0     		sub	sp, sp, #12
 3457              		.cfi_def_cfa_offset 32
 3458              		.loc 2 918 0
 3459 0006 2368     		ldr	r3, [r4]
 3460 0008 0193     		str	r3, [sp, #4]
 3461 000a 0546     		mov	r5, r0
 3462              		.loc 2 923 0
 3463 000c FFF7FEFF 		bl	dcmi_capture_stop
 3464              	.LVL369:
 3465 0010 0028     		cmp	r0, #0
 3466 0012 39D1     		bne	.L374
 3467              		.loc 2 926 0
 3468 0014 FFF7FEFF 		bl	dcmi_double_buffering_enabled
 3469              	.LVL370:
 3470 0018 D8B9     		cbnz	r0, .L375
 3471              		.loc 2 935 0
 3472 001a 2846     		mov	r0, r5
 3473 001c 2249     		ldr	r1, .L376+4
 3474              		.loc 2 938 0
 3475 001e 234D     		ldr	r5, .L376+8
 3476              	.LVL371:
 3477              		.loc 2 935 0
ARM GAS  /tmp/ccHKfm7W.s 			page 62


 3478 0020 FFF7FEFF 		bl	chprintf
 3479              	.LVL372:
 3480              		.loc 2 936 0
 3481 0024 41F28830 		movw	r0, #5000
 3482 0028 FFF7FEFF 		bl	chThdSleep
 3483              	.LVL373:
 3484              		.loc 2 937 0
 3485 002c FFF7FEFF 		bl	cam_get_last_image_ptr
 3486              	.LVL374:
 3487              	.L373:
 3488              		.loc 2 938 0
 3489 0030 2B68     		ldr	r3, [r5]
 3490              		.loc 2 937 0
 3491 0032 0746     		mov	r7, r0
 3492              	.LVL375:
 3493              		.loc 2 938 0
 3494 0034 1E68     		ldr	r6, [r3]
 3495 0036 FFF7FEFF 		bl	cam_get_image_size
 3496              	.LVL376:
 3497 003a 0199     		ldr	r1, [sp, #4]
 3498 003c 2368     		ldr	r3, [r4]
 3499 003e 9942     		cmp	r1, r3
 3500 0040 0246     		mov	r2, r0
 3501 0042 2CD1     		bne	.L371
 3502 0044 3946     		mov	r1, r7
 3503 0046 2846     		mov	r0, r5
 3504 0048 3346     		mov	r3, r6
 3505              		.loc 2 941 0
 3506 004a 03B0     		add	sp, sp, #12
 3507              		.cfi_remember_state
 3508              		.cfi_def_cfa_offset 20
 3509              		@ sp needed
 3510 004c BDE8F040 		pop	{r4, r5, r6, r7, lr}
 3511              		.cfi_restore 14
 3512              		.cfi_restore 7
 3513              		.cfi_restore 6
 3514              		.cfi_restore 5
 3515              		.cfi_restore 4
 3516              		.cfi_def_cfa_offset 0
 3517              	.LVL377:
 3518              		.loc 2 938 0
 3519 0050 1847     		bx	r3
 3520              	.LVL378:
 3521              	.L375:
 3522              		.cfi_restore_state
 3523              	.LBB213:
 3524              	.LBB214:
 3525              		.loc 2 927 0
 3526 0052 1749     		ldr	r1, .L376+12
 3527 0054 2846     		mov	r0, r5
 3528 0056 FFF7FEFF 		bl	chprintf
 3529              	.LVL379:
 3530              		.loc 2 930 0
 3531 005a 144D     		ldr	r5, .L376+8
 3532              	.LVL380:
 3533              		.loc 2 928 0
 3534 005c 41F28830 		movw	r0, #5000
ARM GAS  /tmp/ccHKfm7W.s 			page 63


 3535 0060 FFF7FEFF 		bl	chThdSleep
 3536              	.LVL381:
 3537              		.loc 2 929 0
 3538 0064 FFF7FEFF 		bl	dcmi_get_first_buffer_ptr
 3539              	.LVL382:
 3540              		.loc 2 930 0
 3541 0068 2B68     		ldr	r3, [r5]
 3542              		.loc 2 929 0
 3543 006a 0746     		mov	r7, r0
 3544              	.LVL383:
 3545              		.loc 2 930 0
 3546 006c 1E68     		ldr	r6, [r3]
 3547 006e FFF7FEFF 		bl	cam_get_image_size
 3548              	.LVL384:
 3549 0072 3946     		mov	r1, r7
 3550 0074 0246     		mov	r2, r0
 3551 0076 2846     		mov	r0, r5
 3552 0078 B047     		blx	r6
 3553              	.LVL385:
 3554              		.loc 2 931 0
 3555 007a 40F6B830 		movw	r0, #3000
 3556 007e FFF7FEFF 		bl	chThdSleep
 3557              	.LVL386:
 3558              		.loc 2 932 0
 3559 0082 FFF7FEFF 		bl	dcmi_get_second_buffer_ptr
 3560              	.LVL387:
 3561 0086 D3E7     		b	.L373
 3562              	.LVL388:
 3563              	.L374:
 3564              	.LBE214:
 3565              	.LBE213:
 3566              		.loc 2 924 0
 3567 0088 019A     		ldr	r2, [sp, #4]
 3568 008a 2368     		ldr	r3, [r4]
 3569 008c 9A42     		cmp	r2, r3
 3570 008e 06D1     		bne	.L371
 3571 0090 0849     		ldr	r1, .L376+16
 3572 0092 2846     		mov	r0, r5
 3573              		.loc 2 941 0
 3574 0094 03B0     		add	sp, sp, #12
 3575              		.cfi_remember_state
 3576              		.cfi_def_cfa_offset 20
 3577              		@ sp needed
 3578 0096 BDE8F040 		pop	{r4, r5, r6, r7, lr}
 3579              		.cfi_restore 14
 3580              		.cfi_restore 7
 3581              		.cfi_restore 6
 3582              		.cfi_restore 5
 3583              		.cfi_restore 4
 3584              		.cfi_def_cfa_offset 0
 3585              	.LVL389:
 3586              		.loc 2 924 0
 3587 009a FFF7FEBF 		b	chprintf
 3588              	.LVL390:
 3589              	.L371:
 3590              		.cfi_restore_state
 3591              		.loc 2 938 0
ARM GAS  /tmp/ccHKfm7W.s 			page 64


 3592 009e FFF7FEFF 		bl	__stack_chk_fail
 3593              	.LVL391:
 3594              	.L377:
 3595 00a2 00BF     		.align	2
 3596              	.L376:
 3597 00a4 00000000 		.word	__stack_chk_guard
 3598 00a8 4C000000 		.word	.LC75
 3599 00ac 00000000 		.word	SDU1
 3600 00b0 1C000000 		.word	.LC74
 3601 00b4 00000000 		.word	.LC73
 3602              		.cfi_endproc
 3603              	.LFE300:
 3604              		.size	cmd_cam_send, .-cmd_cam_send
 3605              		.section	.text.cmd_cam_dcmi_prepare,"ax",%progbits
 3606              		.align	1
 3607              		.p2align 4,,15
 3608              		.syntax unified
 3609              		.thumb
 3610              		.thumb_func
 3611              		.fpu fpv4-sp-d16
 3612              		.type	cmd_cam_dcmi_prepare, %function
 3613              	cmd_cam_dcmi_prepare:
 3614              	.LFB297:
 3615              		.loc 2 869 0
 3616              		.cfi_startproc
 3617              		@ args = 0, pretend = 0, frame = 8
 3618              		@ frame_needed = 0, uses_anonymous_args = 0
 3619              	.LVL392:
 3620 0000 70B5     		push	{r4, r5, r6, lr}
 3621              		.cfi_def_cfa_offset 16
 3622              		.cfi_offset 4, -16
 3623              		.cfi_offset 5, -12
 3624              		.cfi_offset 6, -8
 3625              		.cfi_offset 14, -4
 3626 0002 1E4C     		ldr	r4, .L392
 3627 0004 82B0     		sub	sp, sp, #8
 3628              		.cfi_def_cfa_offset 24
 3629              		.loc 2 869 0
 3630 0006 2368     		ldr	r3, [r4]
 3631 0008 0193     		str	r3, [sp, #4]
 3632              	.LVL393:
 3633              		.loc 2 872 0
 3634 000a 0129     		cmp	r1, #1
 3635 000c 09D0     		beq	.L379
 3636              		.loc 2 873 0
 3637 000e 019A     		ldr	r2, [sp, #4]
 3638              	.LVL394:
 3639 0010 2368     		ldr	r3, [r4]
 3640 0012 9A42     		cmp	r2, r3
 3641 0014 2FD1     		bne	.L389
 3642 0016 1A49     		ldr	r1, .L392+4
 3643              	.LVL395:
 3644              		.loc 2 893 0
 3645 0018 02B0     		add	sp, sp, #8
 3646              		.cfi_remember_state
 3647              		.cfi_def_cfa_offset 16
 3648              		@ sp needed
ARM GAS  /tmp/ccHKfm7W.s 			page 65


 3649 001a BDE87040 		pop	{r4, r5, r6, lr}
 3650              		.cfi_restore 14
 3651              		.cfi_restore 6
 3652              		.cfi_restore 5
 3653              		.cfi_restore 4
 3654              		.cfi_def_cfa_offset 0
 3655              	.LBB217:
 3656              	.LBB218:
 3657              		.loc 2 888 0
 3658 001e FFF7FEBF 		b	chprintf
 3659              	.LVL396:
 3660              	.L379:
 3661              		.cfi_restore_state
 3662 0022 0546     		mov	r5, r0
 3663              	.LVL397:
 3664              		.loc 2 875 0
 3665 0024 1068     		ldr	r0, [r2]
 3666              	.LVL398:
 3667 0026 FFF7FEFF 		bl	atoi
 3668              	.LVL399:
 3669 002a C6B2     		uxtb	r6, r0
 3670              	.LVL400:
 3671              		.loc 2 877 0
 3672 002c 3046     		mov	r0, r6
 3673 002e FFF7FEFF 		bl	dcmi_set_capture_mode
 3674              	.LVL401:
 3675              		.loc 2 879 0
 3676 0032 7EB1     		cbz	r6, .L390
 3677              		.loc 2 882 0
 3678 0034 FFF7FEFF 		bl	dcmi_enable_double_buffering
 3679              	.LVL402:
 3680              		.loc 2 885 0
 3681 0038 FFF7FEFF 		bl	dcmi_prepare
 3682              	.LVL403:
 3683              		.loc 2 886 0
 3684 003c 019A     		ldr	r2, [sp, #4]
 3685 003e 2368     		ldr	r3, [r4]
 3686              		.loc 2 885 0
 3687 0040 80B1     		cbz	r0, .L391
 3688              	.L383:
 3689              		.loc 2 888 0
 3690 0042 9A42     		cmp	r2, r3
 3691 0044 17D1     		bne	.L389
 3692 0046 0F49     		ldr	r1, .L392+8
 3693 0048 2846     		mov	r0, r5
 3694              	.LBE218:
 3695              	.LBE217:
 3696              		.loc 2 893 0
 3697 004a 02B0     		add	sp, sp, #8
 3698              		.cfi_remember_state
 3699              		.cfi_def_cfa_offset 16
 3700              		@ sp needed
 3701 004c BDE87040 		pop	{r4, r5, r6, lr}
 3702              		.cfi_restore 14
 3703              		.cfi_restore 6
 3704              		.cfi_restore 5
 3705              		.cfi_restore 4
ARM GAS  /tmp/ccHKfm7W.s 			page 66


 3706              		.cfi_def_cfa_offset 0
 3707              	.LVL404:
 3708              	.LBB221:
 3709              	.LBB219:
 3710              		.loc 2 888 0
 3711 0050 FFF7FEBF 		b	chprintf
 3712              	.LVL405:
 3713              	.L390:
 3714              		.cfi_restore_state
 3715              		.loc 2 880 0
 3716 0054 FFF7FEFF 		bl	dcmi_disable_double_buffering
 3717              	.LVL406:
 3718              		.loc 2 885 0
 3719 0058 FFF7FEFF 		bl	dcmi_prepare
 3720              	.LVL407:
 3721              		.loc 2 886 0
 3722 005c 019A     		ldr	r2, [sp, #4]
 3723 005e 2368     		ldr	r3, [r4]
 3724              		.loc 2 885 0
 3725 0060 0028     		cmp	r0, #0
 3726 0062 EED1     		bne	.L383
 3727              	.L391:
 3728              		.loc 2 886 0
 3729 0064 9A42     		cmp	r2, r3
 3730 0066 06D1     		bne	.L389
 3731 0068 0749     		ldr	r1, .L392+12
 3732 006a 2846     		mov	r0, r5
 3733              	.LBE219:
 3734              	.LBE221:
 3735              		.loc 2 893 0
 3736 006c 02B0     		add	sp, sp, #8
 3737              		.cfi_remember_state
 3738              		.cfi_def_cfa_offset 16
 3739              		@ sp needed
 3740 006e BDE87040 		pop	{r4, r5, r6, lr}
 3741              		.cfi_restore 14
 3742              		.cfi_restore 6
 3743              		.cfi_restore 5
 3744              		.cfi_restore 4
 3745              		.cfi_def_cfa_offset 0
 3746              	.LVL408:
 3747              	.LBB222:
 3748              	.LBB220:
 3749              		.loc 2 888 0
 3750 0072 FFF7FEBF 		b	chprintf
 3751              	.LVL409:
 3752              	.L389:
 3753              		.cfi_restore_state
 3754 0076 FFF7FEFF 		bl	__stack_chk_fail
 3755              	.LVL410:
 3756              	.L393:
 3757 007a 00BF     		.align	2
 3758              	.L392:
 3759 007c 00000000 		.word	__stack_chk_guard
 3760 0080 00000000 		.word	.LC76
 3761 0084 64000000 		.word	.LC78
 3762 0088 50000000 		.word	.LC77
ARM GAS  /tmp/ccHKfm7W.s 			page 67


 3763              	.LBE220:
 3764              	.LBE222:
 3765              		.cfi_endproc
 3766              	.LFE297:
 3767              		.size	cmd_cam_dcmi_prepare, .-cmd_cam_dcmi_prepare
 3768              		.section	.text.cmd_cam_set_exposure,"ax",%progbits
 3769              		.align	1
 3770              		.p2align 4,,15
 3771              		.syntax unified
 3772              		.thumb
 3773              		.thumb_func
 3774              		.fpu fpv4-sp-d16
 3775              		.type	cmd_cam_set_exposure, %function
 3776              	cmd_cam_set_exposure:
 3777              	.LFB296:
 3778              		.loc 2 847 0
 3779              		.cfi_startproc
 3780              		@ args = 0, pretend = 0, frame = 8
 3781              		@ frame_needed = 0, uses_anonymous_args = 0
 3782              	.LVL411:
 3783 0000 F0B5     		push	{r4, r5, r6, r7, lr}
 3784              		.cfi_def_cfa_offset 20
 3785              		.cfi_offset 4, -20
 3786              		.cfi_offset 5, -16
 3787              		.cfi_offset 6, -12
 3788              		.cfi_offset 7, -8
 3789              		.cfi_offset 14, -4
 3790 0002 1A4C     		ldr	r4, .L405
 3791 0004 83B0     		sub	sp, sp, #12
 3792              		.cfi_def_cfa_offset 32
 3793              		.loc 2 847 0
 3794 0006 2368     		ldr	r3, [r4]
 3795 0008 0193     		str	r3, [sp, #4]
 3796              		.loc 2 852 0
 3797 000a 0229     		cmp	r1, #2
 3798 000c 09D0     		beq	.L395
 3799              		.loc 2 853 0
 3800 000e 019A     		ldr	r2, [sp, #4]
 3801              	.LVL412:
 3802 0010 2368     		ldr	r3, [r4]
 3803 0012 9A42     		cmp	r2, r3
 3804 0014 28D1     		bne	.L403
 3805 0016 1649     		ldr	r1, .L405+4
 3806              	.LVL413:
 3807              		.loc 2 866 0
 3808 0018 03B0     		add	sp, sp, #12
 3809              		.cfi_remember_state
 3810              		.cfi_def_cfa_offset 20
 3811              		@ sp needed
 3812 001a BDE8F040 		pop	{r4, r5, r6, r7, lr}
 3813              		.cfi_restore 14
 3814              		.cfi_restore 7
 3815              		.cfi_restore 6
 3816              		.cfi_restore 5
 3817              		.cfi_restore 4
 3818              		.cfi_def_cfa_offset 0
 3819              	.LBB225:
ARM GAS  /tmp/ccHKfm7W.s 			page 68


 3820              	.LBB226:
 3821              		.loc 2 863 0
 3822 001e FFF7FEBF 		b	chprintf
 3823              	.LVL414:
 3824              	.L395:
 3825              		.cfi_restore_state
 3826 0022 0646     		mov	r6, r0
 3827              	.LVL415:
 3828              		.loc 2 856 0
 3829 0024 1068     		ldr	r0, [r2]
 3830              	.LVL416:
 3831 0026 1546     		mov	r5, r2
 3832 0028 FFF7FEFF 		bl	atoi
 3833              	.LVL417:
 3834 002c 0746     		mov	r7, r0
 3835              	.LVL418:
 3836              		.loc 2 857 0
 3837 002e 6868     		ldr	r0, [r5, #4]
 3838 0030 FFF7FEFF 		bl	atoi
 3839              	.LVL419:
 3840              		.loc 2 859 0
 3841 0034 C1B2     		uxtb	r1, r0
 3842 0036 B8B2     		uxth	r0, r7
 3843              	.LVL420:
 3844 0038 FFF7FEFF 		bl	cam_set_exposure
 3845              	.LVL421:
 3846              		.loc 2 861 0
 3847 003c 019A     		ldr	r2, [sp, #4]
 3848 003e 2368     		ldr	r3, [r4]
 3849              		.loc 2 860 0
 3850 0040 40B9     		cbnz	r0, .L404
 3851              		.loc 2 863 0
 3852 0042 9A42     		cmp	r2, r3
 3853 0044 10D1     		bne	.L403
 3854 0046 0B49     		ldr	r1, .L405+8
 3855 0048 3046     		mov	r0, r6
 3856              	.LVL422:
 3857              	.LBE226:
 3858              	.LBE225:
 3859              		.loc 2 866 0
 3860 004a 03B0     		add	sp, sp, #12
 3861              		.cfi_remember_state
 3862              		.cfi_def_cfa_offset 20
 3863              		@ sp needed
 3864 004c BDE8F040 		pop	{r4, r5, r6, r7, lr}
 3865              		.cfi_restore 14
 3866              		.cfi_restore 7
 3867              		.cfi_restore 6
 3868              		.cfi_restore 5
 3869              		.cfi_restore 4
 3870              		.cfi_def_cfa_offset 0
 3871              	.LVL423:
 3872              	.LBB229:
 3873              	.LBB227:
 3874              		.loc 2 863 0
 3875 0050 FFF7FEBF 		b	chprintf
 3876              	.LVL424:
ARM GAS  /tmp/ccHKfm7W.s 			page 69


 3877              	.L404:
 3878              		.cfi_restore_state
 3879              		.loc 2 861 0
 3880 0054 9A42     		cmp	r2, r3
 3881 0056 07D1     		bne	.L403
 3882 0058 0749     		ldr	r1, .L405+12
 3883 005a 0246     		mov	r2, r0
 3884 005c 3046     		mov	r0, r6
 3885              	.LVL425:
 3886              	.LBE227:
 3887              	.LBE229:
 3888              		.loc 2 866 0
 3889 005e 03B0     		add	sp, sp, #12
 3890              		.cfi_remember_state
 3891              		.cfi_def_cfa_offset 20
 3892              		@ sp needed
 3893 0060 BDE8F040 		pop	{r4, r5, r6, r7, lr}
 3894              		.cfi_restore 14
 3895              		.cfi_restore 7
 3896              		.cfi_restore 6
 3897              		.cfi_restore 5
 3898              		.cfi_restore 4
 3899              		.cfi_def_cfa_offset 0
 3900              	.LVL426:
 3901              	.LBB230:
 3902              	.LBB228:
 3903              		.loc 2 861 0
 3904 0064 FFF7FEBF 		b	chprintf
 3905              	.LVL427:
 3906              	.L403:
 3907              		.cfi_restore_state
 3908              		.loc 2 863 0
 3909 0068 FFF7FEFF 		bl	__stack_chk_fail
 3910              	.LVL428:
 3911              	.L406:
 3912              		.align	2
 3913              	.L405:
 3914 006c 00000000 		.word	__stack_chk_guard
 3915 0070 00000000 		.word	.LC79
 3916 0074 C4000000 		.word	.LC81
 3917 0078 A4000000 		.word	.LC80
 3918              	.LBE228:
 3919              	.LBE230:
 3920              		.cfi_endproc
 3921              	.LFE296:
 3922              		.size	cmd_cam_set_exposure, .-cmd_cam_set_exposure
 3923              		.section	.text.cmd_cam_set_ae,"ax",%progbits
 3924              		.align	1
 3925              		.p2align 4,,15
 3926              		.syntax unified
 3927              		.thumb
 3928              		.thumb_func
 3929              		.fpu fpv4-sp-d16
 3930              		.type	cmd_cam_set_ae, %function
 3931              	cmd_cam_set_ae:
 3932              	.LFB295:
 3933              		.loc 2 827 0
ARM GAS  /tmp/ccHKfm7W.s 			page 70


 3934              		.cfi_startproc
 3935              		@ args = 0, pretend = 0, frame = 8
 3936              		@ frame_needed = 0, uses_anonymous_args = 0
 3937              	.LVL429:
 3938 0000 30B5     		push	{r4, r5, lr}
 3939              		.cfi_def_cfa_offset 12
 3940              		.cfi_offset 4, -12
 3941              		.cfi_offset 5, -8
 3942              		.cfi_offset 14, -4
 3943 0002 174C     		ldr	r4, .L418
 3944 0004 83B0     		sub	sp, sp, #12
 3945              		.cfi_def_cfa_offset 24
 3946              		.loc 2 827 0
 3947 0006 2368     		ldr	r3, [r4]
 3948 0008 0193     		str	r3, [sp, #4]
 3949              		.loc 2 831 0
 3950 000a 0129     		cmp	r1, #1
 3951 000c 09D0     		beq	.L408
 3952              		.loc 2 832 0
 3953 000e 019A     		ldr	r2, [sp, #4]
 3954              	.LVL430:
 3955 0010 2368     		ldr	r3, [r4]
 3956 0012 9A42     		cmp	r2, r3
 3957 0014 22D1     		bne	.L416
 3958 0016 1349     		ldr	r1, .L418+4
 3959              	.LVL431:
 3960              		.loc 2 844 0
 3961 0018 03B0     		add	sp, sp, #12
 3962              		.cfi_remember_state
 3963              		.cfi_def_cfa_offset 12
 3964              		@ sp needed
 3965 001a BDE83040 		pop	{r4, r5, lr}
 3966              		.cfi_restore 14
 3967              		.cfi_restore 5
 3968              		.cfi_restore 4
 3969              		.cfi_def_cfa_offset 0
 3970              	.LBB233:
 3971              	.LBB234:
 3972              		.loc 2 841 0
 3973 001e FFF7FEBF 		b	chprintf
 3974              	.LVL432:
 3975              	.L408:
 3976              		.cfi_restore_state
 3977 0022 0546     		mov	r5, r0
 3978              	.LVL433:
 3979              		.loc 2 835 0
 3980 0024 1068     		ldr	r0, [r2]
 3981              	.LVL434:
 3982 0026 FFF7FEFF 		bl	atoi
 3983              	.LVL435:
 3984              		.loc 2 837 0
 3985 002a C0B2     		uxtb	r0, r0
 3986 002c FFF7FEFF 		bl	cam_set_ae
 3987              	.LVL436:
 3988              		.loc 2 839 0
 3989 0030 019A     		ldr	r2, [sp, #4]
 3990 0032 2368     		ldr	r3, [r4]
ARM GAS  /tmp/ccHKfm7W.s 			page 71


 3991              		.loc 2 838 0
 3992 0034 40B9     		cbnz	r0, .L417
 3993              		.loc 2 841 0
 3994 0036 9A42     		cmp	r2, r3
 3995 0038 10D1     		bne	.L416
 3996 003a 0B49     		ldr	r1, .L418+8
 3997 003c 2846     		mov	r0, r5
 3998              	.LVL437:
 3999              	.LBE234:
 4000              	.LBE233:
 4001              		.loc 2 844 0
 4002 003e 03B0     		add	sp, sp, #12
 4003              		.cfi_remember_state
 4004              		.cfi_def_cfa_offset 12
 4005              		@ sp needed
 4006 0040 BDE83040 		pop	{r4, r5, lr}
 4007              		.cfi_restore 14
 4008              		.cfi_restore 5
 4009              		.cfi_restore 4
 4010              		.cfi_def_cfa_offset 0
 4011              	.LVL438:
 4012              	.LBB237:
 4013              	.LBB235:
 4014              		.loc 2 841 0
 4015 0044 FFF7FEBF 		b	chprintf
 4016              	.LVL439:
 4017              	.L417:
 4018              		.cfi_restore_state
 4019              		.loc 2 839 0
 4020 0048 9A42     		cmp	r2, r3
 4021 004a 07D1     		bne	.L416
 4022 004c 0749     		ldr	r1, .L418+12
 4023 004e 0246     		mov	r2, r0
 4024 0050 2846     		mov	r0, r5
 4025              	.LVL440:
 4026              	.LBE235:
 4027              	.LBE237:
 4028              		.loc 2 844 0
 4029 0052 03B0     		add	sp, sp, #12
 4030              		.cfi_remember_state
 4031              		.cfi_def_cfa_offset 12
 4032              		@ sp needed
 4033 0054 BDE83040 		pop	{r4, r5, lr}
 4034              		.cfi_restore 14
 4035              		.cfi_restore 5
 4036              		.cfi_restore 4
 4037              		.cfi_def_cfa_offset 0
 4038              	.LVL441:
 4039              	.LBB238:
 4040              	.LBB236:
 4041              		.loc 2 839 0
 4042 0058 FFF7FEBF 		b	chprintf
 4043              	.LVL442:
 4044              	.L416:
 4045              		.cfi_restore_state
 4046              		.loc 2 841 0
 4047 005c FFF7FEFF 		bl	__stack_chk_fail
ARM GAS  /tmp/ccHKfm7W.s 			page 72


 4048              	.LVL443:
 4049              	.L419:
 4050              		.align	2
 4051              	.L418:
 4052 0060 00000000 		.word	__stack_chk_guard
 4053 0064 00000000 		.word	.LC82
 4054 0068 50000000 		.word	.LC84
 4055 006c 30000000 		.word	.LC83
 4056              	.LBE236:
 4057              	.LBE238:
 4058              		.cfi_endproc
 4059              	.LFE295:
 4060              		.size	cmd_cam_set_ae, .-cmd_cam_set_ae
 4061              		.section	.text.cmd_cam_set_awb,"ax",%progbits
 4062              		.align	1
 4063              		.p2align 4,,15
 4064              		.syntax unified
 4065              		.thumb
 4066              		.thumb_func
 4067              		.fpu fpv4-sp-d16
 4068              		.type	cmd_cam_set_awb, %function
 4069              	cmd_cam_set_awb:
 4070              	.LFB294:
 4071              		.loc 2 807 0
 4072              		.cfi_startproc
 4073              		@ args = 0, pretend = 0, frame = 8
 4074              		@ frame_needed = 0, uses_anonymous_args = 0
 4075              	.LVL444:
 4076 0000 30B5     		push	{r4, r5, lr}
 4077              		.cfi_def_cfa_offset 12
 4078              		.cfi_offset 4, -12
 4079              		.cfi_offset 5, -8
 4080              		.cfi_offset 14, -4
 4081 0002 174C     		ldr	r4, .L431
 4082 0004 83B0     		sub	sp, sp, #12
 4083              		.cfi_def_cfa_offset 24
 4084              		.loc 2 807 0
 4085 0006 2368     		ldr	r3, [r4]
 4086 0008 0193     		str	r3, [sp, #4]
 4087              		.loc 2 811 0
 4088 000a 0129     		cmp	r1, #1
 4089 000c 09D0     		beq	.L421
 4090              		.loc 2 812 0
 4091 000e 019A     		ldr	r2, [sp, #4]
 4092              	.LVL445:
 4093 0010 2368     		ldr	r3, [r4]
 4094 0012 9A42     		cmp	r2, r3
 4095 0014 22D1     		bne	.L429
 4096 0016 1349     		ldr	r1, .L431+4
 4097              	.LVL446:
 4098              		.loc 2 824 0
 4099 0018 03B0     		add	sp, sp, #12
 4100              		.cfi_remember_state
 4101              		.cfi_def_cfa_offset 12
 4102              		@ sp needed
 4103 001a BDE83040 		pop	{r4, r5, lr}
 4104              		.cfi_restore 14
ARM GAS  /tmp/ccHKfm7W.s 			page 73


 4105              		.cfi_restore 5
 4106              		.cfi_restore 4
 4107              		.cfi_def_cfa_offset 0
 4108              	.LBB241:
 4109              	.LBB242:
 4110              		.loc 2 821 0
 4111 001e FFF7FEBF 		b	chprintf
 4112              	.LVL447:
 4113              	.L421:
 4114              		.cfi_restore_state
 4115 0022 0546     		mov	r5, r0
 4116              	.LVL448:
 4117              		.loc 2 815 0
 4118 0024 1068     		ldr	r0, [r2]
 4119              	.LVL449:
 4120 0026 FFF7FEFF 		bl	atoi
 4121              	.LVL450:
 4122              		.loc 2 817 0
 4123 002a C0B2     		uxtb	r0, r0
 4124 002c FFF7FEFF 		bl	cam_set_awb
 4125              	.LVL451:
 4126              		.loc 2 819 0
 4127 0030 019A     		ldr	r2, [sp, #4]
 4128 0032 2368     		ldr	r3, [r4]
 4129              		.loc 2 818 0
 4130 0034 40B9     		cbnz	r0, .L430
 4131              		.loc 2 821 0
 4132 0036 9A42     		cmp	r2, r3
 4133 0038 10D1     		bne	.L429
 4134 003a 0B49     		ldr	r1, .L431+8
 4135 003c 2846     		mov	r0, r5
 4136              	.LVL452:
 4137              	.LBE242:
 4138              	.LBE241:
 4139              		.loc 2 824 0
 4140 003e 03B0     		add	sp, sp, #12
 4141              		.cfi_remember_state
 4142              		.cfi_def_cfa_offset 12
 4143              		@ sp needed
 4144 0040 BDE83040 		pop	{r4, r5, lr}
 4145              		.cfi_restore 14
 4146              		.cfi_restore 5
 4147              		.cfi_restore 4
 4148              		.cfi_def_cfa_offset 0
 4149              	.LVL453:
 4150              	.LBB245:
 4151              	.LBB243:
 4152              		.loc 2 821 0
 4153 0044 FFF7FEBF 		b	chprintf
 4154              	.LVL454:
 4155              	.L430:
 4156              		.cfi_restore_state
 4157              		.loc 2 819 0
 4158 0048 9A42     		cmp	r2, r3
 4159 004a 07D1     		bne	.L429
 4160 004c 0749     		ldr	r1, .L431+12
 4161 004e 0246     		mov	r2, r0
ARM GAS  /tmp/ccHKfm7W.s 			page 74


 4162 0050 2846     		mov	r0, r5
 4163              	.LVL455:
 4164              	.LBE243:
 4165              	.LBE245:
 4166              		.loc 2 824 0
 4167 0052 03B0     		add	sp, sp, #12
 4168              		.cfi_remember_state
 4169              		.cfi_def_cfa_offset 12
 4170              		@ sp needed
 4171 0054 BDE83040 		pop	{r4, r5, lr}
 4172              		.cfi_restore 14
 4173              		.cfi_restore 5
 4174              		.cfi_restore 4
 4175              		.cfi_def_cfa_offset 0
 4176              	.LVL456:
 4177              	.LBB246:
 4178              	.LBB244:
 4179              		.loc 2 819 0
 4180 0058 FFF7FEBF 		b	chprintf
 4181              	.LVL457:
 4182              	.L429:
 4183              		.cfi_restore_state
 4184              		.loc 2 821 0
 4185 005c FFF7FEFF 		bl	__stack_chk_fail
 4186              	.LVL458:
 4187              	.L432:
 4188              		.align	2
 4189              	.L431:
 4190 0060 00000000 		.word	__stack_chk_guard
 4191 0064 00000000 		.word	.LC85
 4192 0068 50000000 		.word	.LC87
 4193 006c 30000000 		.word	.LC86
 4194              	.LBE244:
 4195              	.LBE246:
 4196              		.cfi_endproc
 4197              	.LFE294:
 4198              		.size	cmd_cam_set_awb, .-cmd_cam_set_awb
 4199              		.section	.text.cmd_cam_set_gain,"ax",%progbits
 4200              		.align	1
 4201              		.p2align 4,,15
 4202              		.syntax unified
 4203              		.thumb
 4204              		.thumb_func
 4205              		.fpu fpv4-sp-d16
 4206              		.type	cmd_cam_set_gain, %function
 4207              	cmd_cam_set_gain:
 4208              	.LFB293:
 4209              		.loc 2 785 0
 4210              		.cfi_startproc
 4211              		@ args = 0, pretend = 0, frame = 8
 4212              		@ frame_needed = 0, uses_anonymous_args = 0
 4213              	.LVL459:
 4214 0000 2DE9F041 		push	{r4, r5, r6, r7, r8, lr}
 4215              		.cfi_def_cfa_offset 24
 4216              		.cfi_offset 4, -24
 4217              		.cfi_offset 5, -20
 4218              		.cfi_offset 6, -16
ARM GAS  /tmp/ccHKfm7W.s 			page 75


 4219              		.cfi_offset 7, -12
 4220              		.cfi_offset 8, -8
 4221              		.cfi_offset 14, -4
 4222 0004 1D4C     		ldr	r4, .L444
 4223 0006 82B0     		sub	sp, sp, #8
 4224              		.cfi_def_cfa_offset 32
 4225              		.loc 2 785 0
 4226 0008 2368     		ldr	r3, [r4]
 4227 000a 0193     		str	r3, [sp, #4]
 4228              		.loc 2 789 0
 4229 000c 0329     		cmp	r1, #3
 4230 000e 09D0     		beq	.L434
 4231              		.loc 2 790 0
 4232 0010 019A     		ldr	r2, [sp, #4]
 4233              	.LVL460:
 4234 0012 2368     		ldr	r3, [r4]
 4235 0014 9A42     		cmp	r2, r3
 4236 0016 2ED1     		bne	.L442
 4237 0018 1949     		ldr	r1, .L444+4
 4238              	.LVL461:
 4239              		.loc 2 804 0
 4240 001a 02B0     		add	sp, sp, #8
 4241              		.cfi_remember_state
 4242              		.cfi_def_cfa_offset 24
 4243              		@ sp needed
 4244 001c BDE8F041 		pop	{r4, r5, r6, r7, r8, lr}
 4245              		.cfi_restore 14
 4246              		.cfi_restore 8
 4247              		.cfi_restore 7
 4248              		.cfi_restore 6
 4249              		.cfi_restore 5
 4250              		.cfi_restore 4
 4251              		.cfi_def_cfa_offset 0
 4252              	.LBB249:
 4253              	.LBB250:
 4254              		.loc 2 801 0
 4255 0020 FFF7FEBF 		b	chprintf
 4256              	.LVL462:
 4257              	.L434:
 4258              		.cfi_restore_state
 4259 0024 0646     		mov	r6, r0
 4260              	.LVL463:
 4261              		.loc 2 793 0
 4262 0026 1068     		ldr	r0, [r2]
 4263              	.LVL464:
 4264 0028 1546     		mov	r5, r2
 4265 002a FFF7FEFF 		bl	atoi
 4266              	.LVL465:
 4267 002e 0746     		mov	r7, r0
 4268              	.LVL466:
 4269              		.loc 2 794 0
 4270 0030 6868     		ldr	r0, [r5, #4]
 4271 0032 FFF7FEFF 		bl	atoi
 4272              	.LVL467:
 4273 0036 8046     		mov	r8, r0
 4274              	.LVL468:
 4275              		.loc 2 795 0
ARM GAS  /tmp/ccHKfm7W.s 			page 76


 4276 0038 A868     		ldr	r0, [r5, #8]
 4277 003a FFF7FEFF 		bl	atoi
 4278              	.LVL469:
 4279              		.loc 2 797 0
 4280 003e 5FFA88F1 		uxtb	r1, r8
 4281 0042 C2B2     		uxtb	r2, r0
 4282 0044 F8B2     		uxtb	r0, r7
 4283              	.LVL470:
 4284 0046 FFF7FEFF 		bl	cam_set_rgb_gain
 4285              	.LVL471:
 4286              		.loc 2 799 0
 4287 004a 019A     		ldr	r2, [sp, #4]
 4288 004c 2368     		ldr	r3, [r4]
 4289              		.loc 2 798 0
 4290 004e 40B9     		cbnz	r0, .L443
 4291              		.loc 2 801 0
 4292 0050 9A42     		cmp	r2, r3
 4293 0052 10D1     		bne	.L442
 4294 0054 0B49     		ldr	r1, .L444+8
 4295 0056 3046     		mov	r0, r6
 4296              	.LVL472:
 4297              	.LBE250:
 4298              	.LBE249:
 4299              		.loc 2 804 0
 4300 0058 02B0     		add	sp, sp, #8
 4301              		.cfi_remember_state
 4302              		.cfi_def_cfa_offset 24
 4303              		@ sp needed
 4304 005a BDE8F041 		pop	{r4, r5, r6, r7, r8, lr}
 4305              		.cfi_restore 14
 4306              		.cfi_restore 8
 4307              		.cfi_restore 7
 4308              		.cfi_restore 6
 4309              		.cfi_restore 5
 4310              		.cfi_restore 4
 4311              		.cfi_def_cfa_offset 0
 4312              	.LVL473:
 4313              	.LBB253:
 4314              	.LBB251:
 4315              		.loc 2 801 0
 4316 005e FFF7FEBF 		b	chprintf
 4317              	.LVL474:
 4318              	.L443:
 4319              		.cfi_restore_state
 4320              		.loc 2 799 0
 4321 0062 9A42     		cmp	r2, r3
 4322 0064 07D1     		bne	.L442
 4323 0066 0849     		ldr	r1, .L444+12
 4324 0068 0246     		mov	r2, r0
 4325 006a 3046     		mov	r0, r6
 4326              	.LVL475:
 4327              	.LBE251:
 4328              	.LBE253:
 4329              		.loc 2 804 0
 4330 006c 02B0     		add	sp, sp, #8
 4331              		.cfi_remember_state
 4332              		.cfi_def_cfa_offset 24
ARM GAS  /tmp/ccHKfm7W.s 			page 77


 4333              		@ sp needed
 4334 006e BDE8F041 		pop	{r4, r5, r6, r7, r8, lr}
 4335              		.cfi_restore 14
 4336              		.cfi_restore 8
 4337              		.cfi_restore 7
 4338              		.cfi_restore 6
 4339              		.cfi_restore 5
 4340              		.cfi_restore 4
 4341              		.cfi_def_cfa_offset 0
 4342              	.LVL476:
 4343              	.LBB254:
 4344              	.LBB252:
 4345              		.loc 2 799 0
 4346 0072 FFF7FEBF 		b	chprintf
 4347              	.LVL477:
 4348              	.L442:
 4349              		.cfi_restore_state
 4350              		.loc 2 801 0
 4351 0076 FFF7FEFF 		bl	__stack_chk_fail
 4352              	.LVL478:
 4353              	.L445:
 4354 007a 00BF     		.align	2
 4355              	.L444:
 4356 007c 00000000 		.word	__stack_chk_guard
 4357 0080 00000000 		.word	.LC88
 4358 0084 90000000 		.word	.LC90
 4359 0088 78000000 		.word	.LC89
 4360              	.LBE252:
 4361              	.LBE254:
 4362              		.cfi_endproc
 4363              	.LFE293:
 4364              		.size	cmd_cam_set_gain, .-cmd_cam_set_gain
 4365              		.section	.text.cmd_cam_set_mirror,"ax",%progbits
 4366              		.align	1
 4367              		.p2align 4,,15
 4368              		.syntax unified
 4369              		.thumb
 4370              		.thumb_func
 4371              		.fpu fpv4-sp-d16
 4372              		.type	cmd_cam_set_mirror, %function
 4373              	cmd_cam_set_mirror:
 4374              	.LFB292:
 4375              		.loc 2 764 0
 4376              		.cfi_startproc
 4377              		@ args = 0, pretend = 0, frame = 8
 4378              		@ frame_needed = 0, uses_anonymous_args = 0
 4379              	.LVL479:
 4380 0000 F0B5     		push	{r4, r5, r6, r7, lr}
 4381              		.cfi_def_cfa_offset 20
 4382              		.cfi_offset 4, -20
 4383              		.cfi_offset 5, -16
 4384              		.cfi_offset 6, -12
 4385              		.cfi_offset 7, -8
 4386              		.cfi_offset 14, -4
 4387 0002 1A4C     		ldr	r4, .L457
 4388 0004 83B0     		sub	sp, sp, #12
 4389              		.cfi_def_cfa_offset 32
ARM GAS  /tmp/ccHKfm7W.s 			page 78


 4390              		.loc 2 764 0
 4391 0006 2368     		ldr	r3, [r4]
 4392 0008 0193     		str	r3, [sp, #4]
 4393              		.loc 2 768 0
 4394 000a 0229     		cmp	r1, #2
 4395 000c 09D0     		beq	.L447
 4396              		.loc 2 769 0
 4397 000e 019A     		ldr	r2, [sp, #4]
 4398              	.LVL480:
 4399 0010 2368     		ldr	r3, [r4]
 4400 0012 9A42     		cmp	r2, r3
 4401 0014 28D1     		bne	.L455
 4402 0016 1649     		ldr	r1, .L457+4
 4403              	.LVL481:
 4404              		.loc 2 782 0
 4405 0018 03B0     		add	sp, sp, #12
 4406              		.cfi_remember_state
 4407              		.cfi_def_cfa_offset 20
 4408              		@ sp needed
 4409 001a BDE8F040 		pop	{r4, r5, r6, r7, lr}
 4410              		.cfi_restore 14
 4411              		.cfi_restore 7
 4412              		.cfi_restore 6
 4413              		.cfi_restore 5
 4414              		.cfi_restore 4
 4415              		.cfi_def_cfa_offset 0
 4416              	.LBB257:
 4417              	.LBB258:
 4418              		.loc 2 779 0
 4419 001e FFF7FEBF 		b	chprintf
 4420              	.LVL482:
 4421              	.L447:
 4422              		.cfi_restore_state
 4423 0022 0646     		mov	r6, r0
 4424              	.LVL483:
 4425              		.loc 2 772 0
 4426 0024 1068     		ldr	r0, [r2]
 4427              	.LVL484:
 4428 0026 1546     		mov	r5, r2
 4429 0028 FFF7FEFF 		bl	atoi
 4430              	.LVL485:
 4431 002c 0746     		mov	r7, r0
 4432              	.LVL486:
 4433              		.loc 2 773 0
 4434 002e 6868     		ldr	r0, [r5, #4]
 4435 0030 FFF7FEFF 		bl	atoi
 4436              	.LVL487:
 4437              		.loc 2 775 0
 4438 0034 C1B2     		uxtb	r1, r0
 4439 0036 F8B2     		uxtb	r0, r7
 4440              	.LVL488:
 4441 0038 FFF7FEFF 		bl	cam_set_mirror
 4442              	.LVL489:
 4443              		.loc 2 777 0
 4444 003c 019A     		ldr	r2, [sp, #4]
 4445 003e 2368     		ldr	r3, [r4]
 4446              		.loc 2 776 0
ARM GAS  /tmp/ccHKfm7W.s 			page 79


 4447 0040 40B9     		cbnz	r0, .L456
 4448              		.loc 2 779 0
 4449 0042 9A42     		cmp	r2, r3
 4450 0044 10D1     		bne	.L455
 4451 0046 0B49     		ldr	r1, .L457+8
 4452 0048 3046     		mov	r0, r6
 4453              	.LVL490:
 4454              	.LBE258:
 4455              	.LBE257:
 4456              		.loc 2 782 0
 4457 004a 03B0     		add	sp, sp, #12
 4458              		.cfi_remember_state
 4459              		.cfi_def_cfa_offset 20
 4460              		@ sp needed
 4461 004c BDE8F040 		pop	{r4, r5, r6, r7, lr}
 4462              		.cfi_restore 14
 4463              		.cfi_restore 7
 4464              		.cfi_restore 6
 4465              		.cfi_restore 5
 4466              		.cfi_restore 4
 4467              		.cfi_def_cfa_offset 0
 4468              	.LVL491:
 4469              	.LBB261:
 4470              	.LBB259:
 4471              		.loc 2 779 0
 4472 0050 FFF7FEBF 		b	chprintf
 4473              	.LVL492:
 4474              	.L456:
 4475              		.cfi_restore_state
 4476              		.loc 2 777 0
 4477 0054 9A42     		cmp	r2, r3
 4478 0056 07D1     		bne	.L455
 4479 0058 0749     		ldr	r1, .L457+12
 4480 005a 0246     		mov	r2, r0
 4481 005c 3046     		mov	r0, r6
 4482              	.LVL493:
 4483              	.LBE259:
 4484              	.LBE261:
 4485              		.loc 2 782 0
 4486 005e 03B0     		add	sp, sp, #12
 4487              		.cfi_remember_state
 4488              		.cfi_def_cfa_offset 20
 4489              		@ sp needed
 4490 0060 BDE8F040 		pop	{r4, r5, r6, r7, lr}
 4491              		.cfi_restore 14
 4492              		.cfi_restore 7
 4493              		.cfi_restore 6
 4494              		.cfi_restore 5
 4495              		.cfi_restore 4
 4496              		.cfi_def_cfa_offset 0
 4497              	.LVL494:
 4498              	.LBB262:
 4499              	.LBB260:
 4500              		.loc 2 777 0
 4501 0064 FFF7FEBF 		b	chprintf
 4502              	.LVL495:
 4503              	.L455:
ARM GAS  /tmp/ccHKfm7W.s 			page 80


 4504              		.cfi_restore_state
 4505              		.loc 2 779 0
 4506 0068 FFF7FEFF 		bl	__stack_chk_fail
 4507              	.LVL496:
 4508              	.L458:
 4509              		.align	2
 4510              	.L457:
 4511 006c 00000000 		.word	__stack_chk_guard
 4512 0070 00000000 		.word	.LC91
 4513 0074 64000000 		.word	.LC93
 4514 0078 48000000 		.word	.LC92
 4515              	.LBE260:
 4516              	.LBE262:
 4517              		.cfi_endproc
 4518              	.LFE292:
 4519              		.size	cmd_cam_set_mirror, .-cmd_cam_set_mirror
 4520              		.section	.text.cmd_cam_set_conf2,"ax",%progbits
 4521              		.align	1
 4522              		.p2align 4,,15
 4523              		.syntax unified
 4524              		.thumb
 4525              		.thumb_func
 4526              		.fpu fpv4-sp-d16
 4527              		.type	cmd_cam_set_conf2, %function
 4528              	cmd_cam_set_conf2:
 4529              	.LFB291:
 4530              		.loc 2 743 0
 4531              		.cfi_startproc
 4532              		@ args = 0, pretend = 0, frame = 8
 4533              		@ frame_needed = 0, uses_anonymous_args = 0
 4534              	.LVL497:
 4535 0000 2DE9F043 		push	{r4, r5, r6, r7, r8, r9, lr}
 4536              		.cfi_def_cfa_offset 28
 4537              		.cfi_offset 4, -28
 4538              		.cfi_offset 5, -24
 4539              		.cfi_offset 6, -20
 4540              		.cfi_offset 7, -16
 4541              		.cfi_offset 8, -12
 4542              		.cfi_offset 9, -8
 4543              		.cfi_offset 14, -4
 4544 0004 2A4C     		ldr	r4, .L470
 4545 0006 87B0     		sub	sp, sp, #28
 4546              		.cfi_def_cfa_offset 56
 4547              		.loc 2 743 0
 4548 0008 2368     		ldr	r3, [r4]
 4549 000a 0593     		str	r3, [sp, #20]
 4550              		.loc 2 746 0
 4551 000c 0429     		cmp	r1, #4
 4552 000e 09D0     		beq	.L460
 4553              		.loc 2 747 0
 4554 0010 059A     		ldr	r2, [sp, #20]
 4555              	.LVL498:
 4556 0012 2368     		ldr	r3, [r4]
 4557 0014 9A42     		cmp	r2, r3
 4558 0016 48D1     		bne	.L468
 4559 0018 2649     		ldr	r1, .L470+4
 4560              	.LVL499:
ARM GAS  /tmp/ccHKfm7W.s 			page 81


 4561              		.loc 2 761 0
 4562 001a 07B0     		add	sp, sp, #28
 4563              		.cfi_remember_state
 4564              		.cfi_def_cfa_offset 28
 4565              		@ sp needed
 4566 001c BDE8F043 		pop	{r4, r5, r6, r7, r8, r9, lr}
 4567              		.cfi_restore 14
 4568              		.cfi_restore 9
 4569              		.cfi_restore 8
 4570              		.cfi_restore 7
 4571              		.cfi_restore 6
 4572              		.cfi_restore 5
 4573              		.cfi_restore 4
 4574              		.cfi_def_cfa_offset 0
 4575              	.LBB265:
 4576              	.LBB266:
 4577              		.loc 2 758 0
 4578 0020 FFF7FEBF 		b	chprintf
 4579              	.LVL500:
 4580              	.L460:
 4581              		.cfi_restore_state
 4582 0024 0646     		mov	r6, r0
 4583              	.LVL501:
 4584              		.loc 2 749 0
 4585 0026 1068     		ldr	r0, [r2]
 4586              	.LVL502:
 4587 0028 234F     		ldr	r7, .L470+8
 4588              		.loc 2 750 0
 4589 002a DFF8A080 		ldr	r8, .L470+28
 4590              		.loc 2 751 0
 4591 002e DFF8A090 		ldr	r9, .L470+32
 4592 0032 1546     		mov	r5, r2
 4593              		.loc 2 749 0
 4594 0034 FFF7FEFF 		bl	atoi
 4595              	.LVL503:
 4596 0038 3880     		strh	r0, [r7]	@ movhi
 4597              		.loc 2 750 0
 4598 003a 6868     		ldr	r0, [r5, #4]
 4599 003c FFF7FEFF 		bl	atoi
 4600              	.LVL504:
 4601 0040 A8F80000 		strh	r0, [r8]	@ movhi
 4602              		.loc 2 751 0
 4603 0044 A868     		ldr	r0, [r5, #8]
 4604 0046 FFF7FEFF 		bl	atoi
 4605              	.LVL505:
 4606 004a A9F80000 		strh	r0, [r9]	@ movhi
 4607              		.loc 2 752 0
 4608 004e E868     		ldr	r0, [r5, #12]
 4609              		.loc 2 754 0
 4610 0050 1A4D     		ldr	r5, .L470+12
 4611              	.LVL506:
 4612              		.loc 2 752 0
 4613 0052 FFF7FEFF 		bl	atoi
 4614              	.LVL507:
 4615              		.loc 2 754 0
 4616 0056 3988     		ldrh	r1, [r7]
 4617 0058 DFF878C0 		ldr	ip, .L470+36
ARM GAS  /tmp/ccHKfm7W.s 			page 82


 4618 005c 2F78     		ldrb	r7, [r5]	@ zero_extendqisi2
 4619 005e 184D     		ldr	r5, .L470+16
 4620 0060 9CF800C0 		ldrb	ip, [ip]	@ zero_extendqisi2
 4621 0064 2D78     		ldrb	r5, [r5]	@ zero_extendqisi2
 4622 0066 B9F80030 		ldrh	r3, [r9]
 4623 006a B8F80020 		ldrh	r2, [r8]
 4624 006e CDF808C0 		str	ip, [sp, #8]
 4625 0072 80B2     		uxth	r0, r0
 4626 0074 0090     		str	r0, [sp]
 4627 0076 0195     		str	r5, [sp, #4]
 4628 0078 3846     		mov	r0, r7
 4629 007a FFF7FEFF 		bl	cam_advanced_config
 4630              	.LVL508:
 4631              		.loc 2 756 0
 4632 007e 059A     		ldr	r2, [sp, #20]
 4633 0080 2368     		ldr	r3, [r4]
 4634              		.loc 2 755 0
 4635 0082 40B9     		cbnz	r0, .L469
 4636              		.loc 2 758 0
 4637 0084 9A42     		cmp	r2, r3
 4638 0086 10D1     		bne	.L468
 4639 0088 0E49     		ldr	r1, .L470+20
 4640 008a 3046     		mov	r0, r6
 4641              	.LVL509:
 4642              	.LBE266:
 4643              	.LBE265:
 4644              		.loc 2 761 0
 4645 008c 07B0     		add	sp, sp, #28
 4646              		.cfi_remember_state
 4647              		.cfi_def_cfa_offset 28
 4648              		@ sp needed
 4649 008e BDE8F043 		pop	{r4, r5, r6, r7, r8, r9, lr}
 4650              		.cfi_restore 14
 4651              		.cfi_restore 9
 4652              		.cfi_restore 8
 4653              		.cfi_restore 7
 4654              		.cfi_restore 6
 4655              		.cfi_restore 5
 4656              		.cfi_restore 4
 4657              		.cfi_def_cfa_offset 0
 4658              	.LVL510:
 4659              	.LBB269:
 4660              	.LBB267:
 4661              		.loc 2 758 0
 4662 0092 FFF7FEBF 		b	chprintf
 4663              	.LVL511:
 4664              	.L469:
 4665              		.cfi_restore_state
 4666              		.loc 2 756 0
 4667 0096 9A42     		cmp	r2, r3
 4668 0098 07D1     		bne	.L468
 4669 009a 0B49     		ldr	r1, .L470+24
 4670 009c 0246     		mov	r2, r0
 4671 009e 3046     		mov	r0, r6
 4672              	.LVL512:
 4673              	.LBE267:
 4674              	.LBE269:
ARM GAS  /tmp/ccHKfm7W.s 			page 83


 4675              		.loc 2 761 0
 4676 00a0 07B0     		add	sp, sp, #28
 4677              		.cfi_remember_state
 4678              		.cfi_def_cfa_offset 28
 4679              		@ sp needed
 4680 00a2 BDE8F043 		pop	{r4, r5, r6, r7, r8, r9, lr}
 4681              		.cfi_restore 14
 4682              		.cfi_restore 9
 4683              		.cfi_restore 8
 4684              		.cfi_restore 7
 4685              		.cfi_restore 6
 4686              		.cfi_restore 5
 4687              		.cfi_restore 4
 4688              		.cfi_def_cfa_offset 0
 4689              	.LVL513:
 4690              	.LBB270:
 4691              	.LBB268:
 4692              		.loc 2 756 0
 4693 00a6 FFF7FEBF 		b	chprintf
 4694              	.LVL514:
 4695              	.L468:
 4696              		.cfi_restore_state
 4697              		.loc 2 758 0
 4698 00aa FFF7FEFF 		bl	__stack_chk_fail
 4699              	.LVL515:
 4700              	.L471:
 4701 00ae 00BF     		.align	2
 4702              	.L470:
 4703 00b0 00000000 		.word	__stack_chk_guard
 4704 00b4 00000000 		.word	.LC94
 4705 00b8 00000000 		.word	.LANCHOR5
 4706 00bc 00000000 		.word	.LANCHOR2
 4707 00c0 00000000 		.word	.LANCHOR3
 4708 00c4 48000000 		.word	.LC96
 4709 00c8 28000000 		.word	.LC95
 4710 00cc 00000000 		.word	.LANCHOR6
 4711 00d0 00000000 		.word	.LANCHOR7
 4712 00d4 00000000 		.word	.LANCHOR4
 4713              	.LBE268:
 4714              	.LBE270:
 4715              		.cfi_endproc
 4716              	.LFE291:
 4717              		.size	cmd_cam_set_conf2, .-cmd_cam_set_conf2
 4718              		.section	.text.cmd_cam_set_contrast,"ax",%progbits
 4719              		.align	1
 4720              		.p2align 4,,15
 4721              		.syntax unified
 4722              		.thumb
 4723              		.thumb_func
 4724              		.fpu fpv4-sp-d16
 4725              		.type	cmd_cam_set_contrast, %function
 4726              	cmd_cam_set_contrast:
 4727              	.LFB289:
 4728              		.loc 2 681 0
 4729              		.cfi_startproc
 4730              		@ args = 0, pretend = 0, frame = 8
 4731              		@ frame_needed = 0, uses_anonymous_args = 0
ARM GAS  /tmp/ccHKfm7W.s 			page 84


 4732              	.LVL516:
 4733 0000 30B5     		push	{r4, r5, lr}
 4734              		.cfi_def_cfa_offset 12
 4735              		.cfi_offset 4, -12
 4736              		.cfi_offset 5, -8
 4737              		.cfi_offset 14, -4
 4738 0002 174C     		ldr	r4, .L483
 4739 0004 83B0     		sub	sp, sp, #12
 4740              		.cfi_def_cfa_offset 24
 4741              		.loc 2 681 0
 4742 0006 2368     		ldr	r3, [r4]
 4743 0008 0193     		str	r3, [sp, #4]
 4744              		.loc 2 684 0
 4745 000a 0129     		cmp	r1, #1
 4746 000c 09D0     		beq	.L473
 4747              		.loc 2 685 0
 4748 000e 019A     		ldr	r2, [sp, #4]
 4749              	.LVL517:
 4750 0010 2368     		ldr	r3, [r4]
 4751 0012 9A42     		cmp	r2, r3
 4752 0014 22D1     		bne	.L481
 4753 0016 1349     		ldr	r1, .L483+4
 4754              	.LVL518:
 4755              		.loc 2 696 0
 4756 0018 03B0     		add	sp, sp, #12
 4757              		.cfi_remember_state
 4758              		.cfi_def_cfa_offset 12
 4759              		@ sp needed
 4760 001a BDE83040 		pop	{r4, r5, lr}
 4761              		.cfi_restore 14
 4762              		.cfi_restore 5
 4763              		.cfi_restore 4
 4764              		.cfi_def_cfa_offset 0
 4765              	.LBB273:
 4766              	.LBB274:
 4767              		.loc 2 693 0
 4768 001e FFF7FEBF 		b	chprintf
 4769              	.LVL519:
 4770              	.L473:
 4771              		.cfi_restore_state
 4772 0022 0546     		mov	r5, r0
 4773              	.LVL520:
 4774              		.loc 2 688 0
 4775 0024 1068     		ldr	r0, [r2]
 4776              	.LVL521:
 4777 0026 FFF7FEFF 		bl	atoi
 4778              	.LVL522:
 4779              		.loc 2 689 0
 4780 002a C0B2     		uxtb	r0, r0
 4781 002c FFF7FEFF 		bl	cam_set_contrast
 4782              	.LVL523:
 4783              		.loc 2 691 0
 4784 0030 019A     		ldr	r2, [sp, #4]
 4785 0032 2368     		ldr	r3, [r4]
 4786              		.loc 2 690 0
 4787 0034 40B9     		cbnz	r0, .L482
 4788              		.loc 2 693 0
ARM GAS  /tmp/ccHKfm7W.s 			page 85


 4789 0036 9A42     		cmp	r2, r3
 4790 0038 10D1     		bne	.L481
 4791 003a 0B49     		ldr	r1, .L483+8
 4792 003c 2846     		mov	r0, r5
 4793              	.LVL524:
 4794              	.LBE274:
 4795              	.LBE273:
 4796              		.loc 2 696 0
 4797 003e 03B0     		add	sp, sp, #12
 4798              		.cfi_remember_state
 4799              		.cfi_def_cfa_offset 12
 4800              		@ sp needed
 4801 0040 BDE83040 		pop	{r4, r5, lr}
 4802              		.cfi_restore 14
 4803              		.cfi_restore 5
 4804              		.cfi_restore 4
 4805              		.cfi_def_cfa_offset 0
 4806              	.LVL525:
 4807              	.LBB277:
 4808              	.LBB275:
 4809              		.loc 2 693 0
 4810 0044 FFF7FEBF 		b	chprintf
 4811              	.LVL526:
 4812              	.L482:
 4813              		.cfi_restore_state
 4814              		.loc 2 691 0
 4815 0048 9A42     		cmp	r2, r3
 4816 004a 07D1     		bne	.L481
 4817 004c 0749     		ldr	r1, .L483+12
 4818 004e 0246     		mov	r2, r0
 4819 0050 2846     		mov	r0, r5
 4820              	.LVL527:
 4821              	.LBE275:
 4822              	.LBE277:
 4823              		.loc 2 696 0
 4824 0052 03B0     		add	sp, sp, #12
 4825              		.cfi_remember_state
 4826              		.cfi_def_cfa_offset 12
 4827              		@ sp needed
 4828 0054 BDE83040 		pop	{r4, r5, lr}
 4829              		.cfi_restore 14
 4830              		.cfi_restore 5
 4831              		.cfi_restore 4
 4832              		.cfi_def_cfa_offset 0
 4833              	.LVL528:
 4834              	.LBB278:
 4835              	.LBB276:
 4836              		.loc 2 691 0
 4837 0058 FFF7FEBF 		b	chprintf
 4838              	.LVL529:
 4839              	.L481:
 4840              		.cfi_restore_state
 4841              		.loc 2 693 0
 4842 005c FFF7FEFF 		bl	__stack_chk_fail
 4843              	.LVL530:
 4844              	.L484:
 4845              		.align	2
ARM GAS  /tmp/ccHKfm7W.s 			page 86


 4846              	.L483:
 4847 0060 00000000 		.word	__stack_chk_guard
 4848 0064 00000000 		.word	.LC97
 4849 0068 5C000000 		.word	.LC99
 4850 006c 3C000000 		.word	.LC98
 4851              	.LBE276:
 4852              	.LBE278:
 4853              		.cfi_endproc
 4854              	.LFE289:
 4855              		.size	cmd_cam_set_contrast, .-cmd_cam_set_contrast
 4856              		.section	.text.cmd_cam_set_brightness,"ax",%progbits
 4857              		.align	1
 4858              		.p2align 4,,15
 4859              		.syntax unified
 4860              		.thumb
 4861              		.thumb_func
 4862              		.fpu fpv4-sp-d16
 4863              		.type	cmd_cam_set_brightness, %function
 4864              	cmd_cam_set_brightness:
 4865              	.LFB288:
 4866              		.loc 2 663 0
 4867              		.cfi_startproc
 4868              		@ args = 0, pretend = 0, frame = 8
 4869              		@ frame_needed = 0, uses_anonymous_args = 0
 4870              	.LVL531:
 4871 0000 30B5     		push	{r4, r5, lr}
 4872              		.cfi_def_cfa_offset 12
 4873              		.cfi_offset 4, -12
 4874              		.cfi_offset 5, -8
 4875              		.cfi_offset 14, -4
 4876 0002 174C     		ldr	r4, .L496
 4877 0004 83B0     		sub	sp, sp, #12
 4878              		.cfi_def_cfa_offset 24
 4879              		.loc 2 663 0
 4880 0006 2368     		ldr	r3, [r4]
 4881 0008 0193     		str	r3, [sp, #4]
 4882              		.loc 2 666 0
 4883 000a 0129     		cmp	r1, #1
 4884 000c 09D0     		beq	.L486
 4885              		.loc 2 667 0
 4886 000e 019A     		ldr	r2, [sp, #4]
 4887              	.LVL532:
 4888 0010 2368     		ldr	r3, [r4]
 4889 0012 9A42     		cmp	r2, r3
 4890 0014 22D1     		bne	.L494
 4891 0016 1349     		ldr	r1, .L496+4
 4892              	.LVL533:
 4893              		.loc 2 678 0
 4894 0018 03B0     		add	sp, sp, #12
 4895              		.cfi_remember_state
 4896              		.cfi_def_cfa_offset 12
 4897              		@ sp needed
 4898 001a BDE83040 		pop	{r4, r5, lr}
 4899              		.cfi_restore 14
 4900              		.cfi_restore 5
 4901              		.cfi_restore 4
 4902              		.cfi_def_cfa_offset 0
ARM GAS  /tmp/ccHKfm7W.s 			page 87


 4903              	.LBB281:
 4904              	.LBB282:
 4905              		.loc 2 675 0
 4906 001e FFF7FEBF 		b	chprintf
 4907              	.LVL534:
 4908              	.L486:
 4909              		.cfi_restore_state
 4910 0022 0546     		mov	r5, r0
 4911              	.LVL535:
 4912              		.loc 2 670 0
 4913 0024 1068     		ldr	r0, [r2]
 4914              	.LVL536:
 4915 0026 FFF7FEFF 		bl	atoi
 4916              	.LVL537:
 4917              		.loc 2 671 0
 4918 002a 40B2     		sxtb	r0, r0
 4919 002c FFF7FEFF 		bl	cam_set_brightness
 4920              	.LVL538:
 4921              		.loc 2 673 0
 4922 0030 019A     		ldr	r2, [sp, #4]
 4923 0032 2368     		ldr	r3, [r4]
 4924              		.loc 2 672 0
 4925 0034 40B9     		cbnz	r0, .L495
 4926              		.loc 2 675 0
 4927 0036 9A42     		cmp	r2, r3
 4928 0038 10D1     		bne	.L494
 4929 003a 0B49     		ldr	r1, .L496+8
 4930 003c 2846     		mov	r0, r5
 4931              	.LVL539:
 4932              	.LBE282:
 4933              	.LBE281:
 4934              		.loc 2 678 0
 4935 003e 03B0     		add	sp, sp, #12
 4936              		.cfi_remember_state
 4937              		.cfi_def_cfa_offset 12
 4938              		@ sp needed
 4939 0040 BDE83040 		pop	{r4, r5, lr}
 4940              		.cfi_restore 14
 4941              		.cfi_restore 5
 4942              		.cfi_restore 4
 4943              		.cfi_def_cfa_offset 0
 4944              	.LVL540:
 4945              	.LBB285:
 4946              	.LBB283:
 4947              		.loc 2 675 0
 4948 0044 FFF7FEBF 		b	chprintf
 4949              	.LVL541:
 4950              	.L495:
 4951              		.cfi_restore_state
 4952              		.loc 2 673 0
 4953 0048 9A42     		cmp	r2, r3
 4954 004a 07D1     		bne	.L494
 4955 004c 0749     		ldr	r1, .L496+12
 4956 004e 0246     		mov	r2, r0
 4957 0050 2846     		mov	r0, r5
 4958              	.LVL542:
 4959              	.LBE283:
ARM GAS  /tmp/ccHKfm7W.s 			page 88


 4960              	.LBE285:
 4961              		.loc 2 678 0
 4962 0052 03B0     		add	sp, sp, #12
 4963              		.cfi_remember_state
 4964              		.cfi_def_cfa_offset 12
 4965              		@ sp needed
 4966 0054 BDE83040 		pop	{r4, r5, lr}
 4967              		.cfi_restore 14
 4968              		.cfi_restore 5
 4969              		.cfi_restore 4
 4970              		.cfi_def_cfa_offset 0
 4971              	.LVL543:
 4972              	.LBB286:
 4973              	.LBB284:
 4974              		.loc 2 673 0
 4975 0058 FFF7FEBF 		b	chprintf
 4976              	.LVL544:
 4977              	.L494:
 4978              		.cfi_restore_state
 4979              		.loc 2 675 0
 4980 005c FFF7FEFF 		bl	__stack_chk_fail
 4981              	.LVL545:
 4982              	.L497:
 4983              		.align	2
 4984              	.L496:
 4985 0060 00000000 		.word	__stack_chk_guard
 4986 0064 00000000 		.word	.LC100
 4987 0068 5C000000 		.word	.LC99
 4988 006c 3C000000 		.word	.LC98
 4989              	.LBE284:
 4990              	.LBE286:
 4991              		.cfi_endproc
 4992              	.LFE288:
 4993              		.size	cmd_cam_set_brightness, .-cmd_cam_set_brightness
 4994              		.section	.text.cmd_test,"ax",%progbits
 4995              		.align	1
 4996              		.p2align 4,,15
 4997              		.syntax unified
 4998              		.thumb
 4999              		.thumb_func
 5000              		.fpu fpv4-sp-d16
 5001              		.type	cmd_test, %function
 5002              	cmd_test:
 5003              	.LFB277:
 5004              		.loc 2 389 0
 5005              		.cfi_startproc
 5006              		@ args = 0, pretend = 0, frame = 8
 5007              		@ frame_needed = 0, uses_anonymous_args = 0
 5008              	.LVL546:
 5009 0000 30B5     		push	{r4, r5, lr}
 5010              		.cfi_def_cfa_offset 12
 5011              		.cfi_offset 4, -12
 5012              		.cfi_offset 5, -8
 5013              		.cfi_offset 14, -4
 5014 0002 184C     		ldr	r4, .L509
 5015 0004 85B0     		sub	sp, sp, #20
 5016              		.cfi_def_cfa_offset 32
ARM GAS  /tmp/ccHKfm7W.s 			page 89


 5017              		.loc 2 389 0
 5018 0006 2368     		ldr	r3, [r4]
 5019 0008 0393     		str	r3, [sp, #12]
 5020              		.loc 2 393 0
 5021 000a 0029     		cmp	r1, #0
 5022 000c 09DD     		ble	.L499
 5023              		.loc 2 394 0
 5024 000e 039A     		ldr	r2, [sp, #12]
 5025              	.LVL547:
 5026 0010 2368     		ldr	r3, [r4]
 5027 0012 9A42     		cmp	r2, r3
 5028 0014 23D1     		bne	.L507
 5029 0016 1449     		ldr	r1, .L509+4
 5030              	.LVL548:
 5031              		.loc 2 404 0
 5032 0018 05B0     		add	sp, sp, #20
 5033              		.cfi_remember_state
 5034              		.cfi_def_cfa_offset 12
 5035              		@ sp needed
 5036 001a BDE83040 		pop	{r4, r5, lr}
 5037              		.cfi_restore 14
 5038              		.cfi_restore 5
 5039              		.cfi_restore 4
 5040              		.cfi_def_cfa_offset 0
 5041              	.LBB293:
 5042              	.LBB294:
 5043              		.loc 2 400 0
 5044 001e FFF7FEBF 		b	chprintf
 5045              	.LVL549:
 5046              	.L499:
 5047              		.cfi_restore_state
 5048              	.LBB295:
 5049              	.LBB296:
 5050              	.LBB297:
 5051              	.LBB298:
 5052              		.file 3 "../e-puck2_main-processor/ChibiOS//os/rt/include/chthreads.h"
 5053              		.loc 3 176 0
 5054 0022 124A     		ldr	r2, .L509+8
 5055              	.LVL550:
 5056              	.LBE298:
 5057              	.LBE297:
 5058              	.LBE296:
 5059              	.LBE295:
 5060              		.loc 2 397 0
 5061 0024 124B     		ldr	r3, .L509+12
 5062              	.LBB300:
 5063              	.LBB299:
 5064              		.loc 3 189 0
 5065 0026 9269     		ldr	r2, [r2, #24]
 5066 0028 0546     		mov	r5, r0
 5067              	.LBE299:
 5068              	.LBE300:
 5069              		.loc 2 397 0
 5070 002a 9268     		ldr	r2, [r2, #8]
 5071 002c 0090     		str	r0, [sp]
 5072 002e 4FF41E71 		mov	r1, #632
 5073              	.LVL551:
ARM GAS  /tmp/ccHKfm7W.s 			page 90


 5074 0032 0020     		movs	r0, #0
 5075              	.LVL552:
 5076 0034 FFF7FEFF 		bl	chThdCreateFromHeap
 5077              	.LVL553:
 5078              		.loc 2 400 0
 5079 0038 039A     		ldr	r2, [sp, #12]
 5080 003a 2368     		ldr	r3, [r4]
 5081              		.loc 2 399 0
 5082 003c 30B1     		cbz	r0, .L508
 5083              		.loc 2 403 0
 5084 003e 9A42     		cmp	r2, r3
 5085 0040 0DD1     		bne	.L507
 5086              	.LBE294:
 5087              	.LBE293:
 5088              		.loc 2 404 0
 5089 0042 05B0     		add	sp, sp, #20
 5090              		.cfi_remember_state
 5091              		.cfi_def_cfa_offset 12
 5092              		@ sp needed
 5093 0044 BDE83040 		pop	{r4, r5, lr}
 5094              		.cfi_restore 14
 5095              		.cfi_restore 5
 5096              		.cfi_restore 4
 5097              		.cfi_def_cfa_offset 0
 5098              	.LVL554:
 5099              	.LBB303:
 5100              	.LBB301:
 5101              		.loc 2 403 0
 5102 0048 FFF7FEBF 		b	chThdWait
 5103              	.LVL555:
 5104              	.L508:
 5105              		.cfi_restore_state
 5106              		.loc 2 400 0
 5107 004c 9A42     		cmp	r2, r3
 5108 004e 06D1     		bne	.L507
 5109 0050 0849     		ldr	r1, .L509+16
 5110 0052 2846     		mov	r0, r5
 5111              	.LVL556:
 5112              	.LBE301:
 5113              	.LBE303:
 5114              		.loc 2 404 0
 5115 0054 05B0     		add	sp, sp, #20
 5116              		.cfi_remember_state
 5117              		.cfi_def_cfa_offset 12
 5118              		@ sp needed
 5119 0056 BDE83040 		pop	{r4, r5, lr}
 5120              		.cfi_restore 14
 5121              		.cfi_restore 5
 5122              		.cfi_restore 4
 5123              		.cfi_def_cfa_offset 0
 5124              	.LVL557:
 5125              	.LBB304:
 5126              	.LBB302:
 5127              		.loc 2 400 0
 5128 005a FFF7FEBF 		b	chprintf
 5129              	.LVL558:
 5130              	.L507:
ARM GAS  /tmp/ccHKfm7W.s 			page 91


 5131              		.cfi_restore_state
 5132              		.loc 2 403 0
 5133 005e FFF7FEFF 		bl	__stack_chk_fail
 5134              	.LVL559:
 5135              	.L510:
 5136 0062 00BF     		.align	2
 5137              	.L509:
 5138 0064 00000000 		.word	__stack_chk_guard
 5139 0068 00000000 		.word	.LC101
 5140 006c 00000000 		.word	ch
 5141 0070 00000000 		.word	TestThread
 5142 0074 10000000 		.word	.LC102
 5143              	.LBE302:
 5144              	.LBE304:
 5145              		.cfi_endproc
 5146              	.LFE277:
 5147              		.size	cmd_test, .-cmd_test
 5148              		.section	.text.cmd_threads,"ax",%progbits
 5149              		.align	1
 5150              		.p2align 4,,15
 5151              		.syntax unified
 5152              		.thumb
 5153              		.thumb_func
 5154              		.fpu fpv4-sp-d16
 5155              		.type	cmd_threads, %function
 5156              	cmd_threads:
 5157              	.LFB276:
 5158              		.loc 2 368 0
 5159              		.cfi_startproc
 5160              		@ args = 0, pretend = 0, frame = 8
 5161              		@ frame_needed = 0, uses_anonymous_args = 0
 5162              	.LVL560:
 5163 0000 2DE9F041 		push	{r4, r5, r6, r7, r8, lr}
 5164              		.cfi_def_cfa_offset 24
 5165              		.cfi_offset 4, -24
 5166              		.cfi_offset 5, -20
 5167              		.cfi_offset 6, -16
 5168              		.cfi_offset 7, -12
 5169              		.cfi_offset 8, -8
 5170              		.cfi_offset 14, -4
 5171 0004 DFF88880 		ldr	r8, .L519+16
 5172 0008 86B0     		sub	sp, sp, #24
 5173              		.cfi_def_cfa_offset 48
 5174              		.loc 2 368 0
 5175 000a D8F80030 		ldr	r3, [r8]
 5176 000e 0593     		str	r3, [sp, #20]
 5177              		.loc 2 373 0
 5178 0010 0029     		cmp	r1, #0
 5179 0012 0ADD     		ble	.L512
 5180              		.loc 2 374 0
 5181 0014 059A     		ldr	r2, [sp, #20]
 5182              	.LVL561:
 5183 0016 D8F80030 		ldr	r3, [r8]
 5184 001a 9A42     		cmp	r2, r3
 5185 001c 2DD1     		bne	.L518
 5186 001e 1849     		ldr	r1, .L519
 5187              	.LVL562:
ARM GAS  /tmp/ccHKfm7W.s 			page 92


 5188              		.loc 2 386 0
 5189 0020 06B0     		add	sp, sp, #24
 5190              		.cfi_remember_state
 5191              		.cfi_def_cfa_offset 24
 5192              		@ sp needed
 5193 0022 BDE8F041 		pop	{r4, r5, r6, r7, r8, lr}
 5194              		.cfi_restore 14
 5195              		.cfi_restore 8
 5196              		.cfi_restore 7
 5197              		.cfi_restore 6
 5198              		.cfi_restore 5
 5199              		.cfi_restore 4
 5200              		.cfi_def_cfa_offset 0
 5201              		.loc 2 374 0
 5202 0026 FFF7FEBF 		b	chprintf
 5203              	.LVL563:
 5204              	.L512:
 5205              		.cfi_restore_state
 5206              	.LBB307:
 5207              	.LBB308:
 5208              		.loc 2 377 0
 5209 002a 1649     		ldr	r1, .L519+4
 5210              	.LVL564:
 5211 002c 164F     		ldr	r7, .L519+8
 5212              		.loc 2 380 0
 5213 002e 174E     		ldr	r6, .L519+12
 5214 0030 0546     		mov	r5, r0
 5215              	.LVL565:
 5216              		.loc 2 377 0
 5217 0032 FFF7FEFF 		bl	chprintf
 5218              	.LVL566:
 5219              		.loc 2 378 0
 5220 0036 FFF7FEFF 		bl	chRegFirstThread
 5221              	.LVL567:
 5222 003a 0446     		mov	r4, r0
 5223              	.LVL568:
 5224              	.L514:
 5225              		.loc 2 383 0
 5226 003c 94F82020 		ldrb	r2, [r4, #32]	@ zero_extendqisi2
 5227              		.loc 2 380 0
 5228 0040 E368     		ldr	r3, [r4, #12]
 5229 0042 57F82220 		ldr	r2, [r7, r2, lsl #2]
 5230 0046 0292     		str	r2, [sp, #8]
 5231              		.loc 2 382 0
 5232 0048 94F82220 		ldrb	r2, [r4, #34]	@ zero_extendqisi2
 5233 004c 013A     		subs	r2, r2, #1
 5234              		.loc 2 380 0
 5235 004e 0192     		str	r2, [sp, #4]
 5236 0050 A268     		ldr	r2, [r4, #8]
 5237 0052 0092     		str	r2, [sp]
 5238 0054 3146     		mov	r1, r6
 5239 0056 2246     		mov	r2, r4
 5240 0058 2846     		mov	r0, r5
 5241              	.LVL569:
 5242 005a FFF7FEFF 		bl	chprintf
 5243              	.LVL570:
 5244              		.loc 2 384 0
ARM GAS  /tmp/ccHKfm7W.s 			page 93


 5245 005e 2046     		mov	r0, r4
 5246 0060 FFF7FEFF 		bl	chRegNextThread
 5247              	.LVL571:
 5248              		.loc 2 385 0
 5249 0064 0446     		mov	r4, r0
 5250 0066 0028     		cmp	r0, #0
 5251 0068 E8D1     		bne	.L514
 5252              	.LBE308:
 5253              	.LBE307:
 5254              		.loc 2 386 0
 5255 006a 059A     		ldr	r2, [sp, #20]
 5256 006c D8F80030 		ldr	r3, [r8]
 5257 0070 9A42     		cmp	r2, r3
 5258 0072 02D1     		bne	.L518
 5259 0074 06B0     		add	sp, sp, #24
 5260              		.cfi_remember_state
 5261              		.cfi_def_cfa_offset 24
 5262              		@ sp needed
 5263 0076 BDE8F081 		pop	{r4, r5, r6, r7, r8, pc}
 5264              	.LVL572:
 5265              	.L518:
 5266              		.cfi_restore_state
 5267 007a FFF7FEFF 		bl	__stack_chk_fail
 5268              	.LVL573:
 5269              	.L520:
 5270 007e 00BF     		.align	2
 5271              	.L519:
 5272 0080 00000000 		.word	.LC103
 5273 0084 14000000 		.word	.LC104
 5274 0088 00000000 		.word	.LANCHOR8
 5275 008c 48000000 		.word	.LC105
 5276 0090 00000000 		.word	__stack_chk_guard
 5277              		.cfi_endproc
 5278              	.LFE276:
 5279              		.size	cmd_threads, .-cmd_threads
 5280              		.section	.text.cmd_mem,"ax",%progbits
 5281              		.align	1
 5282              		.p2align 4,,15
 5283              		.syntax unified
 5284              		.thumb
 5285              		.thumb_func
 5286              		.fpu fpv4-sp-d16
 5287              		.type	cmd_mem, %function
 5288              	cmd_mem:
 5289              	.LFB275:
 5290              		.loc 2 353 0
 5291              		.cfi_startproc
 5292              		@ args = 0, pretend = 0, frame = 8
 5293              		@ frame_needed = 0, uses_anonymous_args = 0
 5294              	.LVL574:
 5295 0000 70B5     		push	{r4, r5, r6, lr}
 5296              		.cfi_def_cfa_offset 16
 5297              		.cfi_offset 4, -16
 5298              		.cfi_offset 5, -12
 5299              		.cfi_offset 6, -8
 5300              		.cfi_offset 14, -4
 5301 0002 144C     		ldr	r4, .L527
ARM GAS  /tmp/ccHKfm7W.s 			page 94


 5302 0004 82B0     		sub	sp, sp, #8
 5303              		.cfi_def_cfa_offset 24
 5304              		.loc 2 353 0
 5305 0006 2368     		ldr	r3, [r4]
 5306 0008 0193     		str	r3, [sp, #4]
 5307              		.loc 2 357 0
 5308 000a 0029     		cmp	r1, #0
 5309 000c 08DD     		ble	.L522
 5310              		.loc 2 358 0
 5311 000e 1249     		ldr	r1, .L527+4
 5312              	.LVL575:
 5313 0010 FFF7FEFF 		bl	chprintf
 5314              	.LVL576:
 5315              	.L521:
 5316              		.loc 2 365 0
 5317 0014 019A     		ldr	r2, [sp, #4]
 5318 0016 2368     		ldr	r3, [r4]
 5319 0018 9A42     		cmp	r2, r3
 5320 001a 19D1     		bne	.L526
 5321 001c 02B0     		add	sp, sp, #8
 5322              		.cfi_remember_state
 5323              		.cfi_def_cfa_offset 16
 5324              		@ sp needed
 5325 001e 70BD     		pop	{r4, r5, r6, pc}
 5326              	.LVL577:
 5327              	.L522:
 5328              		.cfi_restore_state
 5329 0020 0546     		mov	r5, r0
 5330              	.LVL578:
 5331              	.LBB311:
 5332              	.LBB312:
 5333              		.loc 2 361 0
 5334 0022 6946     		mov	r1, sp
 5335              	.LVL579:
 5336 0024 0020     		movs	r0, #0
 5337              	.LVL580:
 5338 0026 FFF7FEFF 		bl	chHeapStatus
 5339              	.LVL581:
 5340 002a 0646     		mov	r6, r0
 5341              	.LVL582:
 5342              		.loc 2 362 0
 5343 002c FFF7FEFF 		bl	chCoreGetStatusX
 5344              	.LVL583:
 5345 0030 0A49     		ldr	r1, .L527+8
 5346 0032 0246     		mov	r2, r0
 5347 0034 2846     		mov	r0, r5
 5348 0036 FFF7FEFF 		bl	chprintf
 5349              	.LVL584:
 5350              		.loc 2 363 0
 5351 003a 3246     		mov	r2, r6
 5352 003c 0849     		ldr	r1, .L527+12
 5353 003e 2846     		mov	r0, r5
 5354 0040 FFF7FEFF 		bl	chprintf
 5355              	.LVL585:
 5356              		.loc 2 364 0
 5357 0044 2846     		mov	r0, r5
 5358 0046 009A     		ldr	r2, [sp]
ARM GAS  /tmp/ccHKfm7W.s 			page 95


 5359 0048 0649     		ldr	r1, .L527+16
 5360 004a FFF7FEFF 		bl	chprintf
 5361              	.LVL586:
 5362 004e E1E7     		b	.L521
 5363              	.LVL587:
 5364              	.L526:
 5365              	.LBE312:
 5366              	.LBE311:
 5367              		.loc 2 365 0
 5368 0050 FFF7FEFF 		bl	__stack_chk_fail
 5369              	.LVL588:
 5370              	.L528:
 5371              		.align	2
 5372              	.L527:
 5373 0054 00000000 		.word	__stack_chk_guard
 5374 0058 00000000 		.word	.LC106
 5375 005c 10000000 		.word	.LC107
 5376 0060 30000000 		.word	.LC108
 5377 0064 4C000000 		.word	.LC109
 5378              		.cfi_endproc
 5379              	.LFE275:
 5380              		.size	cmd_mem, .-cmd_mem
 5381              		.section	.text.cmd_melody_play,"ax",%progbits
 5382              		.align	1
 5383              		.p2align 4,,15
 5384              		.syntax unified
 5385              		.thumb
 5386              		.thumb_func
 5387              		.fpu fpv4-sp-d16
 5388              		.type	cmd_melody_play, %function
 5389              	cmd_melody_play:
 5390              	.LFB273:
 5391              		.loc 2 319 0
 5392              		.cfi_startproc
 5393              		@ args = 0, pretend = 0, frame = 8
 5394              		@ frame_needed = 0, uses_anonymous_args = 0
 5395              	.LVL589:
 5396 0000 30B5     		push	{r4, r5, lr}
 5397              		.cfi_def_cfa_offset 12
 5398              		.cfi_offset 4, -12
 5399              		.cfi_offset 5, -8
 5400              		.cfi_offset 14, -4
 5401 0002 2F4D     		ldr	r5, .L536
 5402 0004 83B0     		sub	sp, sp, #12
 5403              		.cfi_def_cfa_offset 24
 5404              		.loc 2 319 0
 5405 0006 2B68     		ldr	r3, [r5]
 5406 0008 0193     		str	r3, [sp, #4]
 5407              		.loc 2 321 0
 5408 000a 0129     		cmp	r1, #1
 5409 000c 46D0     		beq	.L530
 5410 000e 0446     		mov	r4, r0
 5411              	.LVL590:
 5412              	.LBB315:
 5413              	.LBB316:
 5414              		.loc 2 322 0
 5415 0010 2C49     		ldr	r1, .L536+4
ARM GAS  /tmp/ccHKfm7W.s 			page 96


 5416              	.LVL591:
 5417 0012 FFF7FEFF 		bl	chprintf
 5418              	.LVL592:
 5419              		.loc 2 323 0
 5420 0016 2C49     		ldr	r1, .L536+8
 5421 0018 2046     		mov	r0, r4
 5422 001a FFF7FEFF 		bl	chprintf
 5423              	.LVL593:
 5424              		.loc 2 324 0
 5425 001e 2B49     		ldr	r1, .L536+12
 5426 0020 2046     		mov	r0, r4
 5427 0022 FFF7FEFF 		bl	chprintf
 5428              	.LVL594:
 5429              		.loc 2 325 0
 5430 0026 2A49     		ldr	r1, .L536+16
 5431 0028 2046     		mov	r0, r4
 5432 002a FFF7FEFF 		bl	chprintf
 5433              	.LVL595:
 5434              		.loc 2 326 0
 5435 002e 2949     		ldr	r1, .L536+20
 5436 0030 2046     		mov	r0, r4
 5437 0032 FFF7FEFF 		bl	chprintf
 5438              	.LVL596:
 5439              		.loc 2 327 0
 5440 0036 2849     		ldr	r1, .L536+24
 5441 0038 2046     		mov	r0, r4
 5442 003a FFF7FEFF 		bl	chprintf
 5443              	.LVL597:
 5444              		.loc 2 328 0
 5445 003e 2749     		ldr	r1, .L536+28
 5446 0040 2046     		mov	r0, r4
 5447 0042 FFF7FEFF 		bl	chprintf
 5448              	.LVL598:
 5449              		.loc 2 329 0
 5450 0046 2649     		ldr	r1, .L536+32
 5451 0048 2046     		mov	r0, r4
 5452 004a FFF7FEFF 		bl	chprintf
 5453              	.LVL599:
 5454              		.loc 2 330 0
 5455 004e 2549     		ldr	r1, .L536+36
 5456 0050 2046     		mov	r0, r4
 5457 0052 FFF7FEFF 		bl	chprintf
 5458              	.LVL600:
 5459              		.loc 2 331 0
 5460 0056 2449     		ldr	r1, .L536+40
 5461 0058 2046     		mov	r0, r4
 5462 005a FFF7FEFF 		bl	chprintf
 5463              	.LVL601:
 5464              		.loc 2 332 0
 5465 005e 2349     		ldr	r1, .L536+44
 5466 0060 2046     		mov	r0, r4
 5467 0062 FFF7FEFF 		bl	chprintf
 5468              	.LVL602:
 5469              		.loc 2 333 0
 5470 0066 2249     		ldr	r1, .L536+48
 5471 0068 2046     		mov	r0, r4
 5472 006a FFF7FEFF 		bl	chprintf
ARM GAS  /tmp/ccHKfm7W.s 			page 97


 5473              	.LVL603:
 5474              		.loc 2 334 0
 5475 006e 2149     		ldr	r1, .L536+52
 5476 0070 2046     		mov	r0, r4
 5477 0072 FFF7FEFF 		bl	chprintf
 5478              	.LVL604:
 5479              		.loc 2 335 0
 5480 0076 2049     		ldr	r1, .L536+56
 5481 0078 2046     		mov	r0, r4
 5482 007a FFF7FEFF 		bl	chprintf
 5483              	.LVL605:
 5484              		.loc 2 336 0
 5485 007e 1F49     		ldr	r1, .L536+60
 5486 0080 2046     		mov	r0, r4
 5487 0082 FFF7FEFF 		bl	chprintf
 5488              	.LVL606:
 5489              		.loc 2 337 0
 5490 0086 019A     		ldr	r2, [sp, #4]
 5491 0088 2B68     		ldr	r3, [r5]
 5492 008a 9A42     		cmp	r2, r3
 5493 008c 16D1     		bne	.L535
 5494 008e 1C49     		ldr	r1, .L536+64
 5495 0090 2046     		mov	r0, r4
 5496              	.LBE316:
 5497              	.LBE315:
 5498              		.loc 2 341 0
 5499 0092 03B0     		add	sp, sp, #12
 5500              		.cfi_remember_state
 5501              		.cfi_def_cfa_offset 12
 5502              		@ sp needed
 5503 0094 BDE83040 		pop	{r4, r5, lr}
 5504              		.cfi_restore 14
 5505              		.cfi_restore 5
 5506              		.cfi_restore 4
 5507              		.cfi_def_cfa_offset 0
 5508              	.LVL607:
 5509              	.LBB318:
 5510              	.LBB317:
 5511              		.loc 2 337 0
 5512 0098 FFF7FEBF 		b	chprintf
 5513              	.LVL608:
 5514              	.L530:
 5515              		.cfi_restore_state
 5516              	.LBE317:
 5517              	.LBE318:
 5518              		.loc 2 340 0
 5519 009c 1068     		ldr	r0, [r2]
 5520              	.LVL609:
 5521 009e FFF7FEFF 		bl	atoi
 5522              	.LVL610:
 5523 00a2 019A     		ldr	r2, [sp, #4]
 5524 00a4 2B68     		ldr	r3, [r5]
 5525 00a6 9A42     		cmp	r2, r3
 5526 00a8 08D1     		bne	.L535
 5527 00aa 0138     		subs	r0, r0, #1
 5528 00ac C0B2     		uxtb	r0, r0
 5529 00ae 0022     		movs	r2, #0
ARM GAS  /tmp/ccHKfm7W.s 			page 98


 5530 00b0 0221     		movs	r1, #2
 5531              		.loc 2 341 0
 5532 00b2 03B0     		add	sp, sp, #12
 5533              		.cfi_remember_state
 5534              		.cfi_def_cfa_offset 12
 5535              		@ sp needed
 5536 00b4 BDE83040 		pop	{r4, r5, lr}
 5537              		.cfi_restore 14
 5538              		.cfi_restore 5
 5539              		.cfi_restore 4
 5540              		.cfi_def_cfa_offset 0
 5541              		.loc 2 340 0
 5542 00b8 FFF7FEBF 		b	playMelody
 5543              	.LVL611:
 5544              	.L535:
 5545              		.cfi_restore_state
 5546 00bc FFF7FEFF 		bl	__stack_chk_fail
 5547              	.LVL612:
 5548              	.L537:
 5549              		.align	2
 5550              	.L536:
 5551 00c0 00000000 		.word	__stack_chk_guard
 5552 00c4 00000000 		.word	.LC110
 5553 00c8 24000000 		.word	.LC111
 5554 00cc 3C000000 		.word	.LC112
 5555 00d0 58000000 		.word	.LC113
 5556 00d4 74000000 		.word	.LC114
 5557 00d8 84000000 		.word	.LC115
 5558 00dc 90000000 		.word	.LC116
 5559 00e0 A4000000 		.word	.LC117
 5560 00e4 B8000000 		.word	.LC118
 5561 00e8 CC000000 		.word	.LC119
 5562 00ec E0000000 		.word	.LC120
 5563 00f0 F0000000 		.word	.LC121
 5564 00f4 10010000 		.word	.LC122
 5565 00f8 20010000 		.word	.LC123
 5566 00fc 30010000 		.word	.LC124
 5567 0100 44010000 		.word	.LC125
 5568              		.cfi_endproc
 5569              	.LFE273:
 5570              		.size	cmd_melody_play, .-cmd_melody_play
 5571              		.section	.text.cmd_sound_file_volume,"ax",%progbits
 5572              		.align	1
 5573              		.p2align 4,,15
 5574              		.syntax unified
 5575              		.thumb
 5576              		.thumb_func
 5577              		.fpu fpv4-sp-d16
 5578              		.type	cmd_sound_file_volume, %function
 5579              	cmd_sound_file_volume:
 5580              	.LFB272:
 5581              		.loc 2 308 0
 5582              		.cfi_startproc
 5583              		@ args = 0, pretend = 0, frame = 8
 5584              		@ frame_needed = 0, uses_anonymous_args = 0
 5585              	.LVL613:
 5586 0000 10B5     		push	{r4, lr}
ARM GAS  /tmp/ccHKfm7W.s 			page 99


 5587              		.cfi_def_cfa_offset 8
 5588              		.cfi_offset 4, -8
 5589              		.cfi_offset 14, -4
 5590 0002 0F4C     		ldr	r4, .L545
 5591 0004 82B0     		sub	sp, sp, #8
 5592              		.cfi_def_cfa_offset 16
 5593              		.loc 2 308 0
 5594 0006 2368     		ldr	r3, [r4]
 5595 0008 0193     		str	r3, [sp, #4]
 5596              		.loc 2 310 0
 5597 000a 0129     		cmp	r1, #1
 5598 000c 09D0     		beq	.L539
 5599              		.loc 2 311 0
 5600 000e 019A     		ldr	r2, [sp, #4]
 5601              	.LVL614:
 5602 0010 2368     		ldr	r3, [r4]
 5603 0012 9A42     		cmp	r2, r3
 5604 0014 12D1     		bne	.L544
 5605 0016 0B49     		ldr	r1, .L545+4
 5606              	.LVL615:
 5607              		.loc 2 316 0
 5608 0018 02B0     		add	sp, sp, #8
 5609              		.cfi_remember_state
 5610              		.cfi_def_cfa_offset 8
 5611              		@ sp needed
 5612 001a BDE81040 		pop	{r4, lr}
 5613              		.cfi_restore 14
 5614              		.cfi_restore 4
 5615              		.cfi_def_cfa_offset 0
 5616              		.loc 2 311 0
 5617 001e FFF7FEBF 		b	chprintf
 5618              	.LVL616:
 5619              	.L539:
 5620              		.cfi_restore_state
 5621              	.LBB321:
 5622              	.LBB322:
 5623              		.loc 2 315 0
 5624 0022 1068     		ldr	r0, [r2]
 5625              	.LVL617:
 5626 0024 FFF7FEFF 		bl	atoi
 5627              	.LVL618:
 5628 0028 019A     		ldr	r2, [sp, #4]
 5629 002a 2368     		ldr	r3, [r4]
 5630 002c 9A42     		cmp	r2, r3
 5631 002e 05D1     		bne	.L544
 5632 0030 C0B2     		uxtb	r0, r0
 5633              	.LBE322:
 5634              	.LBE321:
 5635              		.loc 2 316 0
 5636 0032 02B0     		add	sp, sp, #8
 5637              		.cfi_remember_state
 5638              		.cfi_def_cfa_offset 8
 5639              		@ sp needed
 5640 0034 BDE81040 		pop	{r4, lr}
 5641              		.cfi_restore 14
 5642              		.cfi_restore 4
 5643              		.cfi_def_cfa_offset 0
ARM GAS  /tmp/ccHKfm7W.s 			page 100


 5644              	.LBB324:
 5645              	.LBB323:
 5646              		.loc 2 315 0
 5647 0038 FFF7FEBF 		b	setSoundFileVolume
 5648              	.LVL619:
 5649              	.L544:
 5650              		.cfi_restore_state
 5651 003c FFF7FEFF 		bl	__stack_chk_fail
 5652              	.LVL620:
 5653              	.L546:
 5654              		.align	2
 5655              	.L545:
 5656 0040 00000000 		.word	__stack_chk_guard
 5657 0044 00000000 		.word	.LC126
 5658              	.LBE323:
 5659              	.LBE324:
 5660              		.cfi_endproc
 5661              	.LFE272:
 5662              		.size	cmd_sound_file_volume, .-cmd_sound_file_volume
 5663              		.section	.text.cmd_sound_file_play,"ax",%progbits
 5664              		.align	1
 5665              		.p2align 4,,15
 5666              		.syntax unified
 5667              		.thumb
 5668              		.thumb_func
 5669              		.fpu fpv4-sp-d16
 5670              		.type	cmd_sound_file_play, %function
 5671              	cmd_sound_file_play:
 5672              	.LFB270:
 5673              		.loc 2 287 0
 5674              		.cfi_startproc
 5675              		@ args = 0, pretend = 0, frame = 8
 5676              		@ frame_needed = 0, uses_anonymous_args = 0
 5677              	.LVL621:
 5678 0000 10B5     		push	{r4, lr}
 5679              		.cfi_def_cfa_offset 8
 5680              		.cfi_offset 4, -8
 5681              		.cfi_offset 14, -4
 5682 0002 0F4B     		ldr	r3, .L554
 5683 0004 82B0     		sub	sp, sp, #8
 5684              		.cfi_def_cfa_offset 16
 5685              		.loc 2 287 0
 5686 0006 1C68     		ldr	r4, [r3]
 5687 0008 0194     		str	r4, [sp, #4]
 5688              		.loc 2 289 0
 5689 000a 0129     		cmp	r1, #1
 5690 000c 09D0     		beq	.L548
 5691              		.loc 2 290 0
 5692 000e 019A     		ldr	r2, [sp, #4]
 5693              	.LVL622:
 5694 0010 1B68     		ldr	r3, [r3]
 5695 0012 9A42     		cmp	r2, r3
 5696 0014 12D1     		bne	.L553
 5697 0016 0B49     		ldr	r1, .L554+4
 5698              	.LVL623:
 5699              		.loc 2 296 0
 5700 0018 02B0     		add	sp, sp, #8
ARM GAS  /tmp/ccHKfm7W.s 			page 101


 5701              		.cfi_remember_state
 5702              		.cfi_def_cfa_offset 8
 5703              		@ sp needed
 5704 001a BDE81040 		pop	{r4, lr}
 5705              		.cfi_restore 14
 5706              		.cfi_restore 4
 5707              		.cfi_def_cfa_offset 0
 5708              		.loc 2 290 0
 5709 001e FFF7FEBF 		b	chprintf
 5710              	.LVL624:
 5711              	.L548:
 5712              		.cfi_restore_state
 5713              	.LBB327:
 5714              	.LBB328:
 5715              		.loc 2 294 0
 5716 0022 0199     		ldr	r1, [sp, #4]
 5717              	.LVL625:
 5718 0024 1B68     		ldr	r3, [r3]
 5719 0026 9942     		cmp	r1, r3
 5720 0028 08D1     		bne	.L553
 5721 002a 1068     		ldr	r0, [r2]
 5722              	.LVL626:
 5723 002c 0221     		movs	r1, #2
 5724 002e 4AF64442 		movw	r2, #44100
 5725              	.LVL627:
 5726              	.LBE328:
 5727              	.LBE327:
 5728              		.loc 2 296 0
 5729 0032 02B0     		add	sp, sp, #8
 5730              		.cfi_remember_state
 5731              		.cfi_def_cfa_offset 8
 5732              		@ sp needed
 5733 0034 BDE81040 		pop	{r4, lr}
 5734              		.cfi_restore 14
 5735              		.cfi_restore 4
 5736              		.cfi_def_cfa_offset 0
 5737              	.LBB330:
 5738              	.LBB329:
 5739              		.loc 2 294 0
 5740 0038 FFF7FEBF 		b	playSoundFile
 5741              	.LVL628:
 5742              	.L553:
 5743              		.cfi_restore_state
 5744 003c FFF7FEFF 		bl	__stack_chk_fail
 5745              	.LVL629:
 5746              	.L555:
 5747              		.align	2
 5748              	.L554:
 5749 0040 00000000 		.word	__stack_chk_guard
 5750 0044 00000000 		.word	.LC127
 5751              	.LBE329:
 5752              	.LBE330:
 5753              		.cfi_endproc
 5754              	.LFE270:
 5755              		.size	cmd_sound_file_play, .-cmd_sound_file_play
 5756              		.section	.text.cmd_atan2,"ax",%progbits
 5757              		.align	1
ARM GAS  /tmp/ccHKfm7W.s 			page 102


 5758              		.p2align 4,,15
 5759              		.syntax unified
 5760              		.thumb
 5761              		.thumb_func
 5762              		.fpu fpv4-sp-d16
 5763              		.type	cmd_atan2, %function
 5764              	cmd_atan2:
 5765              	.LFB280:
 5766              		.loc 2 463 0
 5767              		.cfi_startproc
 5768              		@ args = 0, pretend = 0, frame = 32
 5769              		@ frame_needed = 0, uses_anonymous_args = 0
 5770              	.LVL630:
 5771 0000 2DE9F041 		push	{r4, r5, r6, r7, r8, lr}
 5772              		.cfi_def_cfa_offset 24
 5773              		.cfi_offset 4, -24
 5774              		.cfi_offset 5, -20
 5775              		.cfi_offset 6, -16
 5776              		.cfi_offset 7, -12
 5777              		.cfi_offset 8, -8
 5778              		.cfi_offset 14, -4
 5779 0004 3D4C     		ldr	r4, .L572
 5780 0006 8AB0     		sub	sp, sp, #40
 5781              		.cfi_def_cfa_offset 64
 5782              		.loc 2 463 0
 5783 0008 0F46     		mov	r7, r1
 5784 000a 2368     		ldr	r3, [r4]
 5785 000c 0993     		str	r3, [sp, #36]
 5786 000e 0546     		mov	r5, r0
 5787              		.loc 2 466 0
 5788 0010 02A8     		add	r0, sp, #8
 5789              	.LVL631:
 5790              		.loc 2 463 0
 5791 0012 1646     		mov	r6, r2
 5792              		.loc 2 466 0
 5793 0014 FFF7FEFF 		bl	chTMObjectInit
 5794              	.LVL632:
 5795              		.loc 2 468 0
 5796 0018 032F     		cmp	r7, #3
 5797 001a 0AD0     		beq	.L557
 5798              		.loc 2 469 0
 5799 001c 2846     		mov	r0, r5
 5800 001e 3849     		ldr	r1, .L572+4
 5801 0020 FFF7FEFF 		bl	chprintf
 5802              	.LVL633:
 5803              	.L556:
 5804              		.loc 2 492 0
 5805 0024 099A     		ldr	r2, [sp, #36]
 5806 0026 2368     		ldr	r3, [r4]
 5807 0028 9A42     		cmp	r2, r3
 5808 002a 65D1     		bne	.L570
 5809 002c 0AB0     		add	sp, sp, #40
 5810              		.cfi_remember_state
 5811              		.cfi_def_cfa_offset 24
 5812              		@ sp needed
 5813 002e BDE8F081 		pop	{r4, r5, r6, r7, r8, pc}
 5814              	.LVL634:
ARM GAS  /tmp/ccHKfm7W.s 			page 103


 5815              	.L557:
 5816              		.cfi_restore_state
 5817              		.loc 2 471 0
 5818 0032 7068     		ldr	r0, [r6, #4]
 5819 0034 FFF7FEFF 		bl	atoi
 5820              	.LVL635:
 5821 0038 07B2     		sxth	r7, r0
 5822              	.LVL636:
 5823              		.loc 2 472 0
 5824 003a B068     		ldr	r0, [r6, #8]
 5825 003c FFF7FEFF 		bl	atoi
 5826              	.LVL637:
 5827              		.loc 2 474 0
 5828 0040 3049     		ldr	r1, .L572+8
 5829              		.loc 2 472 0
 5830 0042 0FFA80F8 		sxth	r8, r0
 5831              	.LVL638:
 5832              		.loc 2 474 0
 5833 0046 3068     		ldr	r0, [r6]
 5834 0048 FFF7FEFF 		bl	strcmp
 5835              	.LVL639:
 5836              	.LBB351:
 5837              	.LBB352:
 5838              	.LBB353:
 5839              	.LBB354:
 5840              	.LBB355:
 5841              		.file 4 "../e-puck2_main-processor/ChibiOS//os/ext/CMSIS/include/core_cmFunc.h"
 5842              		.loc 4 546 0
 5843 004c 2023     		movs	r3, #32
 5844              	.LBE355:
 5845              	.LBE354:
 5846              	.LBE353:
 5847              	.LBE352:
 5848              	.LBE351:
 5849              		.loc 2 474 0
 5850 004e 0028     		cmp	r0, #0
 5851 0050 42D0     		beq	.L571
 5852              	.LVL640:
 5853              	.LBB360:
 5854              	.LBB361:
 5855              	.LBB362:
 5856              	.LBB363:
 5857              	.LBB364:
 5858              		.loc 4 546 0
 5859              		.syntax unified
 5860              	@ 546 "../e-puck2_main-processor/ChibiOS//os/ext/CMSIS/include/core_cmFunc.h" 1
 5861 0052 83F31188 		MSR basepri, r3
 5862              	@ 0 "" 2
 5863              	.LVL641:
 5864              		.thumb
 5865              		.syntax unified
 5866              	.LBE364:
 5867              	.LBE363:
 5868              	.LBE362:
 5869              		.file 5 "../e-puck2_main-processor/ChibiOS//os/rt/include/chsys.h"
 5870              		.loc 5 349 0
 5871 0056 FFF7FEFF 		bl	_stats_start_measure_crit_thd
ARM GAS  /tmp/ccHKfm7W.s 			page 104


 5872              	.LVL642:
 5873              		.loc 5 350 0
 5874 005a FFF7FEFF 		bl	_dbg_check_lock
 5875              	.LVL643:
 5876              	.LBE361:
 5877              	.LBE360:
 5878              		.loc 2 482 0
 5879 005e 02A8     		add	r0, sp, #8
 5880 0060 FFF7FEFF 		bl	chTMStartMeasurementX
 5881              	.LVL644:
 5882              		.loc 2 483 0
 5883 0064 07EE908A 		vmov	s15, r8	@ int
 5884 0068 F8EEE70A 		vcvt.f32.s32	s1, s15
 5885 006c 07EE907A 		vmov	s15, r7	@ int
 5886 0070 B8EEE70A 		vcvt.f32.s32	s0, s15
 5887 0074 FFF7FEFF 		bl	atan2f
 5888              	.LVL645:
 5889 0078 DFED237A 		vldr.32	s15, .L572+12
 5890 007c 9FED237A 		vldr.32	s14, .L572+16
 5891 0080 20EE270A 		vmul.f32	s0, s0, s15
 5892              		.loc 2 484 0
 5893 0084 02A8     		add	r0, sp, #8
 5894              		.loc 2 483 0
 5895 0086 C0EE077A 		vdiv.f32	s15, s0, s14
 5896 008a FDEEE77A 		vcvt.s32.f32	s15, s15
 5897 008e 17EE903A 		vmov	r3, s15	@ int
 5898 0092 1EB2     		sxth	r6, r3
 5899              	.LVL646:
 5900              	.L569:
 5901              		.loc 2 484 0
 5902 0094 FFF7FEFF 		bl	chTMStopMeasurementX
 5903              	.LVL647:
 5904              	.LBB365:
 5905              	.LBB366:
 5906              		.loc 5 360 0
 5907 0098 FFF7FEFF 		bl	_dbg_check_unlock
 5908              	.LVL648:
 5909              		.loc 5 361 0
 5910 009c FFF7FEFF 		bl	_stats_stop_measure_crit_thd
 5911              	.LVL649:
 5912              		.loc 5 367 0
 5913 00a0 1B4B     		ldr	r3, .L572+20
 5914 00a2 1A68     		ldr	r2, [r3]
 5915 00a4 9A42     		cmp	r2, r3
 5916 00a6 07D0     		beq	.L562
 5917 00a8 9969     		ldr	r1, [r3, #24]
 5918 00aa 9368     		ldr	r3, [r2, #8]
 5919 00ac 8A68     		ldr	r2, [r1, #8]
 5920 00ae 9A42     		cmp	r2, r3
 5921 00b0 02D2     		bcs	.L562
 5922 00b2 1848     		ldr	r0, .L572+24
 5923 00b4 FFF7FEFF 		bl	chSysHalt
 5924              	.LVL650:
 5925              	.L562:
 5926              	.LBB367:
 5927              	.LBB368:
 5928              	.LBB369:
ARM GAS  /tmp/ccHKfm7W.s 			page 105


 5929              		.loc 4 546 0
 5930 00b8 0023     		movs	r3, #0
 5931              		.syntax unified
 5932              	@ 546 "../e-puck2_main-processor/ChibiOS//os/ext/CMSIS/include/core_cmFunc.h" 1
 5933 00ba 83F31188 		MSR basepri, r3
 5934              	@ 0 "" 2
 5935              	.LVL651:
 5936              		.thumb
 5937              		.syntax unified
 5938              	.LBE369:
 5939              	.LBE368:
 5940              	.LBE367:
 5941              	.LBE366:
 5942              	.LBE365:
 5943              		.loc 2 489 0
 5944 00be 1649     		ldr	r1, .L572+28
 5945 00c0 0096     		str	r6, [sp]
 5946 00c2 3A46     		mov	r2, r7
 5947 00c4 4346     		mov	r3, r8
 5948 00c6 2846     		mov	r0, r5
 5949 00c8 FFF7FEFF 		bl	chprintf
 5950              	.LVL652:
 5951              		.loc 2 490 0
 5952 00cc 2846     		mov	r0, r5
 5953 00ce 049A     		ldr	r2, [sp, #16]
 5954 00d0 1249     		ldr	r1, .L572+32
 5955 00d2 FFF7FEFF 		bl	chprintf
 5956              	.LVL653:
 5957              		.loc 2 492 0
 5958 00d6 A5E7     		b	.L556
 5959              	.LVL654:
 5960              	.L571:
 5961              	.LBB370:
 5962              	.LBB359:
 5963              	.LBB358:
 5964              	.LBB357:
 5965              	.LBB356:
 5966              		.loc 4 546 0
 5967              		.syntax unified
 5968              	@ 546 "../e-puck2_main-processor/ChibiOS//os/ext/CMSIS/include/core_cmFunc.h" 1
 5969 00d8 83F31188 		MSR basepri, r3
 5970              	@ 0 "" 2
 5971              	.LVL655:
 5972              		.thumb
 5973              		.syntax unified
 5974              	.LBE356:
 5975              	.LBE357:
 5976              	.LBE358:
 5977              		.loc 5 349 0
 5978 00dc FFF7FEFF 		bl	_stats_start_measure_crit_thd
 5979              	.LVL656:
 5980              		.loc 5 350 0
 5981 00e0 FFF7FEFF 		bl	_dbg_check_lock
 5982              	.LVL657:
 5983              	.LBE359:
 5984              	.LBE370:
 5985              		.loc 2 476 0
ARM GAS  /tmp/ccHKfm7W.s 			page 106


 5986 00e4 02A8     		add	r0, sp, #8
 5987 00e6 FFF7FEFF 		bl	chTMStartMeasurementX
 5988              	.LVL658:
 5989              		.loc 2 477 0
 5990 00ea 4146     		mov	r1, r8
 5991 00ec 3846     		mov	r0, r7
 5992 00ee FFF7FEFF 		bl	aseba_atan2
 5993              	.LVL659:
 5994 00f2 0646     		mov	r6, r0
 5995              	.LVL660:
 5996              		.loc 2 478 0
 5997 00f4 02A8     		add	r0, sp, #8
 5998 00f6 CDE7     		b	.L569
 5999              	.LVL661:
 6000              	.L570:
 6001              		.loc 2 492 0
 6002 00f8 FFF7FEFF 		bl	__stack_chk_fail
 6003              	.LVL662:
 6004              	.L573:
 6005              		.align	2
 6006              	.L572:
 6007 00fc 00000000 		.word	__stack_chk_guard
 6008 0100 00000000 		.word	.LC128
 6009 0104 44000000 		.word	.LC129
 6010 0108 00000047 		.word	1191182336
 6011 010c DB0F4940 		.word	1078530011
 6012 0110 00000000 		.word	ch
 6013 0114 00000000 		.word	.LANCHOR9
 6014 0118 48000000 		.word	.LC130
 6015 011c 60000000 		.word	.LC131
 6016              		.cfi_endproc
 6017              	.LFE280:
 6018              		.size	cmd_atan2, .-cmd_atan2
 6019              		.section	.text.cmd_sqrt,"ax",%progbits
 6020              		.align	1
 6021              		.p2align 4,,15
 6022              		.syntax unified
 6023              		.thumb
 6024              		.thumb_func
 6025              		.fpu fpv4-sp-d16
 6026              		.type	cmd_sqrt, %function
 6027              	cmd_sqrt:
 6028              	.LFB279:
 6029              		.loc 2 418 0
 6030              		.cfi_startproc
 6031              		@ args = 0, pretend = 0, frame = 32
 6032              		@ frame_needed = 0, uses_anonymous_args = 0
 6033              	.LVL663:
 6034 0000 2DE9F041 		push	{r4, r5, r6, r7, r8, lr}
 6035              		.cfi_def_cfa_offset 24
 6036              		.cfi_offset 4, -24
 6037              		.cfi_offset 5, -20
 6038              		.cfi_offset 6, -16
 6039              		.cfi_offset 7, -12
 6040              		.cfi_offset 8, -8
 6041              		.cfi_offset 14, -4
 6042 0004 2DED028B 		vpush.64	{d8}
ARM GAS  /tmp/ccHKfm7W.s 			page 107


 6043              		.cfi_def_cfa_offset 32
 6044              		.cfi_offset 80, -32
 6045              		.cfi_offset 81, -28
 6046 0008 494C     		ldr	r4, .L598
 6047 000a 88B0     		sub	sp, sp, #32
 6048              		.cfi_def_cfa_offset 64
 6049              		.loc 2 418 0
 6050 000c 0D46     		mov	r5, r1
 6051 000e 2368     		ldr	r3, [r4]
 6052 0010 0793     		str	r3, [sp, #28]
 6053 0012 0646     		mov	r6, r0
 6054              		.loc 2 422 0
 6055 0014 6846     		mov	r0, sp
 6056              	.LVL664:
 6057              		.loc 2 418 0
 6058 0016 1746     		mov	r7, r2
 6059              		.loc 2 422 0
 6060 0018 FFF7FEFF 		bl	chTMObjectInit
 6061              	.LVL665:
 6062              		.loc 2 424 0
 6063 001c 022D     		cmp	r5, #2
 6064 001e 0CD0     		beq	.L575
 6065              		.loc 2 425 0
 6066 0020 3046     		mov	r0, r6
 6067 0022 4449     		ldr	r1, .L598+4
 6068 0024 FFF7FEFF 		bl	chprintf
 6069              	.LVL666:
 6070              	.L574:
 6071              		.loc 2 458 0
 6072 0028 079A     		ldr	r2, [sp, #28]
 6073 002a 2368     		ldr	r3, [r4]
 6074 002c 9A42     		cmp	r2, r3
 6075 002e 7DD1     		bne	.L594
 6076 0030 08B0     		add	sp, sp, #32
 6077              		.cfi_remember_state
 6078              		.cfi_def_cfa_offset 32
 6079              		@ sp needed
 6080 0032 BDEC028B 		vldm	sp!, {d8}
 6081              		.cfi_restore 80
 6082              		.cfi_restore 81
 6083              		.cfi_def_cfa_offset 24
 6084 0036 BDE8F081 		pop	{r4, r5, r6, r7, r8, pc}
 6085              	.LVL667:
 6086              	.L575:
 6087              		.cfi_restore_state
 6088              		.loc 2 428 0
 6089 003a 7868     		ldr	r0, [r7, #4]
 6090 003c FFF7FEFF 		bl	atoi
 6091              	.LVL668:
 6092              		.loc 2 430 0
 6093 0040 3D68     		ldr	r5, [r7]
 6094              	.LVL669:
 6095 0042 3D49     		ldr	r1, .L598+8
 6096              		.loc 2 428 0
 6097 0044 8046     		mov	r8, r0
 6098              	.LVL670:
 6099              		.loc 2 430 0
ARM GAS  /tmp/ccHKfm7W.s 			page 108


 6100 0046 2846     		mov	r0, r5
 6101 0048 FFF7FEFF 		bl	strcmp
 6102              	.LVL671:
 6103 004c 0028     		cmp	r0, #0
 6104 004e 59D0     		beq	.L595
 6105              		.loc 2 436 0
 6106 0050 2846     		mov	r0, r5
 6107 0052 3A49     		ldr	r1, .L598+12
 6108 0054 FFF7FEFF 		bl	strcmp
 6109              	.LVL672:
 6110              		.loc 2 428 0
 6111 0058 1FFA88F5 		uxth	r5, r8
 6112              	.LBB401:
 6113              	.LBB402:
 6114              	.LBB403:
 6115              	.LBB404:
 6116              	.LBB405:
 6117              		.loc 4 546 0
 6118 005c 2023     		movs	r3, #32
 6119              	.LBE405:
 6120              	.LBE404:
 6121              	.LBE403:
 6122              	.LBE402:
 6123              	.LBE401:
 6124              		.loc 2 436 0
 6125 005e 0028     		cmp	r0, #0
 6126 0060 36D0     		beq	.L596
 6127              	.LVL673:
 6128              	.LBB410:
 6129              	.LBB411:
 6130              	.LBB412:
 6131              	.LBB413:
 6132              	.LBB414:
 6133              		.loc 4 546 0
 6134              		.syntax unified
 6135              	@ 546 "../e-puck2_main-processor/ChibiOS//os/ext/CMSIS/include/core_cmFunc.h" 1
 6136 0062 83F31188 		MSR basepri, r3
 6137              	@ 0 "" 2
 6138              	.LVL674:
 6139              		.thumb
 6140              		.syntax unified
 6141              	.LBE414:
 6142              	.LBE413:
 6143              	.LBE412:
 6144              		.loc 5 349 0
 6145 0066 FFF7FEFF 		bl	_stats_start_measure_crit_thd
 6146              	.LVL675:
 6147              		.loc 5 350 0
 6148 006a FFF7FEFF 		bl	_dbg_check_lock
 6149              	.LVL676:
 6150              	.LBE411:
 6151              	.LBE410:
 6152              		.loc 2 444 0
 6153 006e 6846     		mov	r0, sp
 6154 0070 FFF7FEFF 		bl	chTMStartMeasurementX
 6155              	.LVL677:
 6156              		.loc 2 445 0
ARM GAS  /tmp/ccHKfm7W.s 			page 109


 6157 0074 07EE905A 		vmov	s15, r5	@ int
 6158 0078 B8EE670A 		vcvt.f32.u32	s0, s15
 6159              	.LVL678:
 6160              		.loc 2 446 0
 6161              		.syntax unified
 6162              	@ 446 "../e-puck2_main-processor/src/cmd.c" 1
 6163 007c B1EEC00A 		vsqrt.f32 s0, s0
 6164              	@ 0 "" 2
 6165              	.LVL679:
 6166              		.loc 2 450 0
 6167              		.thumb
 6168              		.syntax unified
 6169 0080 BCEEC00A 		vcvt.u32.f32	s0, s0
 6170              	.LVL680:
 6171              		.loc 2 451 0
 6172 0084 6846     		mov	r0, sp
 6173              		.loc 2 450 0
 6174 0086 10EE103A 		vmov	r3, s0	@ int
 6175              	.L593:
 6176 008a 9DB2     		uxth	r5, r3
 6177              	.L591:
 6178              	.LVL681:
 6179              		.loc 2 451 0
 6180 008c FFF7FEFF 		bl	chTMStopMeasurementX
 6181              	.LVL682:
 6182              	.LBB415:
 6183              	.LBB416:
 6184              		.loc 5 360 0
 6185 0090 FFF7FEFF 		bl	_dbg_check_unlock
 6186              	.LVL683:
 6187              		.loc 5 361 0
 6188 0094 FFF7FEFF 		bl	_stats_stop_measure_crit_thd
 6189              	.LVL684:
 6190              		.loc 5 367 0
 6191 0098 294B     		ldr	r3, .L598+16
 6192 009a 1A68     		ldr	r2, [r3]
 6193 009c 9A42     		cmp	r2, r3
 6194 009e 07D0     		beq	.L583
 6195 00a0 9969     		ldr	r1, [r3, #24]
 6196 00a2 9368     		ldr	r3, [r2, #8]
 6197 00a4 8A68     		ldr	r2, [r1, #8]
 6198 00a6 9A42     		cmp	r2, r3
 6199 00a8 02D2     		bcs	.L583
 6200 00aa 2648     		ldr	r0, .L598+20
 6201 00ac FFF7FEFF 		bl	chSysHalt
 6202              	.LVL685:
 6203              	.L583:
 6204              	.LBB417:
 6205              	.LBB418:
 6206              	.LBB419:
 6207              		.loc 4 546 0
 6208 00b0 0023     		movs	r3, #0
 6209              		.syntax unified
 6210              	@ 546 "../e-puck2_main-processor/ChibiOS//os/ext/CMSIS/include/core_cmFunc.h" 1
 6211 00b2 83F31188 		MSR basepri, r3
 6212              	@ 0 "" 2
 6213              	.LVL686:
ARM GAS  /tmp/ccHKfm7W.s 			page 110


 6214              		.thumb
 6215              		.syntax unified
 6216              	.LBE419:
 6217              	.LBE418:
 6218              	.LBE417:
 6219              	.LBE416:
 6220              	.LBE415:
 6221              		.loc 2 455 0
 6222 00b6 2449     		ldr	r1, .L598+24
 6223 00b8 1FFA88F2 		uxth	r2, r8
 6224 00bc 2B46     		mov	r3, r5
 6225 00be 3046     		mov	r0, r6
 6226 00c0 FFF7FEFF 		bl	chprintf
 6227              	.LVL687:
 6228              		.loc 2 456 0
 6229 00c4 3046     		mov	r0, r6
 6230 00c6 029A     		ldr	r2, [sp, #8]
 6231 00c8 2049     		ldr	r1, .L598+28
 6232 00ca FFF7FEFF 		bl	chprintf
 6233              	.LVL688:
 6234              		.loc 2 458 0
 6235 00ce ABE7     		b	.L574
 6236              	.LVL689:
 6237              	.L596:
 6238              	.LBB420:
 6239              	.LBB409:
 6240              	.LBB408:
 6241              	.LBB407:
 6242              	.LBB406:
 6243              		.loc 4 546 0
 6244              		.syntax unified
 6245              	@ 546 "../e-puck2_main-processor/ChibiOS//os/ext/CMSIS/include/core_cmFunc.h" 1
 6246 00d0 83F31188 		MSR basepri, r3
 6247              	@ 0 "" 2
 6248              	.LVL690:
 6249              		.thumb
 6250              		.syntax unified
 6251              	.LBE406:
 6252              	.LBE407:
 6253              	.LBE408:
 6254              		.loc 5 349 0
 6255 00d4 FFF7FEFF 		bl	_stats_start_measure_crit_thd
 6256              	.LVL691:
 6257              		.loc 5 350 0
 6258 00d8 FFF7FEFF 		bl	_dbg_check_lock
 6259              	.LVL692:
 6260              	.LBE409:
 6261              	.LBE420:
 6262              		.loc 2 438 0
 6263 00dc 6846     		mov	r0, sp
 6264 00de FFF7FEFF 		bl	chTMStartMeasurementX
 6265              	.LVL693:
 6266              		.loc 2 439 0
 6267 00e2 07EE905A 		vmov	s15, r5	@ int
 6268 00e6 B8EE670A 		vcvt.f32.u32	s0, s15
 6269 00ea B5EE400A 		vcmp.f32	s0, #0
 6270 00ee F1EE10FA 		vmrs	APSR_nzcv, FPSCR
ARM GAS  /tmp/ccHKfm7W.s 			page 111


 6271 00f2 B1EEC08A 		vsqrt.f32	s16, s0
 6272 00f6 16D4     		bmi	.L597
 6273              	.L581:
 6274              		.loc 2 440 0
 6275 00f8 6846     		mov	r0, sp
 6276              		.loc 2 439 0
 6277 00fa BCEEC88A 		vcvt.u32.f32	s16, s16
 6278 00fe 18EE103A 		vmov	r3, s16	@ int
 6279 0102 C2E7     		b	.L593
 6280              	.L595:
 6281              	.LVL694:
 6282              	.LBB421:
 6283              	.LBB422:
 6284              	.LBB423:
 6285              	.LBB424:
 6286              	.LBB425:
 6287              		.loc 4 546 0
 6288 0104 2023     		movs	r3, #32
 6289              		.syntax unified
 6290              	@ 546 "../e-puck2_main-processor/ChibiOS//os/ext/CMSIS/include/core_cmFunc.h" 1
 6291 0106 83F31188 		MSR basepri, r3
 6292              	@ 0 "" 2
 6293              	.LVL695:
 6294              		.thumb
 6295              		.syntax unified
 6296              	.LBE425:
 6297              	.LBE424:
 6298              	.LBE423:
 6299              		.loc 5 349 0
 6300 010a FFF7FEFF 		bl	_stats_start_measure_crit_thd
 6301              	.LVL696:
 6302              		.loc 5 350 0
 6303 010e FFF7FEFF 		bl	_dbg_check_lock
 6304              	.LVL697:
 6305              	.LBE422:
 6306              	.LBE421:
 6307              		.loc 2 432 0
 6308 0112 6846     		mov	r0, sp
 6309 0114 FFF7FEFF 		bl	chTMStartMeasurementX
 6310              	.LVL698:
 6311              		.loc 2 433 0
 6312 0118 0FFA88F0 		sxth	r0, r8
 6313 011c FFF7FEFF 		bl	aseba_sqrt
 6314              	.LVL699:
 6315 0120 85B2     		uxth	r5, r0
 6316              	.LVL700:
 6317              		.loc 2 434 0
 6318 0122 6846     		mov	r0, sp
 6319 0124 B2E7     		b	.L591
 6320              	.LVL701:
 6321              	.L597:
 6322              		.loc 2 439 0
 6323 0126 FFF7FEFF 		bl	sqrtf
 6324              	.LVL702:
 6325 012a E5E7     		b	.L581
 6326              	.LVL703:
 6327              	.L594:
ARM GAS  /tmp/ccHKfm7W.s 			page 112


 6328              		.loc 2 458 0
 6329 012c FFF7FEFF 		bl	__stack_chk_fail
 6330              	.LVL704:
 6331              	.L599:
 6332              		.align	2
 6333              	.L598:
 6334 0130 00000000 		.word	__stack_chk_guard
 6335 0134 00000000 		.word	.LC132
 6336 0138 44000000 		.word	.LC129
 6337 013c 54000000 		.word	.LC133
 6338 0140 00000000 		.word	ch
 6339 0144 00000000 		.word	.LANCHOR9
 6340 0148 58000000 		.word	.LC134
 6341 014c 60000000 		.word	.LC131
 6342              		.cfi_endproc
 6343              	.LFE279:
 6344              		.size	cmd_sqrt, .-cmd_sqrt
 6345              		.section	.text.cmd_sdc,"ax",%progbits
 6346              		.align	1
 6347              		.p2align 4,,15
 6348              		.global	cmd_sdc
 6349              		.syntax unified
 6350              		.thumb
 6351              		.thumb_func
 6352              		.fpu fpv4-sp-d16
 6353              		.type	cmd_sdc, %function
 6354              	cmd_sdc:
 6355              	.LFB308:
 6356              		.loc 2 1035 0
 6357              		.cfi_startproc
 6358              		@ args = 0, pretend = 0, frame = 16
 6359              		@ frame_needed = 0, uses_anonymous_args = 0
 6360              	.LVL705:
 6361 0000 2DE9F04F 		push	{r4, r5, r6, r7, r8, r9, r10, fp, lr}
 6362              		.cfi_def_cfa_offset 36
 6363              		.cfi_offset 4, -36
 6364              		.cfi_offset 5, -32
 6365              		.cfi_offset 6, -28
 6366              		.cfi_offset 7, -24
 6367              		.cfi_offset 8, -20
 6368              		.cfi_offset 9, -16
 6369              		.cfi_offset 10, -12
 6370              		.cfi_offset 11, -8
 6371              		.cfi_offset 14, -4
 6372 0004 DFF86C93 		ldr	r9, .L684+104
 6373 0008 87B0     		sub	sp, sp, #28
 6374              		.cfi_def_cfa_offset 64
 6375              		.loc 2 1035 0
 6376 000a D9F80030 		ldr	r3, [r9]
 6377 000e 0593     		str	r3, [sp, #20]
 6378              		.loc 2 1040 0
 6379 0010 0129     		cmp	r1, #1
 6380              		.loc 2 1035 0
 6381 0012 0292     		str	r2, [sp, #8]
 6382              		.loc 2 1040 0
 6383 0014 40F06D81 		bne	.L672
 6384              		.loc 2 1046 0
ARM GAS  /tmp/ccHKfm7W.s 			page 113


 6385 0018 BC4D     		ldr	r5, .L684
 6386 001a 2B68     		ldr	r3, [r5]
 6387 001c 0746     		mov	r7, r0
 6388 001e 1B68     		ldr	r3, [r3]
 6389 0020 2846     		mov	r0, r5
 6390              	.LVL706:
 6391 0022 9847     		blx	r3
 6392              	.LVL707:
 6393 0024 0028     		cmp	r0, #0
 6394 0026 00F0EA80 		beq	.L673
 6395              		.loc 2 1052 0
 6396 002a B949     		ldr	r1, .L684+4
 6397 002c 3846     		mov	r0, r7
 6398 002e FFF7FEFF 		bl	chprintf
 6399              	.LVL708:
 6400              		.loc 2 1053 0
 6401 0032 2846     		mov	r0, r5
 6402 0034 FFF7FEFF 		bl	sdcConnect
 6403              	.LVL709:
 6404 0038 0028     		cmp	r0, #0
 6405 003a 40F0ED80 		bne	.L674
 6406              	.LVL710:
 6407              	.LBB558:
 6408              	.LBB559:
 6409              		.loc 2 1058 0
 6410 003e B549     		ldr	r1, .L684+8
 6411 0040 3846     		mov	r0, r7
 6412 0042 FFF7FEFF 		bl	chprintf
 6413              	.LVL711:
 6414              		.loc 2 1059 0
 6415 0046 D5E90601 		ldrd	r0, r1, [r5, #24]
 6416 004a D5E90832 		ldrd	r3, r2, [r5, #32]
 6417 004e CDE90010 		strd	r1, r0, [sp]
 6418 0052 B149     		ldr	r1, .L684+12
 6419 0054 3846     		mov	r0, r7
 6420 0056 FFF7FEFF 		bl	chprintf
 6421              	.LVL712:
 6422              		.loc 2 1061 0
 6423 005a D5E90201 		ldrd	r0, r1, [r5, #8]
 6424 005e D5E90432 		ldrd	r3, r2, [r5, #16]
 6425 0062 CDE90010 		strd	r1, r0, [sp]
 6426 0066 AD49     		ldr	r1, .L684+16
 6427 0068 3846     		mov	r0, r7
 6428 006a FFF7FEFF 		bl	chprintf
 6429              	.LVL713:
 6430              		.loc 2 1063 0
 6431 006e 2B6B     		ldr	r3, [r5, #48]
 6432 0070 AB4A     		ldr	r2, .L684+20
 6433 0072 AC49     		ldr	r1, .L684+24
 6434 0074 03F00303 		and	r3, r3, #3
 6435 0078 3846     		mov	r0, r7
 6436 007a 52F82320 		ldr	r2, [r2, r3, lsl #2]
 6437 007e FFF7FEFF 		bl	chprintf
 6438              	.LVL714:
 6439              		.loc 2 1064 0
 6440 0082 AA6A     		ldr	r2, [r5, #40]
 6441 0084 A849     		ldr	r1, .L684+28
ARM GAS  /tmp/ccHKfm7W.s 			page 114


 6442 0086 D20A     		lsrs	r2, r2, #11
 6443 0088 3846     		mov	r0, r7
 6444 008a FFF7FEFF 		bl	chprintf
 6445              	.LVL715:
 6446              		.loc 2 1069 0
 6447 008e 029B     		ldr	r3, [sp, #8]
 6448 0090 A649     		ldr	r1, .L684+32
 6449 0092 1C68     		ldr	r4, [r3]
 6450              		.loc 2 1067 0
 6451 0094 AB6A     		ldr	r3, [r5, #40]
 6452              		.loc 2 1069 0
 6453 0096 2046     		mov	r0, r4
 6454              		.loc 2 1067 0
 6455 0098 4FEA932B 		lsr	fp, r3, #10
 6456              	.LVL716:
 6457              		.loc 2 1069 0
 6458 009c FFF7FEFF 		bl	strcmp
 6459              	.LVL717:
 6460 00a0 0028     		cmp	r0, #0
 6461 00a2 00F0C680 		beq	.L607
 6462              		.loc 2 1070 0
 6463 00a6 A249     		ldr	r1, .L684+36
 6464 00a8 2046     		mov	r0, r4
 6465 00aa FFF7FEFF 		bl	strcmp
 6466              	.LVL718:
 6467              		.loc 2 1069 0
 6468 00ae 0028     		cmp	r0, #0
 6469 00b0 00F0BF80 		beq	.L607
 6470              		.loc 2 1131 0
 6471 00b4 9F49     		ldr	r1, .L684+40
 6472 00b6 2046     		mov	r0, r4
 6473 00b8 FFF7FEFF 		bl	strcmp
 6474              	.LVL719:
 6475 00bc 0028     		cmp	r0, #0
 6476 00be 40F02282 		bne	.L625
 6477              	.LVL720:
 6478              	.L624:
 6479              	.LBB560:
 6480              		.loc 2 1135 0
 6481 00c2 9D4C     		ldr	r4, .L684+44
 6482 00c4 4FF48062 		mov	r2, #1024
 6483 00c8 AA21     		movs	r1, #170
 6484 00ca 2046     		mov	r0, r4
 6485 00cc FFF7FEFF 		bl	memset
 6486              	.LVL721:
 6487              		.loc 2 1136 0
 6488 00d0 9A49     		ldr	r1, .L684+48
 6489 00d2 3846     		mov	r0, r7
 6490 00d4 FFF7FEFF 		bl	chprintf
 6491              	.LVL722:
 6492              		.loc 2 1137 0
 6493 00d8 2246     		mov	r2, r4
 6494 00da 0223     		movs	r3, #2
 6495 00dc 5946     		mov	r1, fp
 6496 00de 8B48     		ldr	r0, .L684
 6497 00e0 FFF7FEFF 		bl	sdcWrite
 6498              	.LVL723:
ARM GAS  /tmp/ccHKfm7W.s 			page 115


 6499 00e4 0028     		cmp	r0, #0
 6500 00e6 40F0F480 		bne	.L615
 6501              		.loc 2 1141 0
 6502 00ea 9549     		ldr	r1, .L684+52
 6503 00ec 3846     		mov	r0, r7
 6504 00ee FFF7FEFF 		bl	chprintf
 6505              	.LVL724:
 6506              		.loc 2 1143 0
 6507 00f2 4FF48062 		mov	r2, #1024
 6508 00f6 5521     		movs	r1, #85
 6509 00f8 2046     		mov	r0, r4
 6510 00fa FFF7FEFF 		bl	memset
 6511              	.LVL725:
 6512              		.loc 2 1144 0
 6513 00fe 9149     		ldr	r1, .L684+56
 6514 0100 3846     		mov	r0, r7
 6515 0102 FFF7FEFF 		bl	chprintf
 6516              	.LVL726:
 6517              		.loc 2 1145 0
 6518 0106 2B68     		ldr	r3, [r5]
 6519 0108 8048     		ldr	r0, .L684
 6520 010a 1E69     		ldr	r6, [r3, #16]
 6521 010c 2246     		mov	r2, r4
 6522 010e 0123     		movs	r3, #1
 6523 0110 5946     		mov	r1, fp
 6524 0112 B047     		blx	r6
 6525              	.LVL727:
 6526 0114 0028     		cmp	r0, #0
 6527 0116 40F0DC80 		bne	.L615
 6528              		.loc 2 1149 0
 6529 011a 8949     		ldr	r1, .L684+52
 6530 011c 3846     		mov	r0, r7
 6531 011e FFF7FEFF 		bl	chprintf
 6532              	.LVL728:
 6533 0122 621E     		subs	r2, r4, #1
 6534 0124 04F2FF11 		addw	r1, r4, #511
 6535 0128 0823     		movs	r3, #8
 6536              	.LVL729:
 6537              	.L626:
 6538              		.loc 2 1152 0
 6539 012a 02F8013F 		strb	r3, [r2, #1]!
 6540              	.LVL730:
 6541 012e 0133     		adds	r3, r3, #1
 6542              		.loc 2 1151 0
 6543 0130 9142     		cmp	r1, r2
 6544 0132 DBB2     		uxtb	r3, r3
 6545 0134 F9D1     		bne	.L626
 6546              		.loc 2 1153 0
 6547 0136 8149     		ldr	r1, .L684+48
 6548 0138 3846     		mov	r0, r7
 6549 013a FFF7FEFF 		bl	chprintf
 6550              	.LVL731:
 6551              		.loc 2 1154 0
 6552 013e 0223     		movs	r3, #2
 6553 0140 7D4A     		ldr	r2, .L684+44
 6554 0142 7248     		ldr	r0, .L684
 6555 0144 5946     		mov	r1, fp
ARM GAS  /tmp/ccHKfm7W.s 			page 116


 6556 0146 FFF7FEFF 		bl	sdcWrite
 6557              	.LVL732:
 6558 014a 0646     		mov	r6, r0
 6559 014c 0028     		cmp	r0, #0
 6560 014e 40F0C080 		bne	.L615
 6561              		.loc 2 1158 0
 6562 0152 7B49     		ldr	r1, .L684+52
 6563 0154 3846     		mov	r0, r7
 6564 0156 FFF7FEFF 		bl	chprintf
 6565              	.LVL733:
 6566              		.loc 2 1160 0
 6567 015a 4FF48062 		mov	r2, #1024
 6568 015e 3146     		mov	r1, r6
 6569 0160 7548     		ldr	r0, .L684+44
 6570 0162 FFF7FEFF 		bl	memset
 6571              	.LVL734:
 6572              		.loc 2 1161 0
 6573 0166 7749     		ldr	r1, .L684+56
 6574 0168 3846     		mov	r0, r7
 6575 016a FFF7FEFF 		bl	chprintf
 6576              	.LVL735:
 6577              		.loc 2 1162 0
 6578 016e 2B68     		ldr	r3, [r5]
 6579 0170 714A     		ldr	r2, .L684+44
 6580 0172 1D69     		ldr	r5, [r3, #16]
 6581 0174 6548     		ldr	r0, .L684
 6582 0176 0123     		movs	r3, #1
 6583 0178 5946     		mov	r1, fp
 6584 017a A847     		blx	r5
 6585              	.LVL736:
 6586 017c 0028     		cmp	r0, #0
 6587 017e 40F0A880 		bne	.L615
 6588              		.loc 2 1166 0
 6589 0182 6F49     		ldr	r1, .L684+52
 6590 0184 3846     		mov	r0, r7
 6591 0186 FFF7FEFF 		bl	chprintf
 6592              	.LVL737:
 6593              	.LBE560:
 6594              		.loc 2 1169 0
 6595 018a 029B     		ldr	r3, [sp, #8]
 6596 018c 6E49     		ldr	r1, .L684+60
 6597 018e 1D68     		ldr	r5, [r3]
 6598 0190 2846     		mov	r0, r5
 6599 0192 FFF7FEFF 		bl	strcmp
 6600              	.LVL738:
 6601 0196 30B1     		cbz	r0, .L629
 6602              		.loc 2 1170 0
 6603 0198 2846     		mov	r0, r5
 6604 019a 6549     		ldr	r1, .L684+36
 6605 019c FFF7FEFF 		bl	strcmp
 6606              	.LVL739:
 6607              		.loc 2 1169 0
 6608 01a0 0028     		cmp	r0, #0
 6609 01a2 40F09A80 		bne	.L611
 6610              	.L629:
 6611              	.LBB561:
 6612              		.loc 2 1183 0
ARM GAS  /tmp/ccHKfm7W.s 			page 117


 6613 01a6 4FF48062 		mov	r2, #1024
 6614 01aa 0021     		movs	r1, #0
 6615 01ac 6248     		ldr	r0, .L684+44
 6616              		.loc 2 1188 0
 6617 01ae 674E     		ldr	r6, .L684+64
 6618              		.loc 2 1183 0
 6619 01b0 FFF7FEFF 		bl	memset
 6620              	.LVL740:
 6621              		.loc 2 1184 0
 6622 01b4 0021     		movs	r1, #0
 6623 01b6 4FF48062 		mov	r2, #1024
 6624 01ba 6548     		ldr	r0, .L684+68
 6625 01bc FFF7FEFF 		bl	memset
 6626              	.LVL741:
 6627 01c0 6449     		ldr	r1, .L684+72
 6628 01c2 C4F10804 		rsb	r4, r4, #8
 6629 01c6 01F58065 		add	r5, r1, #1024
 6630              		.loc 2 1188 0
 6631 01ca 5420     		movs	r0, #84
 6632              	.LVL742:
 6633              	.L628:
 6634 01cc 6218     		adds	r2, r4, r1
 6635 01ce 9308     		lsrs	r3, r2, #2
 6636 01d0 A6FB03C3 		umull	ip, r3, r6, r3
 6637 01d4 9B08     		lsrs	r3, r3, #2
 6638 01d6 00FB1323 		mls	r3, r0, r3, r2
 6639 01da 01F8013F 		strb	r3, [r1, #1]!
 6640              	.LVL743:
 6641              		.loc 2 1187 0
 6642 01de A942     		cmp	r1, r5
 6643 01e0 F4D1     		bne	.L628
 6644              		.loc 2 1191 0
 6645 01e2 0223     		movs	r3, #2
 6646 01e4 544A     		ldr	r2, .L684+44
 6647 01e6 4948     		ldr	r0, .L684
 6648 01e8 5946     		mov	r1, fp
 6649              	.LVL744:
 6650 01ea FFF7FEFF 		bl	sdcWrite
 6651              	.LVL745:
 6652 01ee 0028     		cmp	r0, #0
 6653 01f0 00F0E981 		beq	.L630
 6654              		.loc 2 1192 0
 6655 01f4 3846     		mov	r0, r7
 6656 01f6 5849     		ldr	r1, .L684+76
 6657 01f8 FFF7FEFF 		bl	chprintf
 6658              	.LVL746:
 6659 01fc 6DE0     		b	.L611
 6660              	.LVL747:
 6661              	.L673:
 6662              	.LBE561:
 6663              	.LBE559:
 6664              	.LBE558:
 6665              		.loc 2 1047 0
 6666 01fe 059A     		ldr	r2, [sp, #20]
 6667 0200 D9F80030 		ldr	r3, [r9]
 6668 0204 9A42     		cmp	r2, r3
 6669 0206 40F02582 		bne	.L671
ARM GAS  /tmp/ccHKfm7W.s 			page 118


 6670 020a 5449     		ldr	r1, .L684+80
 6671 020c 3846     		mov	r0, r7
 6672              		.loc 2 1245 0
 6673 020e 07B0     		add	sp, sp, #28
 6674              		.cfi_remember_state
 6675              		.cfi_def_cfa_offset 36
 6676              		@ sp needed
 6677 0210 BDE8F04F 		pop	{r4, r5, r6, r7, r8, r9, r10, fp, lr}
 6678              		.cfi_restore 14
 6679              		.cfi_restore 11
 6680              		.cfi_restore 10
 6681              		.cfi_restore 9
 6682              		.cfi_restore 8
 6683              		.cfi_restore 7
 6684              		.cfi_restore 6
 6685              		.cfi_restore 5
 6686              		.cfi_restore 4
 6687              		.cfi_def_cfa_offset 0
 6688              	.LVL748:
 6689              		.loc 2 1047 0
 6690 0214 FFF7FEBF 		b	chprintf
 6691              	.LVL749:
 6692              	.L674:
 6693              		.cfi_restore_state
 6694              		.loc 2 1054 0
 6695 0218 059A     		ldr	r2, [sp, #20]
 6696 021a D9F80030 		ldr	r3, [r9]
 6697 021e 9A42     		cmp	r2, r3
 6698 0220 40F01882 		bne	.L671
 6699 0224 4E49     		ldr	r1, .L684+84
 6700 0226 3846     		mov	r0, r7
 6701              		.loc 2 1245 0
 6702 0228 07B0     		add	sp, sp, #28
 6703              		.cfi_remember_state
 6704              		.cfi_def_cfa_offset 36
 6705              		@ sp needed
 6706 022a BDE8F04F 		pop	{r4, r5, r6, r7, r8, r9, r10, fp, lr}
 6707              		.cfi_restore 14
 6708              		.cfi_restore 11
 6709              		.cfi_restore 10
 6710              		.cfi_restore 9
 6711              		.cfi_restore 8
 6712              		.cfi_restore 7
 6713              		.cfi_restore 6
 6714              		.cfi_restore 5
 6715              		.cfi_restore 4
 6716              		.cfi_def_cfa_offset 0
 6717              	.LVL750:
 6718              		.loc 2 1047 0
 6719 022e FFF7FEBF 		b	chprintf
 6720              	.LVL751:
 6721              	.L607:
 6722              		.cfi_restore_state
 6723              	.LBB699:
 6724              	.LBB696:
 6725              		.loc 2 1073 0
 6726 0232 4C49     		ldr	r1, .L684+88
ARM GAS  /tmp/ccHKfm7W.s 			page 119


 6727 0234 3846     		mov	r0, r7
 6728 0236 FFF7FEFF 		bl	chprintf
 6729              	.LVL752:
 6730              	.LBB562:
 6731              	.LBB563:
 6732              	.LBB564:
 6733              	.LBB565:
 6734              	.LBB566:
 6735              	.LBB567:
 6736              	.LBB568:
 6737              		.loc 4 546 0
 6738 023a 2023     		movs	r3, #32
 6739              		.syntax unified
 6740              	@ 546 "../e-puck2_main-processor/ChibiOS//os/ext/CMSIS/include/core_cmFunc.h" 1
 6741 023c 83F31188 		MSR basepri, r3
 6742              	@ 0 "" 2
 6743              	.LVL753:
 6744              		.thumb
 6745              		.syntax unified
 6746              	.LBE568:
 6747              	.LBE567:
 6748              	.LBE566:
 6749              	.LBE565:
 6750              	.LBE564:
 6751              	.LBB570:
 6752              	.LBB571:
 6753              		.file 6 "../e-puck2_main-processor/ChibiOS//os/rt/include/chvt.h"
 6754              		.loc 6 231 0
 6755 0240 494C     		ldr	r4, .L684+92
 6756              	.LBE571:
 6757              	.LBE570:
 6758              	.LBB573:
 6759              	.LBB569:
 6760              		.loc 5 349 0
 6761 0242 FFF7FEFF 		bl	_stats_start_measure_crit_thd
 6762              	.LVL754:
 6763              		.loc 5 350 0
 6764 0246 FFF7FEFF 		bl	_dbg_check_lock
 6765              	.LVL755:
 6766              	.LBE569:
 6767              	.LBE573:
 6768              	.LBB574:
 6769              	.LBB572:
 6770              		.loc 6 231 0
 6771 024a A36A     		ldr	r3, [r4, #40]
 6772 024c 1E46     		mov	r6, r3
 6773              	.LBE572:
 6774              	.LBE574:
 6775              	.LBB575:
 6776              	.LBB576:
 6777              		.loc 5 360 0
 6778 024e FFF7FEFF 		bl	_dbg_check_unlock
 6779              	.LVL756:
 6780              		.loc 5 361 0
 6781 0252 FFF7FEFF 		bl	_stats_stop_measure_crit_thd
 6782              	.LVL757:
 6783              		.loc 5 367 0
ARM GAS  /tmp/ccHKfm7W.s 			page 120


 6784 0256 2368     		ldr	r3, [r4]
 6785 0258 A342     		cmp	r3, r4
 6786 025a 07D0     		beq	.L609
 6787 025c A269     		ldr	r2, [r4, #24]
 6788 025e 9B68     		ldr	r3, [r3, #8]
 6789 0260 9268     		ldr	r2, [r2, #8]
 6790 0262 9A42     		cmp	r2, r3
 6791 0264 02D2     		bcs	.L609
 6792 0266 4148     		ldr	r0, .L684+96
 6793 0268 FFF7FEFF 		bl	chSysHalt
 6794              	.LVL758:
 6795              	.L609:
 6796              	.LBB577:
 6797              	.LBB578:
 6798              	.LBB579:
 6799              		.loc 4 546 0
 6800 026c 4FF00008 		mov	r8, #0
 6801              		.syntax unified
 6802              	@ 546 "../e-puck2_main-processor/ChibiOS//os/ext/CMSIS/include/core_cmFunc.h" 1
 6803 0270 88F31188 		MSR basepri, r8
 6804              	@ 0 "" 2
 6805              	.LVL759:
 6806              		.thumb
 6807              		.syntax unified
 6808              	.LBE579:
 6809              	.LBE578:
 6810              	.LBE577:
 6811              	.LBE576:
 6812              	.LBE575:
 6813              	.LBE563:
 6814              	.LBE562:
 6815              		.loc 2 1078 0
 6816 0274 DFF8C0A0 		ldr	r10, .L684+44
 6817              		.loc 2 1076 0
 6818 0278 0397     		str	r7, [sp, #12]
 6819 027a 3746     		mov	r7, r6
 6820              	.LVL760:
 6821 027c 1FE0     		b	.L613
 6822              	.LVL761:
 6823              	.L610:
 6824              		.loc 2 1082 0
 6825 027e 08F10108 		add	r8, r8, #1
 6826              	.LVL762:
 6827              	.LBB580:
 6828              	.LBB581:
 6829              	.LBB582:
 6830              	.LBB583:
 6831              	.LBB584:
 6832              	.LBB585:
 6833              	.LBB586:
 6834              	.LBB587:
 6835              		.loc 4 546 0
 6836 0282 2023     		movs	r3, #32
 6837              		.syntax unified
 6838              	@ 546 "../e-puck2_main-processor/ChibiOS//os/ext/CMSIS/include/core_cmFunc.h" 1
 6839 0284 83F31188 		MSR basepri, r3
 6840              	@ 0 "" 2
ARM GAS  /tmp/ccHKfm7W.s 			page 121


 6841              	.LVL763:
 6842              		.thumb
 6843              		.syntax unified
 6844              	.LBE587:
 6845              	.LBE586:
 6846              	.LBE585:
 6847              		.loc 5 349 0
 6848 0288 FFF7FEFF 		bl	_stats_start_measure_crit_thd
 6849              	.LVL764:
 6850              		.loc 5 350 0
 6851 028c FFF7FEFF 		bl	_dbg_check_lock
 6852              	.LVL765:
 6853              	.LBE584:
 6854              	.LBE583:
 6855              	.LBB588:
 6856              	.LBB589:
 6857              		.loc 6 231 0
 6858 0290 A66A     		ldr	r6, [r4, #40]
 6859              	.LBE589:
 6860              	.LBE588:
 6861              	.LBB590:
 6862              	.LBB591:
 6863              		.loc 5 360 0
 6864 0292 FFF7FEFF 		bl	_dbg_check_unlock
 6865              	.LVL766:
 6866              		.loc 5 361 0
 6867 0296 FFF7FEFF 		bl	_stats_stop_measure_crit_thd
 6868              	.LVL767:
 6869              		.loc 5 367 0
 6870 029a 2368     		ldr	r3, [r4]
 6871 029c A342     		cmp	r3, r4
 6872 029e 07D0     		beq	.L612
 6873 02a0 A269     		ldr	r2, [r4, #24]
 6874 02a2 9B68     		ldr	r3, [r3, #8]
 6875 02a4 9268     		ldr	r2, [r2, #8]
 6876 02a6 9A42     		cmp	r2, r3
 6877 02a8 02D2     		bcs	.L612
 6878 02aa 3048     		ldr	r0, .L684+96
 6879 02ac FFF7FEFF 		bl	chSysHalt
 6880              	.LVL768:
 6881              	.L612:
 6882              	.LBB592:
 6883              	.LBB593:
 6884              	.LBB594:
 6885              		.loc 4 546 0
 6886 02b0 0023     		movs	r3, #0
 6887              		.syntax unified
 6888              	@ 546 "../e-puck2_main-processor/ChibiOS//os/ext/CMSIS/include/core_cmFunc.h" 1
 6889 02b2 83F31188 		MSR basepri, r3
 6890              	@ 0 "" 2
 6891              	.LVL769:
 6892              		.thumb
 6893              		.syntax unified
 6894              	.LBE594:
 6895              	.LBE593:
 6896              	.LBE592:
 6897              	.LBE591:
ARM GAS  /tmp/ccHKfm7W.s 			page 122


 6898              	.LBE590:
 6899              	.LBE582:
 6900              	.LBE581:
 6901              	.LBB595:
 6902              	.LBB596:
 6903              		.loc 6 288 0
 6904 02b6 F61B     		subs	r6, r6, r7
 6905              	.LBE596:
 6906              	.LBE595:
 6907              	.LBE580:
 6908              		.loc 2 1083 0
 6909 02b8 B6F57A7F 		cmp	r6, #1000
 6910 02bc 5CD2     		bcs	.L675
 6911              	.LVL770:
 6912              	.L613:
 6913              		.loc 2 1078 0
 6914 02be 2A68     		ldr	r2, [r5]
 6915 02c0 1248     		ldr	r0, .L684
 6916 02c2 1669     		ldr	r6, [r2, #16]
 6917 02c4 0123     		movs	r3, #1
 6918 02c6 5246     		mov	r2, r10
 6919 02c8 5946     		mov	r1, fp
 6920 02ca B047     		blx	r6
 6921              	.LVL771:
 6922 02cc 0028     		cmp	r0, #0
 6923 02ce D6D0     		beq	.L610
 6924              	.LVL772:
 6925              	.L668:
