ARM GAS  /tmp/ccnVzeXS.s 			page 1


   1              		.cpu cortex-m4
   2              		.eabi_attribute 27, 1
   3              		.eabi_attribute 28, 1
   4              		.eabi_attribute 20, 1
   5              		.eabi_attribute 21, 1
   6              		.eabi_attribute 23, 3
   7              		.eabi_attribute 24, 1
   8              		.eabi_attribute 25, 1
   9              		.eabi_attribute 26, 1
  10              		.eabi_attribute 30, 2
  11              		.eabi_attribute 34, 1
  12              		.eabi_attribute 18, 4
  13              		.file	"e_motors.c"
  14              		.text
  15              	.Ltext0:
  16              		.cfi_sections	.debug_frame
  17              		.section	.text.e_init_motors,"ax",%progbits
  18              		.align	1
  19              		.p2align 4,,15
  20              		.global	e_init_motors
  21              		.syntax unified
  22              		.thumb
  23              		.thumb_func
  24              		.fpu fpv4-sp-d16
  25              		.type	e_init_motors, %function
  26              	e_init_motors:
  27              	.LFB256:
  28              		.file 1 "../e-puck2_main-processor/src/epuck1x/motor_led/advance_one_timer/e_motors.c"
  29              		.loc 1 68 0
  30              		.cfi_startproc
  31              		@ args = 0, pretend = 0, frame = 8
  32              		@ frame_needed = 0, uses_anonymous_args = 0
  33 0000 00B5     		push	{lr}
  34              		.cfi_def_cfa_offset 4
  35              		.cfi_offset 14, -4
  36 0002 064B     		ldr	r3, .L6
  37 0004 83B0     		sub	sp, sp, #12
  38              		.cfi_def_cfa_offset 16
  39              		.loc 1 68 0
  40 0006 1A68     		ldr	r2, [r3]
  41 0008 0192     		str	r2, [sp, #4]
  42              		.loc 1 70 0
  43 000a 019A     		ldr	r2, [sp, #4]
  44 000c 1B68     		ldr	r3, [r3]
  45 000e 9A42     		cmp	r2, r3
  46 0010 02D1     		bne	.L5
  47 0012 03B0     		add	sp, sp, #12
  48              		.cfi_remember_state
  49              		.cfi_def_cfa_offset 4
  50              		@ sp needed
  51 0014 5DF804FB 		ldr	pc, [sp], #4
  52              	.L5:
  53              		.cfi_restore_state
  54 0018 FFF7FEFF 		bl	__stack_chk_fail
  55              	.LVL0:
  56              	.L7:
  57              		.align	2
ARM GAS  /tmp/ccnVzeXS.s 			page 2


  58              	.L6:
  59 001c 00000000 		.word	__stack_chk_guard
  60              		.cfi_endproc
  61              	.LFE256:
  62              		.size	e_init_motors, .-e_init_motors
  63              		.section	.text.e_set_speed_left,"ax",%progbits
  64              		.align	1
  65              		.p2align 4,,15
  66              		.global	e_set_speed_left
  67              		.syntax unified
  68              		.thumb
  69              		.thumb_func
  70              		.fpu fpv4-sp-d16
  71              		.type	e_set_speed_left, %function
  72              	e_set_speed_left:
  73              	.LFB257:
  74              		.loc 1 82 0
  75              		.cfi_startproc
  76              		@ args = 0, pretend = 0, frame = 8
  77              		@ frame_needed = 0, uses_anonymous_args = 0
  78              	.LVL1:
  79 0000 00B5     		push	{lr}
  80              		.cfi_def_cfa_offset 4
  81              		.cfi_offset 14, -4
  82 0002 084B     		ldr	r3, .L13
  83 0004 83B0     		sub	sp, sp, #12
  84              		.cfi_def_cfa_offset 16
  85              		.loc 1 82 0
  86 0006 1A68     		ldr	r2, [r3]
  87 0008 0192     		str	r2, [sp, #4]
  88              		.loc 1 83 0
  89 000a 019A     		ldr	r2, [sp, #4]
  90 000c 1B68     		ldr	r3, [r3]
  91 000e 9A42     		cmp	r2, r3
  92 0010 05D1     		bne	.L12
  93 0012 00B2     		sxth	r0, r0
  94              	.LVL2:
  95              		.loc 1 84 0
  96 0014 03B0     		add	sp, sp, #12
  97              		.cfi_remember_state
  98              		.cfi_def_cfa_offset 4
  99              		@ sp needed
 100 0016 5DF804EB 		ldr	lr, [sp], #4
 101              		.cfi_restore 14
 102              		.cfi_def_cfa_offset 0
 103              		.loc 1 83 0
 104 001a FFF7FEBF 		b	left_motor_set_speed
 105              	.LVL3:
 106              	.L12:
 107              		.cfi_restore_state
 108 001e FFF7FEFF 		bl	__stack_chk_fail
 109              	.LVL4:
 110              	.L14:
 111 0022 00BF     		.align	2
 112              	.L13:
 113 0024 00000000 		.word	__stack_chk_guard
 114              		.cfi_endproc
ARM GAS  /tmp/ccnVzeXS.s 			page 3


 115              	.LFE257:
 116              		.size	e_set_speed_left, .-e_set_speed_left
 117              		.section	.text.e_set_speed_right,"ax",%progbits
 118              		.align	1
 119              		.p2align 4,,15
 120              		.global	e_set_speed_right
 121              		.syntax unified
 122              		.thumb
 123              		.thumb_func
 124              		.fpu fpv4-sp-d16
 125              		.type	e_set_speed_right, %function
 126              	e_set_speed_right:
 127              	.LFB258:
 128              		.loc 1 96 0
 129              		.cfi_startproc
 130              		@ args = 0, pretend = 0, frame = 8
 131              		@ frame_needed = 0, uses_anonymous_args = 0
 132              	.LVL5:
 133 0000 00B5     		push	{lr}
 134              		.cfi_def_cfa_offset 4
 135              		.cfi_offset 14, -4
 136 0002 084B     		ldr	r3, .L20
 137 0004 83B0     		sub	sp, sp, #12
 138              		.cfi_def_cfa_offset 16
 139              		.loc 1 96 0
 140 0006 1A68     		ldr	r2, [r3]
 141 0008 0192     		str	r2, [sp, #4]
 142              		.loc 1 97 0
 143 000a 019A     		ldr	r2, [sp, #4]
 144 000c 1B68     		ldr	r3, [r3]
 145 000e 9A42     		cmp	r2, r3
 146 0010 05D1     		bne	.L19
 147 0012 00B2     		sxth	r0, r0
 148              	.LVL6:
 149              		.loc 1 98 0
 150 0014 03B0     		add	sp, sp, #12
 151              		.cfi_remember_state
 152              		.cfi_def_cfa_offset 4
 153              		@ sp needed
 154 0016 5DF804EB 		ldr	lr, [sp], #4
 155              		.cfi_restore 14
 156              		.cfi_def_cfa_offset 0
 157              		.loc 1 97 0
 158 001a FFF7FEBF 		b	right_motor_set_speed
 159              	.LVL7:
 160              	.L19:
 161              		.cfi_restore_state
 162 001e FFF7FEFF 		bl	__stack_chk_fail
 163              	.LVL8:
 164              	.L21:
 165 0022 00BF     		.align	2
 166              	.L20:
 167 0024 00000000 		.word	__stack_chk_guard
 168              		.cfi_endproc
 169              	.LFE258:
 170              		.size	e_set_speed_right, .-e_set_speed_right
 171              		.section	.text.e_set_speed,"ax",%progbits
ARM GAS  /tmp/ccnVzeXS.s 			page 4


 172              		.align	1
 173              		.p2align 4,,15
 174              		.global	e_set_speed
 175              		.syntax unified
 176              		.thumb
 177              		.thumb_func
 178              		.fpu fpv4-sp-d16
 179              		.type	e_set_speed, %function
 180              	e_set_speed:
 181              	.LFB259:
 182              		.loc 1 108 0
 183              		.cfi_startproc
 184              		@ args = 0, pretend = 0, frame = 8
 185              		@ frame_needed = 0, uses_anonymous_args = 0
 186              	.LVL9:
 187 0000 70B5     		push	{r4, r5, r6, lr}
 188              		.cfi_def_cfa_offset 16
 189              		.cfi_offset 4, -16
 190              		.cfi_offset 5, -12
 191              		.cfi_offset 6, -8
 192              		.cfi_offset 14, -4
 193              		.loc 1 109 0
 194 0002 80EAE073 		eor	r3, r0, r0, asr #31
 195              		.loc 1 108 0
 196 0006 134C     		ldr	r4, .L29
 197              		.loc 1 109 0
 198 0008 81EAE172 		eor	r2, r1, r1, asr #31
 199 000c A2EBE172 		sub	r2, r2, r1, asr #31
 200              		.loc 1 108 0
 201 0010 82B0     		sub	sp, sp, #8
 202              		.cfi_def_cfa_offset 24
 203              		.loc 1 109 0
 204 0012 A3EBE073 		sub	r3, r3, r0, asr #31
 205 0016 1344     		add	r3, r3, r2
 206              		.loc 1 108 0
 207 0018 2268     		ldr	r2, [r4]
 208 001a 0192     		str	r2, [sp, #4]
 209              		.loc 1 109 0
 210 001c 40F24C42 		movw	r2, #1100
 211 0020 9342     		cmp	r3, r2
 212 0022 05DD     		ble	.L28
 213              		.loc 1 115 0
 214 0024 019A     		ldr	r2, [sp, #4]
 215 0026 2368     		ldr	r3, [r4]
 216 0028 9A42     		cmp	r2, r3
 217 002a 10D1     		bne	.L27
 218 002c 02B0     		add	sp, sp, #8
 219              		.cfi_remember_state
 220              		.cfi_def_cfa_offset 16
 221              		@ sp needed
 222 002e 70BD     		pop	{r4, r5, r6, pc}
 223              	.L28:
 224              		.cfi_restore_state
 225 0030 0646     		mov	r6, r0
 226              		.loc 1 112 0
 227 0032 401A     		subs	r0, r0, r1
 228              	.LVL10:
ARM GAS  /tmp/ccnVzeXS.s 			page 5


 229 0034 0D46     		mov	r5, r1
 230 0036 FFF7FEFF 		bl	left_motor_set_speed
 231              	.LVL11:
 232              		.loc 1 113 0
 233 003a 019A     		ldr	r2, [sp, #4]
 234 003c 2368     		ldr	r3, [r4]
 235 003e 9A42     		cmp	r2, r3
 236 0040 05D1     		bne	.L27
 237 0042 7019     		adds	r0, r6, r5
 238              		.loc 1 115 0
 239 0044 02B0     		add	sp, sp, #8
 240              		.cfi_remember_state
 241              		.cfi_def_cfa_offset 16
 242              		@ sp needed
 243 0046 BDE87040 		pop	{r4, r5, r6, lr}
 244              		.cfi_restore 14
 245              		.cfi_restore 6
 246              		.cfi_restore 5
 247              		.cfi_restore 4
 248              		.cfi_def_cfa_offset 0
 249              	.LVL12:
 250              		.loc 1 113 0
 251 004a FFF7FEBF 		b	right_motor_set_speed
 252              	.LVL13:
 253              	.L27:
 254              		.cfi_restore_state
 255              		.loc 1 115 0
 256 004e FFF7FEFF 		bl	__stack_chk_fail
 257              	.LVL14:
 258              	.L30:
 259 0052 00BF     		.align	2
 260              	.L29:
 261 0054 00000000 		.word	__stack_chk_guard
 262              		.cfi_endproc
 263              	.LFE259:
 264              		.size	e_set_speed, .-e_set_speed
 265              		.section	.text.e_get_steps_left,"ax",%progbits
 266              		.align	1
 267              		.p2align 4,,15
 268              		.global	e_get_steps_left
 269              		.syntax unified
 270              		.thumb
 271              		.thumb_func
 272              		.fpu fpv4-sp-d16
 273              		.type	e_get_steps_left, %function
 274              	e_get_steps_left:
 275              	.LFB260:
 276              		.loc 1 122 0
 277              		.cfi_startproc
 278              		@ args = 0, pretend = 0, frame = 8
 279              		@ frame_needed = 0, uses_anonymous_args = 0
 280 0000 00B5     		push	{lr}
 281              		.cfi_def_cfa_offset 4
 282              		.cfi_offset 14, -4
 283 0002 074B     		ldr	r3, .L36
 284 0004 83B0     		sub	sp, sp, #12
 285              		.cfi_def_cfa_offset 16
ARM GAS  /tmp/ccnVzeXS.s 			page 6


 286              		.loc 1 122 0
 287 0006 1A68     		ldr	r2, [r3]
 288 0008 0192     		str	r2, [sp, #4]
 289              		.loc 1 123 0
 290 000a 019A     		ldr	r2, [sp, #4]
 291 000c 1B68     		ldr	r3, [r3]
 292 000e 9A42     		cmp	r2, r3
 293 0010 04D1     		bne	.L35
 294              		.loc 1 124 0
 295 0012 03B0     		add	sp, sp, #12
 296              		.cfi_remember_state
 297              		.cfi_def_cfa_offset 4
 298              		@ sp needed
 299 0014 5DF804EB 		ldr	lr, [sp], #4
 300              		.cfi_restore 14
 301              		.cfi_def_cfa_offset 0
 302              		.loc 1 123 0
 303 0018 FFF7FEBF 		b	left_motor_get_pos
 304              	.LVL15:
 305              	.L35:
 306              		.cfi_restore_state
 307 001c FFF7FEFF 		bl	__stack_chk_fail
 308              	.LVL16:
 309              	.L37:
 310              		.align	2
 311              	.L36:
 312 0020 00000000 		.word	__stack_chk_guard
 313              		.cfi_endproc
 314              	.LFE260:
 315              		.size	e_get_steps_left, .-e_get_steps_left
 316              		.section	.text.e_set_steps_left,"ax",%progbits
 317              		.align	1
 318              		.p2align 4,,15
 319              		.global	e_set_steps_left
 320              		.syntax unified
 321              		.thumb
 322              		.thumb_func
 323              		.fpu fpv4-sp-d16
 324              		.type	e_set_steps_left, %function
 325              	e_set_steps_left:
 326              	.LFB261:
 327              		.loc 1 130 0
 328              		.cfi_startproc
 329              		@ args = 0, pretend = 0, frame = 8
 330              		@ frame_needed = 0, uses_anonymous_args = 0
 331              	.LVL17:
 332 0000 00B5     		push	{lr}
 333              		.cfi_def_cfa_offset 4
 334              		.cfi_offset 14, -4
 335 0002 074B     		ldr	r3, .L43
 336 0004 83B0     		sub	sp, sp, #12
 337              		.cfi_def_cfa_offset 16
 338              		.loc 1 130 0
 339 0006 1A68     		ldr	r2, [r3]
 340 0008 0192     		str	r2, [sp, #4]
 341              		.loc 1 131 0
 342 000a 019A     		ldr	r2, [sp, #4]
ARM GAS  /tmp/ccnVzeXS.s 			page 7


 343 000c 1B68     		ldr	r3, [r3]
 344 000e 9A42     		cmp	r2, r3
 345 0010 04D1     		bne	.L42
 346              		.loc 1 133 0
 347 0012 03B0     		add	sp, sp, #12
 348              		.cfi_remember_state
 349              		.cfi_def_cfa_offset 4
 350              		@ sp needed
 351 0014 5DF804EB 		ldr	lr, [sp], #4
 352              		.cfi_restore 14
 353              		.cfi_def_cfa_offset 0
 354              		.loc 1 131 0
 355 0018 FFF7FEBF 		b	left_motor_set_pos
 356              	.LVL18:
 357              	.L42:
 358              		.cfi_restore_state
 359 001c FFF7FEFF 		bl	__stack_chk_fail
 360              	.LVL19:
 361              	.L44:
 362              		.align	2
 363              	.L43:
 364 0020 00000000 		.word	__stack_chk_guard
 365              		.cfi_endproc
 366              	.LFE261:
 367              		.size	e_set_steps_left, .-e_set_steps_left
 368              		.section	.text.e_get_steps_right,"ax",%progbits
 369              		.align	1
 370              		.p2align 4,,15
 371              		.global	e_get_steps_right
 372              		.syntax unified
 373              		.thumb
 374              		.thumb_func
 375              		.fpu fpv4-sp-d16
 376              		.type	e_get_steps_right, %function
 377              	e_get_steps_right:
 378              	.LFB262:
 379              		.loc 1 140 0
 380              		.cfi_startproc
 381              		@ args = 0, pretend = 0, frame = 8
 382              		@ frame_needed = 0, uses_anonymous_args = 0
 383 0000 00B5     		push	{lr}
 384              		.cfi_def_cfa_offset 4
 385              		.cfi_offset 14, -4
 386 0002 074B     		ldr	r3, .L50
 387 0004 83B0     		sub	sp, sp, #12
 388              		.cfi_def_cfa_offset 16
 389              		.loc 1 140 0
 390 0006 1A68     		ldr	r2, [r3]
 391 0008 0192     		str	r2, [sp, #4]
 392              		.loc 1 141 0
 393 000a 019A     		ldr	r2, [sp, #4]
 394 000c 1B68     		ldr	r3, [r3]
 395 000e 9A42     		cmp	r2, r3
 396 0010 04D1     		bne	.L49
 397              		.loc 1 142 0
 398 0012 03B0     		add	sp, sp, #12
 399              		.cfi_remember_state
ARM GAS  /tmp/ccnVzeXS.s 			page 8


 400              		.cfi_def_cfa_offset 4
 401              		@ sp needed
 402 0014 5DF804EB 		ldr	lr, [sp], #4
 403              		.cfi_restore 14
 404              		.cfi_def_cfa_offset 0
 405              		.loc 1 141 0
 406 0018 FFF7FEBF 		b	right_motor_get_pos
 407              	.LVL20:
 408              	.L49:
 409              		.cfi_restore_state
 410 001c FFF7FEFF 		bl	__stack_chk_fail
 411              	.LVL21:
 412              	.L51:
 413              		.align	2
 414              	.L50:
 415 0020 00000000 		.word	__stack_chk_guard
 416              		.cfi_endproc
 417              	.LFE262:
 418              		.size	e_get_steps_right, .-e_get_steps_right
 419              		.section	.text.e_set_steps_right,"ax",%progbits
 420              		.align	1
 421              		.p2align 4,,15
 422              		.global	e_set_steps_right
 423              		.syntax unified
 424              		.thumb
 425              		.thumb_func
 426              		.fpu fpv4-sp-d16
 427              		.type	e_set_steps_right, %function
 428              	e_set_steps_right:
 429              	.LFB263:
 430              		.loc 1 148 0
 431              		.cfi_startproc
 432              		@ args = 0, pretend = 0, frame = 8
 433              		@ frame_needed = 0, uses_anonymous_args = 0
 434              	.LVL22:
 435 0000 00B5     		push	{lr}
 436              		.cfi_def_cfa_offset 4
 437              		.cfi_offset 14, -4
 438 0002 074B     		ldr	r3, .L57
 439 0004 83B0     		sub	sp, sp, #12
 440              		.cfi_def_cfa_offset 16
 441              		.loc 1 148 0
 442 0006 1A68     		ldr	r2, [r3]
 443 0008 0192     		str	r2, [sp, #4]
 444              		.loc 1 149 0
 445 000a 019A     		ldr	r2, [sp, #4]
 446 000c 1B68     		ldr	r3, [r3]
 447 000e 9A42     		cmp	r2, r3
 448 0010 04D1     		bne	.L56
 449              		.loc 1 151 0
 450 0012 03B0     		add	sp, sp, #12
 451              		.cfi_remember_state
 452              		.cfi_def_cfa_offset 4
 453              		@ sp needed
 454 0014 5DF804EB 		ldr	lr, [sp], #4
 455              		.cfi_restore 14
 456              		.cfi_def_cfa_offset 0
ARM GAS  /tmp/ccnVzeXS.s 			page 9


 457              		.loc 1 149 0
 458 0018 FFF7FEBF 		b	right_motor_set_pos
 459              	.LVL23:
 460              	.L56:
 461              		.cfi_restore_state
 462 001c FFF7FEFF 		bl	__stack_chk_fail
 463              	.LVL24:
 464              	.L58:
 465              		.align	2
 466              	.L57:
 467 0020 00000000 		.word	__stack_chk_guard
 468              		.cfi_endproc
 469              	.LFE263:
 470              		.size	e_set_steps_right, .-e_set_steps_right
 471              		.text
 472              	.Letext0:
 473              		.file 2 "/home/leander/uos_codes/epuck2_lab/Eclipse_e-puck2/Tools/gcc-arm-none-eabi-7-2017-q4-majo
 474              		.file 3 "/home/leander/uos_codes/epuck2_lab/Eclipse_e-puck2/Tools/gcc-arm-none-eabi-7-2017-q4-majo
 475              		.file 4 "/home/leander/uos_codes/epuck2_lab/Eclipse_e-puck2/Tools/gcc-arm-none-eabi-7-2017-q4-majo
 476              		.file 5 "../e-puck2_main-processor/ChibiOS//os/rt/ports/ARMCMx/compilers/GCC/chtypes.h"
 477              		.file 6 "../e-puck2_main-processor/ChibiOS//os/rt/include/chsystypes.h"
 478              		.file 7 "../e-puck2_main-processor/ChibiOS//os/rt/include/chschd.h"
 479              		.file 8 "../e-puck2_main-processor/ChibiOS//os/ext/CMSIS/include/core_cm4.h"
 480              		.file 9 "../e-puck2_main-processor/ChibiOS//os/ext/CMSIS/ST/system_stm32f4xx.h"
 481              		.file 10 "../e-puck2_main-processor/ChibiOS//os/ext/CMSIS/ST/stm32f407xx.h"
 482              		.file 11 "../e-puck2_main-processor/ChibiOS//os/rt/ports/ARMCMx/chcore.h"
 483              		.file 12 "../e-puck2_main-processor/ChibiOS//os/rt/ports/ARMCMx/chcore_v7m.h"
 484              		.file 13 "../e-puck2_main-processor/ChibiOS//os/rt/include/chdebug.h"
 485              		.file 14 "../e-puck2_main-processor/ChibiOS//os/rt/include/chtm.h"
 486              		.file 15 "../e-puck2_main-processor/ChibiOS//os/rt/include/chstats.h"
 487              		.file 16 "../e-puck2_main-processor/ChibiOS//os/rt/include/chsem.h"
 488              		.file 17 "../e-puck2_main-processor/ChibiOS//os/rt/include/chmtx.h"
 489              		.file 18 "../e-puck2_main-processor/ChibiOS//os/rt/include/chregistry.h"
 490              		.file 19 "../e-puck2_main-processor/ChibiOS//os/rt/include/chevents.h"
 491              		.file 20 "../e-puck2_main-processor/ChibiOS//os/rt/include/chqueues.h"
 492              		.file 21 "../e-puck2_main-processor/ChibiOS//os/hal/ports/STM32/STM32F4xx/stm32_dma.h"
 493              		.file 22 "../e-puck2_main-processor/ChibiOS//os/hal/include/hal_ioblock.h"
 494              		.file 23 "../e-puck2_main-processor/ChibiOS//os/hal/ports/STM32/LLD/GPIOv2/pal_lld.h"
 495              		.file 24 "../e-puck2_main-processor/ChibiOS//os/hal/include/adc.h"
 496              		.file 25 "../e-puck2_main-processor/ChibiOS//os/hal/ports/STM32/STM32F4xx/adc_lld.h"
 497              		.file 26 "../e-puck2_main-processor/ChibiOS//os/hal/include/can.h"
 498              		.file 27 "../e-puck2_main-processor/ChibiOS//os/hal/ports/STM32/LLD/can_lld.h"
 499              		.file 28 "../e-puck2_main-processor/ChibiOS//os/hal/include/dac.h"
 500              		.file 29 "../e-puck2_main-processor/ChibiOS//os/hal/ports/STM32/LLD/DACv1/dac_lld.h"
 501              		.file 30 "../e-puck2_main-processor/ChibiOS//os/hal/include/ext.h"
 502              		.file 31 "../e-puck2_main-processor/ChibiOS//os/hal/ports/STM32/LLD/ext_lld.h"
 503              		.file 32 "../e-puck2_main-processor/ChibiOS//os/hal/include/gpt.h"
 504              		.file 33 "../e-puck2_main-processor/ChibiOS//os/hal/ports/STM32/LLD/TIMv1/gpt_lld.h"
 505              		.file 34 "../e-puck2_main-processor/ChibiOS//os/hal/ports/STM32/LLD/TIMv1/stm32_tim.h"
 506              		.file 35 "../e-puck2_main-processor/ChibiOS//os/hal/include/i2c.h"
 507              		.file 36 "../e-puck2_main-processor/ChibiOS//os/hal/ports/STM32/LLD/I2Cv1/i2c_lld.h"
 508              		.file 37 "../e-puck2_main-processor/ChibiOS//os/hal/include/i2s.h"
 509              		.file 38 "../e-puck2_main-processor/ChibiOS//os/hal/ports/STM32/LLD/SPIv1/i2s_lld.h"
 510              		.file 39 "../e-puck2_main-processor/ChibiOS//os/hal/include/pwm.h"
 511              		.file 40 "../e-puck2_main-processor/ChibiOS//os/hal/ports/STM32/LLD/TIMv1/pwm_lld.h"
 512              		.file 41 "../e-puck2_main-processor/ChibiOS//os/hal/include/serial.h"
 513              		.file 42 "../e-puck2_main-processor/ChibiOS//os/hal/ports/STM32/LLD/USARTv1/serial_lld.h"
ARM GAS  /tmp/ccnVzeXS.s 			page 10


 514              		.file 43 "../e-puck2_main-processor/ChibiOS//os/hal/include/sdc.h"
 515              		.file 44 "../e-puck2_main-processor/ChibiOS//os/hal/ports/STM32/LLD/sdc_lld.h"
 516              		.file 45 "../e-puck2_main-processor/ChibiOS//os/hal/include/spi.h"
 517              		.file 46 "../e-puck2_main-processor/ChibiOS//os/hal/ports/STM32/LLD/SPIv1/spi_lld.h"
 518              		.file 47 "../e-puck2_main-processor/ChibiOS//os/hal/include/usb.h"
 519              		.file 48 "../e-puck2_main-processor/ChibiOS//os/hal/ports/STM32/LLD/OTGv1/usb_lld.h"
 520              		.file 49 "../e-puck2_main-processor/ChibiOS//os/hal/ports/STM32/LLD/OTGv1/stm32_otg.h"
 521              		.file 50 "../e-puck2_main-processor/src/epuck1x/../motors.h"
 522              		.file 51 "/home/leander/uos_codes/epuck2_lab/Eclipse_e-puck2/Tools/gcc-arm-none-eabi-7-2017-q4-maj
 523              		.file 52 "/home/leander/uos_codes/epuck2_lab/Eclipse_e-puck2/Tools/gcc-arm-none-eabi-7-2017-q4-maj
 524              		.file 53 "/home/leander/uos_codes/epuck2_lab/Eclipse_e-puck2/Tools/gcc-arm-none-eabi-7-2017-q4-maj
 525              		.file 54 "/home/leander/uos_codes/epuck2_lab/Eclipse_e-puck2/Tools/gcc-arm-none-eabi-7-2017-q4-maj