ARM GAS  /tmp/ccM6RzOE.s 			page 1


   1              		.cpu cortex-m4
   2              		.eabi_attribute 27, 1
   3              		.eabi_attribute 28, 1
   4              		.eabi_attribute 20, 1
   5              		.eabi_attribute 21, 1
   6              		.eabi_attribute 23, 3
   7              		.eabi_attribute 24, 1
   8              		.eabi_attribute 25, 1
   9              		.eabi_attribute 26, 1
  10              		.eabi_attribute 30, 2
  11              		.eabi_attribute 34, 1
  12              		.eabi_attribute 18, 4
  13              		.file	"ext_lld_isr.c"
  14              		.text
  15              	.Ltext0:
  16              		.cfi_sections	.debug_frame
  17              		.section	.text.Vector58,"ax",%progbits
  18              		.align	1
  19              		.p2align 4,,15
  20              		.global	Vector58
  21              		.syntax unified
  22              		.thumb
  23              		.thumb_func
  24              		.fpu fpv4-sp-d16
  25              		.type	Vector58, %function
  26              	Vector58:
  27              	.LFB256:
  28              		.file 1 "../e-puck2_main-processor/ChibiOS//os/hal/ports/STM32/STM32F4xx/ext_lld_isr.c"
  29              		.loc 1 56 0
  30              		.cfi_startproc
  31              		@ args = 0, pretend = 0, frame = 8
  32              		@ frame_needed = 0, uses_anonymous_args = 0
  33 0000 10B5     		push	{r4, lr}
  34              		.cfi_def_cfa_offset 8
  35              		.cfi_offset 4, -8
  36              		.cfi_offset 14, -4
  37 0002 0E4C     		ldr	r4, .L7
  38 0004 82B0     		sub	sp, sp, #8
  39              		.cfi_def_cfa_offset 16
  40              		.loc 1 56 0
  41 0006 2368     		ldr	r3, [r4]
  42 0008 0193     		str	r3, [sp, #4]
  43              		.loc 1 58 0
  44 000a FFF7FEFF 		bl	_stats_increase_irq
  45              	.LVL0:
  46 000e FFF7FEFF 		bl	_dbg_check_enter_isr
  47              	.LVL1:
  48              		.loc 1 61 0
  49 0012 0B48     		ldr	r0, .L7+4
  50              		.loc 1 60 0
  51 0014 0B4A     		ldr	r2, .L7+8
  52              		.loc 1 61 0
  53 0016 4368     		ldr	r3, [r0, #4]
  54              		.loc 1 60 0
  55 0018 0121     		movs	r1, #1
  56 001a 5161     		str	r1, [r2, #20]
  57              		.loc 1 61 0
ARM GAS  /tmp/ccM6RzOE.s 			page 2


  58 001c 5B68     		ldr	r3, [r3, #4]
  59 001e 0021     		movs	r1, #0
  60 0020 9847     		blx	r3
  61              	.LVL2:
  62              		.loc 1 63 0
  63 0022 FFF7FEFF 		bl	_dbg_check_leave_isr
  64              	.LVL3:
  65 0026 019A     		ldr	r2, [sp, #4]
  66 0028 2368     		ldr	r3, [r4]
  67 002a 9A42     		cmp	r2, r3
  68 002c 04D1     		bne	.L6
  69              		.loc 1 64 0
  70 002e 02B0     		add	sp, sp, #8
  71              		.cfi_remember_state
  72              		.cfi_def_cfa_offset 8
  73              		@ sp needed
  74 0030 BDE81040 		pop	{r4, lr}
  75              		.cfi_restore 14
  76              		.cfi_restore 4
  77              		.cfi_def_cfa_offset 0
  78              		.loc 1 63 0
  79 0034 FFF7FEBF 		b	_port_irq_epilogue
  80              	.LVL4:
  81              	.L6:
  82              		.cfi_restore_state
  83 0038 FFF7FEFF 		bl	__stack_chk_fail
  84              	.LVL5:
  85              	.L8:
  86              		.align	2
  87              	.L7:
  88 003c 00000000 		.word	__stack_chk_guard
  89 0040 00000000 		.word	EXTD1
  90 0044 003C0140 		.word	1073822720
  91              		.cfi_endproc
  92              	.LFE256:
  93              		.size	Vector58, .-Vector58
  94              		.section	.text.Vector5C,"ax",%progbits
  95              		.align	1
  96              		.p2align 4,,15
  97              		.global	Vector5C
  98              		.syntax unified
  99              		.thumb
 100              		.thumb_func
 101              		.fpu fpv4-sp-d16
 102              		.type	Vector5C, %function
 103              	Vector5C:
 104              	.LFB257:
 105              		.loc 1 71 0
 106              		.cfi_startproc
 107              		@ args = 0, pretend = 0, frame = 8
 108              		@ frame_needed = 0, uses_anonymous_args = 0
 109 0000 10B5     		push	{r4, lr}
 110              		.cfi_def_cfa_offset 8
 111              		.cfi_offset 4, -8
 112              		.cfi_offset 14, -4
 113 0002 0E4C     		ldr	r4, .L14
 114 0004 82B0     		sub	sp, sp, #8
ARM GAS  /tmp/ccM6RzOE.s 			page 3


 115              		.cfi_def_cfa_offset 16
 116              		.loc 1 71 0
 117 0006 2368     		ldr	r3, [r4]
 118 0008 0193     		str	r3, [sp, #4]
 119              		.loc 1 73 0
 120 000a FFF7FEFF 		bl	_stats_increase_irq
 121              	.LVL6:
 122 000e FFF7FEFF 		bl	_dbg_check_enter_isr
 123              	.LVL7:
 124              		.loc 1 76 0
 125 0012 0B48     		ldr	r0, .L14+4
 126              		.loc 1 75 0
 127 0014 0B4A     		ldr	r2, .L14+8
 128              		.loc 1 76 0
 129 0016 4368     		ldr	r3, [r0, #4]
 130              		.loc 1 75 0
 131 0018 0221     		movs	r1, #2
 132 001a 5161     		str	r1, [r2, #20]
 133              		.loc 1 76 0
 134 001c DB68     		ldr	r3, [r3, #12]
 135 001e 0121     		movs	r1, #1
 136 0020 9847     		blx	r3
 137              	.LVL8:
 138              		.loc 1 78 0
 139 0022 FFF7FEFF 		bl	_dbg_check_leave_isr
 140              	.LVL9:
 141 0026 019A     		ldr	r2, [sp, #4]
 142 0028 2368     		ldr	r3, [r4]
 143 002a 9A42     		cmp	r2, r3
 144 002c 04D1     		bne	.L13
 145              		.loc 1 79 0
 146 002e 02B0     		add	sp, sp, #8
 147              		.cfi_remember_state
 148              		.cfi_def_cfa_offset 8
 149              		@ sp needed
 150 0030 BDE81040 		pop	{r4, lr}
 151              		.cfi_restore 14
 152              		.cfi_restore 4
 153              		.cfi_def_cfa_offset 0
 154              		.loc 1 78 0
 155 0034 FFF7FEBF 		b	_port_irq_epilogue
 156              	.LVL10:
 157              	.L13:
 158              		.cfi_restore_state
 159 0038 FFF7FEFF 		bl	__stack_chk_fail
 160              	.LVL11:
 161              	.L15:
 162              		.align	2
 163              	.L14:
 164 003c 00000000 		.word	__stack_chk_guard
 165 0040 00000000 		.word	EXTD1
 166 0044 003C0140 		.word	1073822720
 167              		.cfi_endproc
 168              	.LFE257:
 169              		.size	Vector5C, .-Vector5C
 170              		.section	.text.Vector60,"ax",%progbits
 171              		.align	1
ARM GAS  /tmp/ccM6RzOE.s 			page 4


 172              		.p2align 4,,15
 173              		.global	Vector60
 174              		.syntax unified
 175              		.thumb
 176              		.thumb_func
 177              		.fpu fpv4-sp-d16
 178              		.type	Vector60, %function
 179              	Vector60:
 180              	.LFB258:
 181              		.loc 1 86 0
 182              		.cfi_startproc
 183              		@ args = 0, pretend = 0, frame = 8
 184              		@ frame_needed = 0, uses_anonymous_args = 0
 185 0000 10B5     		push	{r4, lr}
 186              		.cfi_def_cfa_offset 8
 187              		.cfi_offset 4, -8
 188              		.cfi_offset 14, -4
 189 0002 0E4C     		ldr	r4, .L21
 190 0004 82B0     		sub	sp, sp, #8
 191              		.cfi_def_cfa_offset 16
 192              		.loc 1 86 0
 193 0006 2368     		ldr	r3, [r4]
 194 0008 0193     		str	r3, [sp, #4]
 195              		.loc 1 88 0
 196 000a FFF7FEFF 		bl	_stats_increase_irq
 197              	.LVL12:
 198 000e FFF7FEFF 		bl	_dbg_check_enter_isr
 199              	.LVL13:
 200              		.loc 1 91 0
 201 0012 0B48     		ldr	r0, .L21+4
 202              		.loc 1 90 0
 203 0014 0B4A     		ldr	r2, .L21+8
 204              		.loc 1 91 0
 205 0016 4368     		ldr	r3, [r0, #4]
 206              		.loc 1 90 0
 207 0018 0421     		movs	r1, #4
 208 001a 5161     		str	r1, [r2, #20]
 209              		.loc 1 91 0
 210 001c 5B69     		ldr	r3, [r3, #20]
 211 001e 0221     		movs	r1, #2
 212 0020 9847     		blx	r3
 213              	.LVL14:
 214              		.loc 1 93 0
 215 0022 FFF7FEFF 		bl	_dbg_check_leave_isr
 216              	.LVL15:
 217 0026 019A     		ldr	r2, [sp, #4]
 218 0028 2368     		ldr	r3, [r4]
 219 002a 9A42     		cmp	r2, r3
 220 002c 04D1     		bne	.L20
 221              		.loc 1 94 0
 222 002e 02B0     		add	sp, sp, #8
 223              		.cfi_remember_state
 224              		.cfi_def_cfa_offset 8
 225              		@ sp needed
 226 0030 BDE81040 		pop	{r4, lr}
 227              		.cfi_restore 14
 228              		.cfi_restore 4
ARM GAS  /tmp/ccM6RzOE.s 			page 5


 229              		.cfi_def_cfa_offset 0
 230              		.loc 1 93 0
 231 0034 FFF7FEBF 		b	_port_irq_epilogue
 232              	.LVL16:
 233              	.L20:
 234              		.cfi_restore_state
 235 0038 FFF7FEFF 		bl	__stack_chk_fail
 236              	.LVL17:
 237              	.L22:
 238              		.align	2
 239              	.L21:
 240 003c 00000000 		.word	__stack_chk_guard
 241 0040 00000000 		.word	EXTD1
 242 0044 003C0140 		.word	1073822720
 243              		.cfi_endproc
 244              	.LFE258:
 245              		.size	Vector60, .-Vector60
 246              		.section	.text.Vector64,"ax",%progbits
 247              		.align	1
 248              		.p2align 4,,15
 249              		.global	Vector64
 250              		.syntax unified
 251              		.thumb
 252              		.thumb_func
 253              		.fpu fpv4-sp-d16
 254              		.type	Vector64, %function
 255              	Vector64:
 256              	.LFB259:
 257              		.loc 1 101 0
 258              		.cfi_startproc
 259              		@ args = 0, pretend = 0, frame = 8
 260              		@ frame_needed = 0, uses_anonymous_args = 0
 261 0000 10B5     		push	{r4, lr}
 262              		.cfi_def_cfa_offset 8
 263              		.cfi_offset 4, -8
 264              		.cfi_offset 14, -4
 265 0002 0E4C     		ldr	r4, .L28
 266 0004 82B0     		sub	sp, sp, #8
 267              		.cfi_def_cfa_offset 16
 268              		.loc 1 101 0
 269 0006 2368     		ldr	r3, [r4]
 270 0008 0193     		str	r3, [sp, #4]
 271              		.loc 1 103 0
 272 000a FFF7FEFF 		bl	_stats_increase_irq
 273              	.LVL18:
 274 000e FFF7FEFF 		bl	_dbg_check_enter_isr
 275              	.LVL19:
 276              		.loc 1 106 0
 277 0012 0B48     		ldr	r0, .L28+4
 278              		.loc 1 105 0
 279 0014 0B4A     		ldr	r2, .L28+8
 280              		.loc 1 106 0
 281 0016 4368     		ldr	r3, [r0, #4]
 282              		.loc 1 105 0
 283 0018 0821     		movs	r1, #8
 284 001a 5161     		str	r1, [r2, #20]
 285              		.loc 1 106 0
ARM GAS  /tmp/ccM6RzOE.s 			page 6


 286 001c DB69     		ldr	r3, [r3, #28]
 287 001e 0321     		movs	r1, #3
 288 0020 9847     		blx	r3
 289              	.LVL20:
 290              		.loc 1 108 0
 291 0022 FFF7FEFF 		bl	_dbg_check_leave_isr
 292              	.LVL21:
 293 0026 019A     		ldr	r2, [sp, #4]
 294 0028 2368     		ldr	r3, [r4]
 295 002a 9A42     		cmp	r2, r3
 296 002c 04D1     		bne	.L27
 297              		.loc 1 109 0
 298 002e 02B0     		add	sp, sp, #8
 299              		.cfi_remember_state
 300              		.cfi_def_cfa_offset 8
 301              		@ sp needed
 302 0030 BDE81040 		pop	{r4, lr}
 303              		.cfi_restore 14
 304              		.cfi_restore 4
 305              		.cfi_def_cfa_offset 0
 306              		.loc 1 108 0
 307 0034 FFF7FEBF 		b	_port_irq_epilogue
 308              	.LVL22:
 309              	.L27:
 310              		.cfi_restore_state
 311 0038 FFF7FEFF 		bl	__stack_chk_fail
 312              	.LVL23:
 313              	.L29:
 314              		.align	2
 315              	.L28:
 316 003c 00000000 		.word	__stack_chk_guard
 317 0040 00000000 		.word	EXTD1
 318 0044 003C0140 		.word	1073822720
 319              		.cfi_endproc
 320              	.LFE259:
 321              		.size	Vector64, .-Vector64
 322              		.section	.text.Vector68,"ax",%progbits
 323              		.align	1
 324              		.p2align 4,,15
 325              		.global	Vector68
 326              		.syntax unified
 327              		.thumb
 328              		.thumb_func
 329              		.fpu fpv4-sp-d16
 330              		.type	Vector68, %function
 331              	Vector68:
 332              	.LFB260:
 333              		.loc 1 116 0
 334              		.cfi_startproc
 335              		@ args = 0, pretend = 0, frame = 8
 336              		@ frame_needed = 0, uses_anonymous_args = 0
 337 0000 10B5     		push	{r4, lr}
 338              		.cfi_def_cfa_offset 8
 339              		.cfi_offset 4, -8
 340              		.cfi_offset 14, -4
 341 0002 0E4C     		ldr	r4, .L35
 342 0004 82B0     		sub	sp, sp, #8
ARM GAS  /tmp/ccM6RzOE.s 			page 7


 343              		.cfi_def_cfa_offset 16
 344              		.loc 1 116 0
 345 0006 2368     		ldr	r3, [r4]
 346 0008 0193     		str	r3, [sp, #4]
 347              		.loc 1 118 0
 348 000a FFF7FEFF 		bl	_stats_increase_irq
 349              	.LVL24:
 350 000e FFF7FEFF 		bl	_dbg_check_enter_isr
 351              	.LVL25:
 352              		.loc 1 121 0
 353 0012 0B48     		ldr	r0, .L35+4
 354              		.loc 1 120 0
 355 0014 0B4A     		ldr	r2, .L35+8
 356              		.loc 1 121 0
 357 0016 4368     		ldr	r3, [r0, #4]
 358              		.loc 1 120 0
 359 0018 1021     		movs	r1, #16
 360 001a 5161     		str	r1, [r2, #20]
 361              		.loc 1 121 0
 362 001c 5B6A     		ldr	r3, [r3, #36]
 363 001e 0421     		movs	r1, #4
 364 0020 9847     		blx	r3
 365              	.LVL26:
 366              		.loc 1 123 0
 367 0022 FFF7FEFF 		bl	_dbg_check_leave_isr
 368              	.LVL27:
 369 0026 019A     		ldr	r2, [sp, #4]
 370 0028 2368     		ldr	r3, [r4]
 371 002a 9A42     		cmp	r2, r3
 372 002c 04D1     		bne	.L34
 373              		.loc 1 124 0
 374 002e 02B0     		add	sp, sp, #8
 375              		.cfi_remember_state
 376              		.cfi_def_cfa_offset 8
 377              		@ sp needed
 378 0030 BDE81040 		pop	{r4, lr}
 379              		.cfi_restore 14
 380              		.cfi_restore 4
 381              		.cfi_def_cfa_offset 0
 382              		.loc 1 123 0
 383 0034 FFF7FEBF 		b	_port_irq_epilogue
 384              	.LVL28:
 385              	.L34:
 386              		.cfi_restore_state
 387 0038 FFF7FEFF 		bl	__stack_chk_fail
 388              	.LVL29:
 389              	.L36:
 390              		.align	2
 391              	.L35:
 392 003c 00000000 		.word	__stack_chk_guard
 393 0040 00000000 		.word	EXTD1
 394 0044 003C0140 		.word	1073822720
 395              		.cfi_endproc
 396              	.LFE260:
 397              		.size	Vector68, .-Vector68
 398              		.section	.text.Vector9C,"ax",%progbits
 399              		.align	1
ARM GAS  /tmp/ccM6RzOE.s 			page 8


 400              		.p2align 4,,15
 401              		.global	Vector9C
 402              		.syntax unified
 403              		.thumb
 404              		.thumb_func
 405              		.fpu fpv4-sp-d16
 406              		.type	Vector9C, %function
 407              	Vector9C:
 408              	.LFB261:
 409              		.loc 1 131 0
 410              		.cfi_startproc
 411              		@ args = 0, pretend = 0, frame = 8
 412              		@ frame_needed = 0, uses_anonymous_args = 0
 413 0000 30B5     		push	{r4, r5, lr}
 414              		.cfi_def_cfa_offset 12
 415              		.cfi_offset 4, -12
 416              		.cfi_offset 5, -8
 417              		.cfi_offset 14, -4
 418 0002 1E4D     		ldr	r5, .L62
 419 0004 83B0     		sub	sp, sp, #12
 420              		.cfi_def_cfa_offset 24
 421              		.loc 1 131 0
 422 0006 2B68     		ldr	r3, [r5]
 423 0008 0193     		str	r3, [sp, #4]
 424              		.loc 1 134 0
 425 000a FFF7FEFF 		bl	_stats_increase_irq
 426              	.LVL30:
 427 000e FFF7FEFF 		bl	_dbg_check_enter_isr
 428              	.LVL31:
 429              		.loc 1 136 0
 430 0012 1B4B     		ldr	r3, .L62+4
 431 0014 5C69     		ldr	r4, [r3, #20]
 432 0016 04F47872 		and	r2, r4, #992
 433              	.LVL32:
 434              		.loc 1 137 0
 435 001a 5A61     		str	r2, [r3, #20]
 436              		.loc 1 138 0
 437 001c A306     		lsls	r3, r4, #26
 438 001e 04D5     		bpl	.L38
 439              		.loc 1 139 0
 440 0020 1848     		ldr	r0, .L62+8
 441 0022 4368     		ldr	r3, [r0, #4]
 442 0024 0521     		movs	r1, #5
 443 0026 DB6A     		ldr	r3, [r3, #44]
 444 0028 9847     		blx	r3
 445              	.LVL33:
 446              	.L38:
 447              		.loc 1 140 0
 448 002a 6006     		lsls	r0, r4, #25
 449 002c 04D5     		bpl	.L39
 450              		.loc 1 141 0
 451 002e 1548     		ldr	r0, .L62+8
 452 0030 4368     		ldr	r3, [r0, #4]
 453 0032 0621     		movs	r1, #6
 454 0034 5B6B     		ldr	r3, [r3, #52]
 455 0036 9847     		blx	r3
 456              	.LVL34:
ARM GAS  /tmp/ccM6RzOE.s 			page 9


 457              	.L39:
 458              		.loc 1 142 0
 459 0038 2106     		lsls	r1, r4, #24
 460 003a 04D5     		bpl	.L40
 461              		.loc 1 143 0
 462 003c 1148     		ldr	r0, .L62+8
 463 003e 4368     		ldr	r3, [r0, #4]
 464 0040 0721     		movs	r1, #7
 465 0042 DB6B     		ldr	r3, [r3, #60]
 466 0044 9847     		blx	r3
 467              	.LVL35:
 468              	.L40:
 469              		.loc 1 144 0
 470 0046 E205     		lsls	r2, r4, #23
 471 0048 04D5     		bpl	.L41
 472              		.loc 1 145 0
 473 004a 0E48     		ldr	r0, .L62+8
 474 004c 4368     		ldr	r3, [r0, #4]
 475 004e 0821     		movs	r1, #8
 476 0050 5B6C     		ldr	r3, [r3, #68]
 477 0052 9847     		blx	r3
 478              	.LVL36:
 479              	.L41:
 480              		.loc 1 146 0
 481 0054 A305     		lsls	r3, r4, #22
 482 0056 04D5     		bpl	.L42
 483              		.loc 1 147 0
 484 0058 0A48     		ldr	r0, .L62+8
 485 005a 4368     		ldr	r3, [r0, #4]
 486 005c 0921     		movs	r1, #9
 487 005e DB6C     		ldr	r3, [r3, #76]
 488 0060 9847     		blx	r3
 489              	.LVL37:
 490              	.L42:
 491              		.loc 1 149 0
 492 0062 FFF7FEFF 		bl	_dbg_check_leave_isr
 493              	.LVL38:
 494 0066 019A     		ldr	r2, [sp, #4]
 495 0068 2B68     		ldr	r3, [r5]
 496 006a 9A42     		cmp	r2, r3
 497 006c 04D1     		bne	.L61
 498              		.loc 1 150 0
 499 006e 03B0     		add	sp, sp, #12
 500              		.cfi_remember_state
 501              		.cfi_def_cfa_offset 12
 502              		@ sp needed
 503 0070 BDE83040 		pop	{r4, r5, lr}
 504              		.cfi_restore 14
 505              		.cfi_restore 5
 506              		.cfi_restore 4
 507              		.cfi_def_cfa_offset 0
 508              	.LVL39:
 509              		.loc 1 149 0
 510 0074 FFF7FEBF 		b	_port_irq_epilogue
 511              	.LVL40:
 512              	.L61:
 513              		.cfi_restore_state
ARM GAS  /tmp/ccM6RzOE.s 			page 10


 514 0078 FFF7FEFF 		bl	__stack_chk_fail
 515              	.LVL41:
 516              	.L63:
 517              		.align	2
 518              	.L62:
 519 007c 00000000 		.word	__stack_chk_guard
 520 0080 003C0140 		.word	1073822720
 521 0084 00000000 		.word	EXTD1
 522              		.cfi_endproc
 523              	.LFE261:
 524              		.size	Vector9C, .-Vector9C
 525              		.section	.text.VectorE0,"ax",%progbits
 526              		.align	1
 527              		.p2align 4,,15
 528              		.global	VectorE0
 529              		.syntax unified
 530              		.thumb
 531              		.thumb_func
 532              		.fpu fpv4-sp-d16
 533              		.type	VectorE0, %function
 534              	VectorE0:
 535              	.LFB262:
 536              		.loc 1 157 0
 537              		.cfi_startproc
 538              		@ args = 0, pretend = 0, frame = 8
 539              		@ frame_needed = 0, uses_anonymous_args = 0
 540 0000 30B5     		push	{r4, r5, lr}
 541              		.cfi_def_cfa_offset 12
 542              		.cfi_offset 4, -12
 543              		.cfi_offset 5, -8
 544              		.cfi_offset 14, -4
 545 0002 224D     		ldr	r5, .L93
 546 0004 83B0     		sub	sp, sp, #12
 547              		.cfi_def_cfa_offset 24
 548              		.loc 1 157 0
 549 0006 2B68     		ldr	r3, [r5]
 550 0008 0193     		str	r3, [sp, #4]
 551              		.loc 1 160 0
 552 000a FFF7FEFF 		bl	_stats_increase_irq
 553              	.LVL42:
 554 000e FFF7FEFF 		bl	_dbg_check_enter_isr
 555              	.LVL43:
 556              		.loc 1 162 0
 557 0012 1F4B     		ldr	r3, .L93+4
 558 0014 5C69     		ldr	r4, [r3, #20]
 559 0016 04F47C42 		and	r2, r4, #64512
 560              	.LVL44:
 561              		.loc 1 164 0
 562 001a 5A61     		str	r2, [r3, #20]
 563              		.loc 1 165 0
 564 001c 6205     		lsls	r2, r4, #21
 565              	.LVL45:
 566 001e 04D5     		bpl	.L65
 567              		.loc 1 166 0
 568 0020 1C48     		ldr	r0, .L93+8
 569 0022 4368     		ldr	r3, [r0, #4]
 570              	.LVL46:
ARM GAS  /tmp/ccM6RzOE.s 			page 11


 571 0024 0A21     		movs	r1, #10
 572 0026 5B6D     		ldr	r3, [r3, #84]
 573 0028 9847     		blx	r3
 574              	.LVL47:
 575              	.L65:
 576              		.loc 1 167 0
 577 002a 2305     		lsls	r3, r4, #20
 578 002c 04D5     		bpl	.L66
 579              		.loc 1 168 0
 580 002e 1948     		ldr	r0, .L93+8
 581 0030 4368     		ldr	r3, [r0, #4]
 582 0032 0B21     		movs	r1, #11
 583 0034 DB6D     		ldr	r3, [r3, #92]
 584 0036 9847     		blx	r3
 585              	.LVL48:
 586              	.L66:
 587              		.loc 1 169 0
 588 0038 E004     		lsls	r0, r4, #19
 589 003a 04D5     		bpl	.L67
 590              		.loc 1 170 0
 591 003c 1548     		ldr	r0, .L93+8
 592 003e 4368     		ldr	r3, [r0, #4]
 593 0040 0C21     		movs	r1, #12
 594 0042 5B6E     		ldr	r3, [r3, #100]
 595 0044 9847     		blx	r3
 596              	.LVL49:
 597              	.L67:
 598              		.loc 1 171 0
 599 0046 A104     		lsls	r1, r4, #18
 600 0048 04D5     		bpl	.L68
 601              		.loc 1 172 0
 602 004a 1248     		ldr	r0, .L93+8
 603 004c 4368     		ldr	r3, [r0, #4]
 604 004e 0D21     		movs	r1, #13
 605 0050 DB6E     		ldr	r3, [r3, #108]
 606 0052 9847     		blx	r3
 607              	.LVL50:
 608              	.L68:
 609              		.loc 1 173 0
 610 0054 6204     		lsls	r2, r4, #17
 611 0056 04D5     		bpl	.L69
 612              		.loc 1 174 0
 613 0058 0E48     		ldr	r0, .L93+8
 614 005a 4368     		ldr	r3, [r0, #4]
 615 005c 0E21     		movs	r1, #14
 616 005e 5B6F     		ldr	r3, [r3, #116]
 617 0060 9847     		blx	r3
 618              	.LVL51:
 619              	.L69:
 620              		.loc 1 175 0
 621 0062 2304     		lsls	r3, r4, #16
 622 0064 04D5     		bpl	.L70
 623              		.loc 1 176 0
 624 0066 0B48     		ldr	r0, .L93+8
 625 0068 4368     		ldr	r3, [r0, #4]
 626 006a 0F21     		movs	r1, #15
 627 006c DB6F     		ldr	r3, [r3, #124]
ARM GAS  /tmp/ccM6RzOE.s 			page 12


 628 006e 9847     		blx	r3
 629              	.LVL52:
 630              	.L70:
 631              		.loc 1 178 0
 632 0070 FFF7FEFF 		bl	_dbg_check_leave_isr
 633              	.LVL53:
 634 0074 019A     		ldr	r2, [sp, #4]
 635 0076 2B68     		ldr	r3, [r5]
 636 0078 9A42     		cmp	r2, r3
 637 007a 04D1     		bne	.L92
 638              		.loc 1 179 0
 639 007c 03B0     		add	sp, sp, #12
 640              		.cfi_remember_state
 641              		.cfi_def_cfa_offset 12
 642              		@ sp needed
 643 007e BDE83040 		pop	{r4, r5, lr}
 644              		.cfi_restore 14
 645              		.cfi_restore 5
 646              		.cfi_restore 4
 647              		.cfi_def_cfa_offset 0
 648              	.LVL54:
 649              		.loc 1 178 0
 650 0082 FFF7FEBF 		b	_port_irq_epilogue
 651              	.LVL55:
 652              	.L92:
 653              		.cfi_restore_state
 654 0086 FFF7FEFF 		bl	__stack_chk_fail
 655              	.LVL56:
 656              	.L94:
 657 008a 00BF     		.align	2
 658              	.L93:
 659 008c 00000000 		.word	__stack_chk_guard
 660 0090 003C0140 		.word	1073822720
 661 0094 00000000 		.word	EXTD1
 662              		.cfi_endproc
 663              	.LFE262:
 664              		.size	VectorE0, .-VectorE0
 665              		.section	.text.Vector44,"ax",%progbits
 666              		.align	1
 667              		.p2align 4,,15
 668              		.global	Vector44
 669              		.syntax unified
 670              		.thumb
 671              		.thumb_func
 672              		.fpu fpv4-sp-d16
 673              		.type	Vector44, %function
 674              	Vector44:
 675              	.LFB263:
 676              		.loc 1 186 0
 677              		.cfi_startproc
 678              		@ args = 0, pretend = 0, frame = 8
 679              		@ frame_needed = 0, uses_anonymous_args = 0
 680 0000 10B5     		push	{r4, lr}
 681              		.cfi_def_cfa_offset 8
 682              		.cfi_offset 4, -8
 683              		.cfi_offset 14, -4
 684 0002 0F4C     		ldr	r4, .L100
ARM GAS  /tmp/ccM6RzOE.s 			page 13


 685 0004 82B0     		sub	sp, sp, #8
 686              		.cfi_def_cfa_offset 16
 687              		.loc 1 186 0
 688 0006 2368     		ldr	r3, [r4]
 689 0008 0193     		str	r3, [sp, #4]
 690              		.loc 1 188 0
 691 000a FFF7FEFF 		bl	_stats_increase_irq
 692              	.LVL57:
 693 000e FFF7FEFF 		bl	_dbg_check_enter_isr
 694              	.LVL58:
 695              		.loc 1 191 0
 696 0012 0C48     		ldr	r0, .L100+4
 697              		.loc 1 190 0
 698 0014 0C4A     		ldr	r2, .L100+8
 699              		.loc 1 191 0
 700 0016 4368     		ldr	r3, [r0, #4]
 701              		.loc 1 190 0
 702 0018 4FF48031 		mov	r1, #65536
 703 001c 5161     		str	r1, [r2, #20]
 704              		.loc 1 191 0
 705 001e D3F88430 		ldr	r3, [r3, #132]
 706 0022 1021     		movs	r1, #16
 707 0024 9847     		blx	r3
 708              	.LVL59:
 709              		.loc 1 193 0
 710 0026 FFF7FEFF 		bl	_dbg_check_leave_isr
 711              	.LVL60:
 712 002a 019A     		ldr	r2, [sp, #4]
 713 002c 2368     		ldr	r3, [r4]
 714 002e 9A42     		cmp	r2, r3
 715 0030 04D1     		bne	.L99
 716              		.loc 1 194 0
 717 0032 02B0     		add	sp, sp, #8
 718              		.cfi_remember_state
 719              		.cfi_def_cfa_offset 8
 720              		@ sp needed
 721 0034 BDE81040 		pop	{r4, lr}
 722              		.cfi_restore 14
 723              		.cfi_restore 4
 724              		.cfi_def_cfa_offset 0
 725              		.loc 1 193 0
 726 0038 FFF7FEBF 		b	_port_irq_epilogue
 727              	.LVL61:
 728              	.L99:
 729              		.cfi_restore_state
 730 003c FFF7FEFF 		bl	__stack_chk_fail
 731              	.LVL62:
 732              	.L101:
 733              		.align	2
 734              	.L100:
 735 0040 00000000 		.word	__stack_chk_guard
 736 0044 00000000 		.word	EXTD1
 737 0048 003C0140 		.word	1073822720
 738              		.cfi_endproc
 739              	.LFE263:
 740              		.size	Vector44, .-Vector44
 741              		.section	.text.VectorE4,"ax",%progbits
ARM GAS  /tmp/ccM6RzOE.s 			page 14


 742              		.align	1
 743              		.p2align 4,,15
 744              		.global	VectorE4
 745              		.syntax unified
 746              		.thumb
 747              		.thumb_func
 748              		.fpu fpv4-sp-d16
 749              		.type	VectorE4, %function
 750              	VectorE4:
 751              	.LFB264:
 752              		.loc 1 201 0
 753              		.cfi_startproc
 754              		@ args = 0, pretend = 0, frame = 8
 755              		@ frame_needed = 0, uses_anonymous_args = 0
 756 0000 10B5     		push	{r4, lr}
 757              		.cfi_def_cfa_offset 8
 758              		.cfi_offset 4, -8
 759              		.cfi_offset 14, -4
 760 0002 0F4C     		ldr	r4, .L107
 761 0004 82B0     		sub	sp, sp, #8
 762              		.cfi_def_cfa_offset 16
 763              		.loc 1 201 0
 764 0006 2368     		ldr	r3, [r4]
 765 0008 0193     		str	r3, [sp, #4]
 766              		.loc 1 203 0
 767 000a FFF7FEFF 		bl	_stats_increase_irq
 768              	.LVL63:
 769 000e FFF7FEFF 		bl	_dbg_check_enter_isr
 770              	.LVL64:
 771              		.loc 1 206 0
 772 0012 0C48     		ldr	r0, .L107+4
 773              		.loc 1 205 0
 774 0014 0C4A     		ldr	r2, .L107+8
 775              		.loc 1 206 0
 776 0016 4368     		ldr	r3, [r0, #4]
 777              		.loc 1 205 0
 778 0018 4FF40031 		mov	r1, #131072
 779 001c 5161     		str	r1, [r2, #20]
 780              		.loc 1 206 0
 781 001e D3F88C30 		ldr	r3, [r3, #140]
 782 0022 1121     		movs	r1, #17
 783 0024 9847     		blx	r3
 784              	.LVL65:
 785              		.loc 1 208 0
 786 0026 FFF7FEFF 		bl	_dbg_check_leave_isr
 787              	.LVL66:
 788 002a 019A     		ldr	r2, [sp, #4]
 789 002c 2368     		ldr	r3, [r4]
 790 002e 9A42     		cmp	r2, r3
 791 0030 04D1     		bne	.L106
 792              		.loc 1 209 0
 793 0032 02B0     		add	sp, sp, #8
 794              		.cfi_remember_state
 795              		.cfi_def_cfa_offset 8
 796              		@ sp needed
 797 0034 BDE81040 		pop	{r4, lr}
 798              		.cfi_restore 14
ARM GAS  /tmp/ccM6RzOE.s 			page 15


 799              		.cfi_restore 4
 800              		.cfi_def_cfa_offset 0
 801              		.loc 1 208 0
 802 0038 FFF7FEBF 		b	_port_irq_epilogue
 803              	.LVL67:
 804              	.L106:
 805              		.cfi_restore_state
 806 003c FFF7FEFF 		bl	__stack_chk_fail
 807              	.LVL68:
 808              	.L108:
 809              		.align	2
 810              	.L107:
 811 0040 00000000 		.word	__stack_chk_guard
 812 0044 00000000 		.word	EXTD1
 813 0048 003C0140 		.word	1073822720
 814              		.cfi_endproc
 815              	.LFE264:
 816              		.size	VectorE4, .-VectorE4
 817              		.section	.text.VectorE8,"ax",%progbits
 818              		.align	1
 819              		.p2align 4,,15
 820              		.global	VectorE8
 821              		.syntax unified
 822              		.thumb
 823              		.thumb_func
 824              		.fpu fpv4-sp-d16
 825              		.type	VectorE8, %function
 826              	VectorE8:
 827              	.LFB265:
 828              		.loc 1 216 0
 829              		.cfi_startproc
 830              		@ args = 0, pretend = 0, frame = 8
 831              		@ frame_needed = 0, uses_anonymous_args = 0
 832 0000 10B5     		push	{r4, lr}
 833              		.cfi_def_cfa_offset 8
 834              		.cfi_offset 4, -8
 835              		.cfi_offset 14, -4
 836 0002 0F4C     		ldr	r4, .L114
 837 0004 82B0     		sub	sp, sp, #8
 838              		.cfi_def_cfa_offset 16
 839              		.loc 1 216 0
 840 0006 2368     		ldr	r3, [r4]
 841 0008 0193     		str	r3, [sp, #4]
 842              		.loc 1 218 0
 843 000a FFF7FEFF 		bl	_stats_increase_irq
 844              	.LVL69:
 845 000e FFF7FEFF 		bl	_dbg_check_enter_isr
 846              	.LVL70:
 847              		.loc 1 221 0
 848 0012 0C48     		ldr	r0, .L114+4
 849              		.loc 1 220 0
 850 0014 0C4A     		ldr	r2, .L114+8
 851              		.loc 1 221 0
 852 0016 4368     		ldr	r3, [r0, #4]
 853              		.loc 1 220 0
 854 0018 4FF48021 		mov	r1, #262144
 855 001c 5161     		str	r1, [r2, #20]
ARM GAS  /tmp/ccM6RzOE.s 			page 16


 856              		.loc 1 221 0
 857 001e D3F89430 		ldr	r3, [r3, #148]
 858 0022 1221     		movs	r1, #18
 859 0024 9847     		blx	r3
 860              	.LVL71:
 861              		.loc 1 223 0
 862 0026 FFF7FEFF 		bl	_dbg_check_leave_isr
 863              	.LVL72:
 864 002a 019A     		ldr	r2, [sp, #4]
 865 002c 2368     		ldr	r3, [r4]
 866 002e 9A42     		cmp	r2, r3
 867 0030 04D1     		bne	.L113
 868              		.loc 1 224 0
 869 0032 02B0     		add	sp, sp, #8
 870              		.cfi_remember_state
 871              		.cfi_def_cfa_offset 8
 872              		@ sp needed
 873 0034 BDE81040 		pop	{r4, lr}
 874              		.cfi_restore 14
 875              		.cfi_restore 4
 876              		.cfi_def_cfa_offset 0
 877              		.loc 1 223 0
 878 0038 FFF7FEBF 		b	_port_irq_epilogue
 879              	.LVL73:
 880              	.L113:
 881              		.cfi_restore_state
 882 003c FFF7FEFF 		bl	__stack_chk_fail
 883              	.LVL74:
 884              	.L115:
 885              		.align	2
 886              	.L114:
 887 0040 00000000 		.word	__stack_chk_guard
 888 0044 00000000 		.word	EXTD1
 889 0048 003C0140 		.word	1073822720
 890              		.cfi_endproc
 891              	.LFE265:
 892              		.size	VectorE8, .-VectorE8
 893              		.section	.text.Vector138,"ax",%progbits
 894              		.align	1
 895              		.p2align 4,,15
 896              		.global	Vector138
 897              		.syntax unified
 898              		.thumb
 899              		.thumb_func
 900              		.fpu fpv4-sp-d16
 901              		.type	Vector138, %function
 902              	Vector138:
 903              	.LFB266:
 904              		.loc 1 232 0
 905              		.cfi_startproc
 906              		@ args = 0, pretend = 0, frame = 8
 907              		@ frame_needed = 0, uses_anonymous_args = 0
 908 0000 10B5     		push	{r4, lr}
 909              		.cfi_def_cfa_offset 8
 910              		.cfi_offset 4, -8
 911              		.cfi_offset 14, -4
 912 0002 0F4C     		ldr	r4, .L121
ARM GAS  /tmp/ccM6RzOE.s 			page 17


 913 0004 82B0     		sub	sp, sp, #8
 914              		.cfi_def_cfa_offset 16
 915              		.loc 1 232 0
 916 0006 2368     		ldr	r3, [r4]
 917 0008 0193     		str	r3, [sp, #4]
 918              		.loc 1 234 0
 919 000a FFF7FEFF 		bl	_stats_increase_irq
 920              	.LVL75:
 921 000e FFF7FEFF 		bl	_dbg_check_enter_isr
 922              	.LVL76:
 923              		.loc 1 237 0
 924 0012 0C48     		ldr	r0, .L121+4
 925              		.loc 1 236 0
 926 0014 0C4A     		ldr	r2, .L121+8
 927              		.loc 1 237 0
 928 0016 4368     		ldr	r3, [r0, #4]
 929              		.loc 1 236 0
 930 0018 4FF40021 		mov	r1, #524288
 931 001c 5161     		str	r1, [r2, #20]
 932              		.loc 1 237 0
 933 001e D3F89C30 		ldr	r3, [r3, #156]
 934 0022 1321     		movs	r1, #19
 935 0024 9847     		blx	r3
 936              	.LVL77:
 937              		.loc 1 239 0
 938 0026 FFF7FEFF 		bl	_dbg_check_leave_isr
 939              	.LVL78:
 940 002a 019A     		ldr	r2, [sp, #4]
 941 002c 2368     		ldr	r3, [r4]
 942 002e 9A42     		cmp	r2, r3
 943 0030 04D1     		bne	.L120
 944              		.loc 1 240 0
 945 0032 02B0     		add	sp, sp, #8
 946              		.cfi_remember_state
 947              		.cfi_def_cfa_offset 8
 948              		@ sp needed
 949 0034 BDE81040 		pop	{r4, lr}
 950              		.cfi_restore 14
 951              		.cfi_restore 4
 952              		.cfi_def_cfa_offset 0
 953              		.loc 1 239 0
 954 0038 FFF7FEBF 		b	_port_irq_epilogue
 955              	.LVL79:
 956              	.L120:
 957              		.cfi_restore_state
 958 003c FFF7FEFF 		bl	__stack_chk_fail
 959              	.LVL80:
 960              	.L122:
 961              		.align	2
 962              	.L121:
 963 0040 00000000 		.word	__stack_chk_guard
 964 0044 00000000 		.word	EXTD1
 965 0048 003C0140 		.word	1073822720
 966              		.cfi_endproc
 967              	.LFE266:
 968              		.size	Vector138, .-Vector138
 969              		.section	.text.Vector170,"ax",%progbits
ARM GAS  /tmp/ccM6RzOE.s 			page 18


 970              		.align	1
 971              		.p2align 4,,15
 972              		.global	Vector170
 973              		.syntax unified
 974              		.thumb
 975              		.thumb_func
 976              		.fpu fpv4-sp-d16
 977              		.type	Vector170, %function
 978              	Vector170:
 979              	.LFB267:
 980              		.loc 1 249 0
 981              		.cfi_startproc
 982              		@ args = 0, pretend = 0, frame = 8
 983              		@ frame_needed = 0, uses_anonymous_args = 0
 984 0000 10B5     		push	{r4, lr}
 985              		.cfi_def_cfa_offset 8
 986              		.cfi_offset 4, -8
 987              		.cfi_offset 14, -4
 988 0002 0F4C     		ldr	r4, .L128
 989 0004 82B0     		sub	sp, sp, #8
 990              		.cfi_def_cfa_offset 16
 991              		.loc 1 249 0
 992 0006 2368     		ldr	r3, [r4]
 993 0008 0193     		str	r3, [sp, #4]
 994              		.loc 1 251 0
 995 000a FFF7FEFF 		bl	_stats_increase_irq
 996              	.LVL81:
 997 000e FFF7FEFF 		bl	_dbg_check_enter_isr
 998              	.LVL82:
 999              		.loc 1 254 0
 1000 0012 0C48     		ldr	r0, .L128+4
 1001              		.loc 1 253 0
 1002 0014 0C4A     		ldr	r2, .L128+8
 1003              		.loc 1 254 0
 1004 0016 4368     		ldr	r3, [r0, #4]
 1005              		.loc 1 253 0
 1006 0018 4FF48011 		mov	r1, #1048576
 1007 001c 5161     		str	r1, [r2, #20]
 1008              		.loc 1 254 0
 1009 001e D3F8A430 		ldr	r3, [r3, #164]
 1010 0022 1421     		movs	r1, #20
 1011 0024 9847     		blx	r3
 1012              	.LVL83:
 1013              		.loc 1 256 0
 1014 0026 FFF7FEFF 		bl	_dbg_check_leave_isr
 1015              	.LVL84:
 1016 002a 019A     		ldr	r2, [sp, #4]
 1017 002c 2368     		ldr	r3, [r4]
 1018 002e 9A42     		cmp	r2, r3
 1019 0030 04D1     		bne	.L127
 1020              		.loc 1 257 0
 1021 0032 02B0     		add	sp, sp, #8
 1022              		.cfi_remember_state
 1023              		.cfi_def_cfa_offset 8
 1024              		@ sp needed
 1025 0034 BDE81040 		pop	{r4, lr}
 1026              		.cfi_restore 14
ARM GAS  /tmp/ccM6RzOE.s 			page 19


 1027              		.cfi_restore 4
 1028              		.cfi_def_cfa_offset 0
 1029              		.loc 1 256 0
 1030 0038 FFF7FEBF 		b	_port_irq_epilogue
 1031              	.LVL85:
 1032              	.L127:
 1033              		.cfi_restore_state
 1034 003c FFF7FEFF 		bl	__stack_chk_fail
 1035              	.LVL86:
 1036              	.L129:
 1037              		.align	2
 1038              	.L128:
 1039 0040 00000000 		.word	__stack_chk_guard
 1040 0044 00000000 		.word	EXTD1
 1041 0048 003C0140 		.word	1073822720
 1042              		.cfi_endproc
 1043              	.LFE267:
 1044              		.size	Vector170, .-Vector170
 1045              		.section	.text.Vector48,"ax",%progbits
 1046              		.align	1
 1047              		.p2align 4,,15
 1048              		.global	Vector48
 1049              		.syntax unified
 1050              		.thumb
 1051              		.thumb_func
 1052              		.fpu fpv4-sp-d16
 1053              		.type	Vector48, %function
 1054              	Vector48:
 1055              	.LFB268:
 1056              		.loc 1 266 0
 1057              		.cfi_startproc
 1058              		@ args = 0, pretend = 0, frame = 8
 1059              		@ frame_needed = 0, uses_anonymous_args = 0
 1060 0000 10B5     		push	{r4, lr}
 1061              		.cfi_def_cfa_offset 8
 1062              		.cfi_offset 4, -8
 1063              		.cfi_offset 14, -4
 1064 0002 0F4C     		ldr	r4, .L135
 1065 0004 82B0     		sub	sp, sp, #8
 1066              		.cfi_def_cfa_offset 16
 1067              		.loc 1 266 0
 1068 0006 2368     		ldr	r3, [r4]
 1069 0008 0193     		str	r3, [sp, #4]
 1070              		.loc 1 268 0
 1071 000a FFF7FEFF 		bl	_stats_increase_irq
 1072              	.LVL87:
 1073 000e FFF7FEFF 		bl	_dbg_check_enter_isr
 1074              	.LVL88:
 1075              		.loc 1 271 0
 1076 0012 0C48     		ldr	r0, .L135+4
 1077              		.loc 1 270 0
 1078 0014 0C4A     		ldr	r2, .L135+8
 1079              		.loc 1 271 0
 1080 0016 4368     		ldr	r3, [r0, #4]
 1081              		.loc 1 270 0
 1082 0018 4FF40011 		mov	r1, #2097152
 1083 001c 5161     		str	r1, [r2, #20]
ARM GAS  /tmp/ccM6RzOE.s 			page 20


 1084              		.loc 1 271 0
 1085 001e D3F8AC30 		ldr	r3, [r3, #172]
 1086 0022 1521     		movs	r1, #21
 1087 0024 9847     		blx	r3
 1088              	.LVL89:
 1089              		.loc 1 273 0
 1090 0026 FFF7FEFF 		bl	_dbg_check_leave_isr
 1091              	.LVL90:
 1092 002a 019A     		ldr	r2, [sp, #4]
 1093 002c 2368     		ldr	r3, [r4]
 1094 002e 9A42     		cmp	r2, r3
 1095 0030 04D1     		bne	.L134
 1096              		.loc 1 274 0
 1097 0032 02B0     		add	sp, sp, #8
 1098              		.cfi_remember_state
 1099              		.cfi_def_cfa_offset 8
 1100              		@ sp needed
 1101 0034 BDE81040 		pop	{r4, lr}
 1102              		.cfi_restore 14
 1103              		.cfi_restore 4
 1104              		.cfi_def_cfa_offset 0
 1105              		.loc 1 273 0
 1106 0038 FFF7FEBF 		b	_port_irq_epilogue
 1107              	.LVL91:
 1108              	.L134:
 1109              		.cfi_restore_state
 1110 003c FFF7FEFF 		bl	__stack_chk_fail
 1111              	.LVL92:
 1112              	.L136:
 1113              		.align	2
 1114              	.L135:
 1115 0040 00000000 		.word	__stack_chk_guard
 1116 0044 00000000 		.word	EXTD1
 1117 0048 003C0140 		.word	1073822720
 1118              		.cfi_endproc
 1119              	.LFE268:
 1120              		.size	Vector48, .-Vector48
 1121              		.section	.text.Vector4C,"ax",%progbits
 1122              		.align	1
 1123              		.p2align 4,,15
 1124              		.global	Vector4C
 1125              		.syntax unified
 1126              		.thumb
 1127              		.thumb_func
 1128              		.fpu fpv4-sp-d16
 1129              		.type	Vector4C, %function
 1130              	Vector4C:
 1131              	.LFB269:
 1132              		.loc 1 282 0
 1133              		.cfi_startproc
 1134              		@ args = 0, pretend = 0, frame = 8
 1135              		@ frame_needed = 0, uses_anonymous_args = 0
 1136 0000 10B5     		push	{r4, lr}
 1137              		.cfi_def_cfa_offset 8
 1138              		.cfi_offset 4, -8
 1139              		.cfi_offset 14, -4
 1140 0002 0F4C     		ldr	r4, .L142
ARM GAS  /tmp/ccM6RzOE.s 			page 21


 1141 0004 82B0     		sub	sp, sp, #8
 1142              		.cfi_def_cfa_offset 16
 1143              		.loc 1 282 0
 1144 0006 2368     		ldr	r3, [r4]
 1145 0008 0193     		str	r3, [sp, #4]
 1146              		.loc 1 284 0
 1147 000a FFF7FEFF 		bl	_stats_increase_irq
 1148              	.LVL93:
 1149 000e FFF7FEFF 		bl	_dbg_check_enter_isr
 1150              	.LVL94:
 1151              		.loc 1 287 0
 1152 0012 0C48     		ldr	r0, .L142+4
 1153              		.loc 1 286 0
 1154 0014 0C4A     		ldr	r2, .L142+8
 1155              		.loc 1 287 0
 1156 0016 4368     		ldr	r3, [r0, #4]
 1157              		.loc 1 286 0
 1158 0018 4FF48001 		mov	r1, #4194304
 1159 001c 5161     		str	r1, [r2, #20]
 1160              		.loc 1 287 0
 1161 001e D3F8B430 		ldr	r3, [r3, #180]
 1162 0022 1621     		movs	r1, #22
 1163 0024 9847     		blx	r3
 1164              	.LVL95:
 1165              		.loc 1 289 0
 1166 0026 FFF7FEFF 		bl	_dbg_check_leave_isr
 1167              	.LVL96:
 1168 002a 019A     		ldr	r2, [sp, #4]
 1169 002c 2368     		ldr	r3, [r4]
 1170 002e 9A42     		cmp	r2, r3
 1171 0030 04D1     		bne	.L141
 1172              		.loc 1 290 0
 1173 0032 02B0     		add	sp, sp, #8
 1174              		.cfi_remember_state
 1175              		.cfi_def_cfa_offset 8
 1176              		@ sp needed
 1177 0034 BDE81040 		pop	{r4, lr}
 1178              		.cfi_restore 14
 1179              		.cfi_restore 4
 1180              		.cfi_def_cfa_offset 0
 1181              		.loc 1 289 0
 1182 0038 FFF7FEBF 		b	_port_irq_epilogue
 1183              	.LVL97:
 1184              	.L141:
 1185              		.cfi_restore_state
 1186 003c FFF7FEFF 		bl	__stack_chk_fail
 1187              	.LVL98:
 1188              	.L143:
 1189              		.align	2
 1190              	.L142:
 1191 0040 00000000 		.word	__stack_chk_guard
 1192 0044 00000000 		.word	EXTD1
 1193 0048 003C0140 		.word	1073822720
 1194              		.cfi_endproc
 1195              	.LFE269:
 1196              		.size	Vector4C, .-Vector4C
 1197              		.section	.text.ext_lld_exti_irq_enable,"ax",%progbits
ARM GAS  /tmp/ccM6RzOE.s 			page 22


 1198              		.align	1
 1199              		.p2align 4,,15
 1200              		.global	ext_lld_exti_irq_enable
 1201              		.syntax unified
 1202              		.thumb
 1203              		.thumb_func
 1204              		.fpu fpv4-sp-d16
 1205              		.type	ext_lld_exti_irq_enable, %function
 1206              	ext_lld_exti_irq_enable:
 1207              	.LFB270:
 1208              		.loc 1 301 0
 1209              		.cfi_startproc
 1210              		@ args = 0, pretend = 0, frame = 8
 1211              		@ frame_needed = 0, uses_anonymous_args = 0
 1212 0000 10B5     		push	{r4, lr}
 1213              		.cfi_def_cfa_offset 8
 1214              		.cfi_offset 4, -8
 1215              		.cfi_offset 14, -4
 1216 0002 224C     		ldr	r4, .L149
 1217 0004 82B0     		sub	sp, sp, #8
 1218              		.cfi_def_cfa_offset 16
 1219              		.loc 1 303 0
 1220 0006 0621     		movs	r1, #6
 1221              		.loc 1 301 0
 1222 0008 2368     		ldr	r3, [r4]
 1223 000a 0193     		str	r3, [sp, #4]
 1224              		.loc 1 303 0
 1225 000c 0846     		mov	r0, r1
 1226 000e FFF7FEFF 		bl	nvicEnableVector
 1227              	.LVL99:
 1228              		.loc 1 304 0
 1229 0012 0621     		movs	r1, #6
 1230 0014 0720     		movs	r0, #7
 1231 0016 FFF7FEFF 		bl	nvicEnableVector
 1232              	.LVL100:
 1233              		.loc 1 305 0
 1234 001a 0621     		movs	r1, #6
 1235 001c 0820     		movs	r0, #8
 1236 001e FFF7FEFF 		bl	nvicEnableVector
 1237              	.LVL101:
 1238              		.loc 1 306 0
 1239 0022 0621     		movs	r1, #6
 1240 0024 0920     		movs	r0, #9
 1241 0026 FFF7FEFF 		bl	nvicEnableVector
 1242              	.LVL102:
 1243              		.loc 1 307 0
 1244 002a 0621     		movs	r1, #6
 1245 002c 0A20     		movs	r0, #10
 1246 002e FFF7FEFF 		bl	nvicEnableVector
 1247              	.LVL103:
 1248              		.loc 1 308 0
 1249 0032 0621     		movs	r1, #6
 1250 0034 1720     		movs	r0, #23
 1251 0036 FFF7FEFF 		bl	nvicEnableVector
 1252              	.LVL104:
 1253              		.loc 1 309 0
 1254 003a 0621     		movs	r1, #6
ARM GAS  /tmp/ccM6RzOE.s 			page 23


 1255 003c 2820     		movs	r0, #40
 1256 003e FFF7FEFF 		bl	nvicEnableVector
 1257              	.LVL105:
 1258              		.loc 1 310 0
 1259 0042 0621     		movs	r1, #6
 1260 0044 0120     		movs	r0, #1
 1261 0046 FFF7FEFF 		bl	nvicEnableVector
 1262              	.LVL106:
 1263              		.loc 1 311 0
 1264 004a 0F21     		movs	r1, #15
 1265 004c 2920     		movs	r0, #41
 1266 004e FFF7FEFF 		bl	nvicEnableVector
 1267              	.LVL107:
 1268              		.loc 1 312 0
 1269 0052 0621     		movs	r1, #6
 1270 0054 2A20     		movs	r0, #42
 1271 0056 FFF7FEFF 		bl	nvicEnableVector
 1272              	.LVL108:
 1273              		.loc 1 314 0
 1274 005a 0621     		movs	r1, #6
 1275 005c 3E20     		movs	r0, #62
 1276 005e FFF7FEFF 		bl	nvicEnableVector
 1277              	.LVL109:
 1278              		.loc 1 317 0
 1279 0062 0621     		movs	r1, #6
 1280 0064 4C20     		movs	r0, #76
 1281 0066 FFF7FEFF 		bl	nvicEnableVector
 1282              	.LVL110:
 1283              		.loc 1 320 0
 1284 006a 0F21     		movs	r1, #15
 1285 006c 0220     		movs	r0, #2
 1286 006e FFF7FEFF 		bl	nvicEnableVector
 1287              	.LVL111:
 1288              		.loc 1 322 0
 1289 0072 019A     		ldr	r2, [sp, #4]
 1290 0074 2368     		ldr	r3, [r4]
 1291 0076 9A42     		cmp	r2, r3
 1292 0078 06D1     		bne	.L148
 1293 007a 0F21     		movs	r1, #15
 1294 007c 0320     		movs	r0, #3
 1295              		.loc 1 323 0
 1296 007e 02B0     		add	sp, sp, #8
 1297              		.cfi_remember_state
 1298              		.cfi_def_cfa_offset 8
 1299              		@ sp needed
 1300 0080 BDE81040 		pop	{r4, lr}
 1301              		.cfi_restore 14
 1302              		.cfi_restore 4
 1303              		.cfi_def_cfa_offset 0
 1304              		.loc 1 322 0
 1305 0084 FFF7FEBF 		b	nvicEnableVector
 1306              	.LVL112:
 1307              	.L148:
 1308              		.cfi_restore_state
 1309 0088 FFF7FEFF 		bl	__stack_chk_fail
 1310              	.LVL113:
 1311              	.L150:
ARM GAS  /tmp/ccM6RzOE.s 			page 24


 1312              		.align	2
 1313              	.L149:
 1314 008c 00000000 		.word	__stack_chk_guard
 1315              		.cfi_endproc
 1316              	.LFE270:
 1317              		.size	ext_lld_exti_irq_enable, .-ext_lld_exti_irq_enable
 1318              		.section	.text.ext_lld_exti_irq_disable,"ax",%progbits
 1319              		.align	1
 1320              		.p2align 4,,15
 1321              		.global	ext_lld_exti_irq_disable
 1322              		.syntax unified
 1323              		.thumb
 1324              		.thumb_func
 1325              		.fpu fpv4-sp-d16
 1326              		.type	ext_lld_exti_irq_disable, %function
 1327              	ext_lld_exti_irq_disable:
 1328              	.LFB271:
 1329              		.loc 1 330 0
 1330              		.cfi_startproc
 1331              		@ args = 0, pretend = 0, frame = 8
 1332              		@ frame_needed = 0, uses_anonymous_args = 0
 1333 0000 10B5     		push	{r4, lr}
 1334              		.cfi_def_cfa_offset 8
 1335              		.cfi_offset 4, -8
 1336              		.cfi_offset 14, -4
 1337 0002 1B4C     		ldr	r4, .L156
 1338 0004 82B0     		sub	sp, sp, #8
 1339              		.cfi_def_cfa_offset 16
 1340              		.loc 1 330 0
 1341 0006 2368     		ldr	r3, [r4]
 1342 0008 0193     		str	r3, [sp, #4]
 1343              		.loc 1 332 0
 1344 000a 0620     		movs	r0, #6
 1345 000c FFF7FEFF 		bl	nvicDisableVector
 1346              	.LVL114:
 1347              		.loc 1 333 0
 1348 0010 0720     		movs	r0, #7
 1349 0012 FFF7FEFF 		bl	nvicDisableVector
 1350              	.LVL115:
 1351              		.loc 1 334 0
 1352 0016 0820     		movs	r0, #8
 1353 0018 FFF7FEFF 		bl	nvicDisableVector
 1354              	.LVL116:
 1355              		.loc 1 335 0
 1356 001c 0920     		movs	r0, #9
 1357 001e FFF7FEFF 		bl	nvicDisableVector
 1358              	.LVL117:
 1359              		.loc 1 336 0
 1360 0022 0A20     		movs	r0, #10
 1361 0024 FFF7FEFF 		bl	nvicDisableVector
 1362              	.LVL118:
 1363              		.loc 1 337 0
 1364 0028 1720     		movs	r0, #23
 1365 002a FFF7FEFF 		bl	nvicDisableVector
 1366              	.LVL119:
 1367              		.loc 1 338 0
 1368 002e 2820     		movs	r0, #40
ARM GAS  /tmp/ccM6RzOE.s 			page 25


 1369 0030 FFF7FEFF 		bl	nvicDisableVector
 1370              	.LVL120:
 1371              		.loc 1 339 0
 1372 0034 0120     		movs	r0, #1
 1373 0036 FFF7FEFF 		bl	nvicDisableVector
 1374              	.LVL121:
 1375              		.loc 1 340 0
 1376 003a 2920     		movs	r0, #41
 1377 003c FFF7FEFF 		bl	nvicDisableVector
 1378              	.LVL122:
 1379              		.loc 1 341 0
 1380 0040 2A20     		movs	r0, #42
 1381 0042 FFF7FEFF 		bl	nvicDisableVector
 1382              	.LVL123:
 1383              		.loc 1 343 0
 1384 0046 3E20     		movs	r0, #62
 1385 0048 FFF7FEFF 		bl	nvicDisableVector
 1386              	.LVL124:
 1387              		.loc 1 346 0
 1388 004c 4C20     		movs	r0, #76
 1389 004e FFF7FEFF 		bl	nvicDisableVector
 1390              	.LVL125:
 1391              		.loc 1 349 0
 1392 0052 0220     		movs	r0, #2
 1393 0054 FFF7FEFF 		bl	nvicDisableVector
 1394              	.LVL126:
 1395              		.loc 1 351 0
 1396 0058 019A     		ldr	r2, [sp, #4]
 1397 005a 2368     		ldr	r3, [r4]
 1398 005c 9A42     		cmp	r2, r3
 1399 005e 05D1     		bne	.L155
 1400 0060 0320     		movs	r0, #3
 1401              		.loc 1 352 0
 1402 0062 02B0     		add	sp, sp, #8
 1403              		.cfi_remember_state
 1404              		.cfi_def_cfa_offset 8
 1405              		@ sp needed
 1406 0064 BDE81040 		pop	{r4, lr}
 1407              		.cfi_restore 14
 1408              		.cfi_restore 4
 1409              		.cfi_def_cfa_offset 0
 1410              		.loc 1 351 0
 1411 0068 FFF7FEBF 		b	nvicDisableVector
 1412              	.LVL127:
 1413              	.L155:
 1414              		.cfi_restore_state
 1415 006c FFF7FEFF 		bl	__stack_chk_fail
 1416              	.LVL128:
 1417              	.L157:
 1418              		.align	2
 1419              	.L156:
 1420 0070 00000000 		.word	__stack_chk_guard
 1421              		.cfi_endproc
 1422              	.LFE271:
 1423              		.size	ext_lld_exti_irq_disable, .-ext_lld_exti_irq_disable
 1424              		.text
 1425              	.Letext0:
ARM GAS  /tmp/ccM6RzOE.s 			page 26


 1426              		.file 2 "/home/leander/uos_codes/epuck2_lab/Eclipse_e-puck2/Tools/gcc-arm-none-eabi-7-2017-q4-majo
 1427              		.file 3 "/home/leander/uos_codes/epuck2_lab/Eclipse_e-puck2/Tools/gcc-arm-none-eabi-7-2017-q4-majo
 1428              		.file 4 "/home/leander/uos_codes/epuck2_lab/Eclipse_e-puck2/Tools/gcc-arm-none-eabi-7-2017-q4-majo
 1429              		.file 5 "../e-puck2_main-processor/ChibiOS//os/rt/ports/ARMCMx/compilers/GCC/chtypes.h"
 1430              		.file 6 "../e-puck2_main-processor/ChibiOS//os/rt/include/chsystypes.h"
 1431              		.file 7 "../e-puck2_main-processor/ChibiOS//os/rt/include/chschd.h"
 1432              		.file 8 "../e-puck2_main-processor/ChibiOS//os/ext/CMSIS/include/core_cm4.h"
 1433              		.file 9 "../e-puck2_main-processor/ChibiOS//os/ext/CMSIS/ST/system_stm32f4xx.h"
 1434              		.file 10 "../e-puck2_main-processor/ChibiOS//os/ext/CMSIS/ST/stm32f407xx.h"
 1435              		.file 11 "../e-puck2_main-processor/ChibiOS//os/rt/ports/ARMCMx/chcore.h"
 1436              		.file 12 "../e-puck2_main-processor/ChibiOS//os/rt/ports/ARMCMx/chcore_v7m.h"
 1437              		.file 13 "../e-puck2_main-processor/ChibiOS//os/rt/include/chdebug.h"
 1438              		.file 14 "../e-puck2_main-processor/ChibiOS//os/rt/include/chtm.h"
 1439              		.file 15 "../e-puck2_main-processor/ChibiOS//os/rt/include/chstats.h"
 1440              		.file 16 "../e-puck2_main-processor/ChibiOS//os/rt/include/chsem.h"
 1441              		.file 17 "../e-puck2_main-processor/ChibiOS//os/rt/include/chmtx.h"
 1442              		.file 18 "../e-puck2_main-processor/ChibiOS//os/rt/include/chregistry.h"
 1443              		.file 19 "../e-puck2_main-processor/ChibiOS//os/rt/include/chevents.h"
 1444              		.file 20 "../e-puck2_main-processor/ChibiOS//os/rt/include/chqueues.h"
 1445              		.file 21 "../e-puck2_main-processor/ChibiOS//os/hal/ports/STM32/STM32F4xx/stm32_dma.h"
 1446              		.file 22 "../e-puck2_main-processor/ChibiOS//os/hal/include/hal_ioblock.h"
 1447              		.file 23 "../e-puck2_main-processor/ChibiOS//os/hal/ports/STM32/LLD/GPIOv2/pal_lld.h"
 1448              		.file 24 "../e-puck2_main-processor/ChibiOS//os/hal/include/adc.h"
 1449              		.file 25 "../e-puck2_main-processor/ChibiOS//os/hal/ports/STM32/STM32F4xx/adc_lld.h"
 1450              		.file 26 "../e-puck2_main-processor/ChibiOS//os/hal/include/can.h"
 1451              		.file 27 "../e-puck2_main-processor/ChibiOS//os/hal/ports/STM32/LLD/can_lld.h"
 1452              		.file 28 "../e-puck2_main-processor/ChibiOS//os/hal/include/dac.h"
 1453              		.file 29 "../e-puck2_main-processor/ChibiOS//os/hal/ports/STM32/LLD/DACv1/dac_lld.h"
 1454              		.file 30 "../e-puck2_main-processor/ChibiOS//os/hal/include/ext.h"
 1455              		.file 31 "../e-puck2_main-processor/ChibiOS//os/hal/ports/STM32/LLD/ext_lld.h"
 1456              		.file 32 "../e-puck2_main-processor/ChibiOS//os/hal/include/gpt.h"
 1457              		.file 33 "../e-puck2_main-processor/ChibiOS//os/hal/ports/STM32/LLD/TIMv1/gpt_lld.h"
 1458              		.file 34 "../e-puck2_main-processor/ChibiOS//os/hal/ports/STM32/LLD/TIMv1/stm32_tim.h"
 1459              		.file 35 "../e-puck2_main-processor/ChibiOS//os/hal/include/i2c.h"
 1460              		.file 36 "../e-puck2_main-processor/ChibiOS//os/hal/ports/STM32/LLD/I2Cv1/i2c_lld.h"
 1461              		.file 37 "../e-puck2_main-processor/ChibiOS//os/hal/include/i2s.h"
 1462              		.file 38 "../e-puck2_main-processor/ChibiOS//os/hal/ports/STM32/LLD/SPIv1/i2s_lld.h"
 1463              		.file 39 "../e-puck2_main-processor/ChibiOS//os/hal/include/pwm.h"
 1464              		.file 40 "../e-puck2_main-processor/ChibiOS//os/hal/ports/STM32/LLD/TIMv1/pwm_lld.h"
 1465              		.file 41 "../e-puck2_main-processor/ChibiOS//os/hal/include/serial.h"
 1466              		.file 42 "../e-puck2_main-processor/ChibiOS//os/hal/ports/STM32/LLD/USARTv1/serial_lld.h"
 1467              		.file 43 "../e-puck2_main-processor/ChibiOS//os/hal/include/sdc.h"
 1468              		.file 44 "../e-puck2_main-processor/ChibiOS//os/hal/ports/STM32/LLD/sdc_lld.h"
 1469              		.file 45 "../e-puck2_main-processor/ChibiOS//os/hal/include/spi.h"
 1470              		.file 46 "../e-puck2_main-processor/ChibiOS//os/hal/ports/STM32/LLD/SPIv1/spi_lld.h"
 1471              		.file 47 "../e-puck2_main-processor/ChibiOS//os/hal/include/usb.h"
 1472              		.file 48 "../e-puck2_main-processor/ChibiOS//os/hal/ports/STM32/LLD/OTGv1/usb_lld.h"
 1473              		.file 49 "../e-puck2_main-processor/ChibiOS//os/hal/ports/STM32/LLD/OTGv1/stm32_otg.h"
 1474              		.file 50 "../e-puck2_main-processor/ChibiOS//os/hal/ports/common/ARMCMx/nvic.h"