ARM GAS  /tmp/ccJQRsFb.s 			page 1


   1              		.cpu cortex-m4
   2              		.eabi_attribute 27, 1
   3              		.eabi_attribute 28, 1
   4              		.eabi_attribute 20, 1
   5              		.eabi_attribute 21, 1
   6              		.eabi_attribute 23, 3
   7              		.eabi_attribute 24, 1
   8              		.eabi_attribute 25, 1
   9              		.eabi_attribute 26, 1
  10              		.eabi_attribute 30, 2
  11              		.eabi_attribute 34, 1
  12              		.eabi_attribute 18, 4
  13              		.file	"i2c.c"
  14              		.text
  15              	.Ltext0:
  16              		.cfi_sections	.debug_frame
  17              		.section	.text.i2cInit,"ax",%progbits
  18              		.align	1
  19              		.p2align 4,,15
  20              		.global	i2cInit
  21              		.syntax unified
  22              		.thumb
  23              		.thumb_func
  24              		.fpu fpv4-sp-d16
  25              		.type	i2cInit, %function
  26              	i2cInit:
  27              	.LFB256:
  28              		.file 1 "../e-puck2_main-processor/ChibiOS//os/hal/src/i2c.c"
  29              		.loc 1 59 0
  30              		.cfi_startproc
  31              		@ args = 0, pretend = 0, frame = 8
  32              		@ frame_needed = 0, uses_anonymous_args = 0
  33 0000 00B5     		push	{lr}
  34              		.cfi_def_cfa_offset 4
  35              		.cfi_offset 14, -4
  36 0002 074B     		ldr	r3, .L7
  37 0004 83B0     		sub	sp, sp, #12
  38              		.cfi_def_cfa_offset 16
  39              		.loc 1 59 0
  40 0006 1A68     		ldr	r2, [r3]
  41 0008 0192     		str	r2, [sp, #4]
  42              		.loc 1 61 0
  43 000a 019A     		ldr	r2, [sp, #4]
  44 000c 1B68     		ldr	r3, [r3]
  45 000e 9A42     		cmp	r2, r3
  46 0010 04D1     		bne	.L6
  47              		.loc 1 62 0
  48 0012 03B0     		add	sp, sp, #12
  49              		.cfi_remember_state
  50              		.cfi_def_cfa_offset 4
  51              		@ sp needed
  52 0014 5DF804EB 		ldr	lr, [sp], #4
  53              		.cfi_restore 14
  54              		.cfi_def_cfa_offset 0
  55              		.loc 1 61 0
  56 0018 FFF7FEBF 		b	i2c_lld_init
  57              	.LVL0:
ARM GAS  /tmp/ccJQRsFb.s 			page 2


  58              	.L6:
  59              		.cfi_restore_state
  60 001c FFF7FEFF 		bl	__stack_chk_fail
  61              	.LVL1:
  62              	.L8:
  63              		.align	2
  64              	.L7:
  65 0020 00000000 		.word	__stack_chk_guard
  66              		.cfi_endproc
  67              	.LFE256:
  68              		.size	i2cInit, .-i2cInit
  69              		.section	.text.i2cObjectInit,"ax",%progbits
  70              		.align	1
  71              		.p2align 4,,15
  72              		.global	i2cObjectInit
  73              		.syntax unified
  74              		.thumb
  75              		.thumb_func
  76              		.fpu fpv4-sp-d16
  77              		.type	i2cObjectInit, %function
  78              	i2cObjectInit:
  79              	.LFB257:
  80              		.loc 1 71 0
  81              		.cfi_startproc
  82              		@ args = 0, pretend = 0, frame = 8
  83              		@ frame_needed = 0, uses_anonymous_args = 0
  84              	.LVL2:
  85 0000 00B5     		push	{lr}
  86              		.cfi_def_cfa_offset 4
  87              		.cfi_offset 14, -4
  88 0002 0A4B     		ldr	r3, .L14
  89 0004 83B0     		sub	sp, sp, #12
  90              		.cfi_def_cfa_offset 16
  91              		.loc 1 71 0
  92 0006 1A68     		ldr	r2, [r3]
  93 0008 0192     		str	r2, [sp, #4]
  94              		.loc 1 73 0
  95 000a 0122     		movs	r2, #1
  96 000c 0270     		strb	r2, [r0]
  97              	.LBB61:
  98              	.LBB62:
  99              		.file 2 "../e-puck2_main-processor/ChibiOS//os/hal/osal/rt/osal.h"
 100              		.loc 2 841 0
 101 000e 019A     		ldr	r2, [sp, #4]
 102 0010 1B68     		ldr	r3, [r3]
 103              	.LBE62:
 104              	.LBE61:
 105              		.loc 1 74 0
 106 0012 0021     		movs	r1, #0
 107              	.LBB66:
 108              	.LBB63:
 109              		.loc 2 841 0
 110 0014 9A42     		cmp	r2, r3
 111              	.LBE63:
 112              	.LBE66:
 113              		.loc 1 74 0
 114 0016 4160     		str	r1, [r0, #4]
ARM GAS  /tmp/ccJQRsFb.s 			page 3


 115              	.LVL3:
 116              	.LBB67:
 117              	.LBB64:
 118              		.loc 2 841 0
 119 0018 05D1     		bne	.L13
 120 001a 0C30     		adds	r0, r0, #12
 121              	.LVL4:
 122              	.LBE64:
 123              	.LBE67:
 124              		.loc 1 83 0
 125 001c 03B0     		add	sp, sp, #12
 126              		.cfi_remember_state
 127              		.cfi_def_cfa_offset 4
 128              		@ sp needed
 129 001e 5DF804EB 		ldr	lr, [sp], #4
 130              		.cfi_restore 14
 131              		.cfi_def_cfa_offset 0
 132              	.LBB68:
 133              	.LBB65:
 134              		.loc 2 841 0
 135 0022 FFF7FEBF 		b	chMtxObjectInit
 136              	.LVL5:
 137              	.L13:
 138              		.cfi_restore_state
 139 0026 FFF7FEFF 		bl	__stack_chk_fail
 140              	.LVL6:
 141              	.L15:
 142 002a 00BF     		.align	2
 143              	.L14:
 144 002c 00000000 		.word	__stack_chk_guard
 145              	.LBE65:
 146              	.LBE68:
 147              		.cfi_endproc
 148              	.LFE257:
 149              		.size	i2cObjectInit, .-i2cObjectInit
 150              		.section	.text.i2cStart,"ax",%progbits
 151              		.align	1
 152              		.p2align 4,,15
 153              		.global	i2cStart
 154              		.syntax unified
 155              		.thumb
 156              		.thumb_func
 157              		.fpu fpv4-sp-d16
 158              		.type	i2cStart, %function
 159              	i2cStart:
 160              	.LFB258:
 161              		.loc 1 93 0
 162              		.cfi_startproc
 163              		@ args = 0, pretend = 0, frame = 8
 164              		@ frame_needed = 0, uses_anonymous_args = 0
 165              	.LVL7:
 166 0000 70B5     		push	{r4, r5, r6, lr}
 167              		.cfi_def_cfa_offset 16
 168              		.cfi_offset 4, -16
 169              		.cfi_offset 5, -12
 170              		.cfi_offset 6, -8
 171              		.cfi_offset 14, -4
ARM GAS  /tmp/ccJQRsFb.s 			page 4


 172 0002 1F4D     		ldr	r5, .L31
 173 0004 82B0     		sub	sp, sp, #8
 174              		.cfi_def_cfa_offset 24
 175              		.loc 1 93 0
 176 0006 2B68     		ldr	r3, [r5]
 177 0008 0193     		str	r3, [sp, #4]
 178 000a 0E46     		mov	r6, r1
 179              		.loc 1 95 0
 180 000c 0446     		mov	r4, r0
 181 000e 80B3     		cbz	r0, .L17
 182              		.loc 1 95 0 is_stmt 0 discriminator 3
 183 0010 79B3     		cbz	r1, .L17
 184              	.LVL8:
 185              	.L18:
 186              		.loc 1 96 0 is_stmt 1 discriminator 1
 187 0012 2378     		ldrb	r3, [r4]	@ zero_extendqisi2
 188 0014 5A1E     		subs	r2, r3, #1
 189 0016 012A     		cmp	r2, #1
 190 0018 04D9     		bls	.L19
 191              		.loc 1 96 0 is_stmt 0 discriminator 2
 192 001a 052B     		cmp	r3, #5
 193 001c 02D0     		beq	.L19
 194              		.loc 1 96 0 discriminator 3
 195 001e 1948     		ldr	r0, .L31+4
 196 0020 FFF7FEFF 		bl	chSysHalt
 197              	.LVL9:
 198              	.L19:
 199              	.LBB82:
 200              	.LBB83:
 201              	.LBB84:
 202              	.LBB85:
 203              	.LBB86:
 204              	.LBB87:
 205              		.file 3 "../e-puck2_main-processor/ChibiOS//os/ext/CMSIS/include/core_cmFunc.h"
 206              		.loc 3 546 0 is_stmt 1
 207 0024 2023     		movs	r3, #32
 208              		.syntax unified
 209              	@ 546 "../e-puck2_main-processor/ChibiOS//os/ext/CMSIS/include/core_cmFunc.h" 1
 210 0026 83F31188 		MSR basepri, r3
 211              	@ 0 "" 2
 212              	.LVL10:
 213              		.thumb
 214              		.syntax unified
 215              	.LBE87:
 216              	.LBE86:
 217              	.LBE85:
 218              		.file 4 "../e-puck2_main-processor/ChibiOS//os/rt/include/chsys.h"
 219              		.loc 4 349 0
 220 002a FFF7FEFF 		bl	_stats_start_measure_crit_thd
 221              	.LVL11:
 222              		.loc 4 350 0
 223 002e FFF7FEFF 		bl	_dbg_check_lock
 224              	.LVL12:
 225              	.LBE84:
 226              	.LBE83:
 227              	.LBE82:
 228              		.loc 1 101 0
ARM GAS  /tmp/ccJQRsFb.s 			page 5


 229 0032 2046     		mov	r0, r4
 230              		.loc 1 100 0
 231 0034 6660     		str	r6, [r4, #4]
 232              		.loc 1 101 0
 233 0036 FFF7FEFF 		bl	i2c_lld_start
 234              	.LVL13:
 235              		.loc 1 102 0
 236 003a 0223     		movs	r3, #2
 237 003c 2370     		strb	r3, [r4]
 238              	.LBB88:
 239              	.LBB89:
 240              	.LBB90:
 241              		.loc 4 360 0
 242 003e FFF7FEFF 		bl	_dbg_check_unlock
 243              	.LVL14:
 244              		.loc 4 361 0
 245 0042 FFF7FEFF 		bl	_stats_stop_measure_crit_thd
 246              	.LVL15:
 247              		.loc 4 367 0
 248 0046 104B     		ldr	r3, .L31+8
 249 0048 1A68     		ldr	r2, [r3]
 250 004a 9A42     		cmp	r2, r3
 251 004c 04D0     		beq	.L20
 252 004e 9969     		ldr	r1, [r3, #24]
 253 0050 9368     		ldr	r3, [r2, #8]
 254 0052 8A68     		ldr	r2, [r1, #8]
 255 0054 9A42     		cmp	r2, r3
 256 0056 08D3     		bcc	.L29
 257              	.L20:
 258              	.LVL16:
 259              	.LBB91:
 260              	.LBB92:
 261              	.LBB93:
 262              		.loc 3 546 0
 263 0058 0023     		movs	r3, #0
 264              		.syntax unified
 265              	@ 546 "../e-puck2_main-processor/ChibiOS//os/ext/CMSIS/include/core_cmFunc.h" 1
 266 005a 83F31188 		MSR basepri, r3
 267              	@ 0 "" 2
 268              	.LVL17:
 269              		.thumb
 270              		.syntax unified
 271              	.LBE93:
 272              	.LBE92:
 273              	.LBE91:
 274              	.LBE90:
 275              	.LBE89:
 276              	.LBE88:
 277              		.loc 1 104 0
 278 005e 019A     		ldr	r2, [sp, #4]
 279 0060 2B68     		ldr	r3, [r5]
 280 0062 9A42     		cmp	r2, r3
 281 0064 09D1     		bne	.L30
 282 0066 02B0     		add	sp, sp, #8
 283              		.cfi_remember_state
 284              		.cfi_def_cfa_offset 16
 285              		@ sp needed
ARM GAS  /tmp/ccJQRsFb.s 			page 6


 286 0068 70BD     		pop	{r4, r5, r6, pc}
 287              	.LVL18:
 288              	.L29:
 289              		.cfi_restore_state
 290              	.LBB96:
 291              	.LBB95:
 292              	.LBB94:
 293              		.loc 4 367 0
 294 006a 0848     		ldr	r0, .L31+12
 295 006c FFF7FEFF 		bl	chSysHalt
 296              	.LVL19:
 297 0070 F2E7     		b	.L20
 298              	.LVL20:
 299              	.L17:
 300              	.LBE94:
 301              	.LBE95:
 302              	.LBE96:
 303              		.loc 1 95 0 discriminator 4
 304 0072 0448     		ldr	r0, .L31+4
 305              	.LVL21:
 306 0074 FFF7FEFF 		bl	chSysHalt
 307              	.LVL22:
 308 0078 CBE7     		b	.L18
 309              	.L30:
 310              		.loc 1 104 0
 311 007a FFF7FEFF 		bl	__stack_chk_fail
 312              	.LVL23:
 313              	.L32:
 314 007e 00BF     		.align	2
 315              	.L31:
 316 0080 00000000 		.word	__stack_chk_guard
 317 0084 00000000 		.word	.LANCHOR0
 318 0088 00000000 		.word	ch
 319 008c 00000000 		.word	.LANCHOR1
 320              		.cfi_endproc
 321              	.LFE258:
 322              		.size	i2cStart, .-i2cStart
 323              		.section	.text.i2cStop,"ax",%progbits
 324              		.align	1
 325              		.p2align 4,,15
 326              		.global	i2cStop
 327              		.syntax unified
 328              		.thumb
 329              		.thumb_func
 330              		.fpu fpv4-sp-d16
 331              		.type	i2cStop, %function
 332              	i2cStop:
 333              	.LFB259:
 334              		.loc 1 113 0
 335              		.cfi_startproc
 336              		@ args = 0, pretend = 0, frame = 8
 337              		@ frame_needed = 0, uses_anonymous_args = 0
 338              	.LVL24:
 339 0000 30B5     		push	{r4, r5, lr}
 340              		.cfi_def_cfa_offset 12
 341              		.cfi_offset 4, -12
 342              		.cfi_offset 5, -8
ARM GAS  /tmp/ccJQRsFb.s 			page 7


 343              		.cfi_offset 14, -4
 344 0002 1D4D     		ldr	r5, .L45
 345 0004 83B0     		sub	sp, sp, #12
 346              		.cfi_def_cfa_offset 24
 347              		.loc 1 113 0
 348 0006 2B68     		ldr	r3, [r5]
 349 0008 0193     		str	r3, [sp, #4]
 350              		.loc 1 115 0
 351 000a 0446     		mov	r4, r0
 352 000c 70B3     		cbz	r0, .L42
 353              	.LVL25:
 354              	.L34:
 355              		.loc 1 116 0 discriminator 1
 356 000e 2378     		ldrb	r3, [r4]	@ zero_extendqisi2
 357 0010 5A1E     		subs	r2, r3, #1
 358 0012 012A     		cmp	r2, #1
 359 0014 04D9     		bls	.L35
 360              		.loc 1 116 0 is_stmt 0 discriminator 2
 361 0016 052B     		cmp	r3, #5
 362 0018 02D0     		beq	.L35
 363              		.loc 1 116 0 discriminator 3
 364 001a 1848     		ldr	r0, .L45+4
 365 001c FFF7FEFF 		bl	chSysHalt
 366              	.LVL26:
 367              	.L35:
 368              	.LBB110:
 369              	.LBB111:
 370              	.LBB112:
 371              	.LBB113:
 372              	.LBB114:
 373              	.LBB115:
 374              		.loc 3 546 0 is_stmt 1
 375 0020 2023     		movs	r3, #32
 376              		.syntax unified
 377              	@ 546 "../e-puck2_main-processor/ChibiOS//os/ext/CMSIS/include/core_cmFunc.h" 1
 378 0022 83F31188 		MSR basepri, r3
 379              	@ 0 "" 2
 380              	.LVL27:
 381              		.thumb
 382              		.syntax unified
 383              	.LBE115:
 384              	.LBE114:
 385              	.LBE113:
 386              		.loc 4 349 0
 387 0026 FFF7FEFF 		bl	_stats_start_measure_crit_thd
 388              	.LVL28:
 389              		.loc 4 350 0
 390 002a FFF7FEFF 		bl	_dbg_check_lock
 391              	.LVL29:
 392              	.LBE112:
 393              	.LBE111:
 394              	.LBE110:
 395              		.loc 1 120 0
 396 002e 2046     		mov	r0, r4
 397 0030 FFF7FEFF 		bl	i2c_lld_stop
 398              	.LVL30:
 399              		.loc 1 121 0
ARM GAS  /tmp/ccJQRsFb.s 			page 8


 400 0034 0123     		movs	r3, #1
 401 0036 2370     		strb	r3, [r4]
 402              	.LBB116:
 403              	.LBB117:
 404              	.LBB118:
 405              		.loc 4 360 0
 406 0038 FFF7FEFF 		bl	_dbg_check_unlock
 407              	.LVL31:
 408              		.loc 4 361 0
 409 003c FFF7FEFF 		bl	_stats_stop_measure_crit_thd
 410              	.LVL32:
 411              		.loc 4 367 0
 412 0040 0F4B     		ldr	r3, .L45+8
 413 0042 1A68     		ldr	r2, [r3]
 414 0044 9A42     		cmp	r2, r3
 415 0046 04D0     		beq	.L36
 416 0048 9969     		ldr	r1, [r3, #24]
 417 004a 9368     		ldr	r3, [r2, #8]
 418 004c 8A68     		ldr	r2, [r1, #8]
 419 004e 9A42     		cmp	r2, r3
 420 0050 08D3     		bcc	.L43
 421              	.L36:
 422              	.LVL33:
 423              	.LBB119:
 424              	.LBB120:
 425              	.LBB121:
 426              		.loc 3 546 0
 427 0052 0023     		movs	r3, #0
 428              		.syntax unified
 429              	@ 546 "../e-puck2_main-processor/ChibiOS//os/ext/CMSIS/include/core_cmFunc.h" 1
 430 0054 83F31188 		MSR basepri, r3
 431              	@ 0 "" 2
 432              	.LVL34:
 433              		.thumb
 434              		.syntax unified
 435              	.LBE121:
 436              	.LBE120:
 437              	.LBE119:
 438              	.LBE118:
 439              	.LBE117:
 440              	.LBE116:
 441              		.loc 1 123 0
 442 0058 019A     		ldr	r2, [sp, #4]
 443 005a 2B68     		ldr	r3, [r5]
 444 005c 9A42     		cmp	r2, r3
 445 005e 09D1     		bne	.L44
 446 0060 03B0     		add	sp, sp, #12
 447              		.cfi_remember_state
 448              		.cfi_def_cfa_offset 12
 449              		@ sp needed
 450 0062 30BD     		pop	{r4, r5, pc}
 451              	.LVL35:
 452              	.L43:
 453              		.cfi_restore_state
 454              	.LBB124:
 455              	.LBB123:
 456              	.LBB122:
ARM GAS  /tmp/ccJQRsFb.s 			page 9


 457              		.loc 4 367 0
 458 0064 0748     		ldr	r0, .L45+12
 459 0066 FFF7FEFF 		bl	chSysHalt
 460              	.LVL36:
 461 006a F2E7     		b	.L36
 462              	.LVL37:
 463              	.L42:
 464              	.LBE122:
 465              	.LBE123:
 466              	.LBE124:
 467              		.loc 1 115 0 discriminator 2
 468 006c 0348     		ldr	r0, .L45+4
 469              	.LVL38:
 470 006e FFF7FEFF 		bl	chSysHalt
 471              	.LVL39:
 472 0072 CCE7     		b	.L34
 473              	.L44:
 474              		.loc 1 123 0
 475 0074 FFF7FEFF 		bl	__stack_chk_fail
 476              	.LVL40:
 477              	.L46:
 478              		.align	2
 479              	.L45:
 480 0078 00000000 		.word	__stack_chk_guard
 481 007c 00000000 		.word	.LANCHOR2
 482 0080 00000000 		.word	ch
 483 0084 00000000 		.word	.LANCHOR1
 484              		.cfi_endproc
 485              	.LFE259:
 486              		.size	i2cStop, .-i2cStop
 487              		.section	.text.i2cGetErrors,"ax",%progbits
 488              		.align	1
 489              		.p2align 4,,15
 490              		.global	i2cGetErrors
 491              		.syntax unified
 492              		.thumb
 493              		.thumb_func
 494              		.fpu fpv4-sp-d16
 495              		.type	i2cGetErrors, %function
 496              	i2cGetErrors:
 497              	.LFB260:
 498              		.loc 1 133 0
 499              		.cfi_startproc
 500              		@ args = 0, pretend = 0, frame = 8
 501              		@ frame_needed = 0, uses_anonymous_args = 0
 502              	.LVL41:
 503 0000 30B5     		push	{r4, r5, lr}
 504              		.cfi_def_cfa_offset 12
 505              		.cfi_offset 4, -12
 506              		.cfi_offset 5, -8
 507              		.cfi_offset 14, -4
 508 0002 094D     		ldr	r5, .L53
 509 0004 83B0     		sub	sp, sp, #12
 510              		.cfi_def_cfa_offset 24
 511              		.loc 1 133 0
 512 0006 2B68     		ldr	r3, [r5]
 513 0008 0193     		str	r3, [sp, #4]
ARM GAS  /tmp/ccJQRsFb.s 			page 10


 514              		.loc 1 135 0
 515 000a 0446     		mov	r4, r0
 516 000c 30B1     		cbz	r0, .L51
 517              	.LVL42:
 518              	.L48:
 519              		.loc 1 138 0
 520 000e 019A     		ldr	r2, [sp, #4]
 521 0010 2B68     		ldr	r3, [r5]
 522 0012 A068     		ldr	r0, [r4, #8]
 523 0014 9A42     		cmp	r2, r3
 524 0016 05D1     		bne	.L52
 525 0018 03B0     		add	sp, sp, #12
 526              		.cfi_remember_state
 527              		.cfi_def_cfa_offset 12
 528              		@ sp needed
 529 001a 30BD     		pop	{r4, r5, pc}
 530              	.LVL43:
 531              	.L51:
 532              		.cfi_restore_state
 533              		.loc 1 135 0 discriminator 2
 534 001c 0348     		ldr	r0, .L53+4
 535              	.LVL44:
 536 001e FFF7FEFF 		bl	chSysHalt
 537              	.LVL45:
 538 0022 F4E7     		b	.L48
 539              	.L52:
 540              		.loc 1 138 0
 541 0024 FFF7FEFF 		bl	__stack_chk_fail
 542              	.LVL46:
 543              	.L54:
 544              		.align	2
 545              	.L53:
 546 0028 00000000 		.word	__stack_chk_guard
 547 002c 00000000 		.word	.LANCHOR3
 548              		.cfi_endproc
 549              	.LFE260:
 550              		.size	i2cGetErrors, .-i2cGetErrors
 551              		.section	.text.i2cMasterTransmitTimeout,"ax",%progbits
 552              		.align	1
 553              		.p2align 4,,15
 554              		.global	i2cMasterTransmitTimeout
 555              		.syntax unified
 556              		.thumb
 557              		.thumb_func
 558              		.fpu fpv4-sp-d16
 559              		.type	i2cMasterTransmitTimeout, %function
 560              	i2cMasterTransmitTimeout:
 561              	.LFB261:
 562              		.loc 1 172 0
 563              		.cfi_startproc
 564              		@ args = 12, pretend = 0, frame = 8
 565              		@ frame_needed = 0, uses_anonymous_args = 0
 566              	.LVL47:
 567 0000 2DE9F04F 		push	{r4, r5, r6, r7, r8, r9, r10, fp, lr}
 568              		.cfi_def_cfa_offset 36
 569              		.cfi_offset 4, -36
 570              		.cfi_offset 5, -32
ARM GAS  /tmp/ccJQRsFb.s 			page 11


 571              		.cfi_offset 6, -28
 572              		.cfi_offset 7, -24
 573              		.cfi_offset 8, -20
 574              		.cfi_offset 9, -16
 575              		.cfi_offset 10, -12
 576              		.cfi_offset 11, -8
 577              		.cfi_offset 14, -4
 578 0004 304E     		ldr	r6, .L89
 579 0006 87B0     		sub	sp, sp, #28
 580              		.cfi_def_cfa_offset 64
 581              		.loc 1 172 0
 582 0008 3468     		ldr	r4, [r6]
 583 000a 0594     		str	r4, [sp, #20]
 584 000c DDF840B0 		ldr	fp, [sp, #64]
 585 0010 0D46     		mov	r5, r1
 586 0012 9046     		mov	r8, r2
 587 0014 1F46     		mov	r7, r3
 588 0016 DDE9119A 		ldrd	r9, r10, [sp, #68]
 589              		.loc 1 175 0
 590 001a 0446     		mov	r4, r0
 591 001c 08B1     		cbz	r0, .L56
 592              		.loc 1 175 0 is_stmt 0 discriminator 3
 593 001e 0029     		cmp	r1, #0
 594 0020 3DD1     		bne	.L86
 595              	.L56:
 596              		.loc 1 175 0 discriminator 14
 597 0022 2A48     		ldr	r0, .L89+4
 598              	.LVL48:
 599 0024 FFF7FEFF 		bl	chSysHalt
 600              	.LVL49:
 601              	.L58:
 602              		.loc 1 180 0 is_stmt 1 discriminator 1
 603 0028 2378     		ldrb	r3, [r4]	@ zero_extendqisi2
 604 002a 022B     		cmp	r3, #2
 605 002c 02D0     		beq	.L59
 606              		.loc 1 180 0 is_stmt 0 discriminator 2
 607 002e 2748     		ldr	r0, .L89+4
 608 0030 FFF7FEFF 		bl	chSysHalt
 609              	.LVL50:
 610              	.L59:
 611              	.LBB138:
 612              	.LBB139:
 613              	.LBB140:
 614              	.LBB141:
 615              	.LBB142:
 616              	.LBB143:
 617              		.loc 3 546 0 is_stmt 1
 618 0034 2023     		movs	r3, #32
 619              		.syntax unified
 620              	@ 546 "../e-puck2_main-processor/ChibiOS//os/ext/CMSIS/include/core_cmFunc.h" 1
 621 0036 83F31188 		MSR basepri, r3
 622              	@ 0 "" 2
 623              	.LVL51:
 624              		.thumb
 625              		.syntax unified
 626              	.LBE143:
 627              	.LBE142:
ARM GAS  /tmp/ccJQRsFb.s 			page 12


 628              	.LBE141:
 629              		.loc 4 349 0
 630 003a FFF7FEFF 		bl	_stats_start_measure_crit_thd
 631              	.LVL52:
 632              		.loc 4 350 0
 633 003e FFF7FEFF 		bl	_dbg_check_lock
 634              	.LVL53:
 635              	.LBE140:
 636              	.LBE139:
 637              	.LBE138:
 638              		.loc 1 183 0
 639 0042 4FF0000C 		mov	ip, #0
 640              		.loc 1 184 0
 641 0046 0320     		movs	r0, #3
 642              		.loc 1 183 0
 643 0048 C4F808C0 		str	ip, [r4, #8]
 644              		.loc 1 185 0
 645 004c 4246     		mov	r2, r8
 646 004e 2946     		mov	r1, r5
 647              		.loc 1 184 0
 648 0050 2070     		strb	r0, [r4]
 649              		.loc 1 185 0
 650 0052 3B46     		mov	r3, r7
 651 0054 2046     		mov	r0, r4
 652 0056 CDE9019A 		strd	r9, r10, [sp, #4]
 653 005a CDF800B0 		str	fp, [sp]
 654 005e FFF7FEFF 		bl	i2c_lld_master_transmit_timeout
 655              	.LVL54:
 656              		.loc 1 187 0
 657 0062 431C     		adds	r3, r0, #1
 658              		.loc 1 188 0
 659 0064 0CBF     		ite	eq
 660 0066 0523     		moveq	r3, #5
 661              		.loc 1 191 0
 662 0068 0223     		movne	r3, #2
 663 006a 2370     		strb	r3, [r4]
 664              		.loc 1 185 0
 665 006c 0546     		mov	r5, r0
 666              	.LVL55:
 667              	.LBB144:
 668              	.LBB145:
 669              	.LBB146:
 670              		.loc 4 360 0
 671 006e FFF7FEFF 		bl	_dbg_check_unlock
 672              	.LVL56:
 673              		.loc 4 361 0
 674 0072 FFF7FEFF 		bl	_stats_stop_measure_crit_thd
 675              	.LVL57:
 676              		.loc 4 367 0
 677 0076 164B     		ldr	r3, .L89+8
 678 0078 1A68     		ldr	r2, [r3]
 679 007a 9A42     		cmp	r2, r3
 680 007c 04D0     		beq	.L62
 681 007e 9969     		ldr	r1, [r3, #24]
 682 0080 9368     		ldr	r3, [r2, #8]
 683 0082 8A68     		ldr	r2, [r1, #8]
 684 0084 9A42     		cmp	r2, r3
ARM GAS  /tmp/ccJQRsFb.s 			page 13


 685 0086 18D3     		bcc	.L87
 686              	.L62:
 687              	.LVL58:
 688              	.LBB147:
 689              	.LBB148:
 690              	.LBB149:
 691              		.loc 3 546 0
 692 0088 0023     		movs	r3, #0
 693              		.syntax unified
 694              	@ 546 "../e-puck2_main-processor/ChibiOS//os/ext/CMSIS/include/core_cmFunc.h" 1
 695 008a 83F31188 		MSR basepri, r3
 696              	@ 0 "" 2
 697              	.LVL59:
 698              		.thumb
 699              		.syntax unified
 700              	.LBE149:
 701              	.LBE148:
 702              	.LBE147:
 703              	.LBE146:
 704              	.LBE145:
 705              	.LBE144:
 706              		.loc 1 195 0
 707 008e 059A     		ldr	r2, [sp, #20]
 708 0090 3368     		ldr	r3, [r6]
 709 0092 9A42     		cmp	r2, r3
 710 0094 2846     		mov	r0, r5
 711 0096 14D1     		bne	.L88
 712              	.LVL60:
 713 0098 07B0     		add	sp, sp, #28
 714              		.cfi_remember_state
 715              		.cfi_def_cfa_offset 36
 716              		@ sp needed
 717 009a BDE8F08F 		pop	{r4, r5, r6, r7, r8, r9, r10, fp, pc}
 718              	.LVL61:
 719              	.L86:
 720              		.cfi_restore_state
 721              		.loc 1 175 0 discriminator 5
 722 009e 002B     		cmp	r3, #0
 723 00a0 BFD0     		beq	.L56
 724              		.loc 1 175 0 is_stmt 0 discriminator 7
 725 00a2 002A     		cmp	r2, #0
 726 00a4 BDD0     		beq	.L56
 727              		.loc 1 175 0 discriminator 9
 728 00a6 B9F1000F 		cmp	r9, #0
 729 00aa 02D0     		beq	.L57
 730              		.loc 1 175 0 discriminator 10
 731 00ac BBF1000F 		cmp	fp, #0
 732 00b0 B7D0     		beq	.L56
 733              	.L57:
 734              		.loc 1 175 0 discriminator 13
 735 00b2 BAF1000F 		cmp	r10, #0
 736 00b6 B7D1     		bne	.L58
 737 00b8 B3E7     		b	.L56
 738              	.LVL62:
 739              	.L87:
 740              	.LBB152:
 741              	.LBB151:
ARM GAS  /tmp/ccJQRsFb.s 			page 14


 742              	.LBB150:
 743              		.loc 4 367 0 is_stmt 1
 744 00ba 0648     		ldr	r0, .L89+12
 745 00bc FFF7FEFF 		bl	chSysHalt
 746              	.LVL63:
 747 00c0 E2E7     		b	.L62
 748              	.LVL64:
 749              	.L88:
 750              	.LBE150:
 751              	.LBE151:
 752              	.LBE152:
 753              		.loc 1 195 0
 754 00c2 FFF7FEFF 		bl	__stack_chk_fail
 755              	.LVL65:
 756              	.L90:
 757 00c6 00BF     		.align	2
 758              	.L89:
 759 00c8 00000000 		.word	__stack_chk_guard
 760 00cc 00000000 		.word	.LANCHOR4
 761 00d0 00000000 		.word	ch
 762 00d4 00000000 		.word	.LANCHOR1
 763              		.cfi_endproc
 764              	.LFE261:
 765              		.size	i2cMasterTransmitTimeout, .-i2cMasterTransmitTimeout
 766              		.section	.text.i2cMasterReceiveTimeout,"ax",%progbits
 767              		.align	1
 768              		.p2align 4,,15
 769              		.global	i2cMasterReceiveTimeout
 770              		.syntax unified
 771              		.thumb
 772              		.thumb_func
 773              		.fpu fpv4-sp-d16
 774              		.type	i2cMasterReceiveTimeout, %function
 775              	i2cMasterReceiveTimeout:
 776              	.LFB262:
 777              		.loc 1 221 0
 778              		.cfi_startproc
 779              		@ args = 4, pretend = 0, frame = 8
 780              		@ frame_needed = 0, uses_anonymous_args = 0
 781              	.LVL66:
 782 0000 2DE9F043 		push	{r4, r5, r6, r7, r8, r9, lr}
 783              		.cfi_def_cfa_offset 28
 784              		.cfi_offset 4, -28
 785              		.cfi_offset 5, -24
 786              		.cfi_offset 6, -20
 787              		.cfi_offset 7, -16
 788              		.cfi_offset 8, -12
 789              		.cfi_offset 9, -8
 790              		.cfi_offset 14, -4
 791 0004 2B4E     		ldr	r6, .L118
 792 0006 85B0     		sub	sp, sp, #20
 793              		.cfi_def_cfa_offset 48
 794              		.loc 1 221 0
 795 0008 3468     		ldr	r4, [r6]
 796 000a 0394     		str	r4, [sp, #12]
 797 000c DDF83090 		ldr	r9, [sp, #48]
 798 0010 0D46     		mov	r5, r1
ARM GAS  /tmp/ccJQRsFb.s 			page 15


 799 0012 9046     		mov	r8, r2
 800 0014 1F46     		mov	r7, r3
 801              		.loc 1 225 0
 802 0016 0446     		mov	r4, r0
 803 0018 08B1     		cbz	r0, .L92
 804              		.loc 1 225 0 is_stmt 0 discriminator 3
 805 001a 0029     		cmp	r1, #0
 806 001c 3BD1     		bne	.L115
 807              	.L92:
 808              		.loc 1 225 0 discriminator 10
 809 001e 2648     		ldr	r0, .L118+4
 810              	.LVL67:
 811 0020 FFF7FEFF 		bl	chSysHalt
 812              	.LVL68:
 813              	.L93:
 814              		.loc 1 229 0 is_stmt 1 discriminator 1
 815 0024 2378     		ldrb	r3, [r4]	@ zero_extendqisi2
 816 0026 022B     		cmp	r3, #2
 817 0028 02D0     		beq	.L94
 818              		.loc 1 229 0 is_stmt 0 discriminator 2
 819 002a 2348     		ldr	r0, .L118+4
 820 002c FFF7FEFF 		bl	chSysHalt
 821              	.LVL69:
 822              	.L94:
 823              	.LBB166:
 824              	.LBB167:
 825              	.LBB168:
 826              	.LBB169:
 827              	.LBB170:
 828              	.LBB171:
 829              		.loc 3 546 0 is_stmt 1
 830 0030 2023     		movs	r3, #32
 831              		.syntax unified
 832              	@ 546 "../e-puck2_main-processor/ChibiOS//os/ext/CMSIS/include/core_cmFunc.h" 1
 833 0032 83F31188 		MSR basepri, r3
 834              	@ 0 "" 2
 835              	.LVL70:
 836              		.thumb
 837              		.syntax unified
 838              	.LBE171:
 839              	.LBE170:
 840              	.LBE169:
 841              		.loc 4 349 0
 842 0036 FFF7FEFF 		bl	_stats_start_measure_crit_thd
 843              	.LVL71:
 844              		.loc 4 350 0
 845 003a FFF7FEFF 		bl	_dbg_check_lock
 846              	.LVL72:
 847              	.LBE168:
 848              	.LBE167:
 849              	.LBE166:
 850              		.loc 1 232 0
 851 003e 4FF0000C 		mov	ip, #0
 852              		.loc 1 233 0
 853 0042 0420     		movs	r0, #4
 854              		.loc 1 234 0
 855 0044 4246     		mov	r2, r8
ARM GAS  /tmp/ccJQRsFb.s 			page 16


 856 0046 2946     		mov	r1, r5
 857              		.loc 1 232 0
 858 0048 C4F808C0 		str	ip, [r4, #8]
 859              		.loc 1 233 0
 860 004c 2070     		strb	r0, [r4]
 861              		.loc 1 234 0
 862 004e 3B46     		mov	r3, r7
 863 0050 2046     		mov	r0, r4
 864 0052 CDF80090 		str	r9, [sp]
 865 0056 FFF7FEFF 		bl	i2c_lld_master_receive_timeout
 866              	.LVL73:
 867              		.loc 1 235 0
 868 005a 431C     		adds	r3, r0, #1
 869              		.loc 1 236 0
 870 005c 0CBF     		ite	eq
 871 005e 0523     		moveq	r3, #5
 872              		.loc 1 239 0
 873 0060 0223     		movne	r3, #2
 874 0062 2370     		strb	r3, [r4]
 875              		.loc 1 234 0
 876 0064 0546     		mov	r5, r0
 877              	.LVL74:
 878              	.LBB172:
 879              	.LBB173:
 880              	.LBB174:
 881              		.loc 4 360 0
 882 0066 FFF7FEFF 		bl	_dbg_check_unlock
 883              	.LVL75:
 884              		.loc 4 361 0
 885 006a FFF7FEFF 		bl	_stats_stop_measure_crit_thd
 886              	.LVL76:
 887              		.loc 4 367 0
 888 006e 134B     		ldr	r3, .L118+8
 889 0070 1A68     		ldr	r2, [r3]
 890 0072 9A42     		cmp	r2, r3
 891 0074 04D0     		beq	.L97
 892 0076 9969     		ldr	r1, [r3, #24]
 893 0078 9368     		ldr	r3, [r2, #8]
 894 007a 8A68     		ldr	r2, [r1, #8]
 895 007c 9A42     		cmp	r2, r3
 896 007e 12D3     		bcc	.L116
 897              	.L97:
 898              	.LVL77:
 899              	.LBB175:
 900              	.LBB176:
 901              	.LBB177:
 902              		.loc 3 546 0
 903 0080 0023     		movs	r3, #0
 904              		.syntax unified
 905              	@ 546 "../e-puck2_main-processor/ChibiOS//os/ext/CMSIS/include/core_cmFunc.h" 1
 906 0082 83F31188 		MSR basepri, r3
 907              	@ 0 "" 2
 908              	.LVL78:
 909              		.thumb
 910              		.syntax unified
 911              	.LBE177:
 912              	.LBE176:
ARM GAS  /tmp/ccJQRsFb.s 			page 17


 913              	.LBE175:
 914              	.LBE174:
 915              	.LBE173:
 916              	.LBE172:
 917              		.loc 1 243 0
 918 0086 039A     		ldr	r2, [sp, #12]
 919 0088 3368     		ldr	r3, [r6]
 920 008a 9A42     		cmp	r2, r3
 921 008c 2846     		mov	r0, r5
 922 008e 0ED1     		bne	.L117
 923              	.LVL79:
 924 0090 05B0     		add	sp, sp, #20
 925              		.cfi_remember_state
 926              		.cfi_def_cfa_offset 28
 927              		@ sp needed
 928 0092 BDE8F083 		pop	{r4, r5, r6, r7, r8, r9, pc}
 929              	.LVL80:
 930              	.L115:
 931              		.cfi_restore_state
 932              		.loc 1 225 0 discriminator 5
 933 0096 002B     		cmp	r3, #0
 934 0098 C1D0     		beq	.L92
 935              		.loc 1 225 0 is_stmt 0 discriminator 7
 936 009a 002A     		cmp	r2, #0
 937 009c BFD0     		beq	.L92
 938              		.loc 1 225 0 discriminator 9
 939 009e B9F1000F 		cmp	r9, #0
 940 00a2 BFD1     		bne	.L93
 941 00a4 BBE7     		b	.L92
 942              	.LVL81:
 943              	.L116:
 944              	.LBB180:
 945              	.LBB179:
 946              	.LBB178:
 947              		.loc 4 367 0 is_stmt 1
 948 00a6 0648     		ldr	r0, .L118+12
 949 00a8 FFF7FEFF 		bl	chSysHalt
 950              	.LVL82:
 951 00ac E8E7     		b	.L97
 952              	.LVL83:
 953              	.L117:
 954              	.LBE178:
 955              	.LBE179:
 956              	.LBE180:
 957              		.loc 1 243 0
 958 00ae FFF7FEFF 		bl	__stack_chk_fail
 959              	.LVL84:
 960              	.L119:
 961 00b2 00BF     		.align	2
 962              	.L118:
 963 00b4 00000000 		.word	__stack_chk_guard
 964 00b8 00000000 		.word	.LANCHOR5
 965 00bc 00000000 		.word	ch
 966 00c0 00000000 		.word	.LANCHOR1
 967              		.cfi_endproc
 968              	.LFE262:
 969              		.size	i2cMasterReceiveTimeout, .-i2cMasterReceiveTimeout
ARM GAS  /tmp/ccJQRsFb.s 			page 18


 970              		.section	.text.i2cAcquireBus,"ax",%progbits
 971              		.align	1
 972              		.p2align 4,,15
 973              		.global	i2cAcquireBus
 974              		.syntax unified
 975              		.thumb
 976              		.thumb_func
 977              		.fpu fpv4-sp-d16
 978              		.type	i2cAcquireBus, %function
 979              	i2cAcquireBus:
 980              	.LFB263:
 981              		.loc 1 257 0
 982              		.cfi_startproc
 983              		@ args = 0, pretend = 0, frame = 8
 984              		@ frame_needed = 0, uses_anonymous_args = 0
 985              	.LVL85:
 986 0000 30B5     		push	{r4, r5, lr}
 987              		.cfi_def_cfa_offset 12
 988              		.cfi_offset 4, -12
 989              		.cfi_offset 5, -8
 990              		.cfi_offset 14, -4
 991 0002 0B4C     		ldr	r4, .L127
 992 0004 83B0     		sub	sp, sp, #12
 993              		.cfi_def_cfa_offset 24
 994              		.loc 1 257 0
 995 0006 2368     		ldr	r3, [r4]
 996 0008 0193     		str	r3, [sp, #4]
 997              		.loc 1 259 0
 998 000a 0546     		mov	r5, r0
 999 000c 50B1     		cbz	r0, .L125
 1000              	.LVL86:
 1001              	.L121:
 1002              	.LBB181:
 1003              	.LBB182:
 1004              		.loc 2 861 0
 1005 000e 019A     		ldr	r2, [sp, #4]
 1006 0010 2368     		ldr	r3, [r4]
 1007 0012 9A42     		cmp	r2, r3
 1008 0014 0AD1     		bne	.L126
 1009 0016 05F10C00 		add	r0, r5, #12
 1010              	.LVL87:
 1011              	.LBE182:
 1012              	.LBE181:
 1013              		.loc 1 262 0
 1014 001a 03B0     		add	sp, sp, #12
 1015              		.cfi_remember_state
 1016              		.cfi_def_cfa_offset 12
 1017              		@ sp needed
 1018 001c BDE83040 		pop	{r4, r5, lr}
 1019              		.cfi_restore 14
 1020              		.cfi_restore 5
 1021              		.cfi_restore 4
 1022              		.cfi_def_cfa_offset 0
 1023              	.LVL88:
 1024              	.LBB185:
 1025              	.LBB183:
 1026              		.loc 2 861 0
ARM GAS  /tmp/ccJQRsFb.s 			page 19


 1027 0020 FFF7FEBF 		b	chMtxLock
 1028              	.LVL89:
 1029              	.L125:
 1030              		.cfi_restore_state
 1031              	.LBE183:
 1032              	.LBE185:
 1033              		.loc 1 259 0 discriminator 2
 1034 0024 0348     		ldr	r0, .L127+4
 1035              	.LVL90:
 1036 0026 FFF7FEFF 		bl	chSysHalt
 1037              	.LVL91:
 1038 002a F0E7     		b	.L121
 1039              	.LVL92:
 1040              	.L126:
 1041              	.LBB186:
 1042              	.LBB184:
 1043              		.loc 2 861 0
 1044 002c FFF7FEFF 		bl	__stack_chk_fail
 1045              	.LVL93:
 1046              	.L128:
 1047              		.align	2
 1048              	.L127:
 1049 0030 00000000 		.word	__stack_chk_guard
 1050 0034 00000000 		.word	.LANCHOR6
 1051              	.LBE184:
 1052              	.LBE186:
 1053              		.cfi_endproc
 1054              	.LFE263:
 1055              		.size	i2cAcquireBus, .-i2cAcquireBus
 1056              		.section	.text.i2cReleaseBus,"ax",%progbits
 1057              		.align	1
 1058              		.p2align 4,,15
 1059              		.global	i2cReleaseBus
 1060              		.syntax unified
 1061              		.thumb
 1062              		.thumb_func
 1063              		.fpu fpv4-sp-d16
 1064              		.type	i2cReleaseBus, %function
 1065              	i2cReleaseBus:
 1066              	.LFB264:
 1067              		.loc 1 273 0
 1068              		.cfi_startproc
 1069              		@ args = 0, pretend = 0, frame = 8
 1070              		@ frame_needed = 0, uses_anonymous_args = 0
 1071              	.LVL94:
 1072 0000 30B5     		push	{r4, r5, lr}
 1073              		.cfi_def_cfa_offset 12
 1074              		.cfi_offset 4, -12
 1075              		.cfi_offset 5, -8
 1076              		.cfi_offset 14, -4
 1077 0002 0B4C     		ldr	r4, .L136
 1078 0004 83B0     		sub	sp, sp, #12
 1079              		.cfi_def_cfa_offset 24
 1080              		.loc 1 273 0
 1081 0006 2368     		ldr	r3, [r4]
 1082 0008 0193     		str	r3, [sp, #4]
 1083              		.loc 1 275 0
ARM GAS  /tmp/ccJQRsFb.s 			page 20


 1084 000a 0546     		mov	r5, r0
 1085 000c 50B1     		cbz	r0, .L134
 1086              	.LVL95:
 1087              	.L130:
 1088              	.LBB187:
 1089              	.LBB188:
 1090              		.loc 2 885 0
 1091 000e 019A     		ldr	r2, [sp, #4]
 1092 0010 2368     		ldr	r3, [r4]
 1093 0012 9A42     		cmp	r2, r3
 1094 0014 0AD1     		bne	.L135
 1095 0016 05F10C00 		add	r0, r5, #12
 1096              	.LVL96:
 1097              	.LBE188:
 1098              	.LBE187:
 1099              		.loc 1 278 0
 1100 001a 03B0     		add	sp, sp, #12
 1101              		.cfi_remember_state
 1102              		.cfi_def_cfa_offset 12
 1103              		@ sp needed
 1104 001c BDE83040 		pop	{r4, r5, lr}
 1105              		.cfi_restore 14
 1106              		.cfi_restore 5
 1107              		.cfi_restore 4
 1108              		.cfi_def_cfa_offset 0
 1109              	.LVL97:
 1110              	.LBB191:
 1111              	.LBB189:
 1112              		.loc 2 885 0
 1113 0020 FFF7FEBF 		b	chMtxUnlock
 1114              	.LVL98:
 1115              	.L134:
 1116              		.cfi_restore_state
 1117              	.LBE189:
 1118              	.LBE191:
 1119              		.loc 1 275 0 discriminator 2
 1120 0024 0348     		ldr	r0, .L136+4
 1121              	.LVL99:
 1122 0026 FFF7FEFF 		bl	chSysHalt
 1123              	.LVL100:
 1124 002a F0E7     		b	.L130
 1125              	.LVL101:
 1126              	.L135:
 1127              	.LBB192:
 1128              	.LBB190:
 1129              		.loc 2 885 0
 1130 002c FFF7FEFF 		bl	__stack_chk_fail
 1131              	.LVL102:
 1132              	.L137:
 1133              		.align	2
 1134              	.L136:
 1135 0030 00000000 		.word	__stack_chk_guard
 1136 0034 00000000 		.word	.LANCHOR7
 1137              	.LBE190:
 1138              	.LBE192:
 1139              		.cfi_endproc
 1140              	.LFE264:
ARM GAS  /tmp/ccJQRsFb.s 			page 21


 1141              		.size	i2cReleaseBus, .-i2cReleaseBus
 1142              		.section	.rodata.__func__.7153,"a",%progbits
 1143              		.align	2
 1144              		.set	.LANCHOR1,. + 0
 1145              		.type	__func__.7153, %object
 1146              		.size	__func__.7153, 12
 1147              	__func__.7153:
 1148 0000 63685379 		.ascii	"chSysUnlock\000"
 1148      73556E6C 
 1148      6F636B00 
 1149              		.section	.rodata.__func__.9849,"a",%progbits
 1150              		.align	2
 1151              		.set	.LANCHOR0,. + 0
 1152              		.type	__func__.9849, %object
 1153              		.size	__func__.9849, 9
 1154              	__func__.9849:
 1155 0000 69326353 		.ascii	"i2cStart\000"
 1155      74617274 
 1155      00
 1156              		.section	.rodata.__func__.9853,"a",%progbits
 1157              		.align	2
 1158              		.set	.LANCHOR2,. + 0
 1159              		.type	__func__.9853, %object
 1160              		.size	__func__.9853, 8
 1161              	__func__.9853:
 1162 0000 69326353 		.ascii	"i2cStop\000"
 1162      746F7000 
 1163              		.section	.rodata.__func__.9857,"a",%progbits
 1164              		.align	2
 1165              		.set	.LANCHOR3,. + 0
 1166              		.type	__func__.9857, %object
 1167              		.size	__func__.9857, 13
 1168              	__func__.9857:
 1169 0000 69326347 		.ascii	"i2cGetErrors\000"
 1169      65744572 
 1169      726F7273 
 1169      00
 1170              		.section	.rodata.__func__.9868,"a",%progbits
 1171              		.align	2
 1172              		.set	.LANCHOR4,. + 0
 1173              		.type	__func__.9868, %object
 1174              		.size	__func__.9868, 25
 1175              	__func__.9868:
 1176 0000 6932634D 		.ascii	"i2cMasterTransmitTimeout\000"
 1176      61737465 
 1176      72547261 
 1176      6E736D69 
 1176      7454696D 
 1177              		.section	.rodata.__func__.9877,"a",%progbits
 1178              		.align	2
 1179              		.set	.LANCHOR5,. + 0
 1180              		.type	__func__.9877, %object
 1181              		.size	__func__.9877, 24
 1182              	__func__.9877:
 1183 0000 6932634D 		.ascii	"i2cMasterReceiveTimeout\000"
 1183      61737465 
 1183      72526563 
ARM GAS  /tmp/ccJQRsFb.s 			page 22


 1183      65697665 
 1183      54696D65 
 1184              		.section	.rodata.__func__.9881,"a",%progbits
 1185              		.align	2
 1186              		.set	.LANCHOR6,. + 0
 1187              		.type	__func__.9881, %object
 1188              		.size	__func__.9881, 14
 1189              	__func__.9881:
 1190 0000 69326341 		.ascii	"i2cAcquireBus\000"
 1190      63717569 
 1190      72654275 
 1190      7300
 1191              		.section	.rodata.__func__.9885,"a",%progbits
 1192              		.align	2
 1193              		.set	.LANCHOR7,. + 0
 1194              		.type	__func__.9885, %object
 1195              		.size	__func__.9885, 14
 1196              	__func__.9885:
 1197 0000 69326352 		.ascii	"i2cReleaseBus\000"
 1197      656C6561 
 1197      73654275 
 1197      7300
 1198              		.text
 1199              	.Letext0:
 1200              		.file 5 "/home/leander/uos_codes/epuck2_lab/Eclipse_e-puck2/Tools/gcc-arm-none-eabi-7-2017-q4-majo
 1201              		.file 6 "/home/leander/uos_codes/epuck2_lab/Eclipse_e-puck2/Tools/gcc-arm-none-eabi-7-2017-q4-majo
 1202              		.file 7 "/home/leander/uos_codes/epuck2_lab/Eclipse_e-puck2/Tools/gcc-arm-none-eabi-7-2017-q4-majo
 1203              		.file 8 "../e-puck2_main-processor/ChibiOS//os/rt/ports/ARMCMx/compilers/GCC/chtypes.h"
 1204              		.file 9 "../e-puck2_main-processor/ChibiOS//os/rt/include/chsystypes.h"
 1205              		.file 10 "../e-puck2_main-processor/ChibiOS//os/rt/include/chschd.h"
 1206              		.file 11 "../e-puck2_main-processor/ChibiOS//os/ext/CMSIS/include/core_cm4.h"
 1207              		.file 12 "../e-puck2_main-processor/ChibiOS//os/ext/CMSIS/ST/system_stm32f4xx.h"
 1208              		.file 13 "../e-puck2_main-processor/ChibiOS//os/ext/CMSIS/ST/stm32f407xx.h"
 1209              		.file 14 "../e-puck2_main-processor/ChibiOS//os/rt/ports/ARMCMx/chcore.h"
 1210              		.file 15 "../e-puck2_main-processor/ChibiOS//os/rt/ports/ARMCMx/chcore_v7m.h"
 1211              		.file 16 "../e-puck2_main-processor/ChibiOS//os/rt/include/chdebug.h"
 1212              		.file 17 "../e-puck2_main-processor/ChibiOS//os/rt/include/chtm.h"
 1213              		.file 18 "../e-puck2_main-processor/ChibiOS//os/rt/include/chstats.h"
 1214              		.file 19 "../e-puck2_main-processor/ChibiOS//os/rt/include/chsem.h"
 1215              		.file 20 "../e-puck2_main-processor/ChibiOS//os/rt/include/chmtx.h"
 1216              		.file 21 "../e-puck2_main-processor/ChibiOS//os/rt/include/chregistry.h"
 1217              		.file 22 "../e-puck2_main-processor/ChibiOS//os/rt/include/chevents.h"
 1218              		.file 23 "../e-puck2_main-processor/ChibiOS//os/rt/include/chqueues.h"
 1219              		.file 24 "../e-puck2_main-processor/ChibiOS//os/hal/ports/STM32/STM32F4xx/stm32_dma.h"
 1220              		.file 25 "../e-puck2_main-processor/ChibiOS//os/hal/include/hal_ioblock.h"
 1221              		.file 26 "../e-puck2_main-processor/ChibiOS//os/hal/ports/STM32/LLD/GPIOv2/pal_lld.h"
 1222              		.file 27 "../e-puck2_main-processor/ChibiOS//os/hal/include/adc.h"
 1223              		.file 28 "../e-puck2_main-processor/ChibiOS//os/hal/ports/STM32/STM32F4xx/adc_lld.h"
 1224              		.file 29 "../e-puck2_main-processor/ChibiOS//os/hal/include/can.h"
 1225              		.file 30 "../e-puck2_main-processor/ChibiOS//os/hal/ports/STM32/LLD/can_lld.h"
 1226              		.file 31 "../e-puck2_main-processor/ChibiOS//os/hal/include/dac.h"
 1227              		.file 32 "../e-puck2_main-processor/ChibiOS//os/hal/ports/STM32/LLD/DACv1/dac_lld.h"
 1228              		.file 33 "../e-puck2_main-processor/ChibiOS//os/hal/include/ext.h"
 1229              		.file 34 "../e-puck2_main-processor/ChibiOS//os/hal/ports/STM32/LLD/ext_lld.h"
 1230              		.file 35 "../e-puck2_main-processor/ChibiOS//os/hal/include/gpt.h"
 1231              		.file 36 "../e-puck2_main-processor/ChibiOS//os/hal/ports/STM32/LLD/TIMv1/gpt_lld.h"
 1232              		.file 37 "../e-puck2_main-processor/ChibiOS//os/hal/ports/STM32/LLD/TIMv1/stm32_tim.h"
ARM GAS  /tmp/ccJQRsFb.s 			page 23


 1233              		.file 38 "../e-puck2_main-processor/ChibiOS//os/hal/include/i2c.h"
 1234              		.file 39 "../e-puck2_main-processor/ChibiOS//os/hal/ports/STM32/LLD/I2Cv1/i2c_lld.h"
 1235              		.file 40 "../e-puck2_main-processor/ChibiOS//os/hal/include/i2s.h"
 1236              		.file 41 "../e-puck2_main-processor/ChibiOS//os/hal/ports/STM32/LLD/SPIv1/i2s_lld.h"
 1237              		.file 42 "../e-puck2_main-processor/ChibiOS//os/hal/include/pwm.h"
 1238              		.file 43 "../e-puck2_main-processor/ChibiOS//os/hal/ports/STM32/LLD/TIMv1/pwm_lld.h"
 1239              		.file 44 "../e-puck2_main-processor/ChibiOS//os/hal/include/serial.h"
 1240              		.file 45 "../e-puck2_main-processor/ChibiOS//os/hal/ports/STM32/LLD/USARTv1/serial_lld.h"
 1241              		.file 46 "../e-puck2_main-processor/ChibiOS//os/hal/include/sdc.h"
 1242              		.file 47 "../e-puck2_main-processor/ChibiOS//os/hal/ports/STM32/LLD/sdc_lld.h"
 1243              		.file 48 "../e-puck2_main-processor/ChibiOS//os/hal/include/spi.h"
 1244              		.file 49 "../e-puck2_main-processor/ChibiOS//os/hal/ports/STM32/LLD/SPIv1/spi_lld.h"
 1245              		.file 50 "../e-puck2_main-processor/ChibiOS//os/hal/include/usb.h"
 1246              		.file 51 "../e-puck2_main-processor/ChibiOS//os/hal/ports/STM32/LLD/OTGv1/usb_lld.h"
 1247              		.file 52 "../e-puck2_main-processor/ChibiOS//os/hal/ports/STM32/LLD/OTGv1/stm32_otg.h"