ARM GAS  /tmp/ccgJwALp.s 			page 1


   1              		.cpu cortex-m4
   2              		.eabi_attribute 27, 1
   3              		.eabi_attribute 28, 1
   4              		.eabi_attribute 20, 1
   5              		.eabi_attribute 21, 1
   6              		.eabi_attribute 23, 3
   7              		.eabi_attribute 24, 1
   8              		.eabi_attribute 25, 1
   9              		.eabi_attribute 26, 1
  10              		.eabi_attribute 30, 2
  11              		.eabi_attribute 34, 1
  12              		.eabi_attribute 18, 4
  13              		.file	"imu.c"
  14              		.text
  15              	.Ltext0:
  16              		.cfi_sections	.debug_frame
  17              		.section	.text.imu_reader_thd,"ax",%progbits
  18              		.align	1
  19              		.p2align 4,,15
  20              		.syntax unified
  21              		.thumb
  22              		.thumb_func
  23              		.fpu fpv4-sp-d16
  24              		.type	imu_reader_thd, %function
  25              	imu_reader_thd:
  26              	.LFB257:
  27              		.file 1 "../e-puck2_main-processor/src/sensors/imu.c"
  28              		.loc 1 36 0
  29              		.cfi_startproc
  30              		@ args = 0, pretend = 0, frame = 152
  31              		@ frame_needed = 0, uses_anonymous_args = 0
  32              	.LVL0:
  33 0000 2DE9F04F 		push	{r4, r5, r6, r7, r8, r9, r10, fp, lr}
  34              		.cfi_def_cfa_offset 36
  35              		.cfi_offset 4, -36
  36              		.cfi_offset 5, -32
  37              		.cfi_offset 6, -28
  38              		.cfi_offset 7, -24
  39              		.cfi_offset 8, -20
  40              		.cfi_offset 9, -16
  41              		.cfi_offset 10, -12
  42              		.cfi_offset 11, -8
  43              		.cfi_offset 14, -4
  44              	.LBB72:
  45              	.LBB73:
  46              		.file 2 "../e-puck2_main-processor/ChibiOS//os/rt/include/chregistry.h"
  47              		.loc 2 135 0
  48 0004 B94C     		ldr	r4, .L55
  49 0006 BA4A     		ldr	r2, .L55+4
  50 0008 A369     		ldr	r3, [r4, #24]
  51              	.LBE73:
  52              	.LBE72:
  53              		.loc 1 51 0
  54 000a BA4D     		ldr	r5, .L55+8
  55              		.loc 1 36 0
  56 000c 2DED088B 		vpush.64	{d8, d9, d10, d11}
  57              		.cfi_def_cfa_offset 68
ARM GAS  /tmp/ccgJwALp.s 			page 2


  58              		.cfi_offset 80, -68
  59              		.cfi_offset 81, -64
  60              		.cfi_offset 82, -60
  61              		.cfi_offset 83, -56
  62              		.cfi_offset 84, -52
  63              		.cfi_offset 85, -48
  64              		.cfi_offset 86, -44
  65              		.cfi_offset 87, -40
  66              	.LBB75:
  67              	.LBB74:
  68              		.loc 2 135 0
  69 0010 9A61     		str	r2, [r3, #24]
  70              	.LBE74:
  71              	.LBE75:
  72              		.loc 1 36 0
  73 0012 B94A     		ldr	r2, .L55+12
  74 0014 ADB0     		sub	sp, sp, #180
  75              		.cfi_def_cfa_offset 248
  76              		.loc 1 36 0
  77 0016 1068     		ldr	r0, [r2]
  78              	.LVL1:
  79 0018 2B90     		str	r0, [sp, #172]
  80              		.loc 1 49 0
  81 001a 0FAF     		add	r7, sp, #60
  82              		.loc 1 50 0
  83 001c 0DAE     		add	r6, sp, #52
  84              		.loc 1 51 0
  85 001e 7423     		movs	r3, #116
  86 0020 3946     		mov	r1, r7
  87 0022 3246     		mov	r2, r6
  88 0024 0093     		str	r3, [sp]
  89 0026 14A8     		add	r0, sp, #80
  90 0028 2B46     		mov	r3, r5
  91              		.loc 1 49 0
  92 002a CDE90F77 		strd	r7, r7, [sp, #60]
  93 002e 0027     		movs	r7, #0
  94              		.loc 1 50 0
  95 0030 CDE90D66 		strd	r6, r6, [sp, #52]
  96              		.loc 1 49 0
  97 0034 CDE91177 		strd	r7, r7, [sp, #68]
  98 0038 1397     		str	r7, [sp, #76]
  99              		.loc 1 51 0
 100 003a FFF7FEFF 		bl	messagebus_topic_init
 101              	.LVL2:
 102              		.loc 1 52 0
 103 003e 14A9     		add	r1, sp, #80
 104 0040 AE4A     		ldr	r2, .L55+16
 105 0042 AF48     		ldr	r0, .L55+20
 106              		.loc 1 67 0
 107 0044 AF4F     		ldr	r7, .L55+24
 108              		.loc 1 70 0
 109 0046 B04E     		ldr	r6, .L55+28
 110              		.loc 1 52 0
 111 0048 FFF7FEFF 		bl	messagebus_advertise_topic
 112              	.LVL3:
 113              		.loc 1 65 0
 114 004c AF49     		ldr	r1, .L55+32
ARM GAS  /tmp/ccgJwALp.s 			page 3


 115              		.loc 1 66 0
 116 004e B04A     		ldr	r2, .L55+36
 117              		.loc 1 68 0
 118 0050 B04B     		ldr	r3, .L55+40
 119              		.loc 1 65 0
 120 0052 2965     		str	r1, [r5, #80]	@ float
 121              		.loc 1 66 0
 122 0054 6A65     		str	r2, [r5, #84]	@ float
 123              		.loc 1 67 0
 124 0056 AF65     		str	r7, [r5, #88]	@ float
 125              		.loc 1 68 0
 126 0058 EB65     		str	r3, [r5, #92]	@ float
 127              		.loc 1 69 0
 128 005a AF4F     		ldr	r7, .L55+44
 129              		.loc 1 71 0
 130 005c AF48     		ldr	r0, .L55+48
 131              		.loc 1 72 0
 132 005e B049     		ldr	r1, .L55+52
 133              		.loc 1 73 0
 134 0060 B04A     		ldr	r2, .L55+56
 135              	.LBB76:
 136              	.LBB77:
 137              		.file 3 "../e-puck2_main-processor/ChibiOS//os/rt/include/chthreads.h"
 138              		.loc 3 233 0
 139 0062 A369     		ldr	r3, [r4, #24]
 140              	.LBE77:
 141              	.LBE76:
 142              		.loc 1 69 0
 143 0064 2F66     		str	r7, [r5, #96]	@ float
 144              		.loc 1 70 0
 145 0066 6E66     		str	r6, [r5, #100]	@ float
 146              		.loc 1 71 0
 147 0068 A866     		str	r0, [r5, #104]	@ float
 148              		.loc 1 72 0
 149 006a E966     		str	r1, [r5, #108]	@ float
 150              		.loc 1 73 0
 151 006c 2A67     		str	r2, [r5, #112]	@ float
 152              		.loc 1 75 0
 153 006e 93F82170 		ldrb	r7, [r3, #33]	@ zero_extendqisi2
 154 0072 17F00407 		ands	r7, r7, #4
 155 0076 40F00281 		bne	.L1
 156              		.loc 1 61 0
 157 007a 9FEDAB8A 		vldr.32	s16, .L55+60
 158 007e DFF8D0B2 		ldr	fp, .L55+100
 159 0082 DFF8D092 		ldr	r9, .L55+104
 160 0086 DFF8D082 		ldr	r8, .L55+108
 161 008a DFF8D0A2 		ldr	r10, .L55+112
 162              		.loc 1 54 0
 163 008e 0697     		str	r7, [sp, #24]
 164              		.loc 1 57 0
 165 0090 CDE90977 		strd	r7, r7, [sp, #36]
 166              		.loc 1 55 0
 167 0094 CDE90777 		strd	r7, r7, [sp, #28]
 168              		.loc 1 85 0
 169 0098 05F13403 		add	r3, r5, #52
 170              		.loc 1 61 0
 171 009c B0EE48BA 		vmov.f32	s22, s16
ARM GAS  /tmp/ccgJwALp.s 			page 4


 172 00a0 F0EE48AA 		vmov.f32	s21, s16
 173              		.loc 1 60 0
 174 00a4 B0EE48AA 		vmov.f32	s20, s16
 175 00a8 F0EE489A 		vmov.f32	s19, s16
 176 00ac B0EE489A 		vmov.f32	s18, s16
 177              		.loc 1 145 0
 178 00b0 F0EE488A 		vmov.f32	s17, s16
 179              		.loc 1 85 0
 180 00b4 0B93     		str	r3, [sp, #44]
 181              	.LVL4:
 182              	.L26:
 183              	.LBB79:
 184              	.LBB80:
 185              	.LBB81:
 186              	.LBB82:
 187              	.LBB83:
 188              	.LBB84:
 189              	.LBB85:
 190              		.file 4 "../e-puck2_main-processor/ChibiOS//os/ext/CMSIS/include/core_cmFunc.h"
 191              		.loc 4 546 0
 192 00b6 2023     		movs	r3, #32
 193              		.syntax unified
 194              	@ 546 "../e-puck2_main-processor/ChibiOS//os/ext/CMSIS/include/core_cmFunc.h" 1
 195 00b8 83F31188 		MSR basepri, r3
 196              	@ 0 "" 2
 197              	.LVL5:
 198              		.thumb
 199              		.syntax unified
 200              	.LBE85:
 201              	.LBE84:
 202              	.LBE83:
 203              		.file 5 "../e-puck2_main-processor/ChibiOS//os/rt/include/chsys.h"
 204              		.loc 5 349 0
 205 00bc FFF7FEFF 		bl	_stats_start_measure_crit_thd
 206              	.LVL6:
 207              		.loc 5 350 0
 208 00c0 FFF7FEFF 		bl	_dbg_check_lock
 209              	.LVL7:
 210              	.LBE82:
 211              	.LBE81:
 212              	.LBB86:
 213              	.LBB87:
 214              		.file 6 "../e-puck2_main-processor/ChibiOS//os/rt/include/chvt.h"
 215              		.loc 6 231 0
 216 00c4 A66A     		ldr	r6, [r4, #40]
 217              	.LBE87:
 218              	.LBE86:
 219              	.LBB88:
 220              	.LBB89:
 221              		.loc 5 360 0
 222 00c6 FFF7FEFF 		bl	_dbg_check_unlock
 223              	.LVL8:
 224              		.loc 5 361 0
 225 00ca FFF7FEFF 		bl	_stats_stop_measure_crit_thd
 226              	.LVL9:
 227              		.loc 5 367 0
 228 00ce 2368     		ldr	r3, [r4]
ARM GAS  /tmp/ccgJwALp.s 			page 5


 229 00d0 A342     		cmp	r3, r4
 230 00d2 07D0     		beq	.L3
 231 00d4 A269     		ldr	r2, [r4, #24]
 232 00d6 9B68     		ldr	r3, [r3, #8]
 233 00d8 9268     		ldr	r2, [r2, #8]
 234 00da 9A42     		cmp	r2, r3
 235 00dc 02D2     		bcs	.L3
 236 00de 9348     		ldr	r0, .L55+64
 237 00e0 FFF7FEFF 		bl	chSysHalt
 238              	.LVL10:
 239              	.L3:
 240              	.LBB90:
 241              	.LBB91:
 242              	.LBB92:
 243              		.loc 4 546 0
 244 00e4 0023     		movs	r3, #0
 245              		.syntax unified
 246              	@ 546 "../e-puck2_main-processor/ChibiOS//os/ext/CMSIS/include/core_cmFunc.h" 1
 247 00e6 83F31188 		MSR basepri, r3
 248              	@ 0 "" 2
 249              	.LVL11:
 250              		.thumb
 251              		.syntax unified
 252              	.LBE92:
 253              	.LBE91:
 254              	.LBE90:
 255              	.LBE89:
 256              	.LBE88:
 257              	.LBE80:
 258              	.LBE79:
 259              		.loc 1 83 0
 260 00ea 9BF80030 		ldrb	r3, [fp]	@ zero_extendqisi2
 261 00ee 002B     		cmp	r3, #0
 262 00f0 40F0D080 		bne	.L51
 263              	.L4:
 264              		.loc 1 92 0
 265 00f4 7422     		movs	r2, #116
 266 00f6 7F49     		ldr	r1, .L55+8
 267 00f8 14A8     		add	r0, sp, #80
 268 00fa FFF7FEFF 		bl	messagebus_topic_publish
 269              	.LVL12:
 270              		.loc 1 94 0
 271 00fe 99F80030 		ldrb	r3, [r9]	@ zero_extendqisi2
 272 0102 C3B1     		cbz	r3, .L5
 273              		.loc 1 95 0
 274 0104 8A4A     		ldr	r2, .L55+68
 275 0106 1378     		ldrb	r3, [r2]	@ zero_extendqisi2
 276 0108 002B     		cmp	r3, #0
 277 010a 00F0DA80 		beq	.L6
 278 010e 012B     		cmp	r3, #1
 279 0110 11D1     		bne	.L5
 280              		.loc 1 104 0
 281 0112 884B     		ldr	r3, .L55+72
 282              		.loc 1 105 0
 283 0114 0698     		ldr	r0, [sp, #24]
 284              		.loc 1 104 0
 285 0116 1B78     		ldrb	r3, [r3]	@ zero_extendqisi2
ARM GAS  /tmp/ccgJwALp.s 			page 6


 286              		.loc 1 106 0
 287 0118 874A     		ldr	r2, .L55+76
 288              		.loc 1 104 0
 289 011a 03F11401 		add	r1, r3, #20
 290              		.loc 1 106 0
 291 011e 1278     		ldrb	r2, [r2]	@ zero_extendqisi2
 292              		.loc 1 104 0
 293 0120 35F911C0 		ldrsh	ip, [r5, r1, lsl #1]
 294 0124 0799     		ldr	r1, [sp, #28]
 295              		.loc 1 105 0
 296 0126 0130     		adds	r0, r0, #1
 297 0128 C0B2     		uxtb	r0, r0
 298              		.loc 1 104 0
 299 012a 6144     		add	r1, r1, ip
 300              		.loc 1 106 0
 301 012c 8242     		cmp	r2, r0
 302              		.loc 1 105 0
 303 012e 0690     		str	r0, [sp, #24]
 304              	.LVL13:
 305              		.loc 1 104 0
 306 0130 0791     		str	r1, [sp, #28]
 307              	.LVL14:
 308              		.loc 1 106 0
 309 0132 00F04D81 		beq	.L52
 310              	.LVL15:
 311              	.L5:
 312              		.loc 1 118 0
 313 0136 98F80030 		ldrb	r3, [r8]	@ zero_extendqisi2
 314 013a C3B1     		cbz	r3, .L8
 315              		.loc 1 119 0
 316 013c 7F4A     		ldr	r2, .L55+80
 317 013e 1378     		ldrb	r3, [r2]	@ zero_extendqisi2
 318 0140 002B     		cmp	r3, #0
 319 0142 00F0C880 		beq	.L9
 320 0146 012B     		cmp	r3, #1
 321 0148 11D1     		bne	.L8
 322              		.loc 1 128 0
 323 014a 7D4B     		ldr	r3, .L55+84
 324              		.loc 1 129 0
 325 014c 0898     		ldr	r0, [sp, #32]
 326              		.loc 1 128 0
 327 014e 1B78     		ldrb	r3, [r3]	@ zero_extendqisi2
 328              		.loc 1 130 0
 329 0150 7C4A     		ldr	r2, .L55+88
 330              		.loc 1 128 0
 331 0152 05EB4301 		add	r1, r5, r3, lsl #1
 332              		.loc 1 130 0
 333 0156 1278     		ldrb	r2, [r2]	@ zero_extendqisi2
 334              		.loc 1 128 0
 335 0158 B1F92EC0 		ldrsh	ip, [r1, #46]
 336 015c 0999     		ldr	r1, [sp, #36]
 337              		.loc 1 129 0
 338 015e 0130     		adds	r0, r0, #1
 339 0160 C0B2     		uxtb	r0, r0
 340              		.loc 1 128 0
 341 0162 6144     		add	r1, r1, ip
 342              		.loc 1 130 0
ARM GAS  /tmp/ccgJwALp.s 			page 7


 343 0164 8242     		cmp	r2, r0
 344              		.loc 1 129 0
 345 0166 0890     		str	r0, [sp, #32]
 346              	.LVL16:
 347              		.loc 1 128 0
 348 0168 0991     		str	r1, [sp, #36]
 349              	.LVL17:
 350              		.loc 1 130 0
 351 016a 00F01A81 		beq	.L53
 352              	.LVL18:
 353              	.L8:
 354              		.loc 1 142 0
 355 016e 9AF80030 		ldrb	r3, [r10]	@ zero_extendqisi2
 356 0172 002B     		cmp	r3, #0
 357 0174 79D0     		beq	.L11
 358              		.loc 1 143 0
 359 0176 744A     		ldr	r2, .L55+92
 360 0178 1378     		ldrb	r3, [r2]	@ zero_extendqisi2
 361 017a 002B     		cmp	r3, #0
 362 017c 00F0F480 		beq	.L12
 363 0180 012B     		cmp	r3, #1
 364 0182 72D1     		bne	.L11
 365              		.loc 1 155 0
 366 0184 0137     		adds	r7, r7, #1
 367              	.LVL19:
 368 0186 FFB2     		uxtb	r7, r7
 369              	.LVL20:
 370              		.loc 1 156 0
 371 0188 222F     		cmp	r7, #34
 372 018a 6ED9     		bls	.L11
 373              	.LVL21:
 374              		.loc 1 158 0
 375 018c D5ED076A 		vldr.32	s13, [r5, #28]
 376              		.loc 1 164 0
 377 0190 95ED087A 		vldr.32	s14, [r5, #32]
 378              		.loc 1 170 0
 379 0194 D5ED097A 		vldr.32	s15, [r5, #36]
 380              		.loc 1 179 0
 381 0198 0A9B     		ldr	r3, [sp, #40]
 382              		.loc 1 159 0
 383 019a F4EE696A 		vcmp.f32	s13, s19
 384 019e F1EE10FA 		vmrs	APSR_nzcv, FPSCR
 385              		.loc 1 162 0
 386 01a2 F4EE6A6A 		vcmp.f32	s13, s21
 387              		.loc 1 159 0
 388 01a6 48BF     		it	mi
 389 01a8 F0EE669A 		vmovmi.f32	s19, s13
 390              	.LVL22:
 391              		.loc 1 162 0
 392 01ac F1EE10FA 		vmrs	APSR_nzcv, FPSCR
 393              		.loc 1 165 0
 394 01b0 B4EE4A7A 		vcmp.f32	s14, s20
 395              		.loc 1 162 0
 396 01b4 C8BF     		it	gt
 397 01b6 F0EE66AA 		vmovgt.f32	s21, s13
 398              	.LVL23:
 399              		.loc 1 165 0
ARM GAS  /tmp/ccgJwALp.s 			page 8


 400 01ba F1EE10FA 		vmrs	APSR_nzcv, FPSCR
 401              		.loc 1 168 0
 402 01be B4EE4B7A 		vcmp.f32	s14, s22
 403              		.loc 1 165 0
 404 01c2 48BF     		it	mi
 405 01c4 B0EE47AA 		vmovmi.f32	s20, s14
 406              	.LVL24:
 407              		.loc 1 168 0
 408 01c8 F1EE10FA 		vmrs	APSR_nzcv, FPSCR
 409              		.loc 1 171 0
 410 01cc F4EE497A 		vcmp.f32	s15, s18
 411              		.loc 1 179 0
 412 01d0 03F10103 		add	r3, r3, #1
 413              		.loc 1 168 0
 414 01d4 C8BF     		it	gt
 415 01d6 B0EE47BA 		vmovgt.f32	s22, s14
 416              	.LVL25:
 417              		.loc 1 171 0
 418 01da F1EE10FA 		vmrs	APSR_nzcv, FPSCR
 419              		.loc 1 174 0
 420 01de F4EE487A 		vcmp.f32	s15, s16
 421              		.loc 1 179 0
 422 01e2 DBB2     		uxtb	r3, r3
 423              		.loc 1 171 0
 424 01e4 48BF     		it	mi
 425 01e6 B0EE679A 		vmovmi.f32	s18, s15
 426              	.LVL26:
 427              		.loc 1 174 0
 428 01ea F1EE10FA 		vmrs	APSR_nzcv, FPSCR
 429 01ee C8BF     		it	gt
 430 01f0 B0EE678A 		vmovgt.f32	s16, s15
 431              	.LVL27:
 432              		.loc 1 180 0
 433 01f4 312B     		cmp	r3, #49
 434              		.loc 1 179 0
 435 01f6 0A93     		str	r3, [sp, #40]
 436              		.loc 1 180 0
 437 01f8 40F20381 		bls	.L28
 438              	.LBB93:
 439              		.loc 1 192 0
 440 01fc 3AEEE96A 		vsub.f32	s12, s21, s19
 441              		.loc 1 193 0
 442 0200 7BEE4A6A 		vsub.f32	s13, s22, s20
 443              		.loc 1 185 0
 444 0204 F6EE007A 		vmov.f32	s15, #5.0e-1
 445              		.loc 1 192 0
 446 0208 26EE276A 		vmul.f32	s12, s12, s15
 447              		.loc 1 193 0
 448 020c 66EEA76A 		vmul.f32	s13, s13, s15
 449              		.loc 1 194 0
 450 0210 38EE497A 		vsub.f32	s14, s16, s18
 451              		.loc 1 195 0
 452 0214 76EE265A 		vadd.f32	s11, s12, s13
 453              		.loc 1 194 0
 454 0218 27EE277A 		vmul.f32	s14, s14, s15
 455              		.loc 1 195 0
 456 021c B0EE084A 		vmov.f32	s8, #3.0e+0
ARM GAS  /tmp/ccgJwALp.s 			page 9


 457 0220 75EE875A 		vadd.f32	s11, s11, s14
 458              		.loc 1 185 0
 459 0224 39EEAA5A 		vadd.f32	s10, s19, s21
 460              		.loc 1 195 0
 461 0228 C5EE844A 		vdiv.f32	s9, s11, s8
 462              	.LVL28:
 463              		.loc 1 202 0
 464 022c 0027     		movs	r7, #0
 465 022e 8AF80070 		strb	r7, [r10]
 466              		.loc 1 186 0
 467 0232 7AEE0B5A 		vadd.f32	s11, s20, s22
 468              		.loc 1 196 0
 469 0236 84EE863A 		vdiv.f32	s6, s9, s12
 470              		.loc 1 197 0
 471 023a C4EEA63A 		vdiv.f32	s7, s9, s13
 472              		.loc 1 198 0
 473 023e 84EE874A 		vdiv.f32	s8, s9, s14
 474              		.loc 1 187 0
 475 0242 39EE087A 		vadd.f32	s14, s18, s16
 476              		.loc 1 185 0
 477 0246 25EE276A 		vmul.f32	s12, s10, s15
 478              		.loc 1 186 0
 479 024a 65EEA76A 		vmul.f32	s13, s11, s15
 480              		.loc 1 187 0
 481 024e 67EE277A 		vmul.f32	s15, s14, s15
 482              		.loc 1 196 0
 483 0252 85ED1A3A 		vstr.32	s6, [r5, #104]
 484              		.loc 1 197 0
 485 0256 C5ED1B3A 		vstr.32	s7, [r5, #108]
 486              		.loc 1 198 0
 487 025a 85ED1C4A 		vstr.32	s8, [r5, #112]
 488              		.loc 1 185 0
 489 025e 85ED176A 		vstr.32	s12, [r5, #92]
 490              		.loc 1 186 0
 491 0262 C5ED186A 		vstr.32	s13, [r5, #96]
 492              		.loc 1 187 0
 493 0266 C5ED197A 		vstr.32	s15, [r5, #100]
 494              	.LVL29:
 495              	.L11:
 496              	.LBE93:
 497              		.loc 1 209 0
 498 026a 311D     		adds	r1, r6, #4
 499 026c 3046     		mov	r0, r6
 500 026e FFF7FEFF 		bl	chThdSleepUntilWindowed
 501              	.LVL30:
 502              	.LBB94:
 503              	.LBB78:
 504              		.loc 3 233 0
 505 0272 A369     		ldr	r3, [r4, #24]
 506              	.LBE78:
 507              	.LBE94:
 508              		.loc 1 75 0
 509 0274 93F82130 		ldrb	r3, [r3, #33]	@ zero_extendqisi2
 510 0278 5B07     		lsls	r3, r3, #29
 511 027a 7FF51CAF 		bpl	.L26
 512              	.LVL31:
 513              	.L1:
ARM GAS  /tmp/ccgJwALp.s 			page 10


 514              		.loc 1 212 0
 515 027e 1E4B     		ldr	r3, .L55+12
 516 0280 2B9A     		ldr	r2, [sp, #172]
 517 0282 1B68     		ldr	r3, [r3]
 518 0284 9A42     		cmp	r2, r3
 519 0286 40F0BE80 		bne	.L54
 520 028a 2DB0     		add	sp, sp, #180
 521              		.cfi_remember_state
 522              		.cfi_def_cfa_offset 68
 523              		@ sp needed
 524 028c BDEC088B 		vldm	sp!, {d8-d11}
 525              		.cfi_restore 86
 526              		.cfi_restore 87
 527              		.cfi_restore 84
 528              		.cfi_restore 85
 529              		.cfi_restore 82
 530              		.cfi_restore 83
 531              		.cfi_restore 80
 532              		.cfi_restore 81
 533              		.cfi_def_cfa_offset 36
 534 0290 BDE8F08F 		pop	{r4, r5, r6, r7, r8, r9, r10, fp, pc}
 535              	.LVL32:
 536              	.L51:
 537              		.cfi_restore_state
 538              		.loc 1 85 0
 539 0294 2D48     		ldr	r0, .L55+96
 540 0296 0B99     		ldr	r1, [sp, #44]
 541 0298 00F11203 		add	r3, r0, #18
 542 029c A0F11202 		sub	r2, r0, #18
 543 02a0 0493     		str	r3, [sp, #16]
 544 02a2 A0F10C03 		sub	r3, r0, #12
 545 02a6 CDE90201 		strd	r0, r1, [sp, #8]
 546 02aa CDE90032 		strd	r3, r2, [sp]
 547 02ae A0F13A01 		sub	r1, r0, #58
 548 02b2 A0F11E03 		sub	r3, r0, #30
 549 02b6 A0F12202 		sub	r2, r0, #34
 550 02ba 2E38     		subs	r0, r0, #46
 551 02bc FFF7FEFF 		bl	mpu9250_read
 552              	.LVL33:
 553 02c0 18E7     		b	.L4
 554              	.L6:
 555              		.loc 1 97 0
 556 02c2 1C49     		ldr	r1, .L55+72
 557              		.loc 1 98 0
 558 02c4 0793     		str	r3, [sp, #28]
 559              	.LVL34:
 560              		.loc 1 97 0
 561 02c6 0978     		ldrb	r1, [r1]	@ zero_extendqisi2
 562              		.loc 1 99 0
 563 02c8 0693     		str	r3, [sp, #24]
 564              	.LVL35:
 565              		.loc 1 97 0
 566 02ca 05EB4101 		add	r1, r5, r1, lsl #1
 567              		.loc 1 100 0
 568 02ce 0120     		movs	r0, #1
 569              		.loc 1 97 0
 570 02d0 8B86     		strh	r3, [r1, #52]	@ movhi
ARM GAS  /tmp/ccgJwALp.s 			page 11


 571              	.LVL36:
 572              		.loc 1 100 0
 573 02d2 1070     		strb	r0, [r2]
 574              		.loc 1 101 0
 575 02d4 2FE7     		b	.L5
 576              	.LVL37:
 577              	.L9:
 578              		.loc 1 121 0
 579 02d6 1A49     		ldr	r1, .L55+84
 580              		.loc 1 122 0
 581 02d8 0993     		str	r3, [sp, #36]
 582              	.LVL38:
 583              		.loc 1 121 0
 584 02da 0978     		ldrb	r1, [r1]	@ zero_extendqisi2
 585              		.loc 1 123 0
 586 02dc 0893     		str	r3, [sp, #32]
 587              	.LVL39:
 588              		.loc 1 121 0
 589 02de 05EB4101 		add	r1, r5, r1, lsl #1
 590              		.loc 1 124 0
 591 02e2 0120     		movs	r0, #1
 592              		.loc 1 121 0
 593 02e4 4B87     		strh	r3, [r1, #58]	@ movhi
 594              	.LVL40:
 595              		.loc 1 124 0
 596 02e6 1070     		strb	r0, [r2]
 597              		.loc 1 125 0
 598 02e8 41E7     		b	.L8
 599              	.L56:
 600 02ea 00BF     		.align	2
 601              	.L55:
 602 02ec 00000000 		.word	ch
 603 02f0 00000000 		.word	.LANCHOR0
 604 02f4 00000000 		.word	.LANCHOR1
 605 02f8 00000000 		.word	__stack_chk_guard
 606 02fc 00000000 		.word	.LC0
 607 0300 00000000 		.word	bus
 608 0304 C3F5B83F 		.word	1069086147
 609 0308 00003B43 		.word	1127940096
 610 030c AAF1923F 		.word	1066594730
 611 0310 7F6A8C3F 		.word	1066166911
 612 0314 00001442 		.word	1108606976
 613 0318 000060C0 		.word	-1067450368
 614 031c 3D0AB73F 		.word	1068960317
 615 0320 A4707D3F 		.word	1065185444
 616 0324 B81E453F 		.word	1061494456
 617 0328 00000000 		.word	0
 618 032c 00000000 		.word	.LANCHOR2
 619 0330 00000000 		.word	.LANCHOR5
 620 0334 00000000 		.word	.LANCHOR6
 621 0338 00000000 		.word	.LANCHOR7
 622 033c 00000000 		.word	.LANCHOR10
 623 0340 00000000 		.word	.LANCHOR11
 624 0344 00000000 		.word	.LANCHOR12
 625 0348 00000000 		.word	.LANCHOR15
 626 034c 3A000000 		.word	.LANCHOR1+58
 627 0350 00000000 		.word	.LANCHOR3
ARM GAS  /tmp/ccgJwALp.s 			page 12


 628 0354 00000000 		.word	.LANCHOR4
 629 0358 00000000 		.word	.LANCHOR9
 630 035c 00000000 		.word	.LANCHOR14
 631 0360 008099C5 		.word	3315171328
 632 0364 00809945 		.word	1167687680
 633              	.LVL41:
 634              	.L12:
 635              		.loc 1 149 0
 636 0368 1FED038A 		vldr.32	s16, .L55+116
 637              	.LVL42:
 638              		.loc 1 148 0
 639 036c 1FED039A 		vldr.32	s18, .L55+120
 640              	.LVL43:
 641              		.loc 1 145 0
 642 0370 C5ED198A 		vstr.32	s17, [r5, #100]
 643              		.loc 1 151 0
 644 0374 0121     		movs	r1, #1
 645              		.loc 1 145 0
 646 0376 C5ED188A 		vstr.32	s17, [r5, #96]
 647 037a C5ED178A 		vstr.32	s17, [r5, #92]
 648              		.loc 1 146 0
 649 037e C5ED1C8A 		vstr.32	s17, [r5, #112]
 650 0382 C5ED1B8A 		vstr.32	s17, [r5, #108]
 651 0386 C5ED1A8A 		vstr.32	s17, [r5, #104]
 652              	.LVL44:
 653              		.loc 1 147 0
 654 038a 0A93     		str	r3, [sp, #40]
 655              		.loc 1 149 0
 656 038c B0EE48BA 		vmov.f32	s22, s16
 657 0390 F0EE48AA 		vmov.f32	s21, s16
 658              		.loc 1 148 0
 659 0394 B0EE49AA 		vmov.f32	s20, s18
 660 0398 F0EE499A 		vmov.f32	s19, s18
 661              		.loc 1 151 0
 662 039c 1170     		strb	r1, [r2]
 663              		.loc 1 150 0
 664 039e 2327     		movs	r7, #35
 665              		.loc 1 152 0
 666 03a0 63E7     		b	.L11
 667              	.LVL45:
 668              	.L53:
 669              		.loc 1 131 0
 670 03a2 0A46     		mov	r2, r1
 671 03a4 92FBF0F2 		sdiv	r2, r2, r0
 672              		.loc 1 133 0
 673 03a8 1848     		ldr	r0, .L57
 674              	.LVL46:
 675 03aa 90F800E0 		ldrb	lr, [r0]	@ zero_extendqisi2
 676              		.loc 1 131 0
 677 03ae 05EB4301 		add	r1, r5, r3, lsl #1
 678              	.LVL47:
 679 03b2 12B2     		sxth	r2, r2
 680              		.loc 1 132 0
 681 03b4 4FF0000C 		mov	ip, #0
 682              		.loc 1 133 0
 683 03b8 BEF1010F 		cmp	lr, #1
 684              		.loc 1 131 0
ARM GAS  /tmp/ccgJwALp.s 			page 13


 685 03bc A1F84620 		strh	r2, [r1, #70]	@ movhi
 686              		.loc 1 132 0
 687 03c0 88F800C0 		strb	ip, [r8]
 688              		.loc 1 133 0
 689 03c4 7FF4D3AE 		bne	.L8
 690              		.loc 1 135 0
 691 03c8 80F800C0 		strb	ip, [r0]
 692              		.loc 1 134 0
 693 03cc 4A87     		strh	r2, [r1, #58]	@ movhi
 694 03ce CEE6     		b	.L8
 695              	.LVL48:
 696              	.L52:
 697              		.loc 1 107 0
 698 03d0 0A46     		mov	r2, r1
 699 03d2 92FBF0F2 		sdiv	r2, r2, r0
 700              		.loc 1 109 0
 701 03d6 0E48     		ldr	r0, .L57+4
 702              	.LVL49:
 703 03d8 90F800E0 		ldrb	lr, [r0]	@ zero_extendqisi2
 704              		.loc 1 107 0
 705 03dc 03F12001 		add	r1, r3, #32
 706              	.LVL50:
 707 03e0 12B2     		sxth	r2, r2
 708              		.loc 1 108 0
 709 03e2 4FF0000C 		mov	ip, #0
 710              		.loc 1 109 0
 711 03e6 BEF1010F 		cmp	lr, #1
 712              		.loc 1 107 0
 713 03ea 25F81120 		strh	r2, [r5, r1, lsl #1]	@ movhi
 714              		.loc 1 108 0
 715 03ee 89F800C0 		strb	ip, [r9]
 716              		.loc 1 109 0
 717 03f2 7FF4A0AE 		bne	.L5
 718              		.loc 1 110 0
 719 03f6 05EB4303 		add	r3, r5, r3, lsl #1
 720              		.loc 1 111 0
 721 03fa 80F800C0 		strb	ip, [r0]
 722              		.loc 1 110 0
 723 03fe 9A86     		strh	r2, [r3, #52]	@ movhi
 724 0400 99E6     		b	.L5
 725              	.LVL51:
 726              	.L28:
 727              		.loc 1 157 0
 728 0402 0027     		movs	r7, #0
 729 0404 31E7     		b	.L11
 730              	.LVL52:
 731              	.L54:
 732              		.loc 1 212 0
 733 0406 FFF7FEFF 		bl	__stack_chk_fail
 734              	.LVL53:
 735              	.L58:
 736 040a 00BF     		.align	2
 737              	.L57:
 738 040c 00000000 		.word	.LANCHOR13
 739 0410 00000000 		.word	.LANCHOR8
 740              		.cfi_endproc
 741              	.LFE257:
ARM GAS  /tmp/ccgJwALp.s 			page 14


 742              		.size	imu_reader_thd, .-imu_reader_thd
 743              		.section	.text.get_acc_filtered.part.0,"ax",%progbits
 744              		.align	1
 745              		.p2align 4,,15
 746              		.syntax unified
 747              		.thumb
 748              		.thumb_func
 749              		.fpu fpv4-sp-d16
 750              		.type	get_acc_filtered.part.0, %function
 751              	get_acc_filtered.part.0:
 752              	.LFB276:
 753              		.loc 1 272 0
 754              		.cfi_startproc
 755              		@ args = 0, pretend = 0, frame = 8
 756              		@ frame_needed = 0, uses_anonymous_args = 0
 757              	.LVL54:
 758 0000 70B5     		push	{r4, r5, r6, lr}
 759              		.cfi_def_cfa_offset 16
 760              		.cfi_offset 4, -16
 761              		.cfi_offset 5, -12
 762              		.cfi_offset 6, -8
 763              		.cfi_offset 14, -4
 764              		.loc 1 274 0
 765 0002 124B     		ldr	r3, .L69
 766              		.loc 1 272 0
 767 0004 124E     		ldr	r6, .L69+4
 768              		.loc 1 274 0
 769 0006 1B78     		ldrb	r3, [r3]	@ zero_extendqisi2
 770              		.loc 1 272 0
 771 0008 3268     		ldr	r2, [r6]
 772 000a 82B0     		sub	sp, sp, #8
 773              		.cfi_def_cfa_offset 24
 774              		.loc 1 272 0
 775 000c 0446     		mov	r4, r0
 776 000e 0192     		str	r2, [sp, #4]
 777              		.loc 1 274 0
 778 0010 7BB1     		cbz	r3, .L60
 779              		.loc 1 277 0
 780 0012 1048     		ldr	r0, .L69+8
 781              	.LVL55:
 782              		.loc 1 275 0
 783 0014 104A     		ldr	r2, .L69+12
 784              		.loc 1 276 0
 785 0016 114D     		ldr	r5, .L69+16
 786              		.loc 1 278 0
 787 0018 114B     		ldr	r3, .L69+20
 788              		.loc 1 277 0
 789 001a 0470     		strb	r4, [r0]
 790              		.loc 1 275 0
 791 001c 0020     		movs	r0, #0
 792 001e 1070     		strb	r0, [r2]
 793              		.loc 1 276 0
 794 0020 0122     		movs	r2, #1
 795 0022 2A70     		strb	r2, [r5]
 796              		.loc 1 278 0
 797 0024 1970     		strb	r1, [r3]
 798              	.LVL56:
ARM GAS  /tmp/ccgJwALp.s 			page 15


 799              	.L61:
 800              		.loc 1 280 0
 801 0026 1420     		movs	r0, #20
 802 0028 FFF7FEFF 		bl	chThdSleep
 803              	.LVL57:
 804              		.loc 1 279 0
 805 002c 2B78     		ldrb	r3, [r5]	@ zero_extendqisi2
 806 002e 002B     		cmp	r3, #0
 807 0030 F9D1     		bne	.L61
 808              	.L60:
 809              		.loc 1 286 0
 810 0032 019A     		ldr	r2, [sp, #4]
 811 0034 3368     		ldr	r3, [r6]
 812              		.loc 1 283 0
 813 0036 0B49     		ldr	r1, .L69+24
 814 0038 2034     		adds	r4, r4, #32
 815              		.loc 1 286 0
 816 003a 9A42     		cmp	r2, r3
 817 003c 31F91400 		ldrsh	r0, [r1, r4, lsl #1]
 818 0040 01D1     		bne	.L68
 819 0042 02B0     		add	sp, sp, #8
 820              		.cfi_remember_state
 821              		.cfi_def_cfa_offset 16
 822              		@ sp needed
 823 0044 70BD     		pop	{r4, r5, r6, pc}
 824              	.L68:
 825              		.cfi_restore_state
 826 0046 FFF7FEFF 		bl	__stack_chk_fail
 827              	.LVL58:
 828              	.L70:
 829 004a 00BF     		.align	2
 830              	.L69:
 831 004c 00000000 		.word	.LANCHOR3
 832 0050 00000000 		.word	__stack_chk_guard
 833 0054 00000000 		.word	.LANCHOR6
 834 0058 00000000 		.word	.LANCHOR5
 835 005c 00000000 		.word	.LANCHOR4
 836 0060 00000000 		.word	.LANCHOR7
 837 0064 00000000 		.word	.LANCHOR1
 838              		.cfi_endproc
 839              	.LFE276:
 840              		.size	get_acc_filtered.part.0, .-get_acc_filtered.part.0
 841              		.section	.text.get_gyro_filtered.part.1,"ax",%progbits
 842              		.align	1
 843              		.p2align 4,,15
 844              		.syntax unified
 845              		.thumb
 846              		.thumb_func
 847              		.fpu fpv4-sp-d16
 848              		.type	get_gyro_filtered.part.1, %function
 849              	get_gyro_filtered.part.1:
 850              	.LFB277:
 851              		.loc 1 329 0
 852              		.cfi_startproc
 853              		@ args = 0, pretend = 0, frame = 8
 854              		@ frame_needed = 0, uses_anonymous_args = 0
 855              	.LVL59:
ARM GAS  /tmp/ccgJwALp.s 			page 16


 856 0000 70B5     		push	{r4, r5, r6, lr}
 857              		.cfi_def_cfa_offset 16
 858              		.cfi_offset 4, -16
 859              		.cfi_offset 5, -12
 860              		.cfi_offset 6, -8
 861              		.cfi_offset 14, -4
 862              		.loc 1 331 0
 863 0002 124B     		ldr	r3, .L81
 864              		.loc 1 329 0
 865 0004 124D     		ldr	r5, .L81+4
 866              		.loc 1 331 0
 867 0006 1B78     		ldrb	r3, [r3]	@ zero_extendqisi2
 868              		.loc 1 329 0
 869 0008 2A68     		ldr	r2, [r5]
 870 000a 82B0     		sub	sp, sp, #8
 871              		.cfi_def_cfa_offset 24
 872              		.loc 1 329 0
 873 000c 0646     		mov	r6, r0
 874 000e 0192     		str	r2, [sp, #4]
 875              		.loc 1 331 0
 876 0010 7BB1     		cbz	r3, .L72
 877              		.loc 1 334 0
 878 0012 1048     		ldr	r0, .L81+8
 879              	.LVL60:
 880              		.loc 1 332 0
 881 0014 104A     		ldr	r2, .L81+12
 882              		.loc 1 333 0
 883 0016 114C     		ldr	r4, .L81+16
 884              		.loc 1 335 0
 885 0018 114B     		ldr	r3, .L81+20
 886              		.loc 1 334 0
 887 001a 0670     		strb	r6, [r0]
 888              		.loc 1 332 0
 889 001c 0020     		movs	r0, #0
 890 001e 1070     		strb	r0, [r2]
 891              		.loc 1 333 0
 892 0020 0122     		movs	r2, #1
 893 0022 2270     		strb	r2, [r4]
 894              		.loc 1 335 0
 895 0024 1970     		strb	r1, [r3]
 896              	.LVL61:
 897              	.L73:
 898              		.loc 1 337 0
 899 0026 1420     		movs	r0, #20
 900 0028 FFF7FEFF 		bl	chThdSleep
 901              	.LVL62:
 902              		.loc 1 336 0
 903 002c 2378     		ldrb	r3, [r4]	@ zero_extendqisi2
 904 002e 002B     		cmp	r3, #0
 905 0030 F9D1     		bne	.L73
 906              	.L72:
 907              		.loc 1 340 0
 908 0032 0C48     		ldr	r0, .L81+24
 909              		.loc 1 343 0
 910 0034 019A     		ldr	r2, [sp, #4]
 911 0036 2B68     		ldr	r3, [r5]
 912              		.loc 1 340 0
ARM GAS  /tmp/ccgJwALp.s 			page 17


 913 0038 00EB4600 		add	r0, r0, r6, lsl #1
 914              		.loc 1 343 0
 915 003c 9A42     		cmp	r2, r3
 916 003e B0F94600 		ldrsh	r0, [r0, #70]
 917 0042 01D1     		bne	.L80
 918 0044 02B0     		add	sp, sp, #8
 919              		.cfi_remember_state
 920              		.cfi_def_cfa_offset 16
 921              		@ sp needed
 922 0046 70BD     		pop	{r4, r5, r6, pc}
 923              	.L80:
 924              		.cfi_restore_state
 925 0048 FFF7FEFF 		bl	__stack_chk_fail
 926              	.LVL63:
 927              	.L82:
 928              		.align	2
 929              	.L81:
 930 004c 00000000 		.word	.LANCHOR3
 931 0050 00000000 		.word	__stack_chk_guard
 932 0054 00000000 		.word	.LANCHOR11
 933 0058 00000000 		.word	.LANCHOR10
 934 005c 00000000 		.word	.LANCHOR9
 935 0060 00000000 		.word	.LANCHOR12
 936 0064 00000000 		.word	.LANCHOR1
 937              		.cfi_endproc
 938              	.LFE277:
 939              		.size	get_gyro_filtered.part.1, .-get_gyro_filtered.part.1
 940              		.section	.text.imu_start,"ax",%progbits
 941              		.align	1
 942              		.p2align 4,,15
 943              		.global	imu_start
 944              		.syntax unified
 945              		.thumb
 946              		.thumb_func
 947              		.fpu fpv4-sp-d16
 948              		.type	imu_start, %function
 949              	imu_start:
 950              	.LFB258:
 951              		.loc 1 220 0
 952              		.cfi_startproc
 953              		@ args = 0, pretend = 0, frame = 8
 954              		@ frame_needed = 0, uses_anonymous_args = 0
 955 0000 70B5     		push	{r4, r5, r6, lr}
 956              		.cfi_def_cfa_offset 16
 957              		.cfi_offset 4, -16
 958              		.cfi_offset 5, -12
 959              		.cfi_offset 6, -8
 960              		.cfi_offset 14, -4
 961              		.loc 1 223 0
 962 0002 154E     		ldr	r6, .L90
 963              		.loc 1 220 0
 964 0004 154C     		ldr	r4, .L90+4
 965              		.loc 1 223 0
 966 0006 3378     		ldrb	r3, [r6]	@ zero_extendqisi2
 967              		.loc 1 220 0
 968 0008 2268     		ldr	r2, [r4]
 969 000a 84B0     		sub	sp, sp, #16
ARM GAS  /tmp/ccgJwALp.s 			page 18


 970              		.cfi_def_cfa_offset 32
 971              		.loc 1 220 0
 972 000c 0392     		str	r2, [sp, #12]
 973              	.LVL64:
 974              		.loc 1 223 0
 975 000e 3BB1     		cbz	r3, .L88
 976              		.loc 1 224 0
 977 0010 0025     		movs	r5, #0
 978              	.LVL65:
 979              	.L84:
 980              		.loc 1 248 0
 981 0012 039A     		ldr	r2, [sp, #12]
 982 0014 2368     		ldr	r3, [r4]
 983 0016 9A42     		cmp	r2, r3
 984 0018 2846     		mov	r0, r5
 985 001a 1AD1     		bne	.L89
 986 001c 04B0     		add	sp, sp, #16
 987              		.cfi_remember_state
 988              		.cfi_def_cfa_offset 16
 989              		@ sp needed
 990 001e 70BD     		pop	{r4, r5, r6, pc}
 991              	.LVL66:
 992              	.L88:
 993              		.cfi_restore_state
 994              		.loc 1 227 0
 995 0020 6420     		movs	r0, #100
 996 0022 FFF7FEFF 		bl	chThdSleep
 997              	.LVL67:
 998              		.loc 1 229 0
 999 0026 FFF7FEFF 		bl	i2c_start
 1000              	.LVL68:
 1001              		.loc 1 231 0
 1002 002a 4FF4C840 		mov	r0, #25600
 1003 002e FFF7FEFF 		bl	mpu9250_setup
 1004              	.LVL69:
 1005              		.loc 1 242 0
 1006 0032 0546     		mov	r5, r0
 1007 0034 0028     		cmp	r0, #0
 1008 0036 ECD1     		bne	.L84
 1009              		.loc 1 243 0
 1010 0038 0122     		movs	r2, #1
 1011              		.loc 1 244 0
 1012 003a 0090     		str	r0, [sp]
 1013 003c 084B     		ldr	r3, .L90+8
 1014              		.loc 1 243 0
 1015 003e 3270     		strb	r2, [r6]
 1016              		.loc 1 244 0
 1017 0040 0848     		ldr	r0, .L90+12
 1018              	.LVL70:
 1019 0042 4022     		movs	r2, #64
 1020 0044 4FF45E71 		mov	r1, #888
 1021 0048 FFF7FEFF 		bl	chThdCreateStatic
 1022              	.LVL71:
 1023 004c 064B     		ldr	r3, .L90+16
 1024 004e 1860     		str	r0, [r3]
 1025 0050 DFE7     		b	.L84
 1026              	.L89:
ARM GAS  /tmp/ccgJwALp.s 			page 19


 1027              		.loc 1 248 0
 1028 0052 FFF7FEFF 		bl	__stack_chk_fail
 1029              	.LVL72:
 1030              	.L91:
 1031 0056 00BF     		.align	2
 1032              	.L90:
 1033 0058 00000000 		.word	.LANCHOR3
 1034 005c 00000000 		.word	__stack_chk_guard
 1035 0060 00000000 		.word	imu_reader_thd
 1036 0064 00000000 		.word	.LANCHOR16
 1037 0068 00000000 		.word	.LANCHOR17
 1038              		.cfi_endproc
 1039              	.LFE258:
 1040              		.size	imu_start, .-imu_start
 1041              		.section	.text.imu_stop,"ax",%progbits
 1042              		.align	1
 1043              		.p2align 4,,15
 1044              		.global	imu_stop
 1045              		.syntax unified
 1046              		.thumb
 1047              		.thumb_func
 1048              		.fpu fpv4-sp-d16
 1049              		.type	imu_stop, %function
 1050              	imu_stop:
 1051              	.LFB259:
 1052              		.loc 1 250 0
 1053              		.cfi_startproc
 1054              		@ args = 0, pretend = 0, frame = 8
 1055              		@ frame_needed = 0, uses_anonymous_args = 0
 1056 0000 30B5     		push	{r4, r5, lr}
 1057              		.cfi_def_cfa_offset 12
 1058              		.cfi_offset 4, -12
 1059              		.cfi_offset 5, -8
 1060              		.cfi_offset 14, -4
 1061              		.loc 1 251 0
 1062 0002 0B4C     		ldr	r4, .L96
 1063              		.loc 1 250 0
 1064 0004 0B4D     		ldr	r5, .L96+4
 1065              		.loc 1 251 0
 1066 0006 2068     		ldr	r0, [r4]
 1067              		.loc 1 250 0
 1068 0008 2B68     		ldr	r3, [r5]
 1069 000a 83B0     		sub	sp, sp, #12
 1070              		.cfi_def_cfa_offset 24
 1071              		.loc 1 250 0
 1072 000c 0193     		str	r3, [sp, #4]
 1073              		.loc 1 251 0
 1074 000e FFF7FEFF 		bl	chThdTerminate
 1075              	.LVL73:
 1076              		.loc 1 252 0
 1077 0012 2068     		ldr	r0, [r4]
 1078 0014 FFF7FEFF 		bl	chThdWait
 1079              	.LVL74:
 1080              		.loc 1 255 0
 1081 0018 0199     		ldr	r1, [sp, #4]
 1082 001a 2A68     		ldr	r2, [r5]
 1083              		.loc 1 254 0
ARM GAS  /tmp/ccgJwALp.s 			page 20


 1084 001c 0648     		ldr	r0, .L96+8
 1085              		.loc 1 253 0
 1086 001e 0023     		movs	r3, #0
 1087              		.loc 1 255 0
 1088 0020 9142     		cmp	r1, r2
 1089              		.loc 1 253 0
 1090 0022 2360     		str	r3, [r4]
 1091              		.loc 1 254 0
 1092 0024 0370     		strb	r3, [r0]
 1093              		.loc 1 255 0
 1094 0026 01D1     		bne	.L95
 1095 0028 03B0     		add	sp, sp, #12
 1096              		.cfi_remember_state
 1097              		.cfi_def_cfa_offset 12
 1098              		@ sp needed
 1099 002a 30BD     		pop	{r4, r5, pc}
 1100              	.L95:
 1101              		.cfi_restore_state
 1102 002c FFF7FEFF 		bl	__stack_chk_fail
 1103              	.LVL75:
 1104              	.L97:
 1105              		.align	2
 1106              	.L96:
 1107 0030 00000000 		.word	.LANCHOR17
 1108 0034 00000000 		.word	__stack_chk_guard
 1109 0038 00000000 		.word	.LANCHOR3
 1110              		.cfi_endproc
 1111              	.LFE259:
 1112              		.size	imu_stop, .-imu_stop
 1113              		.section	.text.get_acc,"ax",%progbits
 1114              		.align	1
 1115              		.p2align 4,,15
 1116              		.global	get_acc
 1117              		.syntax unified
 1118              		.thumb
 1119              		.thumb_func
 1120              		.fpu fpv4-sp-d16
 1121              		.type	get_acc, %function
 1122              	get_acc:
 1123              	.LFB260:
 1124              		.loc 1 258 0
 1125              		.cfi_startproc
 1126              		@ args = 0, pretend = 0, frame = 8
 1127              		@ frame_needed = 0, uses_anonymous_args = 0
 1128              	.LVL76:
 1129 0000 00B5     		push	{lr}
 1130              		.cfi_def_cfa_offset 4
 1131              		.cfi_offset 14, -4
 1132 0002 0A4B     		ldr	r3, .L104
 1133 0004 83B0     		sub	sp, sp, #12
 1134              		.cfi_def_cfa_offset 16
 1135              		.loc 1 258 0
 1136 0006 1A68     		ldr	r2, [r3]
 1137 0008 0192     		str	r2, [sp, #4]
 1138              		.loc 1 259 0
 1139 000a 0228     		cmp	r0, #2
 1140              		.loc 1 260 0
ARM GAS  /tmp/ccgJwALp.s 			page 21


 1141 000c 9BBF     		ittet	ls
 1142 000e 084A     		ldrls	r2, .L104+4
 1143 0010 1430     		addls	r0, r0, #20
 1144              	.LVL77:
 1145              		.loc 1 262 0
 1146 0012 0020     		movhi	r0, #0
 1147              		.loc 1 260 0
 1148 0014 32F91000 		ldrshls	r0, [r2, r0, lsl #1]
 1149              		.loc 1 263 0
 1150 0018 019A     		ldr	r2, [sp, #4]
 1151 001a 1B68     		ldr	r3, [r3]
 1152 001c 9A42     		cmp	r2, r3
 1153 001e 02D1     		bne	.L103
 1154 0020 03B0     		add	sp, sp, #12
 1155              		.cfi_remember_state
 1156              		.cfi_def_cfa_offset 4
 1157              		@ sp needed
 1158 0022 5DF804FB 		ldr	pc, [sp], #4
 1159              	.L103:
 1160              		.cfi_restore_state
 1161 0026 FFF7FEFF 		bl	__stack_chk_fail
 1162              	.LVL78:
 1163              	.L105:
 1164 002a 00BF     		.align	2
 1165              	.L104:
 1166 002c 00000000 		.word	__stack_chk_guard
 1167 0030 00000000 		.word	.LANCHOR1
 1168              		.cfi_endproc
 1169              	.LFE260:
 1170              		.size	get_acc, .-get_acc
 1171              		.section	.text.get_acc_all,"ax",%progbits
 1172              		.align	1
 1173              		.p2align 4,,15
 1174              		.global	get_acc_all
 1175              		.syntax unified
 1176              		.thumb
 1177              		.thumb_func
 1178              		.fpu fpv4-sp-d16
 1179              		.type	get_acc_all, %function
 1180              	get_acc_all:
 1181              	.LFB261:
 1182              		.loc 1 265 0
 1183              		.cfi_startproc
 1184              		@ args = 0, pretend = 0, frame = 8
 1185              		@ frame_needed = 0, uses_anonymous_args = 0
 1186              	.LVL79:
 1187 0000 10B5     		push	{r4, lr}
 1188              		.cfi_def_cfa_offset 8
 1189              		.cfi_offset 4, -8
 1190              		.cfi_offset 14, -4
 1191              		.loc 1 266 0
 1192 0002 0B4B     		ldr	r3, .L110
 1193              		.loc 1 265 0
 1194 0004 0B4A     		ldr	r2, .L110+4
 1195              		.loc 1 266 0
 1196 0006 B3F92840 		ldrsh	r4, [r3, #40]
 1197              		.loc 1 265 0
ARM GAS  /tmp/ccgJwALp.s 			page 22


 1198 000a 1168     		ldr	r1, [r2]
 1199              		.loc 1 266 0
 1200 000c 0480     		strh	r4, [r0]	@ movhi
 1201              		.loc 1 265 0
 1202 000e 82B0     		sub	sp, sp, #8
 1203              		.cfi_def_cfa_offset 16
 1204              		.loc 1 267 0
 1205 0010 B3F92A40 		ldrsh	r4, [r3, #42]
 1206              		.loc 1 265 0
 1207 0014 0191     		str	r1, [sp, #4]
 1208              		.loc 1 267 0
 1209 0016 4480     		strh	r4, [r0, #2]	@ movhi
 1210              		.loc 1 269 0
 1211 0018 0199     		ldr	r1, [sp, #4]
 1212 001a 1268     		ldr	r2, [r2]
 1213              		.loc 1 268 0
 1214 001c B3F92C30 		ldrsh	r3, [r3, #44]
 1215 0020 8380     		strh	r3, [r0, #4]	@ movhi
 1216              		.loc 1 269 0
 1217 0022 9142     		cmp	r1, r2
 1218 0024 01D1     		bne	.L109
 1219 0026 02B0     		add	sp, sp, #8
 1220              		.cfi_remember_state
 1221              		.cfi_def_cfa_offset 8
 1222              		@ sp needed
 1223 0028 10BD     		pop	{r4, pc}
 1224              	.L109:
 1225              		.cfi_restore_state
 1226 002a FFF7FEFF 		bl	__stack_chk_fail
 1227              	.LVL80:
 1228              	.L111:
 1229 002e 00BF     		.align	2
 1230              	.L110:
 1231 0030 00000000 		.word	.LANCHOR1
 1232 0034 00000000 		.word	__stack_chk_guard
 1233              		.cfi_endproc
 1234              	.LFE261:
 1235              		.size	get_acc_all, .-get_acc_all
 1236              		.section	.text.get_acc_filtered,"ax",%progbits
 1237              		.align	1
 1238              		.p2align 4,,15
 1239              		.global	get_acc_filtered
 1240              		.syntax unified
 1241              		.thumb
 1242              		.thumb_func
 1243              		.fpu fpv4-sp-d16
 1244              		.type	get_acc_filtered, %function
 1245              	get_acc_filtered:
 1246              	.LFB262:
 1247              		.loc 1 272 0
 1248              		.cfi_startproc
 1249              		@ args = 0, pretend = 0, frame = 8
 1250              		@ frame_needed = 0, uses_anonymous_args = 0
 1251              	.LVL81:
 1252 0000 00B5     		push	{lr}
 1253              		.cfi_def_cfa_offset 4
 1254              		.cfi_offset 14, -4
ARM GAS  /tmp/ccgJwALp.s 			page 23


 1255 0002 0C4B     		ldr	r3, .L118
 1256 0004 83B0     		sub	sp, sp, #12
 1257              		.cfi_def_cfa_offset 16
 1258              		.loc 1 272 0
 1259 0006 1A68     		ldr	r2, [r3]
 1260 0008 0192     		str	r2, [sp, #4]
 1261              		.loc 1 273 0
 1262 000a 0228     		cmp	r0, #2
 1263 000c 019A     		ldr	r2, [sp, #4]
 1264 000e 1B68     		ldr	r3, [r3]
 1265 0010 06D8     		bhi	.L113
 1266 0012 9A42     		cmp	r2, r3
 1267 0014 0BD1     		bne	.L117
 1268              		.loc 1 286 0
 1269 0016 03B0     		add	sp, sp, #12
 1270              		.cfi_remember_state
 1271              		.cfi_def_cfa_offset 4
 1272              		@ sp needed
 1273 0018 5DF804EB 		ldr	lr, [sp], #4
 1274              		.cfi_restore 14
 1275              		.cfi_def_cfa_offset 0
 1276 001c FFF7FEBF 		b	get_acc_filtered.part.0
 1277              	.LVL82:
 1278              	.L113:
 1279              		.cfi_restore_state
 1280 0020 9A42     		cmp	r2, r3
 1281 0022 4FF00000 		mov	r0, #0
 1282              	.LVL83:
 1283 0026 02D1     		bne	.L117
 1284 0028 03B0     		add	sp, sp, #12
 1285              		.cfi_remember_state
 1286              		.cfi_def_cfa_offset 4
 1287              		@ sp needed
 1288 002a 5DF804FB 		ldr	pc, [sp], #4
 1289              	.L117:
 1290              		.cfi_restore_state
 1291 002e FFF7FEFF 		bl	__stack_chk_fail
 1292              	.LVL84:
 1293              	.L119:
 1294 0032 00BF     		.align	2
 1295              	.L118:
 1296 0034 00000000 		.word	__stack_chk_guard
 1297              		.cfi_endproc
 1298              	.LFE262:
 1299              		.size	get_acc_filtered, .-get_acc_filtered
 1300              		.section	.text.calibrate_acc,"ax",%progbits
 1301              		.align	1
 1302              		.p2align 4,,15
 1303              		.global	calibrate_acc
 1304              		.syntax unified
 1305              		.thumb
 1306              		.thumb_func
 1307              		.fpu fpv4-sp-d16
 1308              		.type	calibrate_acc, %function
 1309              	calibrate_acc:
 1310              	.LFB263:
 1311              		.loc 1 289 0
ARM GAS  /tmp/ccgJwALp.s 			page 24


 1312              		.cfi_startproc
 1313              		@ args = 0, pretend = 0, frame = 8
 1314              		@ frame_needed = 0, uses_anonymous_args = 0
 1315 0000 70B5     		push	{r4, r5, r6, lr}
 1316              		.cfi_def_cfa_offset 16
 1317              		.cfi_offset 4, -16
 1318              		.cfi_offset 5, -12
 1319              		.cfi_offset 6, -8
 1320              		.cfi_offset 14, -4
 1321              		.loc 1 290 0
 1322 0002 114B     		ldr	r3, .L128
 1323              		.loc 1 289 0
 1324 0004 114C     		ldr	r4, .L128+4
 1325              		.loc 1 290 0
 1326 0006 1B78     		ldrb	r3, [r3]	@ zero_extendqisi2
 1327              		.loc 1 289 0
 1328 0008 2268     		ldr	r2, [r4]
 1329 000a 82B0     		sub	sp, sp, #8
 1330              		.cfi_def_cfa_offset 24
 1331              		.loc 1 289 0
 1332 000c 0192     		str	r2, [sp, #4]
 1333              		.loc 1 290 0
 1334 000e 93B1     		cbz	r3, .L120
 1335              		.loc 1 291 0
 1336 0010 0F4D     		ldr	r5, .L128+8
 1337 0012 0126     		movs	r6, #1
 1338              	.LBB95:
 1339              	.LBB96:
 1340 0014 3221     		movs	r1, #50
 1341 0016 0020     		movs	r0, #0
 1342              	.LBE96:
 1343              	.LBE95:
 1344 0018 2E70     		strb	r6, [r5]
 1345              	.LVL85:
 1346              	.LBB98:
 1347              	.LBB97:
 1348 001a FFF7FEFF 		bl	get_acc_filtered.part.0
 1349              	.LVL86:
 1350              	.LBE97:
 1351              	.LBE98:
 1352              	.LBB99:
 1353              	.LBB100:
 1354 001e 3221     		movs	r1, #50
 1355 0020 3046     		mov	r0, r6
 1356              	.LBE100:
 1357              	.LBE99:
 1358              		.loc 1 293 0
 1359 0022 2E70     		strb	r6, [r5]
 1360              	.LVL87:
 1361              	.LBB102:
 1362              	.LBB101:
 1363 0024 FFF7FEFF 		bl	get_acc_filtered.part.0
 1364              	.LVL88:
 1365              	.LBE101:
 1366              	.LBE102:
 1367              	.LBB103:
 1368              	.LBB104:
ARM GAS  /tmp/ccgJwALp.s 			page 25


 1369 0028 3221     		movs	r1, #50
 1370 002a 0220     		movs	r0, #2
 1371              	.LBE104:
 1372              	.LBE103:
 1373              		.loc 1 295 0
 1374 002c 2E70     		strb	r6, [r5]
 1375              	.LVL89:
 1376              	.LBB106:
 1377              	.LBB105:
 1378 002e FFF7FEFF 		bl	get_acc_filtered.part.0
 1379              	.LVL90:
 1380              	.LBE105:
 1381              	.LBE106:
 1382              		.loc 1 297 0
 1383 0032 0023     		movs	r3, #0
 1384 0034 2B70     		strb	r3, [r5]
 1385              	.L120:
 1386              		.loc 1 299 0
 1387 0036 019A     		ldr	r2, [sp, #4]
 1388 0038 2368     		ldr	r3, [r4]
 1389 003a 9A42     		cmp	r2, r3
 1390 003c 01D1     		bne	.L127
 1391 003e 02B0     		add	sp, sp, #8
 1392              		.cfi_remember_state
 1393              		.cfi_def_cfa_offset 16
 1394              		@ sp needed
 1395 0040 70BD     		pop	{r4, r5, r6, pc}
 1396              	.L127:
 1397              		.cfi_restore_state
 1398 0042 FFF7FEFF 		bl	__stack_chk_fail
 1399              	.LVL91:
 1400              	.L129:
 1401 0046 00BF     		.align	2
 1402              	.L128:
 1403 0048 00000000 		.word	.LANCHOR3
 1404 004c 00000000 		.word	__stack_chk_guard
 1405 0050 00000000 		.word	.LANCHOR8
 1406              		.cfi_endproc
 1407              	.LFE263:
 1408              		.size	calibrate_acc, .-calibrate_acc
 1409              		.section	.text.get_acc_offset,"ax",%progbits
 1410              		.align	1
 1411              		.p2align 4,,15
 1412              		.global	get_acc_offset
 1413              		.syntax unified
 1414              		.thumb
 1415              		.thumb_func
 1416              		.fpu fpv4-sp-d16
 1417              		.type	get_acc_offset, %function
 1418              	get_acc_offset:
 1419              	.LFB264:
 1420              		.loc 1 302 0
 1421              		.cfi_startproc
 1422              		@ args = 0, pretend = 0, frame = 8
 1423              		@ frame_needed = 0, uses_anonymous_args = 0
 1424              	.LVL92:
 1425 0000 00B5     		push	{lr}
ARM GAS  /tmp/ccgJwALp.s 			page 26


 1426              		.cfi_def_cfa_offset 4
 1427              		.cfi_offset 14, -4
 1428 0002 0B4B     		ldr	r3, .L136
 1429 0004 83B0     		sub	sp, sp, #12
 1430              		.cfi_def_cfa_offset 16
 1431              		.loc 1 302 0
 1432 0006 1A68     		ldr	r2, [r3]
 1433 0008 0192     		str	r2, [sp, #4]
 1434              		.loc 1 303 0
 1435 000a 0228     		cmp	r0, #2
 1436              		.loc 1 304 0
 1437 000c 9CBF     		itt	ls
 1438 000e 094A     		ldrls	r2, .L136+4
 1439 0010 02EB4000 		addls	r0, r2, r0, lsl #1
 1440              	.LVL93:
 1441              		.loc 1 307 0
 1442 0014 019A     		ldr	r2, [sp, #4]
 1443 0016 1B68     		ldr	r3, [r3]
 1444              		.loc 1 304 0
 1445 0018 94BF     		ite	ls
 1446 001a B0F93400 		ldrshls	r0, [r0, #52]
 1447              		.loc 1 306 0
 1448 001e 0020     		movhi	r0, #0
 1449              		.loc 1 307 0
 1450 0020 9A42     		cmp	r2, r3
 1451 0022 02D1     		bne	.L135
 1452 0024 03B0     		add	sp, sp, #12
 1453              		.cfi_remember_state
 1454              		.cfi_def_cfa_offset 4
 1455              		@ sp needed
 1456 0026 5DF804FB 		ldr	pc, [sp], #4
 1457              	.L135:
 1458              		.cfi_restore_state
 1459 002a FFF7FEFF 		bl	__stack_chk_fail
 1460              	.LVL94:
 1461              	.L137:
 1462 002e 00BF     		.align	2
 1463              	.L136:
 1464 0030 00000000 		.word	__stack_chk_guard
 1465 0034 00000000 		.word	.LANCHOR1
 1466              		.cfi_endproc
 1467              	.LFE264:
 1468              		.size	get_acc_offset, .-get_acc_offset
 1469              		.section	.text.get_acceleration,"ax",%progbits
 1470              		.align	1
 1471              		.p2align 4,,15
 1472              		.global	get_acceleration
 1473              		.syntax unified
 1474              		.thumb
 1475              		.thumb_func
 1476              		.fpu fpv4-sp-d16
 1477              		.type	get_acceleration, %function
 1478              	get_acceleration:
 1479              	.LFB265:
 1480              		.loc 1 309 0
 1481              		.cfi_startproc
 1482              		@ args = 0, pretend = 0, frame = 8
ARM GAS  /tmp/ccgJwALp.s 			page 27


 1483              		@ frame_needed = 0, uses_anonymous_args = 0
 1484              	.LVL95:
 1485 0000 00B5     		push	{lr}
 1486              		.cfi_def_cfa_offset 4
 1487              		.cfi_offset 14, -4
 1488 0002 0B4B     		ldr	r3, .L144
 1489 0004 83B0     		sub	sp, sp, #12
 1490              		.cfi_def_cfa_offset 16
 1491              		.loc 1 309 0
 1492 0006 1A68     		ldr	r2, [r3]
 1493 0008 0192     		str	r2, [sp, #4]
 1494              		.loc 1 310 0
 1495 000a 0228     		cmp	r0, #2
 1496              		.loc 1 311 0
 1497 000c 96BF     		itet	ls
 1498 000e 094A     		ldrls	r2, .L144+4
 1499              		.loc 1 313 0
 1500 0010 9FED090A 		vldrhi.32	s0, .L144+8
 1501              		.loc 1 311 0
 1502 0014 02EB8000 		addls	r0, r2, r0, lsl #2
 1503              	.LVL96:
 1504              		.loc 1 314 0
 1505 0018 019A     		ldr	r2, [sp, #4]
 1506 001a 1B68     		ldr	r3, [r3]
 1507              		.loc 1 311 0
 1508 001c 98BF     		it	ls
 1509 001e 90ED000A 		vldrls.32	s0, [r0]
 1510              		.loc 1 314 0
 1511 0022 9A42     		cmp	r2, r3
 1512 0024 02D1     		bne	.L143
 1513 0026 03B0     		add	sp, sp, #12
 1514              		.cfi_remember_state
 1515              		.cfi_def_cfa_offset 4
 1516              		@ sp needed
 1517 0028 5DF804FB 		ldr	pc, [sp], #4
 1518              	.L143:
 1519              		.cfi_restore_state
 1520 002c FFF7FEFF 		bl	__stack_chk_fail
 1521              	.LVL97:
 1522              	.L145:
 1523              		.align	2
 1524              	.L144:
 1525 0030 00000000 		.word	__stack_chk_guard
 1526 0034 00000000 		.word	.LANCHOR1
 1527 0038 00000000 		.word	0
 1528              		.cfi_endproc
 1529              	.LFE265:
 1530              		.size	get_acceleration, .-get_acceleration
 1531              		.section	.text.get_gyro,"ax",%progbits
 1532              		.align	1
 1533              		.p2align 4,,15
 1534              		.global	get_gyro
 1535              		.syntax unified
 1536              		.thumb
 1537              		.thumb_func
 1538              		.fpu fpv4-sp-d16
 1539              		.type	get_gyro, %function
ARM GAS  /tmp/ccgJwALp.s 			page 28


 1540              	get_gyro:
 1541              	.LFB266:
 1542              		.loc 1 316 0
 1543              		.cfi_startproc
 1544              		@ args = 0, pretend = 0, frame = 8
 1545              		@ frame_needed = 0, uses_anonymous_args = 0
 1546              	.LVL98:
 1547 0000 00B5     		push	{lr}
 1548              		.cfi_def_cfa_offset 4
 1549              		.cfi_offset 14, -4
 1550 0002 0B4B     		ldr	r3, .L152
 1551 0004 83B0     		sub	sp, sp, #12
 1552              		.cfi_def_cfa_offset 16
 1553              		.loc 1 316 0
 1554 0006 1A68     		ldr	r2, [r3]
 1555 0008 0192     		str	r2, [sp, #4]
 1556              		.loc 1 317 0
 1557 000a 0228     		cmp	r0, #2
 1558              		.loc 1 318 0
 1559 000c 9CBF     		itt	ls
 1560 000e 094A     		ldrls	r2, .L152+4
 1561 0010 02EB4000 		addls	r0, r2, r0, lsl #1
 1562              	.LVL99:
 1563              		.loc 1 321 0
 1564 0014 019A     		ldr	r2, [sp, #4]
 1565 0016 1B68     		ldr	r3, [r3]
 1566              		.loc 1 318 0
 1567 0018 94BF     		ite	ls
 1568 001a B0F92E00 		ldrshls	r0, [r0, #46]
 1569              		.loc 1 320 0
 1570 001e 0020     		movhi	r0, #0
 1571              		.loc 1 321 0
 1572 0020 9A42     		cmp	r2, r3
 1573 0022 02D1     		bne	.L151
 1574 0024 03B0     		add	sp, sp, #12
 1575              		.cfi_remember_state
 1576              		.cfi_def_cfa_offset 4
 1577              		@ sp needed
 1578 0026 5DF804FB 		ldr	pc, [sp], #4
 1579              	.L151:
 1580              		.cfi_restore_state
 1581 002a FFF7FEFF 		bl	__stack_chk_fail
 1582              	.LVL100:
 1583              	.L153:
 1584 002e 00BF     		.align	2
 1585              	.L152:
 1586 0030 00000000 		.word	__stack_chk_guard
 1587 0034 00000000 		.word	.LANCHOR1
 1588              		.cfi_endproc
 1589              	.LFE266:
 1590              		.size	get_gyro, .-get_gyro
 1591              		.section	.text.get_gyro_all,"ax",%progbits
 1592              		.align	1
 1593              		.p2align 4,,15
 1594              		.global	get_gyro_all
 1595              		.syntax unified
 1596              		.thumb
ARM GAS  /tmp/ccgJwALp.s 			page 29


 1597              		.thumb_func
 1598              		.fpu fpv4-sp-d16
 1599              		.type	get_gyro_all, %function
 1600              	get_gyro_all:
 1601              	.LFB267:
 1602              		.loc 1 323 0
 1603              		.cfi_startproc
 1604              		@ args = 0, pretend = 0, frame = 8
 1605              		@ frame_needed = 0, uses_anonymous_args = 0
 1606              	.LVL101:
 1607 0000 10B5     		push	{r4, lr}
 1608              		.cfi_def_cfa_offset 8
 1609              		.cfi_offset 4, -8
 1610              		.cfi_offset 14, -4
 1611              		.loc 1 324 0
 1612 0002 0B4B     		ldr	r3, .L158
 1613              		.loc 1 323 0
 1614 0004 0B4A     		ldr	r2, .L158+4
 1615              		.loc 1 324 0
 1616 0006 B3F92E40 		ldrsh	r4, [r3, #46]
 1617              		.loc 1 323 0
 1618 000a 1168     		ldr	r1, [r2]
 1619              		.loc 1 324 0
 1620 000c 0480     		strh	r4, [r0]	@ movhi
 1621              		.loc 1 323 0
 1622 000e 82B0     		sub	sp, sp, #8
 1623              		.cfi_def_cfa_offset 16
 1624              		.loc 1 325 0
 1625 0010 B3F93040 		ldrsh	r4, [r3, #48]
 1626              		.loc 1 323 0
 1627 0014 0191     		str	r1, [sp, #4]
 1628              		.loc 1 325 0
 1629 0016 4480     		strh	r4, [r0, #2]	@ movhi
 1630              		.loc 1 327 0
 1631 0018 0199     		ldr	r1, [sp, #4]
 1632 001a 1268     		ldr	r2, [r2]
 1633              		.loc 1 326 0
 1634 001c B3F93230 		ldrsh	r3, [r3, #50]
 1635 0020 8380     		strh	r3, [r0, #4]	@ movhi
 1636              		.loc 1 327 0
 1637 0022 9142     		cmp	r1, r2
 1638 0024 01D1     		bne	.L157
 1639 0026 02B0     		add	sp, sp, #8
 1640              		.cfi_remember_state
 1641              		.cfi_def_cfa_offset 8
 1642              		@ sp needed
 1643 0028 10BD     		pop	{r4, pc}
 1644              	.L157:
 1645              		.cfi_restore_state
 1646 002a FFF7FEFF 		bl	__stack_chk_fail
 1647              	.LVL102:
 1648              	.L159:
 1649 002e 00BF     		.align	2
 1650              	.L158:
 1651 0030 00000000 		.word	.LANCHOR1
 1652 0034 00000000 		.word	__stack_chk_guard
 1653              		.cfi_endproc
ARM GAS  /tmp/ccgJwALp.s 			page 30


 1654              	.LFE267:
 1655              		.size	get_gyro_all, .-get_gyro_all
 1656              		.section	.text.get_gyro_filtered,"ax",%progbits
 1657              		.align	1
 1658              		.p2align 4,,15
 1659              		.global	get_gyro_filtered
 1660              		.syntax unified
 1661              		.thumb
 1662              		.thumb_func
 1663              		.fpu fpv4-sp-d16
 1664              		.type	get_gyro_filtered, %function
 1665              	get_gyro_filtered:
 1666              	.LFB268:
 1667              		.loc 1 329 0
 1668              		.cfi_startproc
 1669              		@ args = 0, pretend = 0, frame = 8
 1670              		@ frame_needed = 0, uses_anonymous_args = 0
 1671              	.LVL103:
 1672 0000 00B5     		push	{lr}
 1673              		.cfi_def_cfa_offset 4
 1674              		.cfi_offset 14, -4
 1675 0002 0C4B     		ldr	r3, .L166
 1676 0004 83B0     		sub	sp, sp, #12
 1677              		.cfi_def_cfa_offset 16
 1678              		.loc 1 329 0
 1679 0006 1A68     		ldr	r2, [r3]
 1680 0008 0192     		str	r2, [sp, #4]
 1681              		.loc 1 330 0
 1682 000a 0228     		cmp	r0, #2
 1683 000c 019A     		ldr	r2, [sp, #4]
 1684 000e 1B68     		ldr	r3, [r3]
 1685 0010 06D8     		bhi	.L161
 1686 0012 9A42     		cmp	r2, r3
 1687 0014 0BD1     		bne	.L165
 1688              		.loc 1 343 0
 1689 0016 03B0     		add	sp, sp, #12
 1690              		.cfi_remember_state
 1691              		.cfi_def_cfa_offset 4
 1692              		@ sp needed
 1693 0018 5DF804EB 		ldr	lr, [sp], #4
 1694              		.cfi_restore 14
 1695              		.cfi_def_cfa_offset 0
 1696 001c FFF7FEBF 		b	get_gyro_filtered.part.1
 1697              	.LVL104:
 1698              	.L161:
 1699              		.cfi_restore_state
 1700 0020 9A42     		cmp	r2, r3
 1701 0022 4FF00000 		mov	r0, #0
 1702              	.LVL105:
 1703 0026 02D1     		bne	.L165
 1704 0028 03B0     		add	sp, sp, #12
 1705              		.cfi_remember_state
 1706              		.cfi_def_cfa_offset 4
 1707              		@ sp needed
 1708 002a 5DF804FB 		ldr	pc, [sp], #4
 1709              	.L165:
 1710              		.cfi_restore_state
ARM GAS  /tmp/ccgJwALp.s 			page 31


 1711 002e FFF7FEFF 		bl	__stack_chk_fail
 1712              	.LVL106:
 1713              	.L167:
 1714 0032 00BF     		.align	2
 1715              	.L166:
 1716 0034 00000000 		.word	__stack_chk_guard
 1717              		.cfi_endproc
 1718              	.LFE268:
 1719              		.size	get_gyro_filtered, .-get_gyro_filtered
 1720              		.section	.text.get_gyro_offset,"ax",%progbits
 1721              		.align	1
 1722              		.p2align 4,,15
 1723              		.global	get_gyro_offset
 1724              		.syntax unified
 1725              		.thumb
 1726              		.thumb_func
 1727              		.fpu fpv4-sp-d16
 1728              		.type	get_gyro_offset, %function
 1729              	get_gyro_offset:
 1730              	.LFB269:
 1731              		.loc 1 345 0
 1732              		.cfi_startproc
 1733              		@ args = 0, pretend = 0, frame = 8
 1734              		@ frame_needed = 0, uses_anonymous_args = 0
 1735              	.LVL107:
 1736 0000 00B5     		push	{lr}
 1737              		.cfi_def_cfa_offset 4
 1738              		.cfi_offset 14, -4
 1739 0002 0B4B     		ldr	r3, .L174
 1740 0004 83B0     		sub	sp, sp, #12
 1741              		.cfi_def_cfa_offset 16
 1742              		.loc 1 345 0
 1743 0006 1A68     		ldr	r2, [r3]
 1744 0008 0192     		str	r2, [sp, #4]
 1745              		.loc 1 346 0
 1746 000a 0228     		cmp	r0, #2
 1747              		.loc 1 347 0
 1748 000c 9CBF     		itt	ls
 1749 000e 094A     		ldrls	r2, .L174+4
 1750 0010 02EB4000 		addls	r0, r2, r0, lsl #1
 1751              	.LVL108:
 1752              		.loc 1 350 0
 1753 0014 019A     		ldr	r2, [sp, #4]
 1754 0016 1B68     		ldr	r3, [r3]
 1755              		.loc 1 347 0
 1756 0018 94BF     		ite	ls
 1757 001a B0F93A00 		ldrshls	r0, [r0, #58]
 1758              		.loc 1 349 0
 1759 001e 0020     		movhi	r0, #0
 1760              		.loc 1 350 0
 1761 0020 9A42     		cmp	r2, r3
 1762 0022 02D1     		bne	.L173
 1763 0024 03B0     		add	sp, sp, #12
 1764              		.cfi_remember_state
 1765              		.cfi_def_cfa_offset 4
 1766              		@ sp needed
 1767 0026 5DF804FB 		ldr	pc, [sp], #4
ARM GAS  /tmp/ccgJwALp.s 			page 32


 1768              	.L173:
 1769              		.cfi_restore_state
 1770 002a FFF7FEFF 		bl	__stack_chk_fail
 1771              	.LVL109:
 1772              	.L175:
 1773 002e 00BF     		.align	2
 1774              	.L174:
 1775 0030 00000000 		.word	__stack_chk_guard
 1776 0034 00000000 		.word	.LANCHOR1
 1777              		.cfi_endproc
 1778              	.LFE269:
 1779              		.size	get_gyro_offset, .-get_gyro_offset
 1780              		.section	.text.calibrate_gyro,"ax",%progbits
 1781              		.align	1
 1782              		.p2align 4,,15
 1783              		.global	calibrate_gyro
 1784              		.syntax unified
 1785              		.thumb
 1786              		.thumb_func
 1787              		.fpu fpv4-sp-d16
 1788              		.type	calibrate_gyro, %function
 1789              	calibrate_gyro:
 1790              	.LFB270:
 1791              		.loc 1 353 0
 1792              		.cfi_startproc
 1793              		@ args = 0, pretend = 0, frame = 8
 1794              		@ frame_needed = 0, uses_anonymous_args = 0
 1795 0000 70B5     		push	{r4, r5, r6, lr}
 1796              		.cfi_def_cfa_offset 16
 1797              		.cfi_offset 4, -16
 1798              		.cfi_offset 5, -12
 1799              		.cfi_offset 6, -8
 1800              		.cfi_offset 14, -4
 1801              		.loc 1 354 0
 1802 0002 114B     		ldr	r3, .L184
 1803              		.loc 1 353 0
 1804 0004 114C     		ldr	r4, .L184+4
 1805              		.loc 1 354 0
 1806 0006 1B78     		ldrb	r3, [r3]	@ zero_extendqisi2
 1807              		.loc 1 353 0
 1808 0008 2268     		ldr	r2, [r4]
 1809 000a 82B0     		sub	sp, sp, #8
 1810              		.cfi_def_cfa_offset 24
 1811              		.loc 1 353 0
 1812 000c 0192     		str	r2, [sp, #4]
 1813              		.loc 1 354 0
 1814 000e 93B1     		cbz	r3, .L176
 1815              		.loc 1 355 0
 1816 0010 0F4D     		ldr	r5, .L184+8
 1817 0012 0126     		movs	r6, #1
 1818              	.LBB107:
 1819              	.LBB108:
 1820 0014 3221     		movs	r1, #50
 1821 0016 0020     		movs	r0, #0
 1822              	.LBE108:
 1823              	.LBE107:
 1824 0018 2E70     		strb	r6, [r5]
ARM GAS  /tmp/ccgJwALp.s 			page 33


 1825              	.LVL110:
 1826              	.LBB110:
 1827              	.LBB109:
 1828 001a FFF7FEFF 		bl	get_gyro_filtered.part.1
 1829              	.LVL111:
 1830              	.LBE109:
 1831              	.LBE110:
 1832              	.LBB111:
 1833              	.LBB112:
 1834 001e 3221     		movs	r1, #50
 1835 0020 3046     		mov	r0, r6
 1836              	.LBE112:
 1837              	.LBE111:
 1838              		.loc 1 357 0
 1839 0022 2E70     		strb	r6, [r5]
 1840              	.LVL112:
 1841              	.LBB114:
 1842              	.LBB113:
 1843 0024 FFF7FEFF 		bl	get_gyro_filtered.part.1
 1844              	.LVL113:
 1845              	.LBE113:
 1846              	.LBE114:
 1847              	.LBB115:
 1848              	.LBB116:
 1849 0028 3221     		movs	r1, #50
 1850 002a 0220     		movs	r0, #2
 1851              	.LBE116:
 1852              	.LBE115:
 1853              		.loc 1 359 0
 1854 002c 2E70     		strb	r6, [r5]
 1855              	.LVL114:
 1856              	.LBB118:
 1857              	.LBB117:
 1858 002e FFF7FEFF 		bl	get_gyro_filtered.part.1
 1859              	.LVL115:
 1860              	.LBE117:
 1861              	.LBE118:
 1862              		.loc 1 361 0
 1863 0032 0023     		movs	r3, #0
 1864 0034 2B70     		strb	r3, [r5]
 1865              	.L176:
 1866              		.loc 1 364 0
 1867 0036 019A     		ldr	r2, [sp, #4]
 1868 0038 2368     		ldr	r3, [r4]
 1869 003a 9A42     		cmp	r2, r3
 1870 003c 01D1     		bne	.L183
 1871 003e 02B0     		add	sp, sp, #8
 1872              		.cfi_remember_state
 1873              		.cfi_def_cfa_offset 16
 1874              		@ sp needed
 1875 0040 70BD     		pop	{r4, r5, r6, pc}
 1876              	.L183:
 1877              		.cfi_restore_state
 1878 0042 FFF7FEFF 		bl	__stack_chk_fail
 1879              	.LVL116:
 1880              	.L185:
 1881 0046 00BF     		.align	2
ARM GAS  /tmp/ccgJwALp.s 			page 34


 1882              	.L184:
 1883 0048 00000000 		.word	.LANCHOR3
 1884 004c 00000000 		.word	__stack_chk_guard
 1885 0050 00000000 		.word	.LANCHOR13
 1886              		.cfi_endproc
 1887              	.LFE270:
 1888              		.size	calibrate_gyro, .-calibrate_gyro
 1889              		.section	.text.get_gyro_rate,"ax",%progbits
 1890              		.align	1
 1891              		.p2align 4,,15
 1892              		.global	get_gyro_rate
 1893              		.syntax unified
 1894              		.thumb
 1895              		.thumb_func
 1896              		.fpu fpv4-sp-d16
 1897              		.type	get_gyro_rate, %function
 1898              	get_gyro_rate:
 1899              	.LFB271:
 1900              		.loc 1 366 0
 1901              		.cfi_startproc
 1902              		@ args = 0, pretend = 0, frame = 8
 1903              		@ frame_needed = 0, uses_anonymous_args = 0
 1904              	.LVL117:
 1905 0000 00B5     		push	{lr}
 1906              		.cfi_def_cfa_offset 4
 1907              		.cfi_offset 14, -4
 1908 0002 0B4B     		ldr	r3, .L192
 1909 0004 83B0     		sub	sp, sp, #12
 1910              		.cfi_def_cfa_offset 16
 1911              		.loc 1 366 0
 1912 0006 1A68     		ldr	r2, [r3]
 1913 0008 0192     		str	r2, [sp, #4]
 1914              		.loc 1 367 0
 1915 000a 0228     		cmp	r0, #2
 1916              		.loc 1 368 0
 1917 000c 96BF     		itet	ls
 1918 000e 094A     		ldrls	r2, .L192+4
 1919              		.loc 1 370 0
 1920 0010 9FED090A 		vldrhi.32	s0, .L192+8
 1921              		.loc 1 368 0
 1922 0014 02EB8000 		addls	r0, r2, r0, lsl #2
 1923              	.LVL118:
 1924              		.loc 1 371 0
 1925 0018 019A     		ldr	r2, [sp, #4]
 1926 001a 1B68     		ldr	r3, [r3]
 1927              		.loc 1 368 0
 1928 001c 98BF     		it	ls
 1929 001e 90ED030A 		vldrls.32	s0, [r0, #12]
 1930              		.loc 1 371 0
 1931 0022 9A42     		cmp	r2, r3
 1932 0024 02D1     		bne	.L191
 1933 0026 03B0     		add	sp, sp, #12
 1934              		.cfi_remember_state
 1935              		.cfi_def_cfa_offset 4
 1936              		@ sp needed
 1937 0028 5DF804FB 		ldr	pc, [sp], #4
 1938              	.L191:
ARM GAS  /tmp/ccgJwALp.s 			page 35


 1939              		.cfi_restore_state
 1940 002c FFF7FEFF 		bl	__stack_chk_fail
 1941              	.LVL119:
 1942              	.L193:
 1943              		.align	2
 1944              	.L192:
 1945 0030 00000000 		.word	__stack_chk_guard
 1946 0034 00000000 		.word	.LANCHOR1
 1947 0038 00000000 		.word	0
 1948              		.cfi_endproc
 1949              	.LFE271:
 1950              		.size	get_gyro_rate, .-get_gyro_rate
 1951              		.section	.text.get_temperature,"ax",%progbits
 1952              		.align	1
 1953              		.p2align 4,,15
 1954              		.global	get_temperature
 1955              		.syntax unified
 1956              		.thumb
 1957              		.thumb_func
 1958              		.fpu fpv4-sp-d16
 1959              		.type	get_temperature, %function
 1960              	get_temperature:
 1961              	.LFB272:
 1962              		.loc 1 373 0
 1963              		.cfi_startproc
 1964              		@ args = 0, pretend = 0, frame = 8
 1965              		@ frame_needed = 0, uses_anonymous_args = 0
 1966 0000 00B5     		push	{lr}
 1967              		.cfi_def_cfa_offset 4
 1968              		.cfi_offset 14, -4
 1969 0002 084B     		ldr	r3, .L198
 1970              		.loc 1 374 0
 1971 0004 0849     		ldr	r1, .L198+4
 1972              		.loc 1 373 0
 1973 0006 1A68     		ldr	r2, [r3]
 1974              		.loc 1 375 0
 1975 0008 91ED060A 		vldr.32	s0, [r1, #24]
 1976              		.loc 1 373 0
 1977 000c 83B0     		sub	sp, sp, #12
 1978              		.cfi_def_cfa_offset 16
 1979              		.loc 1 373 0
 1980 000e 0192     		str	r2, [sp, #4]
 1981              		.loc 1 375 0
 1982 0010 019A     		ldr	r2, [sp, #4]
 1983 0012 1B68     		ldr	r3, [r3]
 1984 0014 9A42     		cmp	r2, r3
 1985 0016 02D1     		bne	.L197
 1986 0018 03B0     		add	sp, sp, #12
 1987              		.cfi_remember_state
 1988              		.cfi_def_cfa_offset 4
 1989              		@ sp needed
 1990 001a 5DF804FB 		ldr	pc, [sp], #4
 1991              	.L197:
 1992              		.cfi_restore_state
 1993 001e FFF7FEFF 		bl	__stack_chk_fail
 1994              	.LVL120:
 1995              	.L199:
ARM GAS  /tmp/ccgJwALp.s 			page 36


 1996 0022 00BF     		.align	2
 1997              	.L198:
 1998 0024 00000000 		.word	__stack_chk_guard
 1999 0028 00000000 		.word	.LANCHOR1
 2000              		.cfi_endproc
 2001              	.LFE272:
 2002              		.size	get_temperature, .-get_temperature
 2003              		.section	.text.calibrate_magnetometer,"ax",%progbits
 2004              		.align	1
 2005              		.p2align 4,,15
 2006              		.global	calibrate_magnetometer
 2007              		.syntax unified
 2008              		.thumb
 2009              		.thumb_func
 2010              		.fpu fpv4-sp-d16
 2011              		.type	calibrate_magnetometer, %function
 2012              	calibrate_magnetometer:
 2013              	.LFB273:
 2014              		.loc 1 377 0
 2015              		.cfi_startproc
 2016              		@ args = 0, pretend = 0, frame = 8
 2017              		@ frame_needed = 0, uses_anonymous_args = 0
 2018 0000 30B5     		push	{r4, r5, lr}
 2019              		.cfi_def_cfa_offset 12
 2020              		.cfi_offset 4, -12
 2021              		.cfi_offset 5, -8
 2022              		.cfi_offset 14, -4
 2023              		.loc 1 378 0
 2024 0002 0F4B     		ldr	r3, .L211
 2025              		.loc 1 377 0
 2026 0004 0F4C     		ldr	r4, .L211+4
 2027              		.loc 1 378 0
 2028 0006 1B78     		ldrb	r3, [r3]	@ zero_extendqisi2
 2029              		.loc 1 377 0
 2030 0008 2268     		ldr	r2, [r4]
 2031 000a 83B0     		sub	sp, sp, #12
 2032              		.cfi_def_cfa_offset 24
 2033              		.loc 1 377 0
 2034 000c 0192     		str	r2, [sp, #4]
 2035              		.loc 1 378 0
 2036 000e 2BB9     		cbnz	r3, .L209
 2037              	.L200:
 2038              		.loc 1 386 0
 2039 0010 019A     		ldr	r2, [sp, #4]
 2040 0012 2368     		ldr	r3, [r4]
 2041 0014 9A42     		cmp	r2, r3
 2042 0016 11D1     		bne	.L210
 2043 0018 03B0     		add	sp, sp, #12
 2044              		.cfi_remember_state
 2045              		.cfi_def_cfa_offset 12
 2046              		@ sp needed
 2047 001a 30BD     		pop	{r4, r5, pc}
 2048              	.L209:
 2049              		.cfi_restore_state
 2050              		.loc 1 379 0
 2051 001c 0A48     		ldr	r0, .L211+8
 2052              		.loc 1 381 0
ARM GAS  /tmp/ccgJwALp.s 			page 37


 2053 001e 0B4D     		ldr	r5, .L211+12
 2054              		.loc 1 379 0
 2055 0020 FFF7FEFF 		bl	mpu9250_magnetometer_read_sens_adj
 2056              	.LVL121:
 2057              		.loc 1 380 0
 2058 0024 0A4A     		ldr	r2, .L211+16
 2059 0026 0021     		movs	r1, #0
 2060              		.loc 1 381 0
 2061 0028 0123     		movs	r3, #1
 2062              		.loc 1 380 0
 2063 002a 1170     		strb	r1, [r2]
 2064              		.loc 1 381 0
 2065 002c 2B70     		strb	r3, [r5]
 2066              	.L202:
 2067              		.loc 1 383 0
 2068 002e 1420     		movs	r0, #20
 2069 0030 FFF7FEFF 		bl	chThdSleep
 2070              	.LVL122:
 2071              		.loc 1 382 0
 2072 0034 2B78     		ldrb	r3, [r5]	@ zero_extendqisi2
 2073 0036 002B     		cmp	r3, #0
 2074 0038 F9D1     		bne	.L202
 2075 003a E9E7     		b	.L200
 2076              	.L210:
 2077              		.loc 1 386 0
 2078 003c FFF7FEFF 		bl	__stack_chk_fail
 2079              	.LVL123:
 2080              	.L212:
 2081              		.align	2
 2082              	.L211:
 2083 0040 00000000 		.word	.LANCHOR3
 2084 0044 00000000 		.word	__stack_chk_guard
 2085 0048 50000000 		.word	.LANCHOR1+80
 2086 004c 00000000 		.word	.LANCHOR14
 2087 0050 00000000 		.word	.LANCHOR15
 2088              		.cfi_endproc
 2089              	.LFE273:
 2090              		.size	calibrate_magnetometer, .-calibrate_magnetometer
 2091              		.section	.text.get_mag_filtered,"ax",%progbits
 2092              		.align	1
 2093              		.p2align 4,,15
 2094              		.global	get_mag_filtered
 2095              		.syntax unified
 2096              		.thumb
 2097              		.thumb_func
 2098              		.fpu fpv4-sp-d16
 2099              		.type	get_mag_filtered, %function
 2100              	get_mag_filtered:
 2101              	.LFB274:
 2102              		.loc 1 388 0
 2103              		.cfi_startproc
 2104              		@ args = 0, pretend = 0, frame = 8
 2105              		@ frame_needed = 0, uses_anonymous_args = 0
 2106              	.LVL124:
 2107 0000 00B5     		push	{lr}
 2108              		.cfi_def_cfa_offset 4
 2109              		.cfi_offset 14, -4
ARM GAS  /tmp/ccgJwALp.s 			page 38


 2110              		.loc 1 390 0
 2111 0002 284B     		ldr	r3, .L217
 2112              		.loc 1 388 0
 2113 0004 284A     		ldr	r2, .L217+4
 2114              		.loc 1 390 0
 2115 0006 D3ED076A 		vldr.32	s13, [r3, #28]
 2116              		.loc 1 388 0
 2117 000a 1168     		ldr	r1, [r2]
 2118              		.loc 1 390 0
 2119 000c C0ED006A 		vstr.32	s13, [r0]
 2120              		.loc 1 391 0
 2121 0010 93ED087A 		vldr.32	s14, [r3, #32]
 2122 0014 80ED017A 		vstr.32	s14, [r0, #4]
 2123              		.loc 1 392 0
 2124 0018 D3ED097A 		vldr.32	s15, [r3, #36]
 2125 001c C0ED027A 		vstr.32	s15, [r0, #8]
 2126              		.loc 1 395 0
 2127 0020 93ED146A 		vldr.32	s12, [r3, #80]
 2128 0024 66EE866A 		vmul.f32	s13, s13, s12
 2129              		.loc 1 388 0
 2130 0028 83B0     		sub	sp, sp, #12
 2131              		.cfi_def_cfa_offset 16
 2132              		.loc 1 395 0
 2133 002a C0ED006A 		vstr.32	s13, [r0]
 2134              		.loc 1 396 0
 2135 002e 93ED156A 		vldr.32	s12, [r3, #84]
 2136              		.loc 1 388 0
 2137 0032 0191     		str	r1, [sp, #4]
 2138              		.loc 1 396 0
 2139 0034 27EE067A 		vmul.f32	s14, s14, s12
 2140              		.loc 1 408 0
 2141 0038 0199     		ldr	r1, [sp, #4]
 2142              		.loc 1 396 0
 2143 003a 80ED017A 		vstr.32	s14, [r0, #4]
 2144              		.loc 1 397 0
 2145 003e 93ED166A 		vldr.32	s12, [r3, #88]
 2146 0042 67EE867A 		vmul.f32	s15, s15, s12
 2147 0046 C0ED027A 		vstr.32	s15, [r0, #8]
 2148              		.loc 1 400 0
 2149 004a 93ED176A 		vldr.32	s12, [r3, #92]
 2150 004e 76EEC66A 		vsub.f32	s13, s13, s12
 2151 0052 C0ED006A 		vstr.32	s13, [r0]
 2152              		.loc 1 401 0
 2153 0056 93ED186A 		vldr.32	s12, [r3, #96]
 2154 005a 37EE467A 		vsub.f32	s14, s14, s12
 2155 005e 80ED017A 		vstr.32	s14, [r0, #4]
 2156              		.loc 1 402 0
 2157 0062 93ED196A 		vldr.32	s12, [r3, #100]
 2158 0066 77EEC67A 		vsub.f32	s15, s15, s12
 2159 006a C0ED027A 		vstr.32	s15, [r0, #8]
 2160              		.loc 1 405 0
 2161 006e 93ED1A6A 		vldr.32	s12, [r3, #104]
 2162 0072 66EE266A 		vmul.f32	s13, s12, s13
 2163 0076 C0ED006A 		vstr.32	s13, [r0]
 2164              		.loc 1 406 0
 2165 007a D3ED1B6A 		vldr.32	s13, [r3, #108]
 2166              		.loc 1 408 0
ARM GAS  /tmp/ccgJwALp.s 			page 39


 2167 007e 1268     		ldr	r2, [r2]
 2168              		.loc 1 406 0
 2169 0080 26EE877A 		vmul.f32	s14, s13, s14
 2170              		.loc 1 408 0
 2171 0084 9142     		cmp	r1, r2
 2172              		.loc 1 406 0
 2173 0086 80ED017A 		vstr.32	s14, [r0, #4]
 2174              		.loc 1 407 0
 2175 008a 93ED1C7A 		vldr.32	s14, [r3, #112]
 2176 008e 67EE277A 		vmul.f32	s15, s14, s15
 2177 0092 C0ED027A 		vstr.32	s15, [r0, #8]
 2178              		.loc 1 408 0
 2179 0096 02D1     		bne	.L216
 2180 0098 03B0     		add	sp, sp, #12
 2181              		.cfi_remember_state
 2182              		.cfi_def_cfa_offset 4
 2183              		@ sp needed
 2184 009a 5DF804FB 		ldr	pc, [sp], #4
 2185              	.L216:
 2186              		.cfi_restore_state
 2187 009e FFF7FEFF 		bl	__stack_chk_fail
 2188              	.LVL125:
 2189              	.L218:
 2190 00a2 00BF     		.align	2
 2191              	.L217:
 2192 00a4 00000000 		.word	.LANCHOR1
 2193 00a8 00000000 		.word	__stack_chk_guard
 2194              		.cfi_endproc
 2195              	.LFE274:
 2196              		.size	get_mag_filtered, .-get_mag_filtered
 2197              		.section	.text.get_magnetic_field,"ax",%progbits
 2198              		.align	1
 2199              		.p2align 4,,15
 2200              		.global	get_magnetic_field
 2201              		.syntax unified
 2202              		.thumb
 2203              		.thumb_func
 2204              		.fpu fpv4-sp-d16
 2205              		.type	get_magnetic_field, %function
 2206              	get_magnetic_field:
 2207              	.LFB275:
 2208              		.loc 1 410 0
 2209              		.cfi_startproc
 2210              		@ args = 0, pretend = 0, frame = 8
 2211              		@ frame_needed = 0, uses_anonymous_args = 0
 2212              	.LVL126:
 2213 0000 00B5     		push	{lr}
 2214              		.cfi_def_cfa_offset 4
 2215              		.cfi_offset 14, -4
 2216 0002 0B4B     		ldr	r3, .L225
 2217 0004 83B0     		sub	sp, sp, #12
 2218              		.cfi_def_cfa_offset 16
 2219              		.loc 1 410 0
 2220 0006 1A68     		ldr	r2, [r3]
 2221 0008 0192     		str	r2, [sp, #4]
 2222              		.loc 1 411 0
 2223 000a 0228     		cmp	r0, #2
ARM GAS  /tmp/ccgJwALp.s 			page 40


 2224              		.loc 1 412 0
 2225 000c 96BF     		itet	ls
 2226 000e 094A     		ldrls	r2, .L225+4
 2227              		.loc 1 414 0
 2228 0010 9FED090A 		vldrhi.32	s0, .L225+8
 2229              		.loc 1 412 0
 2230 0014 02EB8000 		addls	r0, r2, r0, lsl #2
 2231              	.LVL127:
 2232              		.loc 1 415 0
 2233 0018 019A     		ldr	r2, [sp, #4]
 2234 001a 1B68     		ldr	r3, [r3]
 2235              		.loc 1 412 0
 2236 001c 98BF     		it	ls
 2237 001e 90ED070A 		vldrls.32	s0, [r0, #28]
 2238              		.loc 1 415 0
 2239 0022 9A42     		cmp	r2, r3
 2240 0024 02D1     		bne	.L224
 2241 0026 03B0     		add	sp, sp, #12
 2242              		.cfi_remember_state
 2243              		.cfi_def_cfa_offset 4
 2244              		@ sp needed
 2245 0028 5DF804FB 		ldr	pc, [sp], #4
 2246              	.L224:
 2247              		.cfi_restore_state
 2248 002c FFF7FEFF 		bl	__stack_chk_fail
 2249              	.LVL128:
 2250              	.L226:
 2251              		.align	2
 2252              	.L225:
 2253 0030 00000000 		.word	__stack_chk_guard
 2254 0034 00000000 		.word	.LANCHOR1
 2255 0038 00000000 		.word	0
 2256              		.cfi_endproc
 2257              	.LFE275:
 2258              		.size	get_magnetic_field, .-get_magnetic_field
 2259              		.section	.bss.accAxisFilteringInProgress,"aw",%nobits
 2260              		.set	.LANCHOR4,. + 0
 2261              		.type	accAxisFilteringInProgress, %object
 2262              		.size	accAxisFilteringInProgress, 1
 2263              	accAxisFilteringInProgress:
 2264 0000 00       		.space	1
 2265              		.section	.bss.accAxisFilteringState,"aw",%nobits
 2266              		.set	.LANCHOR5,. + 0
 2267              		.type	accAxisFilteringState, %object
 2268              		.size	accAxisFilteringState, 1
 2269              	accAxisFilteringState:
 2270 0000 00       		.space	1
 2271              		.section	.bss.accAxisSelected,"aw",%nobits
 2272              		.set	.LANCHOR6,. + 0
 2273              		.type	accAxisSelected, %object
 2274              		.size	accAxisSelected, 1
 2275              	accAxisSelected:
 2276 0000 00       		.space	1
 2277              		.section	.bss.accCalibrationInProgress,"aw",%nobits
 2278              		.set	.LANCHOR8,. + 0
 2279              		.type	accCalibrationInProgress, %object
 2280              		.size	accCalibrationInProgress, 1
ARM GAS  /tmp/ccgJwALp.s 			page 41


 2281              	accCalibrationInProgress:
 2282 0000 00       		.space	1
 2283              		.section	.bss.accFilterSize,"aw",%nobits
 2284              		.set	.LANCHOR7,. + 0
 2285              		.type	accFilterSize, %object
 2286              		.size	accFilterSize, 1
 2287              	accFilterSize:
 2288 0000 00       		.space	1
 2289              		.section	.bss.gyroAxisFilteringInProgress,"aw",%nobits
 2290              		.set	.LANCHOR9,. + 0
 2291              		.type	gyroAxisFilteringInProgress, %object
 2292              		.size	gyroAxisFilteringInProgress, 1
 2293              	gyroAxisFilteringInProgress:
 2294 0000 00       		.space	1
 2295              		.section	.bss.gyroAxisFilteringState,"aw",%nobits
 2296              		.set	.LANCHOR10,. + 0
 2297              		.type	gyroAxisFilteringState, %object
 2298              		.size	gyroAxisFilteringState, 1
 2299              	gyroAxisFilteringState:
 2300 0000 00       		.space	1
 2301              		.section	.bss.gyroAxisSelected,"aw",%nobits
 2302              		.set	.LANCHOR11,. + 0
 2303              		.type	gyroAxisSelected, %object
 2304              		.size	gyroAxisSelected, 1
 2305              	gyroAxisSelected:
 2306 0000 00       		.space	1
 2307              		.section	.bss.gyroCalibrationInProgress,"aw",%nobits
 2308              		.set	.LANCHOR13,. + 0
 2309              		.type	gyroCalibrationInProgress, %object
 2310              		.size	gyroCalibrationInProgress, 1
 2311              	gyroCalibrationInProgress:
 2312 0000 00       		.space	1
 2313              		.section	.bss.gyroFilterSize,"aw",%nobits
 2314              		.set	.LANCHOR12,. + 0
 2315              		.type	gyroFilterSize, %object
 2316              		.size	gyroFilterSize, 1
 2317              	gyroFilterSize:
 2318 0000 00       		.space	1
 2319              		.section	.bss.imuThd,"aw",%nobits
 2320              		.align	2
 2321              		.set	.LANCHOR17,. + 0
 2322              		.type	imuThd, %object
 2323              		.size	imuThd, 4
 2324              	imuThd:
 2325 0000 00000000 		.space	4
 2326              		.section	.bss.imu_configured,"aw",%nobits
 2327              		.set	.LANCHOR3,. + 0
 2328              		.type	imu_configured, %object
 2329              		.size	imu_configured, 1
 2330              	imu_configured:
 2331 0000 00       		.space	1
 2332              		.section	.bss.imu_reader_thd_wa,"aw",%nobits
 2333              		.align	3
 2334              		.set	.LANCHOR16,. + 0
 2335              		.type	imu_reader_thd_wa, %object
 2336              		.size	imu_reader_thd_wa, 888
 2337              	imu_reader_thd_wa:
ARM GAS  /tmp/ccgJwALp.s 			page 42


 2338 0000 00000000 		.space	888
 2338      00000000 
 2338      00000000 
 2338      00000000 
 2338      00000000 
 2339              		.section	.bss.imu_values,"aw",%nobits
 2340              		.align	2
 2341              		.set	.LANCHOR1,. + 0
 2342              		.type	imu_values, %object
 2343              		.size	imu_values, 116
 2344              	imu_values:
 2345 0000 00000000 		.space	116
 2345      00000000 
 2345      00000000 
 2345      00000000 
 2345      00000000 
 2346              		.section	.bss.magCalibrationInProgress,"aw",%nobits
 2347              		.set	.LANCHOR14,. + 0
 2348              		.type	magCalibrationInProgress, %object
 2349              		.size	magCalibrationInProgress, 1
 2350              	magCalibrationInProgress:
 2351 0000 00       		.space	1
 2352              		.section	.bss.magCalibrationState,"aw",%nobits
 2353              		.set	.LANCHOR15,. + 0
 2354              		.type	magCalibrationState, %object
 2355              		.size	magCalibrationState, 1
 2356              	magCalibrationState:
 2357 0000 00       		.space	1
 2358              		.section	.rodata.__FUNCTION__.11268,"a",%progbits
 2359              		.align	2
 2360              		.set	.LANCHOR0,. + 0
 2361              		.type	__FUNCTION__.11268, %object
 2362              		.size	__FUNCTION__.11268, 15
 2363              	__FUNCTION__.11268:
 2364 0000 696D755F 		.ascii	"imu_reader_thd\000"
 2364      72656164 
 2364      65725F74 
 2364      686400
 2365              		.section	.rodata.__func__.7153,"a",%progbits
 2366              		.align	2
 2367              		.set	.LANCHOR2,. + 0
 2368              		.type	__func__.7153, %object
 2369              		.size	__func__.7153, 12
 2370              	__func__.7153:
 2371 0000 63685379 		.ascii	"chSysUnlock\000"
 2371      73556E6C 
 2371      6F636B00 
 2372              		.section	.rodata.imu_reader_thd.str1.4,"aMS",%progbits,1
 2373              		.align	2
 2374              	.LC0:
 2375 0000 2F696D75 		.ascii	"/imu\000"
 2375      00
 2376              		.text
 2377              	.Letext0:
 2378              		.file 7 "/home/leander/uos_codes/epuck2_lab/Eclipse_e-puck2/Tools/gcc-arm-none-eabi-7-2017-q4-majo
 2379              		.file 8 "/home/leander/uos_codes/epuck2_lab/Eclipse_e-puck2/Tools/gcc-arm-none-eabi-7-2017-q4-majo
 2380              		.file 9 "/home/leander/uos_codes/epuck2_lab/Eclipse_e-puck2/Tools/gcc-arm-none-eabi-7-2017-q4-majo
ARM GAS  /tmp/ccgJwALp.s 			page 43


 2381              		.file 10 "../e-puck2_main-processor/ChibiOS//os/rt/ports/ARMCMx/compilers/GCC/chtypes.h"
 2382              		.file 11 "../e-puck2_main-processor/ChibiOS//os/rt/include/chsystypes.h"
 2383              		.file 12 "../e-puck2_main-processor/ChibiOS//os/rt/include/chschd.h"
 2384              		.file 13 "../e-puck2_main-processor/ChibiOS//os/ext/CMSIS/include/core_cm4.h"
 2385              		.file 14 "../e-puck2_main-processor/ChibiOS//os/ext/CMSIS/ST/system_stm32f4xx.h"
 2386              		.file 15 "../e-puck2_main-processor/ChibiOS//os/ext/CMSIS/ST/stm32f407xx.h"
 2387              		.file 16 "../e-puck2_main-processor/ChibiOS//os/rt/ports/ARMCMx/chcore.h"
 2388              		.file 17 "../e-puck2_main-processor/ChibiOS//os/rt/ports/ARMCMx/chcore_v7m.h"
 2389              		.file 18 "../e-puck2_main-processor/ChibiOS//os/rt/include/chdebug.h"
 2390              		.file 19 "../e-puck2_main-processor/ChibiOS//os/rt/include/chtm.h"
 2391              		.file 20 "../e-puck2_main-processor/ChibiOS//os/rt/include/chstats.h"
 2392              		.file 21 "../e-puck2_main-processor/ChibiOS//os/rt/include/chsem.h"
 2393              		.file 22 "../e-puck2_main-processor/ChibiOS//os/rt/include/chmtx.h"
 2394              		.file 23 "../e-puck2_main-processor/ChibiOS//os/rt/include/chcond.h"
 2395              		.file 24 "../e-puck2_main-processor/ChibiOS//os/rt/include/chevents.h"
 2396              		.file 25 "../e-puck2_main-processor/ChibiOS//os/rt/include/chqueues.h"
 2397              		.file 26 "../e-puck2_main-processor/ChibiOS//os/hal/ports/STM32/STM32F4xx/stm32_dma.h"
 2398              		.file 27 "../e-puck2_main-processor/ChibiOS//os/hal/include/hal_ioblock.h"
 2399              		.file 28 "../e-puck2_main-processor/ChibiOS//os/hal/ports/STM32/LLD/GPIOv2/pal_lld.h"
 2400              		.file 29 "../e-puck2_main-processor/ChibiOS//os/hal/include/adc.h"
 2401              		.file 30 "../e-puck2_main-processor/ChibiOS//os/hal/ports/STM32/STM32F4xx/adc_lld.h"
 2402              		.file 31 "../e-puck2_main-processor/ChibiOS//os/hal/include/can.h"
 2403              		.file 32 "../e-puck2_main-processor/ChibiOS//os/hal/ports/STM32/LLD/can_lld.h"
 2404              		.file 33 "../e-puck2_main-processor/ChibiOS//os/hal/include/dac.h"
 2405              		.file 34 "../e-puck2_main-processor/ChibiOS//os/hal/ports/STM32/LLD/DACv1/dac_lld.h"
 2406              		.file 35 "../e-puck2_main-processor/ChibiOS//os/hal/include/ext.h"
 2407              		.file 36 "../e-puck2_main-processor/ChibiOS//os/hal/ports/STM32/LLD/ext_lld.h"
 2408              		.file 37 "../e-puck2_main-processor/ChibiOS//os/hal/include/gpt.h"
 2409              		.file 38 "../e-puck2_main-processor/ChibiOS//os/hal/ports/STM32/LLD/TIMv1/gpt_lld.h"
 2410              		.file 39 "../e-puck2_main-processor/ChibiOS//os/hal/ports/STM32/LLD/TIMv1/stm32_tim.h"
 2411              		.file 40 "../e-puck2_main-processor/ChibiOS//os/hal/include/i2c.h"
 2412              		.file 41 "../e-puck2_main-processor/ChibiOS//os/hal/ports/STM32/LLD/I2Cv1/i2c_lld.h"
 2413              		.file 42 "../e-puck2_main-processor/ChibiOS//os/hal/include/i2s.h"
 2414              		.file 43 "../e-puck2_main-processor/ChibiOS//os/hal/ports/STM32/LLD/SPIv1/i2s_lld.h"
 2415              		.file 44 "../e-puck2_main-processor/ChibiOS//os/hal/include/pwm.h"
 2416              		.file 45 "../e-puck2_main-processor/ChibiOS//os/hal/ports/STM32/LLD/TIMv1/pwm_lld.h"
 2417              		.file 46 "../e-puck2_main-processor/ChibiOS//os/hal/include/serial.h"
 2418              		.file 47 "../e-puck2_main-processor/ChibiOS//os/hal/ports/STM32/LLD/USARTv1/serial_lld.h"
 2419              		.file 48 "../e-puck2_main-processor/ChibiOS//os/hal/include/sdc.h"
 2420              		.file 49 "../e-puck2_main-processor/ChibiOS//os/hal/ports/STM32/LLD/sdc_lld.h"
 2421              		.file 50 "../e-puck2_main-processor/ChibiOS//os/hal/include/spi.h"
 2422              		.file 51 "../e-puck2_main-processor/ChibiOS//os/hal/ports/STM32/LLD/SPIv1/spi_lld.h"
 2423              		.file 52 "../e-puck2_main-processor/ChibiOS//os/hal/include/usb.h"
 2424              		.file 53 "../e-puck2_main-processor/ChibiOS//os/hal/ports/STM32/LLD/OTGv1/usb_lld.h"
 2425              		.file 54 "../e-puck2_main-processor/ChibiOS//os/hal/ports/STM32/LLD/OTGv1/stm32_otg.h"
 2426              		.file 55 "../e-puck2_main-processor/ChibiOS//os/hal/include/serial_usb.h"
 2427              		.file 56 "/home/leander/uos_codes/epuck2_lab/Eclipse_e-puck2/Tools/gcc-arm-none-eabi-7-2017-q4-maj
 2428              		.file 57 "/home/leander/uos_codes/epuck2_lab/Eclipse_e-puck2/Tools/gcc-arm-none-eabi-7-2017-q4-maj
 2429              		.file 58 "/home/leander/uos_codes/epuck2_lab/Eclipse_e-puck2/Tools/gcc-arm-none-eabi-7-2017-q4-maj
 2430              		.file 59 "../e-puck2_main-processor/src/msgbus/messagebus.h"
 2431              		.file 60 "/home/leander/uos_codes/epuck2_lab/Eclipse_e-puck2/Tools/gcc-arm-none-eabi-7-2017-q4-maj
 2432              		.file 61 "/home/leander/uos_codes/epuck2_lab/Eclipse_e-puck2/Tools/gcc-arm-none-eabi-7-2017-q4-maj
 2433              		.file 62 "../e-puck2_main-processor/src/parameter/parameter.h"
 2434              		.file 63 "./main.h"
 2435              		.file 64 "../e-puck2_main-processor/src/usbcfg.h"
 2436              		.file 65 "../e-puck2_main-processor/src/sensors/imu.h"
 2437              		.file 66 "../e-puck2_main-processor/src/sensors/mpu9250.h"
ARM GAS  /tmp/ccgJwALp.s 			page 44


 2438              		.file 67 "../e-puck2_main-processor/src/i2c_bus.h"