ARM GAS  /tmp/ccLFRIHV.s 			page 1


   1              		.cpu cortex-m4
   2              		.eabi_attribute 27, 1
   3              		.eabi_attribute 28, 1
   4              		.eabi_attribute 20, 1
   5              		.eabi_attribute 21, 1
   6              		.eabi_attribute 23, 3
   7              		.eabi_attribute 24, 1
   8              		.eabi_attribute 25, 1
   9              		.eabi_attribute 26, 1
  10              		.eabi_attribute 30, 2
  11              		.eabi_attribute 34, 1
  12              		.eabi_attribute 18, 4
  13              		.file	"ircomSend.c"
  14              		.text
  15              	.Ltext0:
  16              		.cfi_sections	.debug_frame
  17              		.section	.text.ircomSendCalcSending,"ax",%progbits
  18              		.align	1
  19              		.p2align 4,,15
  20              		.global	ircomSendCalcSending
  21              		.syntax unified
  22              		.thumb
  23              		.thumb_func
  24              		.fpu fpv4-sp-d16
  25              		.type	ircomSendCalcSending, %function
  26              	ircomSendCalcSending:
  27              	.LFB257:
  28              		.file 1 "../e-puck2_main-processor/src/ircom/ircomSend.c"
  29              		.loc 1 72 0
  30              		.cfi_startproc
  31              		@ args = 0, pretend = 0, frame = 16
  32              		@ frame_needed = 0, uses_anonymous_args = 0
  33              	.LVL0:
  34 0000 F0B5     		push	{r4, r5, r6, r7, lr}
  35              		.cfi_def_cfa_offset 20
  36              		.cfi_offset 4, -20
  37              		.cfi_offset 5, -16
  38              		.cfi_offset 6, -12
  39              		.cfi_offset 7, -8
  40              		.cfi_offset 14, -4
  41 0002 2C4C     		ldr	r4, .L20
  42 0004 85B0     		sub	sp, sp, #20
  43              		.cfi_def_cfa_offset 40
  44              		.loc 1 75 0
  45 0006 6D46     		mov	r5, sp
  46              		.loc 1 72 0
  47 0008 2368     		ldr	r3, [r4]
  48 000a 0393     		str	r3, [sp, #12]
  49              		.loc 1 75 0
  50 000c 2946     		mov	r1, r5
  51 000e FFF7FEFF 		bl	ircomInt2Bin
  52              	.LVL1:
  53 0012 0DF10706 		add	r6, sp, #7
  54 0016 2846     		mov	r0, r5
  55 0018 0DF1FF33 		add	r3, sp, #-1
  56              		.loc 1 78 0
  57 001c 0021     		movs	r1, #0
ARM GAS  /tmp/ccLFRIHV.s 			page 2


  58              	.LVL2:
  59              	.L3:
  60              		.loc 1 81 0
  61 001e 13F8012F 		ldrb	r2, [r3, #1]!	@ zero_extendqisi2
  62              	.LVL3:
  63 0022 012A     		cmp	r2, #1
  64              		.loc 1 82 0
  65 0024 08BF     		it	eq
  66 0026 0131     		addeq	r1, r1, #1
  67              	.LVL4:
  68              		.loc 1 79 0
  69 0028 B342     		cmp	r3, r6
  70 002a F8D1     		bne	.L3
  71              		.loc 1 84 0
  72 002c 01F00301 		and	r1, r1, #3
  73              	.LVL5:
  74              		.loc 1 85 0
  75 0030 C1F10401 		rsb	r1, r1, #4
  76              	.LVL6:
  77              		.loc 1 88 0
  78 0034 01F00102 		and	r2, r1, #1
  79              		.loc 1 89 0
  80 0038 C1F34001 		ubfx	r1, r1, #1, #1
  81              	.LVL7:
  82              		.loc 1 88 0
  83 003c 8DF80920 		strb	r2, [sp, #9]
  84              		.loc 1 89 0
  85 0040 8DF80810 		strb	r1, [sp, #8]
  86              	.LVL8:
  87 0044 0DF10903 		add	r3, sp, #9
  88 0048 01E0     		b	.L5
  89              	.LVL9:
  90              	.L16:
  91 004a 13F8012D 		ldrb	r2, [r3, #-1]!	@ zero_extendqisi2
  92              	.LVL10:
  93              	.L5:
  94              		.loc 1 94 0 discriminator 3
  95 004e 9A70     		strb	r2, [r3, #2]
  96              	.LVL11:
  97              		.loc 1 92 0 discriminator 3
  98 0050 AB42     		cmp	r3, r5
  99 0052 FAD1     		bne	.L16
 100              		.loc 1 96 0
 101 0054 0023     		movs	r3, #0
 102              	.LVL12:
 103 0056 1946     		mov	r1, r3
 104              		.loc 1 111 0
 105 0058 174A     		ldr	r2, .L20+4
 106              		.loc 1 96 0
 107 005a ADF80030 		strh	r3, [sp]	@ movhi
 108              	.LVL13:
 109              		.loc 1 102 0
 110 005e 89B9     		cbnz	r1, .L6
 111              	.LVL14:
 112              	.L17:
 113              		.loc 1 104 0
 114 0060 D2E90E67 		ldrd	r6, [r2, #56]
ARM GAS  /tmp/ccLFRIHV.s 			page 3


 115 0064 02EBC301 		add	r1, r2, r3, lsl #3
 116 0068 C1E91267 		strd	r6, [r1, #72]
 117              		.loc 1 105 0
 118 006c 03F12A01 		add	r1, r3, #42
 119 0070 D56A     		ldr	r5, [r2, #44]
 120 0072 42F82150 		str	r5, [r2, r1, lsl #2]
 121              	.L7:
 122              		.loc 1 99 0 discriminator 2
 123 0076 0133     		adds	r3, r3, #1
 124              	.LVL15:
 125 0078 0C2B     		cmp	r3, #12
 126 007a 13D0     		beq	.L1
 127              	.L18:
 128 007c 10F8011F 		ldrb	r1, [r0, #1]!	@ zero_extendqisi2
 129              		.loc 1 102 0
 130 0080 0029     		cmp	r1, #0
 131 0082 EDD0     		beq	.L17
 132              	.L6:
 133              		.loc 1 109 0
 134 0084 0129     		cmp	r1, #1
 135 0086 F6D1     		bne	.L7
 136              		.loc 1 111 0
 137 0088 D2E91067 		ldrd	r6, [r2, #64]
 138 008c 02EBC301 		add	r1, r2, r3, lsl #3
 139 0090 C1E91267 		strd	r6, [r1, #72]
 140              		.loc 1 112 0
 141 0094 03F12A01 		add	r1, r3, #42
 142              		.loc 1 99 0
 143 0098 0133     		adds	r3, r3, #1
 144              	.LVL16:
 145              		.loc 1 112 0
 146 009a 156B     		ldr	r5, [r2, #48]
 147 009c 42F82150 		str	r5, [r2, r1, lsl #2]
 148              		.loc 1 99 0
 149 00a0 0C2B     		cmp	r3, #12
 150 00a2 EBD1     		bne	.L18
 151              	.L1:
 152              		.loc 1 115 0
 153 00a4 039A     		ldr	r2, [sp, #12]
 154 00a6 2368     		ldr	r3, [r4]
 155              	.LVL17:
 156 00a8 9A42     		cmp	r2, r3
 157 00aa 01D1     		bne	.L19
 158 00ac 05B0     		add	sp, sp, #20
 159              		.cfi_remember_state
 160              		.cfi_def_cfa_offset 20
 161              		@ sp needed
 162 00ae F0BD     		pop	{r4, r5, r6, r7, pc}
 163              	.L19:
 164              		.cfi_restore_state
 165 00b0 FFF7FEFF 		bl	__stack_chk_fail
 166              	.LVL18:
 167              	.L21:
 168              		.align	2
 169              	.L20:
 170 00b4 00000000 		.word	__stack_chk_guard
 171 00b8 00000000 		.word	ircomSendData
ARM GAS  /tmp/ccLFRIHV.s 			page 4


 172              		.cfi_endproc
 173              	.LFE257:
 174              		.size	ircomSendCalcSending, .-ircomSendCalcSending
 175              		.section	.text.ircomSendDone,"ax",%progbits
 176              		.align	1
 177              		.p2align 4,,15
 178              		.global	ircomSendDone
 179              		.syntax unified
 180              		.thumb
 181              		.thumb_func
 182              		.fpu fpv4-sp-d16
 183              		.type	ircomSendDone, %function
 184              	ircomSendDone:
 185              	.LFB258:
 186              		.loc 1 122 0
 187              		.cfi_startproc
 188              		@ args = 0, pretend = 0, frame = 8
 189              		@ frame_needed = 0, uses_anonymous_args = 0
 190 0000 00B5     		push	{lr}
 191              		.cfi_def_cfa_offset 4
 192              		.cfi_offset 14, -4
 193 0002 074B     		ldr	r3, .L26
 194              		.loc 1 123 0
 195 0004 074A     		ldr	r2, .L26+4
 196              		.loc 1 122 0
 197 0006 1968     		ldr	r1, [r3]
 198 0008 83B0     		sub	sp, sp, #12
 199              		.cfi_def_cfa_offset 16
 200              		.loc 1 122 0
 201 000a 0191     		str	r1, [sp, #4]
 202              		.loc 1 123 0
 203 000c 1068     		ldr	r0, [r2]
 204              		.loc 1 124 0
 205 000e 019A     		ldr	r2, [sp, #4]
 206 0010 1B68     		ldr	r3, [r3]
 207 0012 9A42     		cmp	r2, r3
 208 0014 02D1     		bne	.L25
 209 0016 03B0     		add	sp, sp, #12
 210              		.cfi_remember_state
 211              		.cfi_def_cfa_offset 4
 212              		@ sp needed
 213 0018 5DF804FB 		ldr	pc, [sp], #4
 214              	.L25:
 215              		.cfi_restore_state
 216 001c FFF7FEFF 		bl	__stack_chk_fail
 217              	.LVL19:
 218              	.L27:
 219              		.align	2
 220              	.L26:
 221 0020 00000000 		.word	__stack_chk_guard
 222 0024 00000000 		.word	ircomSendData
 223              		.cfi_endproc
 224              	.LFE258:
 225              		.size	ircomSendDone, .-ircomSendDone
 226              		.section	.text.ircomIsSending,"ax",%progbits
 227              		.align	1
 228              		.p2align 4,,15
ARM GAS  /tmp/ccLFRIHV.s 			page 5


 229              		.global	ircomIsSending
 230              		.syntax unified
 231              		.thumb
 232              		.thumb_func
 233              		.fpu fpv4-sp-d16
 234              		.type	ircomIsSending, %function
 235              	ircomIsSending:
 236              	.LFB259:
 237              		.loc 1 127 0
 238              		.cfi_startproc
 239              		@ args = 0, pretend = 0, frame = 8
 240              		@ frame_needed = 0, uses_anonymous_args = 0
 241 0000 00B5     		push	{lr}
 242              		.cfi_def_cfa_offset 4
 243              		.cfi_offset 14, -4
 244 0002 0A4B     		ldr	r3, .L32
 245              		.loc 1 128 0
 246 0004 0A4A     		ldr	r2, .L32+4
 247              		.loc 1 127 0
 248 0006 1968     		ldr	r1, [r3]
 249 0008 83B0     		sub	sp, sp, #12
 250              		.cfi_def_cfa_offset 16
 251              		.loc 1 127 0
 252 000a 0191     		str	r1, [sp, #4]
 253              		.loc 1 128 0
 254 000c 5068     		ldr	r0, [r2, #4]
 255              		.loc 1 132 0
 256 000e 019A     		ldr	r2, [sp, #4]
 257 0010 1B68     		ldr	r3, [r3]
 258 0012 A0F10200 		sub	r0, #2
 259 0016 B0FA80F0 		clz	r0, r0
 260 001a 9A42     		cmp	r2, r3
 261 001c 4FEA5010 		lsr	r0, r0, #5
 262 0020 02D1     		bne	.L31
 263 0022 03B0     		add	sp, sp, #12
 264              		.cfi_remember_state
 265              		.cfi_def_cfa_offset 4
 266              		@ sp needed
 267 0024 5DF804FB 		ldr	pc, [sp], #4
 268              	.L31:
 269              		.cfi_restore_state
 270 0028 FFF7FEFF 		bl	__stack_chk_fail
 271              	.LVL20:
 272              	.L33:
 273              		.align	2
 274              	.L32:
 275 002c 00000000 		.word	__stack_chk_guard
 276 0030 00000000 		.word	ircomData
 277              		.cfi_endproc
 278              	.LFE259:
 279              		.size	ircomIsSending, .-ircomIsSending
 280              		.global	__aeabi_dsub
 281              		.global	__aeabi_d2uiz
 282              		.section	.text.ircomSendNextBit,"ax",%progbits
 283              		.align	1
 284              		.p2align 4,,15
 285              		.global	ircomSendNextBit
ARM GAS  /tmp/ccLFRIHV.s 			page 6


 286              		.syntax unified
 287              		.thumb
 288              		.thumb_func
 289              		.fpu fpv4-sp-d16
 290              		.type	ircomSendNextBit, %function
 291              	ircomSendNextBit:
 292              	.LFB261:
 293              		.loc 1 194 0
 294              		.cfi_startproc
 295              		@ args = 0, pretend = 0, frame = 8
 296              		@ frame_needed = 0, uses_anonymous_args = 0
 297 0000 70B5     		push	{r4, r5, r6, lr}
 298              		.cfi_def_cfa_offset 16
 299              		.cfi_offset 4, -16
 300              		.cfi_offset 5, -12
 301              		.cfi_offset 6, -8
 302              		.cfi_offset 14, -4
 303 0002 274D     		ldr	r5, .L43
 304              		.loc 1 196 0
 305 0004 274C     		ldr	r4, .L43+4
 306              		.loc 1 194 0
 307 0006 2B68     		ldr	r3, [r5]
 308 0008 274A     		ldr	r2, .L43+8
 309 000a 82B0     		sub	sp, sp, #8
 310              		.cfi_def_cfa_offset 24
 311 000c D668     		ldr	r6, [r2, #12]
 312              		.loc 1 194 0
 313 000e 0193     		str	r3, [sp, #4]
 314              		.loc 1 196 0
 315 0010 A36A     		ldr	r3, [r4, #40]
 316 0012 0B2B     		cmp	r3, #11
 317 0014 1ADC     		bgt	.L35
 318              		.loc 1 198 0
 319 0016 0023     		movs	r3, #0
 320 0018 E361     		str	r3, [r4, #28]
 321              		.loc 1 199 0
 322 001a A36A     		ldr	r3, [r4, #40]
 323 001c 04EBC303 		add	r3, r4, r3, lsl #3
 324 0020 D3E91201 		ldrd	r0, [r3, #72]
 325 0024 0022     		movs	r2, #0
 326 0026 214B     		ldr	r3, .L43+12
 327 0028 FFF7FEFF 		bl	__aeabi_dsub
 328              	.LVL21:
 329 002c FFF7FEFF 		bl	__aeabi_d2uiz
 330              	.LVL22:
 331 0030 F062     		str	r0, [r6, #44]
 332              		.loc 1 200 0
 333 0032 A36A     		ldr	r3, [r4, #40]
 334 0034 5A1C     		adds	r2, r3, #1
 335 0036 2A33     		adds	r3, r3, #42
 336 0038 A262     		str	r2, [r4, #40]
 337 003a 54F82330 		ldr	r3, [r4, r3, lsl #2]
 338 003e 2362     		str	r3, [r4, #32]
 339              		.loc 1 226 0
 340 0040 019A     		ldr	r2, [sp, #4]
 341 0042 2B68     		ldr	r3, [r5]
 342 0044 9A42     		cmp	r2, r3
ARM GAS  /tmp/ccLFRIHV.s 			page 7


 343 0046 28D1     		bne	.L40
 344 0048 02B0     		add	sp, sp, #8
 345              		.cfi_remember_state
 346              		.cfi_def_cfa_offset 16
 347              		@ sp needed
 348 004a 70BD     		pop	{r4, r5, r6, pc}
 349              	.L35:
 350              		.cfi_restore_state
 351              	.LBB4:
 352              	.LBB5:
 353              		.loc 1 206 0
 354 004c 184A     		ldr	r2, .L43+16
 355              		.loc 1 208 0
 356 004e 194B     		ldr	r3, .L43+20
 357              		.loc 1 213 0
 358 0050 1949     		ldr	r1, .L43+24
 359              		.loc 1 206 0
 360 0052 4FF48050 		mov	r0, #4096
 361 0056 5083     		strh	r0, [r2, #26]	@ movhi
 362              		.loc 1 207 0
 363 0058 4FF48040 		mov	r0, #16384
 364 005c 5083     		strh	r0, [r2, #26]	@ movhi
 365              		.loc 1 208 0
 366 005e 0422     		movs	r2, #4
 367 0060 5A83     		strh	r2, [r3, #26]	@ movhi
 368              		.loc 1 209 0
 369 0062 0822     		movs	r2, #8
 370 0064 5A83     		strh	r2, [r3, #26]	@ movhi
 371              		.loc 1 211 0
 372 0066 0122     		movs	r2, #1
 373              		.loc 1 212 0
 374 0068 6323     		movs	r3, #99
 375              		.loc 1 211 0
 376 006a 2260     		str	r2, [r4]
 377              		.loc 1 212 0
 378 006c F362     		str	r3, [r6, #44]
 379              		.loc 1 213 0
 380 006e 0023     		movs	r3, #0
 381 0070 4B60     		str	r3, [r1, #4]
 382              		.loc 1 216 0
 383 0072 FFF7FEFF 		bl	ircomEnableProximity
 384              	.LVL23:
 385              		.loc 1 219 0
 386 0076 D4F8D830 		ldr	r3, [r4, #216]
 387 007a 012B     		cmp	r3, #1
 388 007c 0AD0     		beq	.L42
 389              	.L37:
 390              		.loc 1 223 0
 391 007e FFF7FEFF 		bl	ircom_scan_reset
 392              	.LVL24:
 393              		.loc 1 224 0
 394 0082 019A     		ldr	r2, [sp, #4]
 395 0084 2B68     		ldr	r3, [r5]
 396 0086 9A42     		cmp	r2, r3
 397 0088 07D1     		bne	.L40
 398              	.LBE5:
 399              	.LBE4:
ARM GAS  /tmp/ccLFRIHV.s 			page 8


 400              		.loc 1 226 0
 401 008a 02B0     		add	sp, sp, #8
 402              		.cfi_remember_state
 403              		.cfi_def_cfa_offset 16
 404              		@ sp needed
 405 008c BDE87040 		pop	{r4, r5, r6, lr}
 406              		.cfi_restore 14
 407              		.cfi_restore 6
 408              		.cfi_restore 5
 409              		.cfi_restore 4
 410              		.cfi_def_cfa_offset 0
 411              	.LBB7:
 412              	.LBB6:
 413              		.loc 1 224 0
 414 0090 FFF7FEBF 		b	ircom_adc_on
 415              	.LVL25:
 416              	.L42:
 417              		.cfi_restore_state
 418              		.loc 1 220 0
 419 0094 FFF7FEFF 		bl	ircomListen
 420              	.LVL26:
 421 0098 F1E7     		b	.L37
 422              	.L40:
 423              	.LBE6:
 424              	.LBE7:
 425              		.loc 1 226 0
 426 009a FFF7FEFF 		bl	__stack_chk_fail
 427              	.LVL27:
 428              	.L44:
 429 009e 00BF     		.align	2
 430              	.L43:
 431 00a0 00000000 		.word	__stack_chk_guard
 432 00a4 00000000 		.word	ircomSendData
 433 00a8 00000000 		.word	GPTD14
 434 00ac 0000F03F 		.word	1072693248
 435 00b0 00040240 		.word	1073873920
 436 00b4 00100240 		.word	1073876992
 437 00b8 00000000 		.word	ircomData
 438              		.cfi_endproc
 439              	.LFE261:
 440              		.size	ircomSendNextBit, .-ircomSendNextBit
 441              		.section	.text.ircomSend,"ax",%progbits
 442              		.align	1
 443              		.p2align 4,,15
 444              		.global	ircomSend
 445              		.syntax unified
 446              		.thumb
 447              		.thumb_func
 448              		.fpu fpv4-sp-d16
 449              		.type	ircomSend, %function
 450              	ircomSend:
 451              	.LFB256:
 452              		.loc 1 36 0
 453              		.cfi_startproc
 454              		@ args = 0, pretend = 0, frame = 8
 455              		@ frame_needed = 0, uses_anonymous_args = 0
 456              	.LVL28:
ARM GAS  /tmp/ccLFRIHV.s 			page 9


 457 0000 2DE9F041 		push	{r4, r5, r6, r7, r8, lr}
 458              		.cfi_def_cfa_offset 24
 459              		.cfi_offset 4, -24
 460              		.cfi_offset 5, -20
 461              		.cfi_offset 6, -16
 462              		.cfi_offset 7, -12
 463              		.cfi_offset 8, -8
 464              		.cfi_offset 14, -4
 465 0004 174E     		ldr	r6, .L53
 466              		.loc 1 41 0
 467 0006 184F     		ldr	r7, .L53+4
 468              		.loc 1 36 0
 469 0008 3368     		ldr	r3, [r6]
 470              		.loc 1 43 0
 471 000a 184D     		ldr	r5, .L53+8
 472              		.loc 1 36 0
 473 000c 82B0     		sub	sp, sp, #8
 474              		.cfi_def_cfa_offset 32
 475              		.loc 1 36 0
 476 000e 8046     		mov	r8, r0
 477              		.loc 1 38 0
 478 0010 0120     		movs	r0, #1
 479              	.LVL29:
 480              		.loc 1 36 0
 481 0012 0193     		str	r3, [sp, #4]
 482              		.loc 1 38 0
 483 0014 FFF7FEFF 		bl	ircomPause
 484              	.LVL30:
 485              		.loc 1 41 0
 486 0018 7C68     		ldr	r4, [r7, #4]
 487 001a 012C     		cmp	r4, #1
 488 001c 1BD0     		beq	.L51
 489              		.loc 1 45 0
 490 001e 0023     		movs	r3, #0
 491 0020 C5F8D830 		str	r3, [r5, #216]
 492              	.L47:
 493              		.loc 1 49 0
 494 0024 FFF7FEFF 		bl	ircom_adc_off
 495              	.LVL31:
 496              		.loc 1 58 0
 497 0028 0024     		movs	r4, #0
 498              		.loc 1 52 0
 499 002a FFF7FEFF 		bl	ircomDisableProximity
 500              	.LVL32:
 501              		.loc 1 55 0
 502 002e 4046     		mov	r0, r8
 503 0030 FFF7FEFF 		bl	ircomSendCalcSending
 504              	.LVL33:
 505              		.loc 1 58 0
 506 0034 2C60     		str	r4, [r5]
 507              		.loc 1 59 0
 508 0036 AC62     		str	r4, [r5, #40]
 509              		.loc 1 60 0
 510 0038 AC61     		str	r4, [r5, #24]
 511              		.loc 1 61 0
 512 003a FFF7FEFF 		bl	ircomSendNextBit
 513              	.LVL34:
ARM GAS  /tmp/ccLFRIHV.s 			page 10


 514              		.loc 1 64 0
 515 003e 0223     		movs	r3, #2
 516 0040 7B60     		str	r3, [r7, #4]
 517              		.loc 1 67 0
 518 0042 019A     		ldr	r2, [sp, #4]
 519 0044 3368     		ldr	r3, [r6]
 520 0046 9A42     		cmp	r2, r3
 521 0048 0AD1     		bne	.L52
 522 004a 2046     		mov	r0, r4
 523              		.loc 1 68 0
 524 004c 02B0     		add	sp, sp, #8
 525              		.cfi_remember_state
 526              		.cfi_def_cfa_offset 24
 527              		@ sp needed
 528 004e BDE8F041 		pop	{r4, r5, r6, r7, r8, lr}
 529              		.cfi_restore 14
 530              		.cfi_restore 8
 531              		.cfi_restore 7
 532              		.cfi_restore 6
 533              		.cfi_restore 5
 534              		.cfi_restore 4
 535              		.cfi_def_cfa_offset 0
 536              	.LVL35:
 537              		.loc 1 67 0
 538 0052 FFF7FEBF 		b	ircomPause
 539              	.LVL36:
 540              	.L51:
 541              		.cfi_restore_state
 542              		.loc 1 42 0
 543 0056 FFF7FEFF 		bl	ircomStopListening
 544              	.LVL37:
 545              		.loc 1 43 0
 546 005a C5F8D840 		str	r4, [r5, #216]
 547 005e E1E7     		b	.L47
 548              	.L52:
 549              		.loc 1 67 0
 550 0060 FFF7FEFF 		bl	__stack_chk_fail
 551              	.LVL38:
 552              	.L54:
 553              		.align	2
 554              	.L53:
 555 0064 00000000 		.word	__stack_chk_guard
 556 0068 00000000 		.word	ircomData
 557 006c 00000000 		.word	ircomSendData
 558              		.cfi_endproc
 559              	.LFE256:
 560              		.size	ircomSend, .-ircomSend
 561              		.section	.text.ircomSendMain,"ax",%progbits
 562              		.align	1
 563              		.p2align 4,,15
 564              		.global	ircomSendMain
 565              		.syntax unified
 566              		.thumb
 567              		.thumb_func
 568              		.fpu fpv4-sp-d16
 569              		.type	ircomSendMain, %function
 570              	ircomSendMain:
ARM GAS  /tmp/ccLFRIHV.s 			page 11


 571              	.LFB260:
 572              		.loc 1 138 0
 573              		.cfi_startproc
 574              		@ args = 0, pretend = 0, frame = 8
 575              		@ frame_needed = 0, uses_anonymous_args = 0
 576 0000 30B5     		push	{r4, r5, lr}
 577              		.cfi_def_cfa_offset 12
 578              		.cfi_offset 4, -12
 579              		.cfi_offset 5, -8
 580              		.cfi_offset 14, -4
 581 0002 3B49     		ldr	r1, .L78
 582              		.loc 1 140 0
 583 0004 3B4B     		ldr	r3, .L78+4
 584              		.loc 1 138 0
 585 0006 0A68     		ldr	r2, [r1]
 586 0008 83B0     		sub	sp, sp, #12
 587              		.cfi_def_cfa_offset 24
 588              		.loc 1 138 0
 589 000a 0192     		str	r2, [sp, #4]
 590              		.loc 1 140 0
 591 000c 9A69     		ldr	r2, [r3, #24]
 592 000e A2B9     		cbnz	r2, .L56
 593              		.loc 1 142 0
 594 0010 1A69     		ldr	r2, [r3, #16]
 595 0012 002A     		cmp	r2, #0
 596 0014 38D1     		bne	.L57
 597              		.loc 1 144 0
 598 0016 3848     		ldr	r0, .L78+8
 599              		.loc 1 146 0
 600 0018 02F18042 		add	r2, r2, #1073741824
 601 001c 02F50432 		add	r2, r2, #135168
 602              		.loc 1 144 0
 603 0020 4FF48054 		mov	r4, #4096
 604              		.loc 1 145 0
 605 0024 4FF48045 		mov	r5, #16384
 606              		.loc 1 144 0
 607 0028 0483     		strh	r4, [r0, #24]	@ movhi
 608              		.loc 1 145 0
 609 002a 0583     		strh	r5, [r0, #24]	@ movhi
 610              		.loc 1 146 0
 611 002c 0424     		movs	r4, #4
 612              		.loc 1 147 0
 613 002e 0820     		movs	r0, #8
 614              		.loc 1 146 0
 615 0030 1483     		strh	r4, [r2, #24]	@ movhi
 616              		.loc 1 147 0
 617 0032 1083     		strh	r0, [r2, #24]	@ movhi
 618              	.L58:
 619              		.loc 1 160 0
 620 0034 0122     		movs	r2, #1
 621 0036 9A61     		str	r2, [r3, #24]
 622 0038 12E0     		b	.L64
 623              	.L56:
 624              		.loc 1 164 0
 625 003a 1A69     		ldr	r2, [r3, #16]
 626 003c EAB9     		cbnz	r2, .L65
 627              		.loc 1 166 0
ARM GAS  /tmp/ccLFRIHV.s 			page 12


 628 003e 2E48     		ldr	r0, .L78+8
 629              		.loc 1 168 0
 630 0040 02F18042 		add	r2, r2, #1073741824
 631 0044 02F50432 		add	r2, r2, #135168
 632              		.loc 1 166 0
 633 0048 4FF48054 		mov	r4, #4096
 634              		.loc 1 167 0
 635 004c 4FF48045 		mov	r5, #16384
 636              		.loc 1 166 0
 637 0050 4483     		strh	r4, [r0, #26]	@ movhi
 638              		.loc 1 167 0
 639 0052 4583     		strh	r5, [r0, #26]	@ movhi
 640              		.loc 1 168 0
 641 0054 0424     		movs	r4, #4
 642              		.loc 1 169 0
 643 0056 0820     		movs	r0, #8
 644              		.loc 1 168 0
 645 0058 5483     		strh	r4, [r2, #26]	@ movhi
 646              		.loc 1 169 0
 647 005a 5083     		strh	r0, [r2, #26]	@ movhi
 648              	.L66:
 649              		.loc 1 182 0
 650 005c 0022     		movs	r2, #0
 651 005e 9A61     		str	r2, [r3, #24]
 652              	.L64:
 653              		.loc 1 185 0
 654 0060 DA69     		ldr	r2, [r3, #28]
 655 0062 0132     		adds	r2, r2, #1
 656 0064 DA61     		str	r2, [r3, #28]
 657              		.loc 1 187 0
 658 0066 DA69     		ldr	r2, [r3, #28]
 659 0068 1B6A     		ldr	r3, [r3, #32]
 660 006a 9A42     		cmp	r2, r3
 661              		.loc 1 189 0
 662 006c 019A     		ldr	r2, [sp, #4]
 663 006e 0B68     		ldr	r3, [r1]
 664              		.loc 1 187 0
 665 0070 11DA     		bge	.L77
 666              		.loc 1 191 0
 667 0072 9A42     		cmp	r2, r3
 668 0074 3AD1     		bne	.L76
 669 0076 03B0     		add	sp, sp, #12
 670              		.cfi_remember_state
 671              		.cfi_def_cfa_offset 12
 672              		@ sp needed
 673 0078 30BD     		pop	{r4, r5, pc}
 674              	.L65:
 675              		.cfi_restore_state
 676              		.loc 1 173 0
 677 007a 5A69     		ldr	r2, [r3, #20]
 678 007c 032A     		cmp	r2, #3
 679 007e EDD8     		bhi	.L66
 680 0080 DFE802F0 		tbb	[pc, r2]
 681              	.L68:
 682 0084 2F       		.byte	(.L67-.L68)/2
 683 0085 2A       		.byte	(.L69-.L68)/2
 684 0086 26       		.byte	(.L70-.L68)/2
ARM GAS  /tmp/ccLFRIHV.s 			page 13


 685 0087 22       		.byte	(.L71-.L68)/2
 686              		.p2align 1
 687              	.L57:
 688              		.loc 1 151 0
 689 0088 5A69     		ldr	r2, [r3, #20]
 690 008a 032A     		cmp	r2, #3
 691 008c D2D8     		bhi	.L58
 692 008e DFE802F0 		tbb	[pc, r2]
 693              	.L60:
 694 0092 16       		.byte	(.L59-.L60)/2
 695 0093 11       		.byte	(.L61-.L60)/2
 696 0094 0D       		.byte	(.L62-.L60)/2
 697 0095 09       		.byte	(.L63-.L60)/2
 698              		.p2align 1
 699              	.L77:
 700              		.loc 1 189 0
 701 0096 9A42     		cmp	r2, r3
 702 0098 28D1     		bne	.L76
 703              		.loc 1 191 0
 704 009a 03B0     		add	sp, sp, #12
 705              		.cfi_remember_state
 706              		.cfi_def_cfa_offset 12
 707              		@ sp needed
 708 009c BDE83040 		pop	{r4, r5, lr}
 709              		.cfi_restore 14
 710              		.cfi_restore 5
 711              		.cfi_restore 4
 712              		.cfi_def_cfa_offset 0
 713              		.loc 1 189 0
 714 00a0 FFF7FEBF 		b	ircomSendNextBit
 715              	.LVL39:
 716              	.L63:
 717              		.cfi_restore_state
 718              		.loc 1 156 0
 719 00a4 154A     		ldr	r2, .L78+12
 720 00a6 0820     		movs	r0, #8
 721 00a8 1083     		strh	r0, [r2, #24]	@ movhi
 722 00aa C3E7     		b	.L58
 723              	.L62:
 724              		.loc 1 155 0
 725 00ac 134A     		ldr	r2, .L78+12
 726 00ae 0420     		movs	r0, #4
 727 00b0 1083     		strh	r0, [r2, #24]	@ movhi
 728 00b2 BFE7     		b	.L58
 729              	.L61:
 730              		.loc 1 154 0
 731 00b4 104A     		ldr	r2, .L78+8
 732 00b6 4FF48040 		mov	r0, #16384
 733 00ba 1083     		strh	r0, [r2, #24]	@ movhi
 734 00bc BAE7     		b	.L58
 735              	.L59:
 736              		.loc 1 153 0
 737 00be 0E4A     		ldr	r2, .L78+8
 738 00c0 4FF48050 		mov	r0, #4096
 739 00c4 1083     		strh	r0, [r2, #24]	@ movhi
 740 00c6 B5E7     		b	.L58
 741              	.L71:
ARM GAS  /tmp/ccLFRIHV.s 			page 14


 742              		.loc 1 178 0
 743 00c8 0C4A     		ldr	r2, .L78+12
 744 00ca 0820     		movs	r0, #8
 745 00cc 5083     		strh	r0, [r2, #26]	@ movhi
 746 00ce C5E7     		b	.L66
 747              	.L70:
 748              		.loc 1 177 0
 749 00d0 0A4A     		ldr	r2, .L78+12
 750 00d2 0420     		movs	r0, #4
 751 00d4 5083     		strh	r0, [r2, #26]	@ movhi
 752 00d6 C1E7     		b	.L66
 753              	.L69:
 754              		.loc 1 176 0
 755 00d8 074A     		ldr	r2, .L78+8
 756 00da 4FF48040 		mov	r0, #16384
 757 00de 5083     		strh	r0, [r2, #26]	@ movhi
 758 00e0 BCE7     		b	.L66
 759              	.L67:
 760              		.loc 1 175 0
 761 00e2 054A     		ldr	r2, .L78+8
 762 00e4 4FF48050 		mov	r0, #4096
 763 00e8 5083     		strh	r0, [r2, #26]	@ movhi
 764 00ea B7E7     		b	.L66
 765              	.L76:
 766              		.loc 1 191 0
 767 00ec FFF7FEFF 		bl	__stack_chk_fail
 768              	.LVL40:
 769              	.L79:
 770              		.align	2
 771              	.L78:
 772 00f0 00000000 		.word	__stack_chk_guard
 773 00f4 00000000 		.word	ircomSendData
 774 00f8 00040240 		.word	1073873920
 775 00fc 00100240 		.word	1073876992
 776              		.cfi_endproc
 777              	.LFE260:
 778              		.size	ircomSendMain, .-ircomSendMain
 779              		.text
 780              	.Letext0:
 781              		.file 2 "/home/leander/uos_codes/epuck2_lab/Eclipse_e-puck2/Tools/gcc-arm-none-eabi-7-2017-q4-majo
 782              		.file 3 "/home/leander/uos_codes/epuck2_lab/Eclipse_e-puck2/Tools/gcc-arm-none-eabi-7-2017-q4-majo
 783              		.file 4 "/home/leander/uos_codes/epuck2_lab/Eclipse_e-puck2/Tools/gcc-arm-none-eabi-7-2017-q4-majo
 784              		.file 5 "/home/leander/uos_codes/epuck2_lab/Eclipse_e-puck2/Tools/gcc-arm-none-eabi-7-2017-q4-majo
 785              		.file 6 "/home/leander/uos_codes/epuck2_lab/Eclipse_e-puck2/Tools/gcc-arm-none-eabi-7-2017-q4-majo
 786              		.file 7 "/home/leander/uos_codes/epuck2_lab/Eclipse_e-puck2/Tools/gcc-arm-none-eabi-7-2017-q4-majo
 787              		.file 8 "../e-puck2_main-processor/ChibiOS//os/rt/ports/ARMCMx/compilers/GCC/chtypes.h"
 788              		.file 9 "../e-puck2_main-processor/ChibiOS//os/rt/include/chsystypes.h"
 789              		.file 10 "../e-puck2_main-processor/ChibiOS//os/rt/include/chschd.h"
 790              		.file 11 "../e-puck2_main-processor/ChibiOS//os/ext/CMSIS/include/core_cm4.h"
 791              		.file 12 "../e-puck2_main-processor/ChibiOS//os/ext/CMSIS/ST/system_stm32f4xx.h"
 792              		.file 13 "../e-puck2_main-processor/ChibiOS//os/ext/CMSIS/ST/stm32f407xx.h"
 793              		.file 14 "../e-puck2_main-processor/ChibiOS//os/rt/ports/ARMCMx/chcore.h"
 794              		.file 15 "../e-puck2_main-processor/ChibiOS//os/rt/ports/ARMCMx/chcore_v7m.h"
 795              		.file 16 "../e-puck2_main-processor/ChibiOS//os/rt/include/chdebug.h"
 796              		.file 17 "../e-puck2_main-processor/ChibiOS//os/rt/include/chtm.h"
 797              		.file 18 "../e-puck2_main-processor/ChibiOS//os/rt/include/chstats.h"
 798              		.file 19 "../e-puck2_main-processor/ChibiOS//os/rt/include/chsem.h"
ARM GAS  /tmp/ccLFRIHV.s 			page 15


 799              		.file 20 "../e-puck2_main-processor/ChibiOS//os/rt/include/chmtx.h"
 800              		.file 21 "../e-puck2_main-processor/ChibiOS//os/rt/include/chregistry.h"
 801              		.file 22 "../e-puck2_main-processor/ChibiOS//os/rt/include/chevents.h"
 802              		.file 23 "../e-puck2_main-processor/ChibiOS//os/rt/include/chqueues.h"
 803              		.file 24 "../e-puck2_main-processor/ChibiOS//os/hal/ports/STM32/STM32F4xx/stm32_dma.h"
 804              		.file 25 "../e-puck2_main-processor/ChibiOS//os/hal/include/hal_ioblock.h"
 805              		.file 26 "../e-puck2_main-processor/ChibiOS//os/hal/ports/STM32/LLD/GPIOv2/pal_lld.h"
 806              		.file 27 "../e-puck2_main-processor/ChibiOS//os/hal/include/adc.h"
 807              		.file 28 "../e-puck2_main-processor/ChibiOS//os/hal/ports/STM32/STM32F4xx/adc_lld.h"
 808              		.file 29 "../e-puck2_main-processor/ChibiOS//os/hal/include/can.h"
 809              		.file 30 "../e-puck2_main-processor/ChibiOS//os/hal/ports/STM32/LLD/can_lld.h"
 810              		.file 31 "../e-puck2_main-processor/ChibiOS//os/hal/include/dac.h"
 811              		.file 32 "../e-puck2_main-processor/ChibiOS//os/hal/ports/STM32/LLD/DACv1/dac_lld.h"
 812              		.file 33 "../e-puck2_main-processor/ChibiOS//os/hal/include/ext.h"
 813              		.file 34 "../e-puck2_main-processor/ChibiOS//os/hal/ports/STM32/LLD/ext_lld.h"
 814              		.file 35 "../e-puck2_main-processor/ChibiOS//os/hal/include/gpt.h"
 815              		.file 36 "../e-puck2_main-processor/ChibiOS//os/hal/ports/STM32/LLD/TIMv1/gpt_lld.h"
 816              		.file 37 "../e-puck2_main-processor/ChibiOS//os/hal/ports/STM32/LLD/TIMv1/stm32_tim.h"
 817              		.file 38 "../e-puck2_main-processor/ChibiOS//os/hal/include/i2c.h"
 818              		.file 39 "../e-puck2_main-processor/ChibiOS//os/hal/ports/STM32/LLD/I2Cv1/i2c_lld.h"
 819              		.file 40 "../e-puck2_main-processor/ChibiOS//os/hal/include/i2s.h"
 820              		.file 41 "../e-puck2_main-processor/ChibiOS//os/hal/ports/STM32/LLD/SPIv1/i2s_lld.h"
 821              		.file 42 "../e-puck2_main-processor/ChibiOS//os/hal/include/pwm.h"
 822              		.file 43 "../e-puck2_main-processor/ChibiOS//os/hal/ports/STM32/LLD/TIMv1/pwm_lld.h"
 823              		.file 44 "../e-puck2_main-processor/ChibiOS//os/hal/include/serial.h"
 824              		.file 45 "../e-puck2_main-processor/ChibiOS//os/hal/ports/STM32/LLD/USARTv1/serial_lld.h"
 825              		.file 46 "../e-puck2_main-processor/ChibiOS//os/hal/include/sdc.h"
 826              		.file 47 "../e-puck2_main-processor/ChibiOS//os/hal/ports/STM32/LLD/sdc_lld.h"
 827              		.file 48 "../e-puck2_main-processor/ChibiOS//os/hal/include/spi.h"
 828              		.file 49 "../e-puck2_main-processor/ChibiOS//os/hal/ports/STM32/LLD/SPIv1/spi_lld.h"
 829              		.file 50 "../e-puck2_main-processor/ChibiOS//os/hal/include/usb.h"
 830              		.file 51 "../e-puck2_main-processor/ChibiOS//os/hal/ports/STM32/LLD/OTGv1/usb_lld.h"
 831              		.file 52 "../e-puck2_main-processor/ChibiOS//os/hal/ports/STM32/LLD/OTGv1/stm32_otg.h"
 832              		.file 53 "../e-puck2_main-processor/src/ircom/ircom.h"
 833              		.file 54 "../e-puck2_main-processor/src/ircom/ircomTools.h"
 834              		.file 55 "../e-puck2_main-processor/src/ircom/ircomReceive.h"