ARM GAS  /tmp/ccaqyyo1.s 			page 1


   1              		.cpu cortex-m4
   2              		.eabi_attribute 27, 1
   3              		.eabi_attribute 28, 1
   4              		.eabi_attribute 20, 1
   5              		.eabi_attribute 21, 1
   6              		.eabi_attribute 23, 3
   7              		.eabi_attribute 24, 1
   8              		.eabi_attribute 25, 1
   9              		.eabi_attribute 26, 1
  10              		.eabi_attribute 30, 2
  11              		.eabi_attribute 34, 1
  12              		.eabi_attribute 18, 4
  13              		.file	"ircom.c"
  14              		.text
  15              	.Ltext0:
  16              		.cfi_sections	.debug_frame
  17              		.section	.text.proximity_thd,"ax",%progbits
  18              		.align	1
  19              		.p2align 4,,15
  20              		.syntax unified
  21              		.thumb
  22              		.thumb_func
  23              		.fpu fpv4-sp-d16
  24              		.type	proximity_thd, %function
  25              	proximity_thd:
  26              	.LFB264:
  27              		.file 1 "../e-puck2_main-processor/src/ircom/ircom.c"
  28              		.loc 1 330 0
  29              		.cfi_startproc
  30              		@ args = 0, pretend = 0, frame = 128
  31              		@ frame_needed = 0, uses_anonymous_args = 0
  32              	.LVL0:
  33 0000 2DE9F04F 		push	{r4, r5, r6, r7, r8, r9, r10, fp, lr}
  34              		.cfi_def_cfa_offset 36
  35              		.cfi_offset 4, -36
  36              		.cfi_offset 5, -32
  37              		.cfi_offset 6, -28
  38              		.cfi_offset 7, -24
  39              		.cfi_offset 8, -20
  40              		.cfi_offset 9, -16
  41              		.cfi_offset 10, -12
  42              		.cfi_offset 11, -8
  43              		.cfi_offset 14, -4
  44              	.LBB72:
  45              	.LBB73:
  46              		.file 2 "../e-puck2_main-processor/ChibiOS//os/rt/include/chregistry.h"
  47              		.loc 2 135 0
  48 0004 384B     		ldr	r3, .L17
  49              	.LBE73:
  50              	.LBE72:
  51              		.loc 1 330 0
  52 0006 394A     		ldr	r2, .L17+4
  53              	.LBB75:
  54              	.LBB74:
  55              		.loc 2 135 0
  56 0008 9B69     		ldr	r3, [r3, #24]
  57 000a 3949     		ldr	r1, .L17+8
ARM GAS  /tmp/ccaqyyo1.s 			page 2


  58 000c 9961     		str	r1, [r3, #24]
  59              	.LBE74:
  60              	.LBE75:
  61              		.loc 1 330 0
  62 000e A3B0     		sub	sp, sp, #140
  63              		.cfi_def_cfa_offset 176
  64              		.loc 1 335 0
  65 0010 05AE     		add	r6, sp, #20
  66              		.loc 1 336 0
  67 0012 03AD     		add	r5, sp, #12
  68              		.loc 1 337 0
  69 0014 8023     		movs	r3, #128
  70              		.loc 1 330 0
  71 0016 1768     		ldr	r7, [r2]
  72              		.loc 1 337 0
  73 0018 0093     		str	r3, [sp]
  74 001a 3146     		mov	r1, r6
  75 001c 2A46     		mov	r2, r5
  76              		.loc 1 335 0
  77 001e 0024     		movs	r4, #0
  78              		.loc 1 337 0
  79 0020 0AA8     		add	r0, sp, #40
  80              	.LVL1:
  81 0022 344B     		ldr	r3, .L17+12
  82              		.loc 1 330 0
  83 0024 2197     		str	r7, [sp, #132]
  84              		.loc 1 335 0
  85 0026 CDE90566 		strd	r6, r6, [sp, #20]
  86              		.loc 1 336 0
  87 002a CDE90355 		strd	r5, r5, [sp, #12]
  88              		.loc 1 335 0
  89 002e CDE90744 		strd	r4, r4, [sp, #28]
  90 0032 0994     		str	r4, [sp, #36]
  91              		.loc 1 337 0
  92 0034 FFF7FEFF 		bl	messagebus_topic_init
  93              	.LVL2:
  94              		.loc 1 338 0
  95 0038 0AA9     		add	r1, sp, #40
  96 003a 2F4A     		ldr	r2, .L17+16
  97 003c 2F48     		ldr	r0, .L17+20
  98 003e 304C     		ldr	r4, .L17+24
  99 0040 304D     		ldr	r5, .L17+28
 100 0042 DFF8D480 		ldr	r8, .L17+48
 101 0046 DFF8D490 		ldr	r9, .L17+52
 102 004a DFF8D4B0 		ldr	fp, .L17+56
 103              	.LBB76:
 104              	.LBB77:
 105              		.file 3 "../e-puck2_main-processor/ChibiOS//os/rt/include/chbsem.h"
 106              		.loc 3 143 0
 107 004e 2E4F     		ldr	r7, .L17+32
 108              	.LBE77:
 109              	.LBE76:
 110              		.loc 1 338 0
 111 0050 FFF7FEFF 		bl	messagebus_advertise_topic
 112              	.LVL3:
 113              		.loc 1 344 0
 114 0054 A4F16006 		sub	r6, r4, #96
ARM GAS  /tmp/ccaqyyo1.s 			page 3


 115              	.L2:
 116              	.LVL4:
 117              	.LBB79:
 118              	.LBB78:
 119              		.loc 3 143 0
 120 0058 3846     		mov	r0, r7
 121 005a FFF7FEFF 		bl	chSemWait
 122              	.LVL5:
 123              	.LBE78:
 124              	.LBE79:
 125              		.loc 1 344 0
 126 005e 8022     		movs	r2, #128
 127 0060 3146     		mov	r1, r6
 128 0062 0AA8     		add	r0, sp, #40
 129 0064 FFF7FEFF 		bl	messagebus_topic_publish
 130              	.LVL6:
 131              		.loc 1 346 0
 132 0068 2B78     		ldrb	r3, [r5]	@ zero_extendqisi2
 133 006a 002B     		cmp	r3, #0
 134 006c F4D0     		beq	.L2
 135              		.loc 1 347 0
 136 006e 98F800A0 		ldrb	r10, [r8]	@ zero_extendqisi2
 137 0072 BAF1000F 		cmp	r10, #0
 138 0076 26D0     		beq	.L5
 139 0078 BAF1010F 		cmp	r10, #1
 140 007c ECD1     		bne	.L2
 141 007e DFF8A4C0 		ldr	ip, .L17+60
 142 0082 2249     		ldr	r1, .L17+36
 143 0084 6246     		mov	r2, ip
 144              	.L7:
 145              	.LBB80:
 146              	.LBB81:
 147              	.LBB82:
 148              		.loc 1 516 0 discriminator 3
 149 0086 51F8040B 		ldr	r0, [r1], #4
 150              	.LBE82:
 151              	.LBE81:
 152              		.loc 1 357 0 discriminator 3
 153 008a 52F8043F 		ldr	r3, [r2, #4]!
 154              		.loc 1 356 0 discriminator 3
 155 008e A142     		cmp	r1, r4
 156              		.loc 1 357 0 discriminator 3
 157 0090 0344     		add	r3, r3, r0
 158 0092 1360     		str	r3, [r2]
 159              	.LVL7:
 160              		.loc 1 356 0 discriminator 3
 161 0094 F7D1     		bne	.L7
 162              	.LBE80:
 163              		.loc 1 359 0
 164 0096 99F80030 		ldrb	r3, [r9]	@ zero_extendqisi2
 165 009a 0133     		adds	r3, r3, #1
 166 009c DBB2     		uxtb	r3, r3
 167              		.loc 1 360 0
 168 009e 642B     		cmp	r3, #100
 169              		.loc 1 359 0
 170 00a0 89F80030 		strb	r3, [r9]
 171              		.loc 1 360 0
ARM GAS  /tmp/ccaqyyo1.s 			page 4


 172 00a4 D8D1     		bne	.L2
 173 00a6 164A     		ldr	r2, .L17+24
 174              	.L8:
 175              	.LBB83:
 176              		.loc 1 362 0 discriminator 3
 177 00a8 5CF8043F 		ldr	r3, [ip, #4]!
 178 00ac 1849     		ldr	r1, .L17+40
 179 00ae 81FB0301 		smull	r0, r1, r1, r3
 180 00b2 DB17     		asrs	r3, r3, #31
 181 00b4 C3EB6113 		rsb	r3, r3, r1, asr #5
 182              		.loc 1 361 0 discriminator 3
 183 00b8 DC45     		cmp	ip, fp
 184              		.loc 1 362 0 discriminator 3
 185 00ba 42F8043B 		str	r3, [r2], #4
 186              	.LVL8:
 187              		.loc 1 361 0 discriminator 3
 188 00be F3D1     		bne	.L8
 189              	.LBE83:
 190              		.loc 1 364 0
 191 00c0 0023     		movs	r3, #0
 192 00c2 2B70     		strb	r3, [r5]
 193 00c4 C8E7     		b	.L2
 194              	.L5:
 195              		.loc 1 349 0
 196 00c6 2022     		movs	r2, #32
 197 00c8 5146     		mov	r1, r10
 198 00ca 0D48     		ldr	r0, .L17+24
 199 00cc FFF7FEFF 		bl	memset
 200              	.LVL9:
 201              		.loc 1 350 0
 202 00d0 2022     		movs	r2, #32
 203 00d2 5146     		mov	r1, r10
 204 00d4 0F48     		ldr	r0, .L17+44
 205 00d6 FFF7FEFF 		bl	memset
 206              	.LVL10:
 207              		.loc 1 352 0
 208 00da 0122     		movs	r2, #1
 209              		.loc 1 351 0
 210 00dc 89F800A0 		strb	r10, [r9]
 211              		.loc 1 352 0
 212 00e0 88F80020 		strb	r2, [r8]
 213              		.loc 1 353 0
 214 00e4 B8E7     		b	.L2
 215              	.L18:
 216 00e6 00BF     		.align	2
 217              	.L17:
 218 00e8 00000000 		.word	ch
 219 00ec 00000000 		.word	__stack_chk_guard
 220 00f0 00000000 		.word	.LANCHOR0
 221 00f4 00000000 		.word	.LANCHOR1
 222 00f8 00000000 		.word	.LC0
 223 00fc 00000000 		.word	bus
 224 0100 60000000 		.word	.LANCHOR1+96
 225 0104 00000000 		.word	.LANCHOR3
 226 0108 00000000 		.word	.LANCHOR2
 227 010c 40000000 		.word	.LANCHOR1+64
 228 0110 1F85EB51 		.word	1374389535
ARM GAS  /tmp/ccaqyyo1.s 			page 5


 229 0114 00000000 		.word	.LANCHOR5
 230 0118 00000000 		.word	.LANCHOR4
 231 011c 00000000 		.word	.LANCHOR6
 232 0120 1C000000 		.word	.LANCHOR5+28
 233 0124 FCFFFFFF 		.word	.LANCHOR5-4
 234              		.cfi_endproc
 235              	.LFE264:
 236              		.size	proximity_thd, .-proximity_thd
 237              		.section	.text.gpt14_callback,"ax",%progbits
 238              		.align	1
 239              		.p2align 4,,15
 240              		.syntax unified
 241              		.thumb
 242              		.thumb_func
 243              		.fpu fpv4-sp-d16
 244              		.type	gpt14_callback, %function
 245              	gpt14_callback:
 246              	.LFB259:
 247              		.loc 1 81 0
 248              		.cfi_startproc
 249              		@ args = 0, pretend = 0, frame = 8
 250              		@ frame_needed = 0, uses_anonymous_args = 0
 251              	.LVL11:
 252 0000 30B5     		push	{r4, r5, lr}
 253              		.cfi_def_cfa_offset 12
 254              		.cfi_offset 4, -12
 255              		.cfi_offset 5, -8
 256              		.cfi_offset 14, -4
 257 0002 124D     		ldr	r5, .L27
 258              		.loc 1 85 0
 259 0004 124C     		ldr	r4, .L27+4
 260              		.loc 1 81 0
 261 0006 2B68     		ldr	r3, [r5]
 262 0008 83B0     		sub	sp, sp, #12
 263              		.cfi_def_cfa_offset 24
 264              		.loc 1 81 0
 265 000a 0193     		str	r3, [sp, #4]
 266              		.loc 1 85 0
 267 000c 2368     		ldr	r3, [r4]
 268 000e 23B9     		cbnz	r3, .L20
 269              		.loc 1 87 0
 270 0010 6368     		ldr	r3, [r4, #4]
 271 0012 012B     		cmp	r3, #1
 272 0014 15D0     		beq	.L21
 273 0016 022B     		cmp	r3, #2
 274 0018 10D0     		beq	.L22
 275              	.LVL12:
 276              	.L20:
 277              		.loc 1 100 0
 278 001a D4F8A421 		ldr	r2, [r4, #420]
 279 001e 6FF00043 		mvn	r3, #-2147483648
 280 0022 9A42     		cmp	r2, r3
 281 0024 04D0     		beq	.L19
 282              	.LVL13:
 283              	.LBB86:
 284              	.LBB87:
 285              		.loc 1 101 0
ARM GAS  /tmp/ccaqyyo1.s 			page 6


 286 0026 D4F8A431 		ldr	r3, [r4, #420]
 287 002a 0133     		adds	r3, r3, #1
 288 002c C4F8A431 		str	r3, [r4, #420]
 289              	.LVL14:
 290              	.L19:
 291              	.LBE87:
 292              	.LBE86:
 293              		.loc 1 103 0
 294 0030 019A     		ldr	r2, [sp, #4]
 295 0032 2B68     		ldr	r3, [r5]
 296 0034 9A42     		cmp	r2, r3
 297 0036 07D1     		bne	.L26
 298 0038 03B0     		add	sp, sp, #12
 299              		.cfi_remember_state
 300              		.cfi_def_cfa_offset 12
 301              		@ sp needed
 302 003a 30BD     		pop	{r4, r5, pc}
 303              	.LVL15:
 304              	.L22:
 305              		.cfi_restore_state
 306              		.loc 1 92 0
 307 003c FFF7FEFF 		bl	ircomSendMain
 308              	.LVL16:
 309              		.loc 1 93 0
 310 0040 EBE7     		b	.L20
 311              	.LVL17:
 312              	.L21:
 313              		.loc 1 89 0
 314 0042 FFF7FEFF 		bl	ircomReceiveMain
 315              	.LVL18:
 316              		.loc 1 90 0
 317 0046 E8E7     		b	.L20
 318              	.L26:
 319              		.loc 1 103 0
 320 0048 FFF7FEFF 		bl	__stack_chk_fail
 321              	.LVL19:
 322              	.L28:
 323              		.align	2
 324              	.L27:
 325 004c 00000000 		.word	__stack_chk_guard
 326 0050 00000000 		.word	.LANCHOR7
 327              		.cfi_endproc
 328              	.LFE259:
 329              		.size	gpt14_callback, .-gpt14_callback
 330              		.section	.text.ircom_interrupt,"ax",%progbits
 331              		.align	1
 332              		.p2align 4,,15
 333              		.global	ircom_interrupt
 334              		.syntax unified
 335              		.thumb
 336              		.thumb_func
 337              		.fpu fpv4-sp-d16
 338              		.type	ircom_interrupt, %function
 339              	ircom_interrupt:
 340              	.LFB260:
 341              		.loc 1 113 0
 342              		.cfi_startproc
ARM GAS  /tmp/ccaqyyo1.s 			page 7


 343              		@ args = 0, pretend = 0, frame = 8
 344              		@ frame_needed = 0, uses_anonymous_args = 0
 345              	.LVL20:
 346 0000 F0B5     		push	{r4, r5, r6, r7, lr}
 347              		.cfi_def_cfa_offset 20
 348              		.cfi_offset 4, -20
 349              		.cfi_offset 5, -16
 350              		.cfi_offset 6, -12
 351              		.cfi_offset 7, -8
 352              		.cfi_offset 14, -4
 353 0002 1B4D     		ldr	r5, .L39
 354              		.loc 1 114 0
 355 0004 1B4B     		ldr	r3, .L39+4
 356              		.loc 1 113 0
 357 0006 2A68     		ldr	r2, [r5]
 358 0008 83B0     		sub	sp, sp, #12
 359              		.cfi_def_cfa_offset 32
 360              		.loc 1 113 0
 361 000a 0192     		str	r2, [sp, #4]
 362              		.loc 1 114 0
 363 000c 1B78     		ldrb	r3, [r3]	@ zero_extendqisi2
 364 000e 33B1     		cbz	r3, .L29
 365              		.loc 1 119 0
 366 0010 194B     		ldr	r3, .L39+8
 367 0012 1A68     		ldr	r2, [r3]
 368 0014 002A     		cmp	r2, #0
 369 0016 08DD     		ble	.L32
 370              		.loc 1 120 0
 371 0018 1A68     		ldr	r2, [r3]
 372 001a 013A     		subs	r2, r2, #1
 373 001c 1A60     		str	r2, [r3]
 374              	.LVL21:
 375              	.L29:
 376              		.loc 1 140 0
 377 001e 019A     		ldr	r2, [sp, #4]
 378 0020 2B68     		ldr	r3, [r5]
 379 0022 9A42     		cmp	r2, r3
 380 0024 21D1     		bne	.L38
 381 0026 03B0     		add	sp, sp, #12
 382              		.cfi_remember_state
 383              		.cfi_def_cfa_offset 20
 384              		@ sp needed
 385 0028 F0BD     		pop	{r4, r5, r6, r7, pc}
 386              	.LVL22:
 387              	.L32:
 388              		.cfi_restore_state
 389 002a 144E     		ldr	r6, .L39+12
 390 002c 144F     		ldr	r7, .L39+16
 391 002e 0238     		subs	r0, r0, #2
 392              	.LVL23:
 393              	.LBB93:
 394              		.loc 1 125 0
 395 0030 0023     		movs	r3, #0
 396              	.LVL24:
 397              	.L33:
 398              		.loc 1 126 0 discriminator 3
 399 0032 3268     		ldr	r2, [r6]
ARM GAS  /tmp/ccaqyyo1.s 			page 8


 400 0034 3968     		ldr	r1, [r7]
 401 0036 30F8024F 		ldrh	r4, [r0, #2]!
 402 003a 03EBC202 		add	r2, r3, r2, lsl #3
 403              		.loc 1 125 0 discriminator 3
 404 003e 0133     		adds	r3, r3, #1
 405              	.LVL25:
 406 0040 082B     		cmp	r3, #8
 407              		.loc 1 126 0 discriminator 3
 408 0042 21F81240 		strh	r4, [r1, r2, lsl #1]	@ movhi
 409              		.loc 1 125 0 discriminator 3
 410 0046 F4D1     		bne	.L33
 411              	.LBE93:
 412              		.loc 1 129 0
 413 0048 3368     		ldr	r3, [r6]
 414              	.LVL26:
 415 004a 0133     		adds	r3, r3, #1
 416 004c 3360     		str	r3, [r6]
 417              		.loc 1 131 0
 418 004e 3368     		ldr	r3, [r6]
 419 0050 1F2B     		cmp	r3, #31
 420 0052 E4D9     		bls	.L29
 421              	.LVL27:
 422              	.LBB94:
 423              	.LBB95:
 424              		.loc 1 136 0
 425 0054 0B4B     		ldr	r3, .L39+20
 426              		.loc 1 137 0
 427 0056 3968     		ldr	r1, [r7]
 428              		.loc 1 133 0
 429 0058 0B4A     		ldr	r2, .L39+24
 430              		.loc 1 136 0
 431 005a 1868     		ldr	r0, [r3]
 432              	.LVL28:
 433              		.loc 1 137 0
 434 005c 1960     		str	r1, [r3]
 435              		.loc 1 132 0
 436 005e 0021     		movs	r1, #0
 437              		.loc 1 133 0
 438 0060 0123     		movs	r3, #1
 439              		.loc 1 132 0
 440 0062 3160     		str	r1, [r6]
 441              		.loc 1 138 0
 442 0064 3860     		str	r0, [r7]
 443              		.loc 1 133 0
 444 0066 1370     		strb	r3, [r2]
 445 0068 D9E7     		b	.L29
 446              	.LVL29:
 447              	.L38:
 448              	.LBE95:
 449              	.LBE94:
 450              		.loc 1 140 0
 451 006a FFF7FEFF 		bl	__stack_chk_fail
 452              	.LVL30:
 453              	.L40:
 454 006e 00BF     		.align	2
 455              	.L39:
 456 0070 00000000 		.word	__stack_chk_guard
ARM GAS  /tmp/ccaqyyo1.s 			page 9


 457 0074 00000000 		.word	.LANCHOR8
 458 0078 00000000 		.word	.LANCHOR9
 459 007c 00000000 		.word	.LANCHOR10
 460 0080 00000000 		.word	.LANCHOR11
 461 0084 00000000 		.word	.LANCHOR13
 462 0088 00000000 		.word	.LANCHOR12
 463              		.cfi_endproc
 464              	.LFE260:
 465              		.size	ircom_interrupt, .-ircom_interrupt
 466              		.section	.text.ircom_scan_reset,"ax",%progbits
 467              		.align	1
 468              		.p2align 4,,15
 469              		.global	ircom_scan_reset
 470              		.syntax unified
 471              		.thumb
 472              		.thumb_func
 473              		.fpu fpv4-sp-d16
 474              		.type	ircom_scan_reset, %function
 475              	ircom_scan_reset:
 476              	.LFB261:
 477              		.loc 1 142 0
 478              		.cfi_startproc
 479              		@ args = 0, pretend = 0, frame = 8
 480              		@ frame_needed = 0, uses_anonymous_args = 0
 481 0000 00B5     		push	{lr}
 482              		.cfi_def_cfa_offset 4
 483              		.cfi_offset 14, -4
 484 0002 094B     		ldr	r3, .L45
 485              		.loc 1 143 0
 486 0004 0948     		ldr	r0, .L45+4
 487              		.loc 1 142 0
 488 0006 1A68     		ldr	r2, [r3]
 489              		.loc 1 144 0
 490 0008 0949     		ldr	r1, .L45+8
 491              		.loc 1 142 0
 492 000a 83B0     		sub	sp, sp, #12
 493              		.cfi_def_cfa_offset 16
 494              		.loc 1 142 0
 495 000c 0192     		str	r2, [sp, #4]
 496              		.loc 1 143 0
 497 000e 0022     		movs	r2, #0
 498 0010 0260     		str	r2, [r0]
 499              		.loc 1 144 0
 500 0012 0A70     		strb	r2, [r1]
 501              		.loc 1 145 0
 502 0014 019A     		ldr	r2, [sp, #4]
 503 0016 1B68     		ldr	r3, [r3]
 504 0018 9A42     		cmp	r2, r3
 505 001a 02D1     		bne	.L44
 506 001c 03B0     		add	sp, sp, #12
 507              		.cfi_remember_state
 508              		.cfi_def_cfa_offset 4
 509              		@ sp needed
 510 001e 5DF804FB 		ldr	pc, [sp], #4
 511              	.L44:
 512              		.cfi_restore_state
 513 0022 FFF7FEFF 		bl	__stack_chk_fail
ARM GAS  /tmp/ccaqyyo1.s 			page 10


 514              	.LVL31:
 515              	.L46:
 516 0026 00BF     		.align	2
 517              	.L45:
 518 0028 00000000 		.word	__stack_chk_guard
 519 002c 00000000 		.word	.LANCHOR10
 520 0030 00000000 		.word	.LANCHOR12
 521              		.cfi_endproc
 522              	.LFE261:
 523              		.size	ircom_scan_reset, .-ircom_scan_reset
 524              		.section	.text.proximity_interrupt,"ax",%progbits
 525              		.align	1
 526              		.p2align 4,,15
 527              		.global	proximity_interrupt
 528              		.syntax unified
 529              		.thumb
 530              		.thumb_func
 531              		.fpu fpv4-sp-d16
 532              		.type	proximity_interrupt, %function
 533              	proximity_interrupt:
 534              	.LFB262:
 535              		.loc 1 149 0
 536              		.cfi_startproc
 537              		@ args = 0, pretend = 0, frame = 8
 538              		@ frame_needed = 0, uses_anonymous_args = 0
 539              	.LVL32:
 540 0000 2DE9F043 		push	{r4, r5, r6, r7, r8, r9, lr}
 541              		.cfi_def_cfa_offset 28
 542              		.cfi_offset 4, -28
 543              		.cfi_offset 5, -24
 544              		.cfi_offset 6, -20
 545              		.cfi_offset 7, -16
 546              		.cfi_offset 8, -12
 547              		.cfi_offset 9, -8
 548              		.cfi_offset 14, -4
 549 0004 574C     		ldr	r4, .L75
 550              		.loc 1 154 0
 551 0006 584B     		ldr	r3, .L75+4
 552              		.loc 1 149 0
 553 0008 2268     		ldr	r2, [r4]
 554              		.loc 1 155 0
 555 000a 5849     		ldr	r1, .L75+8
 556              		.loc 1 149 0
 557 000c 83B0     		sub	sp, sp, #12
 558              		.cfi_def_cfa_offset 40
 559              		.loc 1 149 0
 560 000e 0192     		str	r2, [sp, #4]
 561              	.LVL33:
 562              		.loc 1 154 0
 563 0010 1A68     		ldr	r2, [r3]
 564 0012 0132     		adds	r2, r2, #1
 565 0014 1A60     		str	r2, [r3]
 566              		.loc 1 155 0
 567 0016 1D68     		ldr	r5, [r3]
 568 0018 0A68     		ldr	r2, [r1]
 569 001a 9542     		cmp	r5, r2
 570 001c 53DB     		blt	.L47
ARM GAS  /tmp/ccaqyyo1.s 			page 11


 571              		.loc 1 160 0
 572 001e 0022     		movs	r2, #0
 573              		.loc 1 163 0
 574 0020 534D     		ldr	r5, .L75+12
 575              		.loc 1 160 0
 576 0022 1A60     		str	r2, [r3]
 577              		.loc 1 163 0
 578 0024 2B68     		ldr	r3, [r5]
 579 0026 032B     		cmp	r3, #3
 580 0028 54DC     		bgt	.L71
 581              	.LVL34:
 582              	.LBB116:
 583              	.LBB117:
 584              		.loc 1 171 0
 585 002a 524F     		ldr	r7, .L75+16
 586              		.loc 1 170 0
 587 002c 2B68     		ldr	r3, [r5]
 588              	.LVL35:
 589              		.loc 1 171 0
 590 002e 3E68     		ldr	r6, [r7]
 591 0030 002E     		cmp	r6, #0
 592 0032 56D0     		beq	.L72
 593              		.loc 1 187 0
 594 0034 504E     		ldr	r6, .L75+20
 595 0036 30F813C0 		ldrh	ip, [r0, r3, lsl #1]
 596              		.loc 1 190 0
 597 003a 56F82380 		ldr	r8, [r6, r3, lsl #2]
 598              		.loc 1 187 0
 599 003e 03F10809 		add	r9, r3, #8
 600              		.loc 1 188 0
 601 0042 00EB4300 		add	r0, r0, r3, lsl #1
 602              	.LVL36:
 603              		.loc 1 187 0
 604 0046 46F829C0 		str	ip, [r6, r9, lsl #2]
 605              		.loc 1 188 0
 606 004a 03F10C0C 		add	ip, r3, #12
 607 004e B0F808E0 		ldrh	lr, [r0, #8]
 608 0052 46F82CE0 		str	lr, [r6, ip, lsl #2]
 609              		.loc 1 190 0
 610 0056 56F829C0 		ldr	ip, [r6, r9, lsl #2]
 611 005a C445     		cmp	ip, r8
 612              		.loc 1 188 0
 613 005c 03F10400 		add	r0, r3, #4
 614              		.loc 1 190 0
 615 0060 58D9     		bls	.L58
 616              		.loc 1 191 0
 617 0062 03F1100C 		add	ip, r3, #16
 618 0066 46F82C20 		str	r2, [r6, ip, lsl #2]
 619              	.L59:
 620              		.loc 1 195 0
 621 006a 56F82020 		ldr	r2, [r6, r0, lsl #2]
 622              		.loc 1 196 0
 623 006e 1030     		adds	r0, r0, #16
 624              		.loc 1 195 0
 625 0070 9645     		cmp	lr, r2
 626              		.loc 1 196 0
 627 0072 8CBF     		ite	hi
ARM GAS  /tmp/ccaqyyo1.s 			page 12


 628 0074 0022     		movhi	r2, #0
 629              		.loc 1 198 0
 630 0076 A2EB0E02 		subls	r2, r2, lr
 631 007a 46F82020 		str	r2, [r6, r0, lsl #2]
 632              		.loc 1 200 0
 633 007e 032B     		cmp	r3, #3
 634 0080 06D8     		bhi	.L62
 635 0082 DFE803F0 		tbb	[pc, r3]
 636              	.L64:
 637 0086 68       		.byte	(.L63-.L64)/2
 638 0087 63       		.byte	(.L65-.L64)/2
 639 0088 5F       		.byte	(.L66-.L64)/2
 640 0089 02       		.byte	(.L67-.L64)/2
 641              		.p2align 1
 642              	.L67:
 643              		.loc 1 204 0
 644 008a 3C4B     		ldr	r3, .L75+24
 645              	.LVL37:
 646 008c 0822     		movs	r2, #8
 647 008e 5A83     		strh	r2, [r3, #26]	@ movhi
 648              	.L62:
 649              		.loc 1 206 0
 650 0090 0023     		movs	r3, #0
 651 0092 3B60     		str	r3, [r7]
 652              		.loc 1 207 0
 653 0094 2B68     		ldr	r3, [r5]
 654              		.loc 1 210 0
 655 0096 1A22     		movs	r2, #26
 656              		.loc 1 207 0
 657 0098 0133     		adds	r3, r3, #1
 658 009a 2B60     		str	r3, [r5]
 659              		.loc 1 210 0
 660 009c 0A60     		str	r2, [r1]
 661              	.LVL38:
 662              	.L57:
 663              	.LBB118:
 664              	.LBB119:
 665              	.LBB120:
 666              	.LBB121:
 667              	.LBB122:
 668              	.LBB123:
 669              		.file 4 "../e-puck2_main-processor/ChibiOS//os/ext/CMSIS/include/core_cmFunc.h"
 670              		.loc 4 546 0
 671 009e 2023     		movs	r3, #32
 672              		.syntax unified
 673              	@ 546 "../e-puck2_main-processor/ChibiOS//os/ext/CMSIS/include/core_cmFunc.h" 1
 674 00a0 83F31188 		MSR basepri, r3
 675              	@ 0 "" 2
 676              	.LVL39:
 677              		.thumb
 678              		.syntax unified
 679              	.LBE123:
 680              	.LBE122:
 681              	.LBE121:
 682              	.LBE120:
 683              		.file 5 "../e-puck2_main-processor/ChibiOS//os/rt/include/chsys.h"
 684              		.loc 5 389 0
ARM GAS  /tmp/ccaqyyo1.s 			page 13


 685 00a4 FFF7FEFF 		bl	_stats_start_measure_crit_isr
 686              	.LVL40:
 687              		.loc 5 390 0
 688 00a8 FFF7FEFF 		bl	_dbg_check_lock_from_isr
 689              	.LVL41:
 690              	.LBE119:
 691              	.LBE118:
 692              	.LBB124:
 693              	.LBB125:
 694              		.loc 3 268 0
 695 00ac FFF7FEFF 		bl	chDbgCheckClassI
 696              	.LVL42:
 697              		.loc 3 270 0
 698 00b0 3348     		ldr	r0, .L75+28
 699 00b2 8368     		ldr	r3, [r0, #8]
 700 00b4 002B     		cmp	r3, #0
 701 00b6 34DD     		ble	.L73
 702              	.L68:
 703              	.LVL43:
 704              	.LBE125:
 705              	.LBE124:
 706              	.LBB127:
 707              	.LBB128:
 708              		.loc 5 408 0
 709 00b8 FFF7FEFF 		bl	_dbg_check_unlock_from_isr
 710              	.LVL44:
 711              		.loc 5 409 0
 712 00bc FFF7FEFF 		bl	_stats_stop_measure_crit_isr
 713              	.LVL45:
 714              	.LBB129:
 715              	.LBB130:
 716              	.LBB131:
 717              	.LBB132:
 718              		.loc 4 546 0
 719 00c0 0023     		movs	r3, #0
 720              		.syntax unified
 721              	@ 546 "../e-puck2_main-processor/ChibiOS//os/ext/CMSIS/include/core_cmFunc.h" 1
 722 00c2 83F31188 		MSR basepri, r3
 723              	@ 0 "" 2
 724              	.LVL46:
 725              		.thumb
 726              		.syntax unified
 727              	.L47:
 728              	.LBE132:
 729              	.LBE131:
 730              	.LBE130:
 731              	.LBE129:
 732              	.LBE128:
 733              	.LBE127:
 734              	.LBE117:
 735              	.LBE116:
 736              		.loc 1 217 0
 737 00c6 019A     		ldr	r2, [sp, #4]
 738 00c8 2368     		ldr	r3, [r4]
 739 00ca 9A42     		cmp	r2, r3
 740 00cc 48D1     		bne	.L74
 741 00ce 03B0     		add	sp, sp, #12
ARM GAS  /tmp/ccaqyyo1.s 			page 14


 742              		.cfi_remember_state
 743              		.cfi_def_cfa_offset 28
 744              		@ sp needed
 745 00d0 BDE8F083 		pop	{r4, r5, r6, r7, r8, r9, pc}
 746              	.LVL47:
 747              	.L71:
 748              		.cfi_restore_state
 749              	.LBB135:
 750              	.LBB136:
 751              		.loc 1 143 0
 752 00d4 2B48     		ldr	r0, .L75+32
 753              	.LVL48:
 754              		.loc 1 144 0
 755 00d6 2C49     		ldr	r1, .L75+36
 756              	.LBE136:
 757              	.LBE135:
 758              		.loc 1 165 0
 759 00d8 2C4B     		ldr	r3, .L75+40
 760              	.LBB138:
 761              	.LBB137:
 762              		.loc 1 143 0
 763 00da 0260     		str	r2, [r0]
 764              		.loc 1 144 0
 765 00dc 0A70     		strb	r2, [r1]
 766              	.LBE137:
 767              	.LBE138:
 768              		.loc 1 165 0
 769 00de 1A70     		strb	r2, [r3]
 770              		.loc 1 166 0
 771 00e0 F1E7     		b	.L47
 772              	.LVL49:
 773              	.L72:
 774              	.LBB139:
 775              	.LBB134:
 776              		.loc 1 173 0
 777 00e2 254A     		ldr	r2, .L75+20
 778 00e4 30F81350 		ldrh	r5, [r0, r3, lsl #1]
 779 00e8 42F82350 		str	r5, [r2, r3, lsl #2]
 780              		.loc 1 174 0
 781 00ec 00EB4300 		add	r0, r0, r3, lsl #1
 782              	.LVL50:
 783 00f0 1D1D     		adds	r5, r3, #4
 784 00f2 0089     		ldrh	r0, [r0, #8]
 785 00f4 42F82500 		str	r0, [r2, r5, lsl #2]
 786              		.loc 1 176 0
 787 00f8 032B     		cmp	r3, #3
 788 00fa 06D8     		bhi	.L51
 789 00fc DFE803F0 		tbb	[pc, r3]
 790              	.L53:
 791 0100 1D       		.byte	(.L52-.L53)/2
 792 0101 18       		.byte	(.L54-.L53)/2
 793 0102 14       		.byte	(.L55-.L53)/2
 794 0103 02       		.byte	(.L56-.L53)/2
 795              		.p2align 1
 796              	.L56:
 797              		.loc 1 180 0
 798 0104 1D4B     		ldr	r3, .L75+24
ARM GAS  /tmp/ccaqyyo1.s 			page 15


 799              	.LVL51:
 800 0106 0822     		movs	r2, #8
 801 0108 1A83     		strh	r2, [r3, #24]	@ movhi
 802              	.L51:
 803              		.loc 1 182 0
 804 010a 0122     		movs	r2, #1
 805              		.loc 1 185 0
 806 010c 0423     		movs	r3, #4
 807              		.loc 1 182 0
 808 010e 3A60     		str	r2, [r7]
 809              		.loc 1 185 0
 810 0110 0B60     		str	r3, [r1]
 811 0112 C4E7     		b	.L57
 812              	.LVL52:
 813              	.L58:
 814              		.loc 1 193 0
 815 0114 03F11009 		add	r9, r3, #16
 816 0118 A8EB0C02 		sub	r2, r8, ip
 817 011c 46F82920 		str	r2, [r6, r9, lsl #2]
 818 0120 A3E7     		b	.L59
 819              	.LVL53:
 820              	.L73:
 821              	.LBB133:
 822              	.LBB126:
 823              		.loc 3 271 0
 824 0122 FFF7FEFF 		bl	chSemSignalI
 825              	.LVL54:
 826 0126 C7E7     		b	.L68
 827              	.LVL55:
 828              	.L55:
 829              	.LBE126:
 830              	.LBE133:
 831              		.loc 1 179 0
 832 0128 144B     		ldr	r3, .L75+24
 833              	.LVL56:
 834 012a 0422     		movs	r2, #4
 835 012c 1A83     		strh	r2, [r3, #24]	@ movhi
 836 012e ECE7     		b	.L51
 837              	.LVL57:
 838              	.L54:
 839              		.loc 1 178 0
 840 0130 174B     		ldr	r3, .L75+44
 841              	.LVL58:
 842 0132 4FF48042 		mov	r2, #16384
 843 0136 1A83     		strh	r2, [r3, #24]	@ movhi
 844 0138 E7E7     		b	.L51
 845              	.LVL59:
 846              	.L52:
 847              		.loc 1 177 0
 848 013a 154B     		ldr	r3, .L75+44
 849              	.LVL60:
 850 013c 4FF48052 		mov	r2, #4096
 851 0140 1A83     		strh	r2, [r3, #24]	@ movhi
 852 0142 E2E7     		b	.L51
 853              	.LVL61:
 854              	.L66:
 855              		.loc 1 203 0
ARM GAS  /tmp/ccaqyyo1.s 			page 16


 856 0144 0D4B     		ldr	r3, .L75+24
 857              	.LVL62:
 858 0146 0422     		movs	r2, #4
 859 0148 5A83     		strh	r2, [r3, #26]	@ movhi
 860 014a A1E7     		b	.L62
 861              	.LVL63:
 862              	.L65:
 863              		.loc 1 202 0
 864 014c 104B     		ldr	r3, .L75+44
 865              	.LVL64:
 866 014e 4FF48042 		mov	r2, #16384
 867 0152 5A83     		strh	r2, [r3, #26]	@ movhi
 868 0154 9CE7     		b	.L62
 869              	.LVL65:
 870              	.L63:
 871              		.loc 1 201 0
 872 0156 0E4B     		ldr	r3, .L75+44
 873              	.LVL66:
 874 0158 4FF48052 		mov	r2, #4096
 875 015c 5A83     		strh	r2, [r3, #26]	@ movhi
 876 015e 97E7     		b	.L62
 877              	.LVL67:
 878              	.L74:
 879              	.LBE134:
 880              	.LBE139:
 881              		.loc 1 217 0
 882 0160 FFF7FEFF 		bl	__stack_chk_fail
 883              	.LVL68:
 884              	.L76:
 885              		.align	2
 886              	.L75:
 887 0164 00000000 		.word	__stack_chk_guard
 888 0168 00000000 		.word	.LANCHOR14
 889 016c 00000000 		.word	.LANCHOR15
 890 0170 00000000 		.word	.LANCHOR16
 891 0174 00000000 		.word	.LANCHOR18
 892 0178 00000000 		.word	.LANCHOR1
 893 017c 00100240 		.word	1073876992
 894 0180 00000000 		.word	.LANCHOR2
 895 0184 00000000 		.word	.LANCHOR10
 896 0188 00000000 		.word	.LANCHOR12
 897 018c 00000000 		.word	.LANCHOR17
 898 0190 00040240 		.word	1073873920
 899              		.cfi_endproc
 900              	.LFE262:
 901              		.size	proximity_interrupt, .-proximity_interrupt
 902              		.section	.text.adc_cb,"ax",%progbits
 903              		.align	1
 904              		.p2align 4,,15
 905              		.syntax unified
 906              		.thumb
 907              		.thumb_func
 908              		.fpu fpv4-sp-d16
 909              		.type	adc_cb, %function
 910              	adc_cb:
 911              	.LFB263:
 912              		.loc 1 229 0
ARM GAS  /tmp/ccaqyyo1.s 			page 17


 913              		.cfi_startproc
 914              		@ args = 0, pretend = 0, frame = 8
 915              		@ frame_needed = 0, uses_anonymous_args = 0
 916              	.LVL69:
 917 0000 F0B5     		push	{r4, r5, r6, r7, lr}
 918              		.cfi_def_cfa_offset 20
 919              		.cfi_offset 4, -20
 920              		.cfi_offset 5, -16
 921              		.cfi_offset 6, -12
 922              		.cfi_offset 7, -8
 923              		.cfi_offset 14, -4
 924 0002 2A4A     		ldr	r2, .L96
 925              	.LVL70:
 926              		.loc 1 233 0
 927 0004 2A4B     		ldr	r3, .L96+4
 928              		.loc 1 229 0
 929 0006 1068     		ldr	r0, [r2]
 930              	.LVL71:
 931 0008 83B0     		sub	sp, sp, #12
 932              		.cfi_def_cfa_offset 32
 933              		.loc 1 238 0
 934 000a 40F69B14 		movw	r4, #2459
 935              		.loc 1 229 0
 936 000e 0190     		str	r0, [sp, #4]
 937              		.loc 1 233 0
 938 0010 1B78     		ldrb	r3, [r3]	@ zero_extendqisi2
 939 0012 012B     		cmp	r3, #1
 940              		.loc 1 234 0
 941 0014 274B     		ldr	r3, .L96+8
 942 0016 02BF     		ittt	eq
 943 0018 1868     		ldreq	r0, [r3]
 944 001a 0130     		addeq	r0, r0, #1
 945 001c 1860     		streq	r0, [r3]
 946              		.loc 1 238 0
 947 001e 1D68     		ldr	r5, [r3]
 948 0020 A542     		cmp	r5, r4
 949 0022 11DC     		bgt	.L89
 950 0024 244B     		ldr	r3, .L96+12
 951              		.loc 1 257 0
 952 0026 1B78     		ldrb	r3, [r3]	@ zero_extendqisi2
 953 0028 03F0FF00 		and	r0, r3, #255
 954 002c 002B     		cmp	r3, #0
 955 002e 2AD0     		beq	.L81
 956              	.L95:
 957 0030 0128     		cmp	r0, #1
 958 0032 32D1     		bne	.L94
 959              		.loc 1 263 0
 960 0034 0198     		ldr	r0, [sp, #4]
 961 0036 1368     		ldr	r3, [r2]
 962 0038 9842     		cmp	r0, r3
 963 003a 34D1     		bne	.L93
 964 003c 0846     		mov	r0, r1
 965              		.loc 1 267 0
 966 003e 03B0     		add	sp, sp, #12
 967              		.cfi_remember_state
 968              		.cfi_def_cfa_offset 20
 969              		@ sp needed
ARM GAS  /tmp/ccaqyyo1.s 			page 18


 970 0040 BDE8F040 		pop	{r4, r5, r6, r7, lr}
 971              		.cfi_restore 14
 972              		.cfi_restore 7
 973              		.cfi_restore 6
 974              		.cfi_restore 5
 975              		.cfi_restore 4
 976              		.cfi_def_cfa_offset 0
 977              		.loc 1 263 0
 978 0044 FFF7FEBF 		b	proximity_interrupt
 979              	.LVL72:
 980              	.L89:
 981              		.cfi_restore_state
 982              		.loc 1 239 0
 983 0048 0024     		movs	r4, #0
 984              		.loc 1 242 0
 985 004a 1C4D     		ldr	r5, .L96+16
 986              		.loc 1 239 0
 987 004c 1C60     		str	r4, [r3]
 988              		.loc 1 242 0
 989 004e 4FF48053 		mov	r3, #4096
 990 0052 6B83     		strh	r3, [r5, #26]	@ movhi
 991              		.loc 1 244 0
 992 0054 1A48     		ldr	r0, .L96+20
 993              		.loc 1 248 0
 994 0056 1B4F     		ldr	r7, .L96+24
 995              		.loc 1 249 0
 996 0058 1B4E     		ldr	r6, .L96+28
 997              		.loc 1 243 0
 998 005a 4FF48043 		mov	r3, #16384
 999 005e 6B83     		strh	r3, [r5, #26]	@ movhi
 1000              		.loc 1 244 0
 1001 0060 0423     		movs	r3, #4
 1002 0062 4383     		strh	r3, [r0, #26]	@ movhi
 1003              		.loc 1 245 0
 1004 0064 0823     		movs	r3, #8
 1005 0066 4383     		strh	r3, [r0, #26]	@ movhi
 1006              		.loc 1 250 0
 1007 0068 1848     		ldr	r0, .L96+32
 1008              		.loc 1 248 0
 1009 006a 3C60     		str	r4, [r7]
 1010              		.loc 1 249 0
 1011 006c 1A23     		movs	r3, #26
 1012 006e 3360     		str	r3, [r6]
 1013              		.loc 1 251 0
 1014 0070 174D     		ldr	r5, .L96+36
 1015              		.loc 1 252 0
 1016 0072 114B     		ldr	r3, .L96+12
 1017              		.loc 1 250 0
 1018 0074 0460     		str	r4, [r0]
 1019              		.loc 1 252 0
 1020 0076 0120     		movs	r0, #1
 1021              		.loc 1 251 0
 1022 0078 2C60     		str	r4, [r5]
 1023              		.loc 1 252 0
 1024 007a 1870     		strb	r0, [r3]
 1025              		.loc 1 257 0
 1026 007c 1B78     		ldrb	r3, [r3]	@ zero_extendqisi2
ARM GAS  /tmp/ccaqyyo1.s 			page 19


 1027 007e 03F0FF00 		and	r0, r3, #255
 1028 0082 002B     		cmp	r3, #0
 1029 0084 D4D1     		bne	.L95
 1030              	.L81:
 1031              		.loc 1 259 0
 1032 0086 0198     		ldr	r0, [sp, #4]
 1033 0088 1368     		ldr	r3, [r2]
 1034 008a 9842     		cmp	r0, r3
 1035 008c 0BD1     		bne	.L93
 1036 008e 0846     		mov	r0, r1
 1037              		.loc 1 267 0
 1038 0090 03B0     		add	sp, sp, #12
 1039              		.cfi_remember_state
 1040              		.cfi_def_cfa_offset 20
 1041              		@ sp needed
 1042 0092 BDE8F040 		pop	{r4, r5, r6, r7, lr}
 1043              		.cfi_restore 14
 1044              		.cfi_restore 7
 1045              		.cfi_restore 6
 1046              		.cfi_restore 5
 1047              		.cfi_restore 4
 1048              		.cfi_def_cfa_offset 0
 1049              		.loc 1 259 0
 1050 0096 FFF7FEBF 		b	ircom_interrupt
 1051              	.LVL73:
 1052              	.L94:
 1053              		.cfi_restore_state
 1054              		.loc 1 267 0
 1055 009a 0199     		ldr	r1, [sp, #4]
 1056              	.LVL74:
 1057 009c 1368     		ldr	r3, [r2]
 1058 009e 9942     		cmp	r1, r3
 1059 00a0 01D1     		bne	.L93
 1060 00a2 03B0     		add	sp, sp, #12
 1061              		.cfi_remember_state
 1062              		.cfi_def_cfa_offset 20
 1063              		@ sp needed
 1064 00a4 F0BD     		pop	{r4, r5, r6, r7, pc}
 1065              	.L93:
 1066              		.cfi_restore_state
 1067 00a6 FFF7FEFF 		bl	__stack_chk_fail
 1068              	.LVL75:
 1069              	.L97:
 1070 00aa 00BF     		.align	2
 1071              	.L96:
 1072 00ac 00000000 		.word	__stack_chk_guard
 1073 00b0 00000000 		.word	.LANCHOR19
 1074 00b4 00000000 		.word	.LANCHOR20
 1075 00b8 00000000 		.word	.LANCHOR17
 1076 00bc 00040240 		.word	1073873920
 1077 00c0 00100240 		.word	1073876992
 1078 00c4 00000000 		.word	.LANCHOR14
 1079 00c8 00000000 		.word	.LANCHOR15
 1080 00cc 00000000 		.word	.LANCHOR18
 1081 00d0 00000000 		.word	.LANCHOR16
 1082              		.cfi_endproc
 1083              	.LFE263:
ARM GAS  /tmp/ccaqyyo1.s 			page 20


 1084              		.size	adc_cb, .-adc_cb
 1085              		.section	.text.ircomStart,"ax",%progbits
 1086              		.align	1
 1087              		.p2align 4,,15
 1088              		.global	ircomStart
 1089              		.syntax unified
 1090              		.thumb
 1091              		.thumb_func
 1092              		.fpu fpv4-sp-d16
 1093              		.type	ircomStart, %function
 1094              	ircomStart:
 1095              	.LFB265:
 1096              		.loc 1 379 0
 1097              		.cfi_startproc
 1098              		@ args = 0, pretend = 0, frame = 8
 1099              		@ frame_needed = 0, uses_anonymous_args = 0
 1100 0000 2DE9F043 		push	{r4, r5, r6, r7, r8, r9, lr}
 1101              		.cfi_def_cfa_offset 28
 1102              		.cfi_offset 4, -28
 1103              		.cfi_offset 5, -24
 1104              		.cfi_offset 6, -20
 1105              		.cfi_offset 7, -16
 1106              		.cfi_offset 8, -12
 1107              		.cfi_offset 9, -8
 1108              		.cfi_offset 14, -4
 1109              		.loc 1 380 0
 1110 0004 374E     		ldr	r6, .L104
 1111              		.loc 1 379 0
 1112 0006 384D     		ldr	r5, .L104+4
 1113              		.loc 1 380 0
 1114 0008 3478     		ldrb	r4, [r6]	@ zero_extendqisi2
 1115              		.loc 1 379 0
 1116 000a 2B68     		ldr	r3, [r5]
 1117 000c 85B0     		sub	sp, sp, #20
 1118              		.cfi_def_cfa_offset 48
 1119              		.loc 1 380 0
 1120 000e 012C     		cmp	r4, #1
 1121              		.loc 1 379 0
 1122 0010 0393     		str	r3, [sp, #12]
 1123              		.loc 1 380 0
 1124 0012 06D0     		beq	.L102
 1125              	.L98:
 1126              		.loc 1 445 0
 1127 0014 039A     		ldr	r2, [sp, #12]
 1128 0016 2B68     		ldr	r3, [r5]
 1129 0018 9A42     		cmp	r2, r3
 1130 001a 61D1     		bne	.L103
 1131 001c 05B0     		add	sp, sp, #20
 1132              		.cfi_remember_state
 1133              		.cfi_def_cfa_offset 28
 1134              		@ sp needed
 1135 001e BDE8F083 		pop	{r4, r5, r6, r7, r8, r9, pc}
 1136              	.L102:
 1137              		.cfi_restore_state
 1138              		.loc 1 385 0
 1139 0022 324A     		ldr	r2, .L104+8
 1140              		.loc 1 387 0
ARM GAS  /tmp/ccaqyyo1.s 			page 21


 1141 0024 324B     		ldr	r3, .L104+12
 1142              		.loc 1 404 0
 1143 0026 DFF80C91 		ldr	r9, .L104+80
 1144              		.loc 1 385 0
 1145 002a 4FF48051 		mov	r1, #4096
 1146 002e 5183     		strh	r1, [r2, #26]	@ movhi
 1147              		.loc 1 387 0
 1148 0030 0420     		movs	r0, #4
 1149              		.loc 1 388 0
 1150 0032 0821     		movs	r1, #8
 1151              		.loc 1 386 0
 1152 0034 4FF48047 		mov	r7, #16384
 1153 0038 5783     		strh	r7, [r2, #26]	@ movhi
 1154              		.loc 1 387 0
 1155 003a 5883     		strh	r0, [r3, #26]	@ movhi
 1156              		.loc 1 388 0
 1157 003c 5983     		strh	r1, [r3, #26]	@ movhi
 1158              		.loc 1 390 0
 1159 003e FFF7FEFF 		bl	ircomFlushMessages
 1160              	.LVL76:
 1161              	.LBB140:
 1162              	.LBB141:
 1163              		.loc 1 496 0
 1164 0042 2C4B     		ldr	r3, .L104+16
 1165              	.LBE141:
 1166              	.LBE140:
 1167              	.LBB143:
 1168              	.LBB144:
 1169              		.loc 1 456 0
 1170 0044 2C4A     		ldr	r2, .L104+20
 1171              	.LBE144:
 1172              	.LBE143:
 1173              	.LBB146:
 1174              	.LBB147:
 1175              		.loc 1 448 0
 1176 0046 2D49     		ldr	r1, .L104+24
 1177              	.LBE147:
 1178              	.LBE146:
 1179              		.loc 1 407 0
 1180 0048 DFF8ECE0 		ldr	lr, .L104+84
 1181              		.loc 1 408 0
 1182 004c 2C48     		ldr	r0, .L104+28
 1183              		.loc 1 409 0
 1184 004e DFF8ECC0 		ldr	ip, .L104+88
 1185              	.LBB149:
 1186              	.LBB145:
 1187              		.loc 1 456 0
 1188 0052 0027     		movs	r7, #0
 1189 0054 D762     		str	r7, [r2, #44]
 1190              	.LVL77:
 1191              	.LBE145:
 1192              	.LBE149:
 1193              		.loc 1 404 0
 1194 0056 4FF00008 		mov	r8, #0
 1195              	.LBB150:
 1196              	.LBB148:
 1197              		.loc 1 448 0
ARM GAS  /tmp/ccaqyyo1.s 			page 22


 1198 005a 0F60     		str	r7, [r1]
 1199              	.LVL78:
 1200              	.LBE148:
 1201              	.LBE150:
 1202              	.LBB151:
 1203              	.LBB142:
 1204              		.loc 1 496 0
 1205 005c 1F61     		str	r7, [r3, #16]
 1206              	.LBE142:
 1207              	.LBE151:
 1208              		.loc 1 396 0
 1209 005e 4F60     		str	r7, [r1, #4]
 1210              		.loc 1 397 0
 1211 0060 C1F8A471 		str	r7, [r1, #420]
 1212              		.loc 1 398 0
 1213 0064 1760     		str	r7, [r2]
 1214              		.loc 1 402 0
 1215 0066 0A21     		movs	r1, #10
 1216              		.loc 1 399 0
 1217 0068 5460     		str	r4, [r2, #4]
 1218              		.loc 1 403 0
 1219 006a 0522     		movs	r2, #5
 1220              		.loc 1 400 0
 1221 006c 1C60     		str	r4, [r3]
 1222              		.loc 1 402 0
 1223 006e D962     		str	r1, [r3, #44]
 1224              		.loc 1 403 0
 1225 0070 1A63     		str	r2, [r3, #48]
 1226              		.loc 1 404 0
 1227 0072 C3E90E89 		strd	r8, [r3, #56]
 1228              		.loc 1 405 0
 1229 0076 DFF8C890 		ldr	r9, .L104+92
 1230              		.loc 1 411 0
 1231 007a 2249     		ldr	r1, .L104+32
 1232              		.loc 1 412 0
 1233 007c 224A     		ldr	r2, .L104+36
 1234              		.loc 1 405 0
 1235 007e 4FF00008 		mov	r8, #0
 1236 0082 C3E91089 		strd	r8, [r3, #64]
 1237              		.loc 1 407 0
 1238 0086 CEF80070 		str	r7, [lr]
 1239              		.loc 1 412 0
 1240 008a 204B     		ldr	r3, .L104+40
 1241              		.loc 1 408 0
 1242 008c 0470     		strb	r4, [r0]
 1243              		.loc 1 411 0
 1244 008e 2048     		ldr	r0, .L104+44
 1245 0090 0860     		str	r0, [r1]
 1246              		.loc 1 414 0
 1247 0092 2049     		ldr	r1, .L104+48
 1248 0094 2048     		ldr	r0, .L104+52
 1249              		.loc 1 409 0
 1250 0096 8CF80040 		strb	r4, [ip]
 1251              		.loc 1 412 0
 1252 009a 1A60     		str	r2, [r3]
 1253              		.loc 1 414 0
 1254 009c FFF7FEFF 		bl	gptStart
ARM GAS  /tmp/ccaqyyo1.s 			page 23


 1255              	.LVL79:
 1256              		.loc 1 415 0
 1257 00a0 6421     		movs	r1, #100
 1258 00a2 1D48     		ldr	r0, .L104+52
 1259 00a4 FFF7FEFF 		bl	gptStartContinuous
 1260              	.LVL80:
 1261              		.loc 1 434 0
 1262 00a8 3946     		mov	r1, r7
 1263 00aa 3046     		mov	r0, r6
 1264 00ac FFF7FEFF 		bl	adcStart
 1265              	.LVL81:
 1266              		.loc 1 437 0
 1267 00b0 2346     		mov	r3, r4
 1268 00b2 3046     		mov	r0, r6
 1269 00b4 194A     		ldr	r2, .L104+56
 1270 00b6 1A49     		ldr	r1, .L104+60
 1271 00b8 FFF7FEFF 		bl	adcStartConversion
 1272              	.LVL82:
 1273              		.loc 1 440 0
 1274 00bc 1949     		ldr	r1, .L104+64
 1275 00be 1A48     		ldr	r0, .L104+68
 1276 00c0 FFF7FEFF 		bl	pwmStart
 1277              	.LVL83:
 1278              		.loc 1 441 0
 1279 00c4 2246     		mov	r2, r4
 1280 00c6 2146     		mov	r1, r4
 1281 00c8 1748     		ldr	r0, .L104+68
 1282 00ca FFF7FEFF 		bl	pwmEnableChannel
 1283              	.LVL84:
 1284              		.loc 1 443 0
 1285 00ce 0097     		str	r7, [sp]
 1286 00d0 164B     		ldr	r3, .L104+72
 1287 00d2 1748     		ldr	r0, .L104+76
 1288 00d4 4022     		movs	r2, #64
 1289 00d6 4FF41E71 		mov	r1, #632
 1290 00da FFF7FEFF 		bl	chThdCreateStatic
 1291              	.LVL85:
 1292 00de 99E7     		b	.L98
 1293              	.L103:
 1294              		.loc 1 445 0
 1295 00e0 FFF7FEFF 		bl	__stack_chk_fail
 1296              	.LVL86:
 1297              	.L105:
 1298              		.align	2
 1299              	.L104:
 1300 00e4 00000000 		.word	ADCD1
 1301 00e8 00000000 		.word	__stack_chk_guard
 1302 00ec 00040240 		.word	1073873920
 1303 00f0 00100240 		.word	1073876992
 1304 00f4 00000000 		.word	.LANCHOR22
 1305 00f8 00000000 		.word	.LANCHOR21
 1306 00fc 00000000 		.word	.LANCHOR7
 1307 0100 00000000 		.word	.LANCHOR19
 1308 0104 00000000 		.word	.LANCHOR11
 1309 0108 00000000 		.word	.LANCHOR24
 1310 010c 00000000 		.word	.LANCHOR13
 1311 0110 00000000 		.word	.LANCHOR23
ARM GAS  /tmp/ccaqyyo1.s 			page 24


 1312 0114 00000000 		.word	.LANCHOR25
 1313 0118 00000000 		.word	GPTD14
 1314 011c 00000000 		.word	.LANCHOR26
 1315 0120 00000000 		.word	.LANCHOR27
 1316 0124 00000000 		.word	.LANCHOR28
 1317 0128 00000000 		.word	PWMD2
 1318 012c 00000000 		.word	proximity_thd
 1319 0130 00000000 		.word	.LANCHOR29
 1320 0134 00407040 		.word	1081098240
 1321 0138 00000000 		.word	.LANCHOR20
 1322 013c 00000000 		.word	.LANCHOR8
 1323 0140 00408040 		.word	1082146816
 1324              		.cfi_endproc
 1325              	.LFE265:
 1326              		.size	ircomStart, .-ircomStart
 1327              		.section	.text.ircomPause,"ax",%progbits
 1328              		.align	1
 1329              		.p2align 4,,15
 1330              		.global	ircomPause
 1331              		.syntax unified
 1332              		.thumb
 1333              		.thumb_func
 1334              		.fpu fpv4-sp-d16
 1335              		.type	ircomPause, %function
 1336              	ircomPause:
 1337              	.LFB266:
 1338              		.loc 1 447 0
 1339              		.cfi_startproc
 1340              		@ args = 0, pretend = 0, frame = 8
 1341              		@ frame_needed = 0, uses_anonymous_args = 0
 1342              	.LVL87:
 1343 0000 00B5     		push	{lr}
 1344              		.cfi_def_cfa_offset 4
 1345              		.cfi_offset 14, -4
 1346 0002 074B     		ldr	r3, .L110
 1347              		.loc 1 448 0
 1348 0004 074A     		ldr	r2, .L110+4
 1349              		.loc 1 447 0
 1350 0006 1968     		ldr	r1, [r3]
 1351 0008 83B0     		sub	sp, sp, #12
 1352              		.cfi_def_cfa_offset 16
 1353              		.loc 1 447 0
 1354 000a 0191     		str	r1, [sp, #4]
 1355              		.loc 1 448 0
 1356 000c 1060     		str	r0, [r2]
 1357              		.loc 1 449 0
 1358 000e 019A     		ldr	r2, [sp, #4]
 1359 0010 1B68     		ldr	r3, [r3]
 1360 0012 9A42     		cmp	r2, r3
 1361 0014 02D1     		bne	.L109
 1362 0016 03B0     		add	sp, sp, #12
 1363              		.cfi_remember_state
 1364              		.cfi_def_cfa_offset 4
 1365              		@ sp needed
 1366 0018 5DF804FB 		ldr	pc, [sp], #4
 1367              	.L109:
 1368              		.cfi_restore_state
ARM GAS  /tmp/ccaqyyo1.s 			page 25


 1369 001c FFF7FEFF 		bl	__stack_chk_fail
 1370              	.LVL88:
 1371              	.L111:
 1372              		.align	2
 1373              	.L110:
 1374 0020 00000000 		.word	__stack_chk_guard
 1375 0024 00000000 		.word	.LANCHOR7
 1376              		.cfi_endproc
 1377              	.LFE266:
 1378              		.size	ircomPause, .-ircomPause
 1379              		.section	.text.ircomEnableContinuousListening,"ax",%progbits
 1380              		.align	1
 1381              		.p2align 4,,15
 1382              		.global	ircomEnableContinuousListening
 1383              		.syntax unified
 1384              		.thumb
 1385              		.thumb_func
 1386              		.fpu fpv4-sp-d16
 1387              		.type	ircomEnableContinuousListening, %function
 1388              	ircomEnableContinuousListening:
 1389              	.LFB267:
 1390              		.loc 1 451 0
 1391              		.cfi_startproc
 1392              		@ args = 0, pretend = 0, frame = 8
 1393              		@ frame_needed = 0, uses_anonymous_args = 0
 1394 0000 00B5     		push	{lr}
 1395              		.cfi_def_cfa_offset 4
 1396              		.cfi_offset 14, -4
 1397 0002 084B     		ldr	r3, .L116
 1398              		.loc 1 452 0
 1399 0004 084A     		ldr	r2, .L116+4
 1400              		.loc 1 451 0
 1401 0006 1968     		ldr	r1, [r3]
 1402 0008 83B0     		sub	sp, sp, #12
 1403              		.cfi_def_cfa_offset 16
 1404              		.loc 1 451 0
 1405 000a 0191     		str	r1, [sp, #4]
 1406              		.loc 1 452 0
 1407 000c 0121     		movs	r1, #1
 1408 000e D162     		str	r1, [r2, #44]
 1409              		.loc 1 453 0
 1410 0010 019A     		ldr	r2, [sp, #4]
 1411 0012 1B68     		ldr	r3, [r3]
 1412 0014 9A42     		cmp	r2, r3
 1413 0016 02D1     		bne	.L115
 1414 0018 03B0     		add	sp, sp, #12
 1415              		.cfi_remember_state
 1416              		.cfi_def_cfa_offset 4
 1417              		@ sp needed
 1418 001a 5DF804FB 		ldr	pc, [sp], #4
 1419              	.L115:
 1420              		.cfi_restore_state
 1421 001e FFF7FEFF 		bl	__stack_chk_fail
 1422              	.LVL89:
 1423              	.L117:
 1424 0022 00BF     		.align	2
 1425              	.L116:
ARM GAS  /tmp/ccaqyyo1.s 			page 26


 1426 0024 00000000 		.word	__stack_chk_guard
 1427 0028 00000000 		.word	.LANCHOR21
 1428              		.cfi_endproc
 1429              	.LFE267:
 1430              		.size	ircomEnableContinuousListening, .-ircomEnableContinuousListening
 1431              		.section	.text.ircomDisableContinuousListening,"ax",%progbits
 1432              		.align	1
 1433              		.p2align 4,,15
 1434              		.global	ircomDisableContinuousListening
 1435              		.syntax unified
 1436              		.thumb
 1437              		.thumb_func
 1438              		.fpu fpv4-sp-d16
 1439              		.type	ircomDisableContinuousListening, %function
 1440              	ircomDisableContinuousListening:
 1441              	.LFB268:
 1442              		.loc 1 455 0
 1443              		.cfi_startproc
 1444              		@ args = 0, pretend = 0, frame = 8
 1445              		@ frame_needed = 0, uses_anonymous_args = 0
 1446 0000 00B5     		push	{lr}
 1447              		.cfi_def_cfa_offset 4
 1448              		.cfi_offset 14, -4
 1449 0002 084B     		ldr	r3, .L122
 1450              		.loc 1 456 0
 1451 0004 084A     		ldr	r2, .L122+4
 1452              		.loc 1 455 0
 1453 0006 1968     		ldr	r1, [r3]
 1454 0008 83B0     		sub	sp, sp, #12
 1455              		.cfi_def_cfa_offset 16
 1456              		.loc 1 455 0
 1457 000a 0191     		str	r1, [sp, #4]
 1458              		.loc 1 456 0
 1459 000c 0021     		movs	r1, #0
 1460 000e D162     		str	r1, [r2, #44]
 1461              		.loc 1 457 0
 1462 0010 019A     		ldr	r2, [sp, #4]
 1463 0012 1B68     		ldr	r3, [r3]
 1464 0014 9A42     		cmp	r2, r3
 1465 0016 02D1     		bne	.L121
 1466 0018 03B0     		add	sp, sp, #12
 1467              		.cfi_remember_state
 1468              		.cfi_def_cfa_offset 4
 1469              		@ sp needed
 1470 001a 5DF804FB 		ldr	pc, [sp], #4
 1471              	.L121:
 1472              		.cfi_restore_state
 1473 001e FFF7FEFF 		bl	__stack_chk_fail
 1474              	.LVL90:
 1475              	.L123:
 1476 0022 00BF     		.align	2
 1477              	.L122:
 1478 0024 00000000 		.word	__stack_chk_guard
 1479 0028 00000000 		.word	.LANCHOR21
 1480              		.cfi_endproc
 1481              	.LFE268:
 1482              		.size	ircomDisableContinuousListening, .-ircomDisableContinuousListening
ARM GAS  /tmp/ccaqyyo1.s 			page 27


 1483              		.section	.text.ircom_skip_samples,"ax",%progbits
 1484              		.align	1
 1485              		.p2align 4,,15
 1486              		.global	ircom_skip_samples
 1487              		.syntax unified
 1488              		.thumb
 1489              		.thumb_func
 1490              		.fpu fpv4-sp-d16
 1491              		.type	ircom_skip_samples, %function
 1492              	ircom_skip_samples:
 1493              	.LFB269:
 1494              		.loc 1 459 0
 1495              		.cfi_startproc
 1496              		@ args = 0, pretend = 0, frame = 8
 1497              		@ frame_needed = 0, uses_anonymous_args = 0
 1498              	.LVL91:
 1499 0000 30B5     		push	{r4, r5, lr}
 1500              		.cfi_def_cfa_offset 12
 1501              		.cfi_offset 4, -12
 1502              		.cfi_offset 5, -8
 1503              		.cfi_offset 14, -4
 1504 0002 094B     		ldr	r3, .L128
 1505              		.loc 1 460 0
 1506 0004 094D     		ldr	r5, .L128+4
 1507              		.loc 1 459 0
 1508 0006 1A68     		ldr	r2, [r3]
 1509              		.loc 1 461 0
 1510 0008 094C     		ldr	r4, .L128+8
 1511              		.loc 1 462 0
 1512 000a 0A49     		ldr	r1, .L128+12
 1513              		.loc 1 459 0
 1514 000c 83B0     		sub	sp, sp, #12
 1515              		.cfi_def_cfa_offset 24
 1516              		.loc 1 459 0
 1517 000e 0192     		str	r2, [sp, #4]
 1518              		.loc 1 461 0
 1519 0010 0022     		movs	r2, #0
 1520              		.loc 1 460 0
 1521 0012 2860     		str	r0, [r5]
 1522              		.loc 1 461 0
 1523 0014 2260     		str	r2, [r4]
 1524              		.loc 1 462 0
 1525 0016 0A70     		strb	r2, [r1]
 1526              		.loc 1 463 0
 1527 0018 019A     		ldr	r2, [sp, #4]
 1528 001a 1B68     		ldr	r3, [r3]
 1529 001c 9A42     		cmp	r2, r3
 1530 001e 01D1     		bne	.L127
 1531 0020 03B0     		add	sp, sp, #12
 1532              		.cfi_remember_state
 1533              		.cfi_def_cfa_offset 12
 1534              		@ sp needed
 1535 0022 30BD     		pop	{r4, r5, pc}
 1536              	.L127:
 1537              		.cfi_restore_state
 1538 0024 FFF7FEFF 		bl	__stack_chk_fail
 1539              	.LVL92:
ARM GAS  /tmp/ccaqyyo1.s 			page 28


 1540              	.L129:
 1541              		.align	2
 1542              	.L128:
 1543 0028 00000000 		.word	__stack_chk_guard
 1544 002c 00000000 		.word	.LANCHOR9
 1545 0030 00000000 		.word	.LANCHOR10
 1546 0034 00000000 		.word	.LANCHOR12
 1547              		.cfi_endproc
 1548              	.LFE269:
 1549              		.size	ircom_skip_samples, .-ircom_skip_samples
 1550              		.section	.text.ircom_is_array_filled,"ax",%progbits
 1551              		.align	1
 1552              		.p2align 4,,15
 1553              		.global	ircom_is_array_filled
 1554              		.syntax unified
 1555              		.thumb
 1556              		.thumb_func
 1557              		.fpu fpv4-sp-d16
 1558              		.type	ircom_is_array_filled, %function
 1559              	ircom_is_array_filled:
 1560              	.LFB270:
 1561              		.loc 1 465 0
 1562              		.cfi_startproc
 1563              		@ args = 0, pretend = 0, frame = 8
 1564              		@ frame_needed = 0, uses_anonymous_args = 0
 1565 0000 00B5     		push	{lr}
 1566              		.cfi_def_cfa_offset 4
 1567              		.cfi_offset 14, -4
 1568 0002 084B     		ldr	r3, .L134
 1569              		.loc 1 466 0
 1570 0004 084A     		ldr	r2, .L134+4
 1571              		.loc 1 465 0
 1572 0006 1968     		ldr	r1, [r3]
 1573 0008 83B0     		sub	sp, sp, #12
 1574              		.cfi_def_cfa_offset 16
 1575              		.loc 1 465 0
 1576 000a 0191     		str	r1, [sp, #4]
 1577              		.loc 1 467 0
 1578 000c 0021     		movs	r1, #0
 1579              		.loc 1 466 0
 1580 000e 1078     		ldrb	r0, [r2]	@ zero_extendqisi2
 1581              	.LVL93:
 1582              		.loc 1 467 0
 1583 0010 1170     		strb	r1, [r2]
 1584              		.loc 1 469 0
 1585 0012 019A     		ldr	r2, [sp, #4]
 1586 0014 1B68     		ldr	r3, [r3]
 1587 0016 9A42     		cmp	r2, r3
 1588 0018 02D1     		bne	.L133
 1589 001a 03B0     		add	sp, sp, #12
 1590              		.cfi_remember_state
 1591              		.cfi_def_cfa_offset 4
 1592              		@ sp needed
 1593 001c 5DF804FB 		ldr	pc, [sp], #4
 1594              	.L133:
 1595              		.cfi_restore_state
 1596 0020 FFF7FEFF 		bl	__stack_chk_fail
ARM GAS  /tmp/ccaqyyo1.s 			page 29


 1597              	.LVL94:
 1598              	.L135:
 1599              		.align	2
 1600              	.L134:
 1601 0024 00000000 		.word	__stack_chk_guard
 1602 0028 00000000 		.word	.LANCHOR12
 1603              		.cfi_endproc
 1604              	.LFE270:
 1605              		.size	ircom_is_array_filled, .-ircom_is_array_filled
 1606              		.section	.text.ircom_adc_off,"ax",%progbits
 1607              		.align	1
 1608              		.p2align 4,,15
 1609              		.global	ircom_adc_off
 1610              		.syntax unified
 1611              		.thumb
 1612              		.thumb_func
 1613              		.fpu fpv4-sp-d16
 1614              		.type	ircom_adc_off, %function
 1615              	ircom_adc_off:
 1616              	.LFB271:
 1617              		.loc 1 471 0
 1618              		.cfi_startproc
 1619              		@ args = 0, pretend = 0, frame = 8
 1620              		@ frame_needed = 0, uses_anonymous_args = 0
 1621 0000 00B5     		push	{lr}
 1622              		.cfi_def_cfa_offset 4
 1623              		.cfi_offset 14, -4
 1624 0002 0A4A     		ldr	r2, .L141
 1625              		.loc 1 472 0
 1626 0004 0A48     		ldr	r0, .L141+4
 1627              		.loc 1 471 0
 1628 0006 1368     		ldr	r3, [r2]
 1629 0008 83B0     		sub	sp, sp, #12
 1630              		.cfi_def_cfa_offset 16
 1631              		.loc 1 471 0
 1632 000a 0193     		str	r3, [sp, #4]
 1633              		.loc 1 472 0
 1634 000c 0199     		ldr	r1, [sp, #4]
 1635 000e C368     		ldr	r3, [r0, #12]
 1636 0010 1268     		ldr	r2, [r2]
 1637 0012 23F00203 		bic	r3, r3, #2
 1638 0016 9142     		cmp	r1, r2
 1639 0018 C360     		str	r3, [r0, #12]
 1640 001a 05D1     		bne	.L140
 1641 001c 0121     		movs	r1, #1
 1642              		.loc 1 473 0
 1643 001e 03B0     		add	sp, sp, #12
 1644              		.cfi_remember_state
 1645              		.cfi_def_cfa_offset 4
 1646              		@ sp needed
 1647 0020 5DF804EB 		ldr	lr, [sp], #4
 1648              		.cfi_restore 14
 1649              		.cfi_def_cfa_offset 0
 1650              		.loc 1 472 0
 1651 0024 FFF7FEBF 		b	pwm_lld_disable_channel
 1652              	.LVL95:
 1653              	.L140:
ARM GAS  /tmp/ccaqyyo1.s 			page 30


 1654              		.cfi_restore_state
 1655 0028 FFF7FEFF 		bl	__stack_chk_fail
 1656              	.LVL96:
 1657              	.L142:
 1658              		.align	2
 1659              	.L141:
 1660 002c 00000000 		.word	__stack_chk_guard
 1661 0030 00000000 		.word	PWMD2
 1662              		.cfi_endproc
 1663              	.LFE271:
 1664              		.size	ircom_adc_off, .-ircom_adc_off
 1665              		.section	.text.ircom_adc_on,"ax",%progbits
 1666              		.align	1
 1667              		.p2align 4,,15
 1668              		.global	ircom_adc_on
 1669              		.syntax unified
 1670              		.thumb
 1671              		.thumb_func
 1672              		.fpu fpv4-sp-d16
 1673              		.type	ircom_adc_on, %function
 1674              	ircom_adc_on:
 1675              	.LFB272:
 1676              		.loc 1 475 0
 1677              		.cfi_startproc
 1678              		@ args = 0, pretend = 0, frame = 8
 1679              		@ frame_needed = 0, uses_anonymous_args = 0
 1680 0000 00B5     		push	{lr}
 1681              		.cfi_def_cfa_offset 4
 1682              		.cfi_offset 14, -4
 1683 0002 0B4A     		ldr	r2, .L148
 1684              		.loc 1 476 0
 1685 0004 0B48     		ldr	r0, .L148+4
 1686              		.loc 1 475 0
 1687 0006 1368     		ldr	r3, [r2]
 1688 0008 83B0     		sub	sp, sp, #12
 1689              		.cfi_def_cfa_offset 16
 1690              		.loc 1 475 0
 1691 000a 0193     		str	r3, [sp, #4]
 1692              		.loc 1 476 0
 1693 000c 0199     		ldr	r1, [sp, #4]
 1694 000e C368     		ldr	r3, [r0, #12]
 1695 0010 1268     		ldr	r2, [r2]
 1696 0012 43F00203 		orr	r3, r3, #2
 1697 0016 9142     		cmp	r1, r2
 1698 0018 C360     		str	r3, [r0, #12]
 1699 001a 06D1     		bne	.L147
 1700 001c 0122     		movs	r2, #1
 1701 001e 1146     		mov	r1, r2
 1702              		.loc 1 477 0
 1703 0020 03B0     		add	sp, sp, #12
 1704              		.cfi_remember_state
 1705              		.cfi_def_cfa_offset 4
 1706              		@ sp needed
 1707 0022 5DF804EB 		ldr	lr, [sp], #4
 1708              		.cfi_restore 14
 1709              		.cfi_def_cfa_offset 0
 1710              		.loc 1 476 0
ARM GAS  /tmp/ccaqyyo1.s 			page 31


 1711 0026 FFF7FEBF 		b	pwm_lld_enable_channel
 1712              	.LVL97:
 1713              	.L147:
 1714              		.cfi_restore_state
 1715 002a FFF7FEFF 		bl	__stack_chk_fail
 1716              	.LVL98:
 1717              	.L149:
 1718 002e 00BF     		.align	2
 1719              	.L148:
 1720 0030 00000000 		.word	__stack_chk_guard
 1721 0034 00000000 		.word	PWMD2
 1722              		.cfi_endproc
 1723              	.LFE272:
 1724              		.size	ircom_adc_on, .-ircom_adc_on
 1725              		.section	.text.ircomStop,"ax",%progbits
 1726              		.align	1
 1727              		.p2align 4,,15
 1728              		.global	ircomStop
 1729              		.syntax unified
 1730              		.thumb
 1731              		.thumb_func
 1732              		.fpu fpv4-sp-d16
 1733              		.type	ircomStop, %function
 1734              	ircomStop:
 1735              	.LFB273:
 1736              		.loc 1 479 0
 1737              		.cfi_startproc
 1738              		@ args = 0, pretend = 0, frame = 8
 1739              		@ frame_needed = 0, uses_anonymous_args = 0
 1740 0000 00B5     		push	{lr}
 1741              		.cfi_def_cfa_offset 4
 1742              		.cfi_offset 14, -4
 1743 0002 084B     		ldr	r3, .L155
 1744 0004 83B0     		sub	sp, sp, #12
 1745              		.cfi_def_cfa_offset 16
 1746              		.loc 1 479 0
 1747 0006 1A68     		ldr	r2, [r3]
 1748 0008 0192     		str	r2, [sp, #4]
 1749              		.loc 1 480 0
 1750 000a 019A     		ldr	r2, [sp, #4]
 1751 000c 1B68     		ldr	r3, [r3]
 1752 000e 9A42     		cmp	r2, r3
 1753 0010 05D1     		bne	.L154
 1754 0012 0548     		ldr	r0, .L155+4
 1755              		.loc 1 481 0
 1756 0014 03B0     		add	sp, sp, #12
 1757              		.cfi_remember_state
 1758              		.cfi_def_cfa_offset 4
 1759              		@ sp needed
 1760 0016 5DF804EB 		ldr	lr, [sp], #4
 1761              		.cfi_restore 14
 1762              		.cfi_def_cfa_offset 0
 1763              		.loc 1 480 0
 1764 001a FFF7FEBF 		b	gptStopTimer
 1765              	.LVL99:
 1766              	.L154:
 1767              		.cfi_restore_state
ARM GAS  /tmp/ccaqyyo1.s 			page 32


 1768 001e FFF7FEFF 		bl	__stack_chk_fail
 1769              	.LVL100:
 1770              	.L156:
 1771 0022 00BF     		.align	2
 1772              	.L155:
 1773 0024 00000000 		.word	__stack_chk_guard
 1774 0028 00000000 		.word	GPTD14
 1775              		.cfi_endproc
 1776              	.LFE273:
 1777              		.size	ircomStop, .-ircomStop
 1778              		.section	.text.ircomRestart,"ax",%progbits
 1779              		.align	1
 1780              		.p2align 4,,15
 1781              		.global	ircomRestart
 1782              		.syntax unified
 1783              		.thumb
 1784              		.thumb_func
 1785              		.fpu fpv4-sp-d16
 1786              		.type	ircomRestart, %function
 1787              	ircomRestart:
 1788              	.LFB274:
 1789              		.loc 1 483 0
 1790              		.cfi_startproc
 1791              		@ args = 0, pretend = 0, frame = 8
 1792              		@ frame_needed = 0, uses_anonymous_args = 0
 1793 0000 00B5     		push	{lr}
 1794              		.cfi_def_cfa_offset 4
 1795              		.cfi_offset 14, -4
 1796 0002 084B     		ldr	r3, .L162
 1797 0004 83B0     		sub	sp, sp, #12
 1798              		.cfi_def_cfa_offset 16
 1799              		.loc 1 483 0
 1800 0006 1A68     		ldr	r2, [r3]
 1801 0008 0192     		str	r2, [sp, #4]
 1802              		.loc 1 484 0
 1803 000a 019A     		ldr	r2, [sp, #4]
 1804 000c 1B68     		ldr	r3, [r3]
 1805 000e 9A42     		cmp	r2, r3
 1806 0010 06D1     		bne	.L161
 1807 0012 0548     		ldr	r0, .L162+4
 1808 0014 6421     		movs	r1, #100
 1809              		.loc 1 485 0
 1810 0016 03B0     		add	sp, sp, #12
 1811              		.cfi_remember_state
 1812              		.cfi_def_cfa_offset 4
 1813              		@ sp needed
 1814 0018 5DF804EB 		ldr	lr, [sp], #4
 1815              		.cfi_restore 14
 1816              		.cfi_def_cfa_offset 0
 1817              		.loc 1 484 0
 1818 001c FFF7FEBF 		b	gptStartContinuous
 1819              	.LVL101:
 1820              	.L161:
 1821              		.cfi_restore_state
 1822 0020 FFF7FEFF 		bl	__stack_chk_fail
 1823              	.LVL102:
 1824              	.L163:
ARM GAS  /tmp/ccaqyyo1.s 			page 33


 1825              		.align	2
 1826              	.L162:
 1827 0024 00000000 		.word	__stack_chk_guard
 1828 0028 00000000 		.word	GPTD14
 1829              		.cfi_endproc
 1830              	.LFE274:
 1831              		.size	ircomRestart, .-ircomRestart
 1832              		.section	.text.ircomEnableProximity,"ax",%progbits
 1833              		.align	1
 1834              		.p2align 4,,15
 1835              		.global	ircomEnableProximity
 1836              		.syntax unified
 1837              		.thumb
 1838              		.thumb_func
 1839              		.fpu fpv4-sp-d16
 1840              		.type	ircomEnableProximity, %function
 1841              	ircomEnableProximity:
 1842              	.LFB275:
 1843              		.loc 1 487 0
 1844              		.cfi_startproc
 1845              		@ args = 0, pretend = 0, frame = 8
 1846              		@ frame_needed = 0, uses_anonymous_args = 0
 1847 0000 00B5     		push	{lr}
 1848              		.cfi_def_cfa_offset 4
 1849              		.cfi_offset 14, -4
 1850 0002 084B     		ldr	r3, .L168
 1851              		.loc 1 488 0
 1852 0004 084A     		ldr	r2, .L168+4
 1853              		.loc 1 487 0
 1854 0006 1968     		ldr	r1, [r3]
 1855 0008 83B0     		sub	sp, sp, #12
 1856              		.cfi_def_cfa_offset 16
 1857              		.loc 1 487 0
 1858 000a 0191     		str	r1, [sp, #4]
 1859              		.loc 1 488 0
 1860 000c 0121     		movs	r1, #1
 1861 000e 1170     		strb	r1, [r2]
 1862              		.loc 1 489 0
 1863 0010 019A     		ldr	r2, [sp, #4]
 1864 0012 1B68     		ldr	r3, [r3]
 1865 0014 9A42     		cmp	r2, r3
 1866 0016 02D1     		bne	.L167
 1867 0018 03B0     		add	sp, sp, #12
 1868              		.cfi_remember_state
 1869              		.cfi_def_cfa_offset 4
 1870              		@ sp needed
 1871 001a 5DF804FB 		ldr	pc, [sp], #4
 1872              	.L167:
 1873              		.cfi_restore_state
 1874 001e FFF7FEFF 		bl	__stack_chk_fail
 1875              	.LVL103:
 1876              	.L169:
 1877 0022 00BF     		.align	2
 1878              	.L168:
 1879 0024 00000000 		.word	__stack_chk_guard
 1880 0028 00000000 		.word	.LANCHOR19
 1881              		.cfi_endproc
ARM GAS  /tmp/ccaqyyo1.s 			page 34


 1882              	.LFE275:
 1883              		.size	ircomEnableProximity, .-ircomEnableProximity
 1884              		.section	.text.ircomDisableProximity,"ax",%progbits
 1885              		.align	1
 1886              		.p2align 4,,15
 1887              		.global	ircomDisableProximity
 1888              		.syntax unified
 1889              		.thumb
 1890              		.thumb_func
 1891              		.fpu fpv4-sp-d16
 1892              		.type	ircomDisableProximity, %function
 1893              	ircomDisableProximity:
 1894              	.LFB276:
 1895              		.loc 1 491 0
 1896              		.cfi_startproc
 1897              		@ args = 0, pretend = 0, frame = 8
 1898              		@ frame_needed = 0, uses_anonymous_args = 0
 1899 0000 00B5     		push	{lr}
 1900              		.cfi_def_cfa_offset 4
 1901              		.cfi_offset 14, -4
 1902 0002 084B     		ldr	r3, .L174
 1903              		.loc 1 492 0
 1904 0004 084A     		ldr	r2, .L174+4
 1905              		.loc 1 491 0
 1906 0006 1968     		ldr	r1, [r3]
 1907 0008 83B0     		sub	sp, sp, #12
 1908              		.cfi_def_cfa_offset 16
 1909              		.loc 1 491 0
 1910 000a 0191     		str	r1, [sp, #4]
 1911              		.loc 1 492 0
 1912 000c 0021     		movs	r1, #0
 1913 000e 1170     		strb	r1, [r2]
 1914              		.loc 1 493 0
 1915 0010 019A     		ldr	r2, [sp, #4]
 1916 0012 1B68     		ldr	r3, [r3]
 1917 0014 9A42     		cmp	r2, r3
 1918 0016 02D1     		bne	.L173
 1919 0018 03B0     		add	sp, sp, #12
 1920              		.cfi_remember_state
 1921              		.cfi_def_cfa_offset 4
 1922              		@ sp needed
 1923 001a 5DF804FB 		ldr	pc, [sp], #4
 1924              	.L173:
 1925              		.cfi_restore_state
 1926 001e FFF7FEFF 		bl	__stack_chk_fail
 1927              	.LVL104:
 1928              	.L175:
 1929 0022 00BF     		.align	2
 1930              	.L174:
 1931 0024 00000000 		.word	__stack_chk_guard
 1932 0028 00000000 		.word	.LANCHOR19
 1933              		.cfi_endproc
 1934              	.LFE276:
 1935              		.size	ircomDisableProximity, .-ircomDisableProximity
 1936              		.section	.text.ircomSetOmnidirectional,"ax",%progbits
 1937              		.align	1
 1938              		.p2align 4,,15
ARM GAS  /tmp/ccaqyyo1.s 			page 35


 1939              		.global	ircomSetOmnidirectional
 1940              		.syntax unified
 1941              		.thumb
 1942              		.thumb_func
 1943              		.fpu fpv4-sp-d16
 1944              		.type	ircomSetOmnidirectional, %function
 1945              	ircomSetOmnidirectional:
 1946              	.LFB277:
 1947              		.loc 1 495 0
 1948              		.cfi_startproc
 1949              		@ args = 0, pretend = 0, frame = 8
 1950              		@ frame_needed = 0, uses_anonymous_args = 0
 1951 0000 00B5     		push	{lr}
 1952              		.cfi_def_cfa_offset 4
 1953              		.cfi_offset 14, -4
 1954 0002 084B     		ldr	r3, .L180
 1955              		.loc 1 496 0
 1956 0004 084A     		ldr	r2, .L180+4
 1957              		.loc 1 495 0
 1958 0006 1968     		ldr	r1, [r3]
 1959 0008 83B0     		sub	sp, sp, #12
 1960              		.cfi_def_cfa_offset 16
 1961              		.loc 1 495 0
 1962 000a 0191     		str	r1, [sp, #4]
 1963              		.loc 1 496 0
 1964 000c 0021     		movs	r1, #0
 1965 000e 1161     		str	r1, [r2, #16]
 1966              		.loc 1 497 0
 1967 0010 019A     		ldr	r2, [sp, #4]
 1968 0012 1B68     		ldr	r3, [r3]
 1969 0014 9A42     		cmp	r2, r3
 1970 0016 02D1     		bne	.L179
 1971 0018 03B0     		add	sp, sp, #12
 1972              		.cfi_remember_state
 1973              		.cfi_def_cfa_offset 4
 1974              		@ sp needed
 1975 001a 5DF804FB 		ldr	pc, [sp], #4
 1976              	.L179:
 1977              		.cfi_restore_state
 1978 001e FFF7FEFF 		bl	__stack_chk_fail
 1979              	.LVL105:
 1980              	.L181:
 1981 0022 00BF     		.align	2
 1982              	.L180:
 1983 0024 00000000 		.word	__stack_chk_guard
 1984 0028 00000000 		.word	.LANCHOR22
 1985              		.cfi_endproc
 1986              	.LFE277:
 1987              		.size	ircomSetOmnidirectional, .-ircomSetOmnidirectional
 1988              		.section	.text.ircomSetDirectional,"ax",%progbits
 1989              		.align	1
 1990              		.p2align 4,,15
 1991              		.global	ircomSetDirectional
 1992              		.syntax unified
 1993              		.thumb
 1994              		.thumb_func
 1995              		.fpu fpv4-sp-d16
ARM GAS  /tmp/ccaqyyo1.s 			page 36


 1996              		.type	ircomSetDirectional, %function
 1997              	ircomSetDirectional:
 1998              	.LFB278:
 1999              		.loc 1 499 0
 2000              		.cfi_startproc
 2001              		@ args = 0, pretend = 0, frame = 8
 2002              		@ frame_needed = 0, uses_anonymous_args = 0
 2003              	.LVL106:
 2004 0000 10B5     		push	{r4, lr}
 2005              		.cfi_def_cfa_offset 8
 2006              		.cfi_offset 4, -8
 2007              		.cfi_offset 14, -4
 2008              		.loc 1 501 0
 2009 0002 4342     		rsbs	r3, r0, #0
 2010              		.loc 1 499 0
 2011 0004 0A4A     		ldr	r2, .L186
 2012              		.loc 1 500 0
 2013 0006 0B49     		ldr	r1, .L186+4
 2014              		.loc 1 499 0
 2015 0008 1468     		ldr	r4, [r2]
 2016 000a 82B0     		sub	sp, sp, #8
 2017              		.cfi_def_cfa_offset 16
 2018              		.loc 1 501 0
 2019 000c 03F00303 		and	r3, r3, #3
 2020 0010 00F00300 		and	r0, r0, #3
 2021              	.LVL107:
 2022 0014 58BF     		it	pl
 2023 0016 5842     		rsbpl	r0, r3, #0
 2024              		.loc 1 500 0
 2025 0018 0123     		movs	r3, #1
 2026              		.loc 1 499 0
 2027 001a 0194     		str	r4, [sp, #4]
 2028              		.loc 1 500 0
 2029 001c 0B61     		str	r3, [r1, #16]
 2030              		.loc 1 501 0
 2031 001e 4861     		str	r0, [r1, #20]
 2032              		.loc 1 502 0
 2033 0020 0199     		ldr	r1, [sp, #4]
 2034 0022 1368     		ldr	r3, [r2]
 2035 0024 9942     		cmp	r1, r3
 2036 0026 01D1     		bne	.L185
 2037 0028 02B0     		add	sp, sp, #8
 2038              		.cfi_remember_state
 2039              		.cfi_def_cfa_offset 8
 2040              		@ sp needed
 2041 002a 10BD     		pop	{r4, pc}
 2042              	.L185:
 2043              		.cfi_restore_state
 2044 002c FFF7FEFF 		bl	__stack_chk_fail
 2045              	.LVL108:
 2046              	.L187:
 2047              		.align	2
 2048              	.L186:
 2049 0030 00000000 		.word	__stack_chk_guard
 2050 0034 00000000 		.word	.LANCHOR22
 2051              		.cfi_endproc
 2052              	.LFE278:
ARM GAS  /tmp/ccaqyyo1.s 			page 37


 2053              		.size	ircomSetDirectional, .-ircomSetDirectional
 2054              		.section	.text.ircom_calibrate_ir,"ax",%progbits
 2055              		.align	1
 2056              		.p2align 4,,15
 2057              		.global	ircom_calibrate_ir
 2058              		.syntax unified
 2059              		.thumb
 2060              		.thumb_func
 2061              		.fpu fpv4-sp-d16
 2062              		.type	ircom_calibrate_ir, %function
 2063              	ircom_calibrate_ir:
 2064              	.LFB279:
 2065              		.loc 1 504 0
 2066              		.cfi_startproc
 2067              		@ args = 0, pretend = 0, frame = 8
 2068              		@ frame_needed = 0, uses_anonymous_args = 0
 2069 0000 30B5     		push	{r4, r5, lr}
 2070              		.cfi_def_cfa_offset 12
 2071              		.cfi_offset 4, -12
 2072              		.cfi_offset 5, -8
 2073              		.cfi_offset 14, -4
 2074 0002 0C4D     		ldr	r5, .L194
 2075              		.loc 1 505 0
 2076 0004 0C4A     		ldr	r2, .L194+4
 2077              		.loc 1 504 0
 2078 0006 2B68     		ldr	r3, [r5]
 2079              		.loc 1 506 0
 2080 0008 0C4C     		ldr	r4, .L194+8
 2081              		.loc 1 504 0
 2082 000a 83B0     		sub	sp, sp, #12
 2083              		.cfi_def_cfa_offset 24
 2084              		.loc 1 505 0
 2085 000c 0021     		movs	r1, #0
 2086              		.loc 1 504 0
 2087 000e 0193     		str	r3, [sp, #4]
 2088              		.loc 1 506 0
 2089 0010 0123     		movs	r3, #1
 2090              		.loc 1 505 0
 2091 0012 1170     		strb	r1, [r2]
 2092              		.loc 1 506 0
 2093 0014 2370     		strb	r3, [r4]
 2094              	.L189:
 2095              		.loc 1 508 0
 2096 0016 1420     		movs	r0, #20
 2097 0018 FFF7FEFF 		bl	chThdSleep
 2098              	.LVL109:
 2099              		.loc 1 507 0
 2100 001c 2378     		ldrb	r3, [r4]	@ zero_extendqisi2
 2101 001e 002B     		cmp	r3, #0
 2102 0020 F9D1     		bne	.L189
 2103              		.loc 1 510 0
 2104 0022 019A     		ldr	r2, [sp, #4]
 2105 0024 2B68     		ldr	r3, [r5]
 2106 0026 9A42     		cmp	r2, r3
 2107 0028 01D1     		bne	.L193
 2108 002a 03B0     		add	sp, sp, #12
 2109              		.cfi_remember_state
ARM GAS  /tmp/ccaqyyo1.s 			page 38


 2110              		.cfi_def_cfa_offset 12
 2111              		@ sp needed
 2112 002c 30BD     		pop	{r4, r5, pc}
 2113              	.L193:
 2114              		.cfi_restore_state
 2115 002e FFF7FEFF 		bl	__stack_chk_fail
 2116              	.LVL110:
 2117              	.L195:
 2118 0032 00BF     		.align	2
 2119              	.L194:
 2120 0034 00000000 		.word	__stack_chk_guard
 2121 0038 00000000 		.word	.LANCHOR4
 2122 003c 00000000 		.word	.LANCHOR3
 2123              		.cfi_endproc
 2124              	.LFE279:
 2125              		.size	ircom_calibrate_ir, .-ircom_calibrate_ir
 2126              		.section	.text.ircom_get_prox,"ax",%progbits
 2127              		.align	1
 2128              		.p2align 4,,15
 2129              		.global	ircom_get_prox
 2130              		.syntax unified
 2131              		.thumb
 2132              		.thumb_func
 2133              		.fpu fpv4-sp-d16
 2134              		.type	ircom_get_prox, %function
 2135              	ircom_get_prox:
 2136              	.LFB280:
 2137              		.loc 1 512 0
 2138              		.cfi_startproc
 2139              		@ args = 0, pretend = 0, frame = 8
 2140              		@ frame_needed = 0, uses_anonymous_args = 0
 2141              	.LVL111:
 2142 0000 00B5     		push	{lr}
 2143              		.cfi_def_cfa_offset 4
 2144              		.cfi_offset 14, -4
 2145 0002 0A4B     		ldr	r3, .L202
 2146 0004 83B0     		sub	sp, sp, #12
 2147              		.cfi_def_cfa_offset 16
 2148              		.loc 1 512 0
 2149 0006 1A68     		ldr	r2, [r3]
 2150 0008 0192     		str	r2, [sp, #4]
 2151              		.loc 1 513 0
 2152 000a 0728     		cmp	r0, #7
 2153              		.loc 1 516 0
 2154 000c 9BBF     		ittet	ls
 2155 000e 084A     		ldrls	r2, .L202+4
 2156 0010 1030     		addls	r0, r0, #16
 2157              	.LVL112:
 2158              		.loc 1 514 0
 2159 0012 0020     		movhi	r0, #0
 2160              		.loc 1 516 0
 2161 0014 52F82000 		ldrls	r0, [r2, r0, lsl #2]
 2162              		.loc 1 518 0
 2163 0018 019A     		ldr	r2, [sp, #4]
 2164 001a 1B68     		ldr	r3, [r3]
 2165 001c 9A42     		cmp	r2, r3
 2166 001e 02D1     		bne	.L201
ARM GAS  /tmp/ccaqyyo1.s 			page 39


 2167 0020 03B0     		add	sp, sp, #12
 2168              		.cfi_remember_state
 2169              		.cfi_def_cfa_offset 4
 2170              		@ sp needed
 2171 0022 5DF804FB 		ldr	pc, [sp], #4
 2172              	.L201:
 2173              		.cfi_restore_state
 2174 0026 FFF7FEFF 		bl	__stack_chk_fail
 2175              	.LVL113:
 2176              	.L203:
 2177 002a 00BF     		.align	2
 2178              	.L202:
 2179 002c 00000000 		.word	__stack_chk_guard
 2180 0030 00000000 		.word	.LANCHOR1
 2181              		.cfi_endproc
 2182              	.LFE280:
 2183              		.size	ircom_get_prox, .-ircom_get_prox
 2184              		.section	.text.ircom_get_calibrated_prox,"ax",%progbits
 2185              		.align	1
 2186              		.p2align 4,,15
 2187              		.global	ircom_get_calibrated_prox
 2188              		.syntax unified
 2189              		.thumb
 2190              		.thumb_func
 2191              		.fpu fpv4-sp-d16
 2192              		.type	ircom_get_calibrated_prox, %function
 2193              	ircom_get_calibrated_prox:
 2194              	.LFB281:
 2195              		.loc 1 520 0
 2196              		.cfi_startproc
 2197              		@ args = 0, pretend = 0, frame = 8
 2198              		@ frame_needed = 0, uses_anonymous_args = 0
 2199              	.LVL114:
 2200 0000 10B5     		push	{r4, lr}
 2201              		.cfi_def_cfa_offset 8
 2202              		.cfi_offset 4, -8
 2203              		.cfi_offset 14, -4
 2204 0002 0E4A     		ldr	r2, .L210
 2205 0004 82B0     		sub	sp, sp, #8
 2206              		.cfi_def_cfa_offset 16
 2207              		.loc 1 520 0
 2208 0006 1368     		ldr	r3, [r2]
 2209 0008 0193     		str	r3, [sp, #4]
 2210              		.loc 1 522 0
 2211 000a 0728     		cmp	r0, #7
 2212 000c 11D8     		bhi	.L207
 2213              	.LVL115:
 2214              		.loc 1 525 0
 2215 000e 0C49     		ldr	r1, .L210+4
 2216 0010 00F11803 		add	r3, r0, #24
 2217              	.LVL116:
 2218 0014 00F11004 		add	r4, r0, #16
 2219              	.LVL117:
 2220 0018 51F82330 		ldr	r3, [r1, r3, lsl #2]
 2221              	.LVL118:
 2222 001c 51F82400 		ldr	r0, [r1, r4, lsl #2]
 2223              	.LVL119:
ARM GAS  /tmp/ccaqyyo1.s 			page 40


 2224 0020 C01A     		subs	r0, r0, r3
 2225 0022 20EAE070 		bic	r0, r0, r0, asr #31
 2226              	.LVL120:
 2227              	.L204:
 2228              		.loc 1 532 0
 2229 0026 0199     		ldr	r1, [sp, #4]
 2230 0028 1368     		ldr	r3, [r2]
 2231 002a 9942     		cmp	r1, r3
 2232 002c 03D1     		bne	.L209
 2233 002e 02B0     		add	sp, sp, #8
 2234              		.cfi_remember_state
 2235              		.cfi_def_cfa_offset 8
 2236              		@ sp needed
 2237 0030 10BD     		pop	{r4, pc}
 2238              	.LVL121:
 2239              	.L207:
 2240              		.cfi_restore_state
 2241              		.loc 1 523 0
 2242 0032 0020     		movs	r0, #0
 2243              	.LVL122:
 2244 0034 F7E7     		b	.L204
 2245              	.L209:
 2246              		.loc 1 532 0
 2247 0036 FFF7FEFF 		bl	__stack_chk_fail
 2248              	.LVL123:
 2249              	.L211:
 2250 003a 00BF     		.align	2
 2251              	.L210:
 2252 003c 00000000 		.word	__stack_chk_guard
 2253 0040 00000000 		.word	.LANCHOR1
 2254              		.cfi_endproc
 2255              	.LFE281:
 2256              		.size	ircom_get_calibrated_prox, .-ircom_get_calibrated_prox
 2257              		.section	.text.ircom_get_ambient_light,"ax",%progbits
 2258              		.align	1
 2259              		.p2align 4,,15
 2260              		.global	ircom_get_ambient_light
 2261              		.syntax unified
 2262              		.thumb
 2263              		.thumb_func
 2264              		.fpu fpv4-sp-d16
 2265              		.type	ircom_get_ambient_light, %function
 2266              	ircom_get_ambient_light:
 2267              	.LFB282:
 2268              		.loc 1 534 0
 2269              		.cfi_startproc
 2270              		@ args = 0, pretend = 0, frame = 8
 2271              		@ frame_needed = 0, uses_anonymous_args = 0
 2272              	.LVL124:
 2273 0000 00B5     		push	{lr}
 2274              		.cfi_def_cfa_offset 4
 2275              		.cfi_offset 14, -4
 2276 0002 0A4B     		ldr	r3, .L218
 2277 0004 83B0     		sub	sp, sp, #12
 2278              		.cfi_def_cfa_offset 16
 2279              		.loc 1 534 0
 2280 0006 1A68     		ldr	r2, [r3]
ARM GAS  /tmp/ccaqyyo1.s 			page 41


 2281 0008 0192     		str	r2, [sp, #4]
 2282              		.loc 1 535 0
 2283 000a 0728     		cmp	r0, #7
 2284              		.loc 1 538 0
 2285 000c 9CBF     		itt	ls
 2286 000e 084A     		ldrls	r2, .L218+4
 2287 0010 52F82000 		ldrls	r0, [r2, r0, lsl #2]
 2288              	.LVL125:
 2289              		.loc 1 540 0
 2290 0014 019A     		ldr	r2, [sp, #4]
 2291 0016 1B68     		ldr	r3, [r3]
 2292              		.loc 1 536 0
 2293 0018 88BF     		it	hi
 2294 001a 0020     		movhi	r0, #0
 2295              		.loc 1 540 0
 2296 001c 9A42     		cmp	r2, r3
 2297 001e 02D1     		bne	.L217
 2298 0020 03B0     		add	sp, sp, #12
 2299              		.cfi_remember_state
 2300              		.cfi_def_cfa_offset 4
 2301              		@ sp needed
 2302 0022 5DF804FB 		ldr	pc, [sp], #4
 2303              	.L217:
 2304              		.cfi_restore_state
 2305 0026 FFF7FEFF 		bl	__stack_chk_fail
 2306              	.LVL126:
 2307              	.L219:
 2308 002a 00BF     		.align	2
 2309              	.L218:
 2310 002c 00000000 		.word	__stack_chk_guard
 2311 0030 00000000 		.word	.LANCHOR1
 2312              		.cfi_endproc
 2313              	.LFE282:
 2314              		.size	ircom_get_ambient_light, .-ircom_get_ambient_light
 2315              		.global	prox_phase
 2316              		.global	prox_index
 2317              		.global	prox_maxcounter
 2318              		.global	prox_counter
 2319              		.global	prox_trigger
 2320              		.global	ircom_enabled
 2321              		.global	prox_sampling_enabled
 2322              		.global	adc_mode
 2323              		.global	window_data
 2324              		.global	window_sampling
 2325              		.global	adc_buffer2
 2326              		.global	adc_buffer1
 2327              		.global	ircomSendData
 2328              		.global	ircomReceiveData
 2329              		.global	ircomData
 2330              		.global	array_filled
 2331              		.global	ircom_samples_to_skip
 2332              		.global	ircom_last_ir_scan_id
 2333              		.section	.bss.adc2_proximity_samples,"aw",%nobits
 2334              		.align	2
 2335              		.set	.LANCHOR26,. + 0
 2336              		.type	adc2_proximity_samples, %object
 2337              		.size	adc2_proximity_samples, 16
ARM GAS  /tmp/ccaqyyo1.s 			page 42


 2338              	adc2_proximity_samples:
 2339 0000 00000000 		.space	16
 2339      00000000 
 2339      00000000 
 2339      00000000 
 2340              		.section	.bss.adc_buffer1,"aw",%nobits
 2341              		.align	2
 2342              		.set	.LANCHOR23,. + 0
 2343              		.type	adc_buffer1, %object
 2344              		.size	adc_buffer1, 512
 2345              	adc_buffer1:
 2346 0000 00000000 		.space	512
 2346      00000000 
 2346      00000000 
 2346      00000000 
 2346      00000000 
 2347              		.section	.bss.adc_buffer2,"aw",%nobits
 2348              		.align	2
 2349              		.set	.LANCHOR24,. + 0
 2350              		.type	adc_buffer2, %object
 2351              		.size	adc_buffer2, 512
 2352              	adc_buffer2:
 2353 0000 00000000 		.space	512
 2353      00000000 
 2353      00000000 
 2353      00000000 
 2353      00000000 
 2354              		.section	.bss.adc_mode,"aw",%nobits
 2355              		.set	.LANCHOR17,. + 0
 2356              		.type	adc_mode, %object
 2357              		.size	adc_mode, 1
 2358              	adc_mode:
 2359 0000 00       		.space	1
 2360              		.section	.bss.array_filled,"aw",%nobits
 2361              		.set	.LANCHOR12,. + 0
 2362              		.type	array_filled, %object
 2363              		.size	array_filled, 1
 2364              	array_filled:
 2365 0000 00       		.space	1
 2366              		.section	.bss.calibrationInProgress,"aw",%nobits
 2367              		.set	.LANCHOR3,. + 0
 2368              		.type	calibrationInProgress, %object
 2369              		.size	calibrationInProgress, 1
 2370              	calibrationInProgress:
 2371 0000 00       		.space	1
 2372              		.section	.bss.calibrationNumSamples,"aw",%nobits
 2373              		.set	.LANCHOR6,. + 0
 2374              		.type	calibrationNumSamples, %object
 2375              		.size	calibrationNumSamples, 1
 2376              	calibrationNumSamples:
 2377 0000 00       		.space	1
 2378              		.section	.bss.calibrationState,"aw",%nobits
 2379              		.set	.LANCHOR4,. + 0
 2380              		.type	calibrationState, %object
 2381              		.size	calibrationState, 1
 2382              	calibrationState:
 2383 0000 00       		.space	1
ARM GAS  /tmp/ccaqyyo1.s 			page 43


 2384              		.section	.bss.calibrationSum,"aw",%nobits
 2385              		.align	2
 2386              		.set	.LANCHOR5,. + 0
 2387              		.type	calibrationSum, %object
 2388              		.size	calibrationSum, 32
 2389              	calibrationSum:
 2390 0000 00000000 		.space	32
 2390      00000000 
 2390      00000000 
 2390      00000000 
 2390      00000000 
 2391              		.section	.bss.ircomData,"aw",%nobits
 2392              		.align	2
 2393              		.set	.LANCHOR7,. + 0
 2394              		.type	ircomData, %object
 2395              		.size	ircomData, 424
 2396              	ircomData:
 2397 0000 00000000 		.space	424
 2397      00000000 
 2397      00000000 
 2397      00000000 
 2397      00000000 
 2398              		.section	.bss.ircomReceiveData,"aw",%nobits
 2399              		.align	2
 2400              		.set	.LANCHOR21,. + 0
 2401              		.type	ircomReceiveData, %object
 2402              		.size	ircomReceiveData, 48
 2403              	ircomReceiveData:
 2404 0000 00000000 		.space	48
 2404      00000000 
 2404      00000000 
 2404      00000000 
 2404      00000000 
 2405              		.section	.bss.ircomSendData,"aw",%nobits
 2406              		.align	3
 2407              		.set	.LANCHOR22,. + 0
 2408              		.type	ircomSendData, %object
 2409              		.size	ircomSendData, 224
 2410              	ircomSendData:
 2411 0000 00000000 		.space	224
 2411      00000000 
 2411      00000000 
 2411      00000000 
 2411      00000000 
 2412              		.section	.bss.ircom_enabled,"aw",%nobits
 2413              		.set	.LANCHOR8,. + 0
 2414              		.type	ircom_enabled, %object
 2415              		.size	ircom_enabled, 1
 2416              	ircom_enabled:
 2417 0000 00       		.space	1
 2418              		.section	.bss.ircom_last_ir_scan_id,"aw",%nobits
 2419              		.align	2
 2420              		.set	.LANCHOR10,. + 0
 2421              		.type	ircom_last_ir_scan_id, %object
 2422              		.size	ircom_last_ir_scan_id, 4
 2423              	ircom_last_ir_scan_id:
 2424 0000 00000000 		.space	4
ARM GAS  /tmp/ccaqyyo1.s 			page 44


 2425              		.section	.bss.ircom_samples_to_skip,"aw",%nobits
 2426              		.align	2
 2427              		.set	.LANCHOR9,. + 0
 2428              		.type	ircom_samples_to_skip, %object
 2429              		.size	ircom_samples_to_skip, 4
 2430              	ircom_samples_to_skip:
 2431 0000 00000000 		.space	4
 2432              		.section	.bss.prox_counter,"aw",%nobits
 2433              		.align	2
 2434              		.set	.LANCHOR14,. + 0
 2435              		.type	prox_counter, %object
 2436              		.size	prox_counter, 4
 2437              	prox_counter:
 2438 0000 00000000 		.space	4
 2439              		.section	.bss.prox_index,"aw",%nobits
 2440              		.align	2
 2441              		.set	.LANCHOR16,. + 0
 2442              		.type	prox_index, %object
 2443              		.size	prox_index, 4
 2444              	prox_index:
 2445 0000 00000000 		.space	4
 2446              		.section	.bss.prox_maxcounter,"aw",%nobits
 2447              		.align	2
 2448              		.set	.LANCHOR15,. + 0
 2449              		.type	prox_maxcounter, %object
 2450              		.size	prox_maxcounter, 4
 2451              	prox_maxcounter:
 2452 0000 00000000 		.space	4
 2453              		.section	.bss.prox_phase,"aw",%nobits
 2454              		.align	2
 2455              		.set	.LANCHOR18,. + 0
 2456              		.type	prox_phase, %object
 2457              		.size	prox_phase, 4
 2458              	prox_phase:
 2459 0000 00000000 		.space	4
 2460              		.section	.bss.prox_sampling_enabled,"aw",%nobits
 2461              		.set	.LANCHOR19,. + 0
 2462              		.type	prox_sampling_enabled, %object
 2463              		.size	prox_sampling_enabled, 1
 2464              	prox_sampling_enabled:
 2465 0000 00       		.space	1
 2466              		.section	.bss.prox_trigger,"aw",%nobits
 2467              		.align	2
 2468              		.set	.LANCHOR20,. + 0
 2469              		.type	prox_trigger, %object
 2470              		.size	prox_trigger, 4
 2471              	prox_trigger:
 2472 0000 00000000 		.space	4
 2473              		.section	.bss.prox_values,"aw",%nobits
 2474              		.align	2
 2475              		.set	.LANCHOR1,. + 0
 2476              		.type	prox_values, %object
 2477              		.size	prox_values, 128
 2478              	prox_values:
 2479 0000 00000000 		.space	128
 2479      00000000 
 2479      00000000 
ARM GAS  /tmp/ccaqyyo1.s 			page 45


 2479      00000000 
 2479      00000000 
 2480              		.section	.bss.proximity_thd_wa,"aw",%nobits
 2481              		.align	3
 2482              		.set	.LANCHOR29,. + 0
 2483              		.type	proximity_thd_wa, %object
 2484              		.size	proximity_thd_wa, 632
 2485              	proximity_thd_wa:
 2486 0000 00000000 		.space	632
 2486      00000000 
 2486      00000000 
 2486      00000000 
 2486      00000000 
 2487              		.section	.bss.window_data,"aw",%nobits
 2488              		.align	2
 2489              		.set	.LANCHOR13,. + 0
 2490              		.type	window_data, %object
 2491              		.size	window_data, 4
 2492              	window_data:
 2493 0000 00000000 		.space	4
 2494              		.section	.bss.window_sampling,"aw",%nobits
 2495              		.align	2
 2496              		.set	.LANCHOR11,. + 0
 2497              		.type	window_sampling, %object
 2498              		.size	window_sampling, 4
 2499              	window_sampling:
 2500 0000 00000000 		.space	4
 2501              		.section	.data.adc2_ready,"aw",%progbits
 2502              		.align	2
 2503              		.set	.LANCHOR2,. + 0
 2504              		.type	adc2_ready, %object
 2505              		.size	adc2_ready, 12
 2506              	adc2_ready:
 2507 0000 00000000 		.word	adc2_ready
 2508 0004 00000000 		.word	adc2_ready
 2509 0008 00000000 		.word	0
 2510              		.section	.rodata.__FUNCTION__.12319,"a",%progbits
 2511              		.align	2
 2512              		.set	.LANCHOR0,. + 0
 2513              		.type	__FUNCTION__.12319, %object
 2514              		.size	__FUNCTION__.12319, 14
 2515              	__FUNCTION__.12319:
 2516 0000 70726F78 		.ascii	"proximity_thd\000"
 2516      696D6974 
 2516      795F7468 
 2516      6400
 2517              		.section	.rodata.adcgrpcfg2,"a",%progbits
 2518              		.align	2
 2519              		.set	.LANCHOR27,. + 0
 2520              		.type	adcgrpcfg2, %object
 2521              		.size	adcgrpcfg2, 40
 2522              	adcgrpcfg2:
 2523 0000 01       		.byte	1
 2524 0001 00       		.space	1
 2525 0002 0800     		.short	8
 2526 0004 00000000 		.word	adc_cb
 2527 0008 00000000 		.word	0
ARM GAS  /tmp/ccaqyyo1.s 			page 46


 2528 000c 00E80000 		.word	59392
 2529 0010 00000023 		.word	587202560
 2530 0014 24490200 		.word	149796
 2531 0018 24499224 		.word	613566756
 2532 001c 00007000 		.word	7340032
 2533 0020 6A010000 		.word	362
 2534 0024 ACB99710 		.word	278378924
 2535              		.section	.rodata.gpt14cfg,"a",%progbits
 2536              		.align	2
 2537              		.set	.LANCHOR25,. + 0
 2538              		.type	gpt14cfg, %object
 2539              		.size	gpt14cfg, 16
 2540              	gpt14cfg:
 2541 0000 40420F00 		.word	1000000
 2542 0004 00000000 		.word	gpt14_callback
 2543 0008 00000000 		.word	0
 2544 000c 00000000 		.word	0
 2545              		.section	.rodata.proximity_thd.str1.4,"aMS",%progbits,1
 2546              		.align	2
 2547              	.LC0:
 2548 0000 2F70726F 		.ascii	"/proximity\000"
 2548      78696D69 
 2548      747900
 2549              		.section	.rodata.pwmcfg_proximity.12338,"a",%progbits
 2550              		.align	2
 2551              		.set	.LANCHOR28,. + 0
 2552              		.type	pwmcfg_proximity.12338, %object
 2553              		.size	pwmcfg_proximity.12338, 52
 2554              	pwmcfg_proximity.12338:
 2555 0000 40420F00 		.word	1000000
 2556 0004 51000000 		.word	81
 2557 0008 00000000 		.word	0
 2558 000c 00000000 		.word	0
 2559 0010 00000000 		.word	0
 2560 0014 01000000 		.word	1
 2561 0018 00000000 		.word	0
 2562 001c 00000000 		.word	0
 2563 0020 00000000 		.word	0
 2564 0024 00000000 		.word	0
 2565 0028 00000000 		.word	0
 2566 002c 00000000 		.word	0
 2567 0030 00000000 		.space	4
 2568              		.text
 2569              	.Letext0:
 2570              		.file 6 "/home/leander/uos_codes/epuck2_lab/Eclipse_e-puck2/Tools/gcc-arm-none-eabi-7-2017-q4-majo
 2571              		.file 7 "/home/leander/uos_codes/epuck2_lab/Eclipse_e-puck2/Tools/gcc-arm-none-eabi-7-2017-q4-majo
 2572              		.file 8 "/home/leander/uos_codes/epuck2_lab/Eclipse_e-puck2/Tools/gcc-arm-none-eabi-7-2017-q4-majo
 2573              		.file 9 "/home/leander/uos_codes/epuck2_lab/Eclipse_e-puck2/Tools/gcc-arm-none-eabi-7-2017-q4-majo
 2574              		.file 10 "/home/leander/uos_codes/epuck2_lab/Eclipse_e-puck2/Tools/gcc-arm-none-eabi-7-2017-q4-maj
 2575              		.file 11 "/home/leander/uos_codes/epuck2_lab/Eclipse_e-puck2/Tools/gcc-arm-none-eabi-7-2017-q4-maj
 2576              		.file 12 "../e-puck2_main-processor/ChibiOS//os/rt/ports/ARMCMx/compilers/GCC/chtypes.h"
 2577              		.file 13 "../e-puck2_main-processor/ChibiOS//os/rt/include/chsystypes.h"
 2578              		.file 14 "../e-puck2_main-processor/ChibiOS//os/rt/include/chschd.h"
 2579              		.file 15 "../e-puck2_main-processor/ChibiOS//os/ext/CMSIS/include/core_cm4.h"
 2580              		.file 16 "../e-puck2_main-processor/ChibiOS//os/ext/CMSIS/ST/system_stm32f4xx.h"
 2581              		.file 17 "../e-puck2_main-processor/ChibiOS//os/ext/CMSIS/ST/stm32f407xx.h"
 2582              		.file 18 "../e-puck2_main-processor/ChibiOS//os/rt/ports/ARMCMx/chcore.h"
ARM GAS  /tmp/ccaqyyo1.s 			page 47


 2583              		.file 19 "../e-puck2_main-processor/ChibiOS//os/rt/ports/ARMCMx/chcore_v7m.h"
 2584              		.file 20 "../e-puck2_main-processor/ChibiOS//os/rt/include/chdebug.h"
 2585              		.file 21 "../e-puck2_main-processor/ChibiOS//os/rt/include/chtm.h"
 2586              		.file 22 "../e-puck2_main-processor/ChibiOS//os/rt/include/chstats.h"
 2587              		.file 23 "../e-puck2_main-processor/ChibiOS//os/rt/include/chsem.h"
 2588              		.file 24 "../e-puck2_main-processor/ChibiOS//os/rt/include/chmtx.h"
 2589              		.file 25 "../e-puck2_main-processor/ChibiOS//os/rt/include/chcond.h"
 2590              		.file 26 "../e-puck2_main-processor/ChibiOS//os/rt/include/chevents.h"
 2591              		.file 27 "../e-puck2_main-processor/ChibiOS//os/rt/include/chqueues.h"
 2592              		.file 28 "../e-puck2_main-processor/ChibiOS//os/hal/ports/STM32/STM32F4xx/stm32_dma.h"
 2593              		.file 29 "../e-puck2_main-processor/ChibiOS//os/hal/include/hal_ioblock.h"
 2594              		.file 30 "../e-puck2_main-processor/ChibiOS//os/hal/ports/STM32/LLD/GPIOv2/pal_lld.h"
 2595              		.file 31 "../e-puck2_main-processor/ChibiOS//os/hal/include/adc.h"
 2596              		.file 32 "../e-puck2_main-processor/ChibiOS//os/hal/ports/STM32/STM32F4xx/adc_lld.h"
 2597              		.file 33 "../e-puck2_main-processor/ChibiOS//os/hal/include/can.h"
 2598              		.file 34 "../e-puck2_main-processor/ChibiOS//os/hal/ports/STM32/LLD/can_lld.h"
 2599              		.file 35 "../e-puck2_main-processor/ChibiOS//os/hal/include/dac.h"
 2600              		.file 36 "../e-puck2_main-processor/ChibiOS//os/hal/ports/STM32/LLD/DACv1/dac_lld.h"
 2601              		.file 37 "../e-puck2_main-processor/ChibiOS//os/hal/include/ext.h"
 2602              		.file 38 "../e-puck2_main-processor/ChibiOS//os/hal/ports/STM32/LLD/ext_lld.h"
 2603              		.file 39 "../e-puck2_main-processor/ChibiOS//os/hal/include/gpt.h"
 2604              		.file 40 "../e-puck2_main-processor/ChibiOS//os/hal/ports/STM32/LLD/TIMv1/gpt_lld.h"
 2605              		.file 41 "../e-puck2_main-processor/ChibiOS//os/hal/ports/STM32/LLD/TIMv1/stm32_tim.h"
 2606              		.file 42 "../e-puck2_main-processor/ChibiOS//os/hal/include/i2c.h"
 2607              		.file 43 "../e-puck2_main-processor/ChibiOS//os/hal/ports/STM32/LLD/I2Cv1/i2c_lld.h"
 2608              		.file 44 "../e-puck2_main-processor/ChibiOS//os/hal/include/i2s.h"
 2609              		.file 45 "../e-puck2_main-processor/ChibiOS//os/hal/ports/STM32/LLD/SPIv1/i2s_lld.h"
 2610              		.file 46 "../e-puck2_main-processor/ChibiOS//os/hal/include/pwm.h"
 2611              		.file 47 "../e-puck2_main-processor/ChibiOS//os/hal/ports/STM32/LLD/TIMv1/pwm_lld.h"
 2612              		.file 48 "../e-puck2_main-processor/ChibiOS//os/hal/include/serial.h"
 2613              		.file 49 "../e-puck2_main-processor/ChibiOS//os/hal/ports/STM32/LLD/USARTv1/serial_lld.h"
 2614              		.file 50 "../e-puck2_main-processor/ChibiOS//os/hal/include/sdc.h"
 2615              		.file 51 "../e-puck2_main-processor/ChibiOS//os/hal/ports/STM32/LLD/sdc_lld.h"
 2616              		.file 52 "../e-puck2_main-processor/ChibiOS//os/hal/include/spi.h"
 2617              		.file 53 "../e-puck2_main-processor/ChibiOS//os/hal/ports/STM32/LLD/SPIv1/spi_lld.h"
 2618              		.file 54 "../e-puck2_main-processor/ChibiOS//os/hal/include/usb.h"
 2619              		.file 55 "../e-puck2_main-processor/ChibiOS//os/hal/ports/STM32/LLD/OTGv1/usb_lld.h"
 2620              		.file 56 "../e-puck2_main-processor/ChibiOS//os/hal/ports/STM32/LLD/OTGv1/stm32_otg.h"
 2621              		.file 57 "../e-puck2_main-processor/src/ircom/ircom.h"
 2622              		.file 58 "/home/leander/uos_codes/epuck2_lab/Eclipse_e-puck2/Tools/gcc-arm-none-eabi-7-2017-q4-maj
 2623              		.file 59 "../e-puck2_main-processor/src/msgbus/messagebus.h"
 2624              		.file 60 "/home/leander/uos_codes/epuck2_lab/Eclipse_e-puck2/Tools/gcc-arm-none-eabi-7-2017-q4-maj
 2625              		.file 61 "../e-puck2_main-processor/src/parameter/parameter.h"
 2626              		.file 62 "./main.h"
 2627              		.file 63 "../e-puck2_main-processor/src/sensors/proximity.h"
 2628              		.file 64 "../e-puck2_main-processor/ChibiOS//os/rt/include/chthreads.h"
 2629              		.file 65 "../e-puck2_main-processor/src/ircom/ircomMessages.h"
 2630              		.file 66 "../e-puck2_main-processor/src/ircom/ircomSend.h"
 2631              		.file 67 "../e-puck2_main-processor/src/ircom/ircomReceive.h"
 2632              		.file 68 "<built-in>"