ARM GAS  /tmp/ccMMlNdP.s 			page 1


   1              		.cpu cortex-m4
   2              		.eabi_attribute 27, 1
   3              		.eabi_attribute 28, 1
   4              		.eabi_attribute 20, 1
   5              		.eabi_attribute 21, 1
   6              		.eabi_attribute 23, 3
   7              		.eabi_attribute 24, 1
   8              		.eabi_attribute 25, 1
   9              		.eabi_attribute 26, 1
  10              		.eabi_attribute 30, 2
  11              		.eabi_attribute 34, 1
  12              		.eabi_attribute 18, 4
  13              		.file	"ircomMessages.c"
  14              		.text
  15              	.Ltext0:
  16              		.cfi_sections	.debug_frame
  17              		.section	.text.ircomFlushMessages,"ax",%progbits
  18              		.align	1
  19              		.p2align 4,,15
  20              		.global	ircomFlushMessages
  21              		.syntax unified
  22              		.thumb
  23              		.thumb_func
  24              		.fpu fpv4-sp-d16
  25              		.type	ircomFlushMessages, %function
  26              	ircomFlushMessages:
  27              	.LFB0:
  28              		.file 1 "../e-puck2_main-processor/src/ircom/ircomMessages.c"
  29              		.loc 1 27 0
  30              		.cfi_startproc
  31              		@ args = 0, pretend = 0, frame = 8
  32              		@ frame_needed = 0, uses_anonymous_args = 0
  33 0000 00B5     		push	{lr}
  34              		.cfi_def_cfa_offset 4
  35              		.cfi_offset 14, -4
  36 0002 0A49     		ldr	r1, .L6
  37              		.loc 1 28 0
  38 0004 0A4B     		ldr	r3, .L6+4
  39              		.loc 1 27 0
  40 0006 0A68     		ldr	r2, [r1]
  41 0008 83B0     		sub	sp, sp, #12
  42              		.cfi_def_cfa_offset 16
  43              		.loc 1 27 0
  44 000a 0192     		str	r2, [sp, #4]
  45              		.loc 1 28 0
  46 000c 0022     		movs	r2, #0
  47 000e C3F8A021 		str	r2, [r3, #416]
  48              		.loc 1 29 0
  49 0012 C3F89821 		str	r2, [r3, #408]
  50              		.loc 1 30 0
  51 0016 C3F89C21 		str	r2, [r3, #412]
  52              		.loc 1 31 0
  53 001a 019A     		ldr	r2, [sp, #4]
  54 001c 0B68     		ldr	r3, [r1]
  55 001e 9A42     		cmp	r2, r3
  56 0020 02D1     		bne	.L5
  57 0022 03B0     		add	sp, sp, #12
ARM GAS  /tmp/ccMMlNdP.s 			page 2


  58              		.cfi_remember_state
  59              		.cfi_def_cfa_offset 4
  60              		@ sp needed
  61 0024 5DF804FB 		ldr	pc, [sp], #4
  62              	.L5:
  63              		.cfi_restore_state
  64 0028 FFF7FEFF 		bl	__stack_chk_fail
  65              	.LVL0:
  66              	.L7:
  67              		.align	2
  68              	.L6:
  69 002c 00000000 		.word	__stack_chk_guard
  70 0030 00000000 		.word	ircomData
  71              		.cfi_endproc
  72              	.LFE0:
  73              		.size	ircomFlushMessages, .-ircomFlushMessages
  74              		.section	.text.ircomPushMessage,"ax",%progbits
  75              		.align	1
  76              		.p2align 4,,15
  77              		.global	ircomPushMessage
  78              		.syntax unified
  79              		.thumb
  80              		.thumb_func
  81              		.fpu fpv4-sp-d16
  82              		.type	ircomPushMessage, %function
  83              	ircomPushMessage:
  84              	.LFB1:
  85              		.loc 1 34 0
  86              		.cfi_startproc
  87              		@ args = 0, pretend = 0, frame = 8
  88              		@ frame_needed = 0, uses_anonymous_args = 0
  89              	.LVL1:
  90 0000 70B5     		push	{r4, r5, r6, lr}
  91              		.cfi_def_cfa_offset 16
  92              		.cfi_offset 4, -16
  93              		.cfi_offset 5, -12
  94              		.cfi_offset 6, -8
  95              		.cfi_offset 14, -4
  96 0002 2C4C     		ldr	r4, .L15
  97              		.loc 1 35 0
  98 0004 2C4B     		ldr	r3, .L15+4
  99              		.loc 1 34 0
 100 0006 2568     		ldr	r5, [r4]
 101 0008 82B0     		sub	sp, sp, #8
 102              		.cfi_def_cfa_offset 24
 103              		.loc 1 34 0
 104 000a 0195     		str	r5, [sp, #4]
 105              		.loc 1 35 0
 106 000c D3F89C61 		ldr	r6, [r3, #412]
 107              		.loc 1 41 0
 108 0010 2A4D     		ldr	r5, .L15+8
 109              		.loc 1 35 0
 110 0012 06EB8606 		add	r6, r6, r6, lsl #2
 111 0016 03EB8606 		add	r6, r3, r6, lsl #2
 112 001a B060     		str	r0, [r6, #8]
 113              		.loc 1 36 0
 114 001c D3F89C01 		ldr	r0, [r3, #412]
ARM GAS  /tmp/ccMMlNdP.s 			page 3


 115              	.LVL2:
 116 0020 00EB8000 		add	r0, r0, r0, lsl #2
 117 0024 03EB8000 		add	r0, r3, r0, lsl #2
 118 0028 80ED030A 		vstr.32	s0, [r0, #12]
 119              	.LVL3:
 120              		.loc 1 37 0
 121 002c D3F89C01 		ldr	r0, [r3, #412]
 122 0030 00EB8000 		add	r0, r0, r0, lsl #2
 123 0034 03EB8000 		add	r0, r3, r0, lsl #2
 124 0038 C0ED040A 		vstr.32	s1, [r0, #16]
 125              		.loc 1 38 0
 126 003c D3F89C01 		ldr	r0, [r3, #412]
 127 0040 00EB8000 		add	r0, r0, r0, lsl #2
 128 0044 03EB8000 		add	r0, r3, r0, lsl #2
 129 0048 4161     		str	r1, [r0, #20]
 130              		.loc 1 39 0
 131 004a D3F89C11 		ldr	r1, [r3, #412]
 132              	.LVL4:
 133 004e 01EB8101 		add	r1, r1, r1, lsl #2
 134 0052 03EB8101 		add	r1, r3, r1, lsl #2
 135 0056 8A61     		str	r2, [r1, #24]
 136              	.LVL5:
 137              		.loc 1 41 0
 138 0058 D3F89C11 		ldr	r1, [r3, #412]
 139 005c 0131     		adds	r1, r1, #1
 140 005e 85FB0120 		smull	r2, r0, r5, r1
 141              	.LVL6:
 142 0062 CA17     		asrs	r2, r1, #31
 143 0064 C2EBE002 		rsb	r2, r2, r0, asr #3
 144 0068 02EB8202 		add	r2, r2, r2, lsl #2
 145 006c A1EB8202 		sub	r2, r1, r2, lsl #2
 146 0070 C3F89C21 		str	r2, [r3, #412]
 147              		.loc 1 44 0
 148 0074 D3F8A021 		ldr	r2, [r3, #416]
 149 0078 142A     		cmp	r2, #20
 150 007a 0AD0     		beq	.L13
 151              		.loc 1 50 0
 152 007c D3F8A021 		ldr	r2, [r3, #416]
 153 0080 0132     		adds	r2, r2, #1
 154 0082 C3F8A021 		str	r2, [r3, #416]
 155              	.L8:
 156              		.loc 1 52 0
 157 0086 019A     		ldr	r2, [sp, #4]
 158 0088 2368     		ldr	r3, [r4]
 159 008a 9A42     		cmp	r2, r3
 160 008c 10D1     		bne	.L14
 161 008e 02B0     		add	sp, sp, #8
 162              		.cfi_remember_state
 163              		.cfi_def_cfa_offset 16
 164              		@ sp needed
 165 0090 70BD     		pop	{r4, r5, r6, pc}
 166              	.L13:
 167              		.cfi_restore_state
 168              		.loc 1 46 0
 169 0092 D3F89811 		ldr	r1, [r3, #408]
 170 0096 0131     		adds	r1, r1, #1
 171 0098 85FB0125 		smull	r2, r5, r5, r1
ARM GAS  /tmp/ccMMlNdP.s 			page 4


 172 009c CA17     		asrs	r2, r1, #31
 173 009e C2EBE505 		rsb	r5, r2, r5, asr #3
 174 00a2 05EB8505 		add	r5, r5, r5, lsl #2
 175 00a6 A1EB8505 		sub	r5, r1, r5, lsl #2
 176 00aa C3F89851 		str	r5, [r3, #408]
 177 00ae EAE7     		b	.L8
 178              	.L14:
 179              		.loc 1 52 0
 180 00b0 FFF7FEFF 		bl	__stack_chk_fail
 181              	.LVL7:
 182              	.L16:
 183              		.align	2
 184              	.L15:
 185 00b4 00000000 		.word	__stack_chk_guard
 186 00b8 00000000 		.word	ircomData
 187 00bc 67666666 		.word	1717986919
 188              		.cfi_endproc
 189              	.LFE1:
 190              		.size	ircomPushMessage, .-ircomPushMessage
 191              		.section	.text.ircomPopMessage,"ax",%progbits
 192              		.align	1
 193              		.p2align 4,,15
 194              		.global	ircomPopMessage
 195              		.syntax unified
 196              		.thumb
 197              		.thumb_func
 198              		.fpu fpv4-sp-d16
 199              		.type	ircomPopMessage, %function
 200              	ircomPopMessage:
 201              	.LFB2:
 202              		.loc 1 55 0
 203              		.cfi_startproc
 204              		@ args = 0, pretend = 0, frame = 8
 205              		@ frame_needed = 0, uses_anonymous_args = 0
 206              	.LVL8:
 207 0000 10B5     		push	{r4, lr}
 208              		.cfi_def_cfa_offset 8
 209              		.cfi_offset 4, -8
 210              		.cfi_offset 14, -4
 211 0002 284C     		ldr	r4, .L24
 212              		.loc 1 56 0
 213 0004 284B     		ldr	r3, .L24+4
 214              		.loc 1 55 0
 215 0006 2268     		ldr	r2, [r4]
 216 0008 82B0     		sub	sp, sp, #8
 217              		.cfi_def_cfa_offset 16
 218              		.loc 1 55 0
 219 000a 0192     		str	r2, [sp, #4]
 220              		.loc 1 56 0
 221 000c D3F8A021 		ldr	r2, [r3, #416]
 222 0010 002A     		cmp	r2, #0
 223 0012 41D0     		beq	.L22
 224              		.loc 1 63 0
 225 0014 D3F89811 		ldr	r1, [r3, #408]
 226              		.loc 1 69 0
 227 0018 244A     		ldr	r2, .L24+8
 228              		.loc 1 63 0
ARM GAS  /tmp/ccMMlNdP.s 			page 5


 229 001a 01EB8101 		add	r1, r1, r1, lsl #2
 230 001e 03EB8101 		add	r1, r3, r1, lsl #2
 231 0022 8968     		ldr	r1, [r1, #8]
 232 0024 0160     		str	r1, [r0]
 233              		.loc 1 64 0
 234 0026 D3F89811 		ldr	r1, [r3, #408]
 235 002a 01EB8101 		add	r1, r1, r1, lsl #2
 236 002e 03EB8101 		add	r1, r3, r1, lsl #2
 237 0032 C968     		ldr	r1, [r1, #12]	@ float
 238 0034 4160     		str	r1, [r0, #4]	@ float
 239              		.loc 1 65 0
 240 0036 D3F89811 		ldr	r1, [r3, #408]
 241 003a 01EB8101 		add	r1, r1, r1, lsl #2
 242 003e 03EB8101 		add	r1, r3, r1, lsl #2
 243 0042 0969     		ldr	r1, [r1, #16]	@ float
 244 0044 8160     		str	r1, [r0, #8]	@ float
 245              		.loc 1 66 0
 246 0046 D3F89811 		ldr	r1, [r3, #408]
 247 004a 01EB8101 		add	r1, r1, r1, lsl #2
 248 004e 03EB8101 		add	r1, r3, r1, lsl #2
 249 0052 4969     		ldr	r1, [r1, #20]
 250 0054 C160     		str	r1, [r0, #12]
 251              		.loc 1 67 0
 252 0056 D3F89811 		ldr	r1, [r3, #408]
 253 005a 01EB8101 		add	r1, r1, r1, lsl #2
 254 005e 03EB8101 		add	r1, r3, r1, lsl #2
 255 0062 8969     		ldr	r1, [r1, #24]
 256 0064 0161     		str	r1, [r0, #16]
 257              		.loc 1 69 0
 258 0066 D3F89811 		ldr	r1, [r3, #408]
 259 006a 0131     		adds	r1, r1, #1
 260 006c 82FB0120 		smull	r2, r0, r2, r1
 261              	.LVL9:
 262 0070 CA17     		asrs	r2, r1, #31
 263 0072 C2EBE002 		rsb	r2, r2, r0, asr #3
 264 0076 02EB8202 		add	r2, r2, r2, lsl #2
 265 007a A1EB8202 		sub	r2, r1, r2, lsl #2
 266 007e C3F89821 		str	r2, [r3, #408]
 267              		.loc 1 70 0
 268 0082 D3F8A021 		ldr	r2, [r3, #416]
 269 0086 013A     		subs	r2, r2, #1
 270 0088 C3F8A021 		str	r2, [r3, #416]
 271              	.L17:
 272              		.loc 1 71 0
 273 008c 019A     		ldr	r2, [sp, #4]
 274 008e 2368     		ldr	r3, [r4]
 275 0090 9A42     		cmp	r2, r3
 276 0092 05D1     		bne	.L23
 277 0094 02B0     		add	sp, sp, #8
 278              		.cfi_remember_state
 279              		.cfi_def_cfa_offset 8
 280              		@ sp needed
 281 0096 10BD     		pop	{r4, pc}
 282              	.LVL10:
 283              	.L22:
 284              		.cfi_restore_state
 285              		.loc 1 58 0
ARM GAS  /tmp/ccMMlNdP.s 			page 6


 286 0098 4FF0FF33 		mov	r3, #-1
 287 009c 0361     		str	r3, [r0, #16]
 288              		.loc 1 59 0
 289 009e F5E7     		b	.L17
 290              	.LVL11:
 291              	.L23:
 292              		.loc 1 71 0
 293 00a0 FFF7FEFF 		bl	__stack_chk_fail
 294              	.LVL12:
 295              	.L25:
 296              		.align	2
 297              	.L24:
 298 00a4 00000000 		.word	__stack_chk_guard
 299 00a8 00000000 		.word	ircomData
 300 00ac 67666666 		.word	1717986919
 301              		.cfi_endproc
 302              	.LFE2:
 303              		.size	ircomPopMessage, .-ircomPopMessage
 304              		.text
 305              	.Letext0:
 306              		.file 2 "/home/leander/uos_codes/epuck2_lab/Eclipse_e-puck2/Tools/gcc-arm-none-eabi-7-2017-q4-majo
 307              		.file 3 "/home/leander/uos_codes/epuck2_lab/Eclipse_e-puck2/Tools/gcc-arm-none-eabi-7-2017-q4-majo
 308              		.file 4 "../e-puck2_main-processor/src/ircom/ircom.h"
 309              		.section	.debug_info,"",%progbits
 310              	.Ldebug_info0:
 311 0000 38040000 		.4byte	0x438
 312 0004 0400     		.2byte	0x4
 313 0006 00000000 		.4byte	.Ldebug_abbrev0
 314 000a 04       		.byte	0x4
 315 000b 01       		.uleb128 0x1
 316 000c 8A020000 		.4byte	.LASF60
 317 0010 0C       		.byte	0xc
 318 0011 15040000 		.4byte	.LASF61
 319 0015 39010000 		.4byte	.LASF62
 320 0019 00000000 		.4byte	.Ldebug_ranges0+0
 321 001d 00000000 		.4byte	0
 322 0021 00000000 		.4byte	.Ldebug_line0
 323 0025 02       		.uleb128 0x2
 324 0026 04       		.byte	0x4
 325 0027 04       		.byte	0x4
 326 0028 AC000000 		.4byte	.LASF0
 327 002c 02       		.uleb128 0x2
 328 002d 01       		.byte	0x1
 329 002e 06       		.byte	0x6
 330 002f 8B010000 		.4byte	.LASF1
 331 0033 03       		.uleb128 0x3
 332 0034 F4000000 		.4byte	.LASF3
 333 0038 02       		.byte	0x2
 334 0039 2B       		.byte	0x2b
 335 003a 3E000000 		.4byte	0x3e
 336 003e 02       		.uleb128 0x2
 337 003f 01       		.byte	0x1
 338 0040 08       		.byte	0x8
 339 0041 2B010000 		.4byte	.LASF2
 340 0045 03       		.uleb128 0x3
 341 0046 E1030000 		.4byte	.LASF4
 342 004a 02       		.byte	0x2
ARM GAS  /tmp/ccMMlNdP.s 			page 7


 343 004b 37       		.byte	0x37
 344 004c 50000000 		.4byte	0x50
 345 0050 02       		.uleb128 0x2
 346 0051 02       		.byte	0x2
 347 0052 05       		.byte	0x5
 348 0053 16000000 		.4byte	.LASF5
 349 0057 02       		.uleb128 0x2
 350 0058 02       		.byte	0x2
 351 0059 07       		.byte	0x7
 352 005a FB010000 		.4byte	.LASF6
 353 005e 02       		.uleb128 0x2
 354 005f 04       		.byte	0x4
 355 0060 05       		.byte	0x5
 356 0061 EB000000 		.4byte	.LASF7
 357 0065 02       		.uleb128 0x2
 358 0066 04       		.byte	0x4
 359 0067 07       		.byte	0x7
 360 0068 4B020000 		.4byte	.LASF8
 361 006c 02       		.uleb128 0x2
 362 006d 08       		.byte	0x8
 363 006e 05       		.byte	0x5
 364 006f BF000000 		.4byte	.LASF9
 365 0073 02       		.uleb128 0x2
 366 0074 08       		.byte	0x8
 367 0075 07       		.byte	0x7
 368 0076 97010000 		.4byte	.LASF10
 369 007a 04       		.uleb128 0x4
 370 007b 04       		.byte	0x4
 371 007c 05       		.byte	0x5
 372 007d 696E7400 		.ascii	"int\000"
 373 0081 02       		.uleb128 0x2
 374 0082 04       		.byte	0x4
 375 0083 07       		.byte	0x7
 376 0084 BE010000 		.4byte	.LASF11
 377 0088 05       		.uleb128 0x5
 378 0089 81000000 		.4byte	0x81
 379 008d 03       		.uleb128 0x3
 380 008e 7B000000 		.4byte	.LASF12
 381 0092 03       		.byte	0x3
 382 0093 18       		.byte	0x18
 383 0094 33000000 		.4byte	0x33
 384 0098 05       		.uleb128 0x5
 385 0099 8D000000 		.4byte	0x8d
 386 009d 03       		.uleb128 0x3
 387 009e 1C020000 		.4byte	.LASF13
 388 00a2 03       		.byte	0x3
 389 00a3 20       		.byte	0x20
 390 00a4 45000000 		.4byte	0x45
 391 00a8 03       		.uleb128 0x3
 392 00a9 7A020000 		.4byte	.LASF14
 393 00ad 04       		.byte	0x4
 394 00ae 19       		.byte	0x19
 395 00af B3000000 		.4byte	0xb3
 396 00b3 06       		.uleb128 0x6
 397 00b4 C3000000 		.4byte	0xc3
 398 00b8 C3000000 		.4byte	0xc3
 399 00bc 07       		.uleb128 0x7
ARM GAS  /tmp/ccMMlNdP.s 			page 8


 400 00bd 81000000 		.4byte	0x81
 401 00c1 0B       		.byte	0xb
 402 00c2 00       		.byte	0
 403 00c3 02       		.uleb128 0x2
 404 00c4 01       		.byte	0x1
 405 00c5 08       		.byte	0x8
 406 00c6 0E020000 		.4byte	.LASF15
 407 00ca 08       		.uleb128 0x8
 408 00cb 14       		.byte	0x14
 409 00cc 04       		.byte	0x4
 410 00cd 1C       		.byte	0x1c
 411 00ce 0F010000 		.4byte	0x10f
 412 00d2 09       		.uleb128 0x9
 413 00d3 75000000 		.4byte	.LASF16
 414 00d7 04       		.byte	0x4
 415 00d8 1E       		.byte	0x1e
 416 00d9 5E000000 		.4byte	0x5e
 417 00dd 00       		.byte	0
 418 00de 09       		.uleb128 0x9
 419 00df 13020000 		.4byte	.LASF17
 420 00e3 04       		.byte	0x4
 421 00e4 1F       		.byte	0x1f
 422 00e5 25000000 		.4byte	0x25
 423 00e9 04       		.byte	0x4
 424 00ea 09       		.uleb128 0x9
 425 00eb 40000000 		.4byte	.LASF18
 426 00ef 04       		.byte	0x4
 427 00f0 20       		.byte	0x20
 428 00f1 25000000 		.4byte	0x25
 429 00f5 08       		.byte	0x8
 430 00f6 09       		.uleb128 0x9
 431 00f7 DB000000 		.4byte	.LASF19
 432 00fb 04       		.byte	0x4
 433 00fc 21       		.byte	0x21
 434 00fd 7A000000 		.4byte	0x7a
 435 0101 0C       		.byte	0xc
 436 0102 09       		.uleb128 0x9
 437 0103 CB010000 		.4byte	.LASF20
 438 0107 04       		.byte	0x4
 439 0108 22       		.byte	0x22
 440 0109 7A000000 		.4byte	0x7a
 441 010d 10       		.byte	0x10
 442 010e 00       		.byte	0
 443 010f 03       		.uleb128 0x3
 444 0110 08040000 		.4byte	.LASF21
 445 0114 04       		.byte	0x4
 446 0115 23       		.byte	0x23
 447 0116 CA000000 		.4byte	0xca
 448 011a 0A       		.uleb128 0xa
 449 011b A801     		.2byte	0x1a8
 450 011d 04       		.byte	0x4
 451 011e 2B       		.byte	0x2b
 452 011f 7C010000 		.4byte	0x17c
 453 0123 09       		.uleb128 0x9
 454 0124 5A040000 		.4byte	.LASF22
 455 0128 04       		.byte	0x4
 456 0129 2D       		.byte	0x2d
ARM GAS  /tmp/ccMMlNdP.s 			page 9


 457 012a 7A000000 		.4byte	0x7a
 458 012e 00       		.byte	0
 459 012f 0B       		.uleb128 0xb
 460 0130 66736D00 		.ascii	"fsm\000"
 461 0134 04       		.byte	0x4
 462 0135 2E       		.byte	0x2e
 463 0136 7A000000 		.4byte	0x7a
 464 013a 04       		.byte	0x4
 465 013b 09       		.uleb128 0x9
 466 013c 27000000 		.4byte	.LASF23
 467 0140 04       		.byte	0x4
 468 0141 30       		.byte	0x30
 469 0142 7C010000 		.4byte	0x17c
 470 0146 08       		.byte	0x8
 471 0147 0C       		.uleb128 0xc
 472 0148 7D010000 		.4byte	.LASF24
 473 014c 04       		.byte	0x4
 474 014d 31       		.byte	0x31
 475 014e 7A000000 		.4byte	0x7a
 476 0152 9801     		.2byte	0x198
 477 0154 0C       		.uleb128 0xc
 478 0155 3F020000 		.4byte	.LASF25
 479 0159 04       		.byte	0x4
 480 015a 32       		.byte	0x32
 481 015b 7A000000 		.4byte	0x7a
 482 015f 9C01     		.2byte	0x19c
 483 0161 0C       		.uleb128 0xc
 484 0162 51000000 		.4byte	.LASF26
 485 0166 04       		.byte	0x4
 486 0167 33       		.byte	0x33
 487 0168 7A000000 		.4byte	0x7a
 488 016c A001     		.2byte	0x1a0
 489 016e 0C       		.uleb128 0xc
 490 016f F6010000 		.4byte	.LASF27
 491 0173 04       		.byte	0x4
 492 0174 35       		.byte	0x35
 493 0175 5E000000 		.4byte	0x5e
 494 0179 A401     		.2byte	0x1a4
 495 017b 00       		.byte	0
 496 017c 06       		.uleb128 0x6
 497 017d 0F010000 		.4byte	0x10f
 498 0181 8C010000 		.4byte	0x18c
 499 0185 07       		.uleb128 0x7
 500 0186 81000000 		.4byte	0x81
 501 018a 13       		.byte	0x13
 502 018b 00       		.byte	0
 503 018c 03       		.uleb128 0x3
 504 018d 84020000 		.4byte	.LASF28
 505 0191 04       		.byte	0x4
 506 0192 36       		.byte	0x36
 507 0193 1A010000 		.4byte	0x11a
 508 0197 05       		.uleb128 0x5
 509 0198 8C010000 		.4byte	0x18c
 510 019c 08       		.uleb128 0x8
 511 019d 30       		.byte	0x30
 512 019e 04       		.byte	0x4
 513 019f 39       		.byte	0x39
ARM GAS  /tmp/ccMMlNdP.s 			page 10


 514 01a0 1D020000 		.4byte	0x21d
 515 01a4 09       		.uleb128 0x9
 516 01a5 17010000 		.4byte	.LASF29
 517 01a9 04       		.byte	0x4
 518 01aa 3C       		.byte	0x3c
 519 01ab 7A000000 		.4byte	0x7a
 520 01af 00       		.byte	0
 521 01b0 09       		.uleb128 0x9
 522 01b1 78010000 		.4byte	.LASF30
 523 01b5 04       		.byte	0x4
 524 01b6 3D       		.byte	0x3d
 525 01b7 7A000000 		.4byte	0x7a
 526 01bb 04       		.byte	0x4
 527 01bc 09       		.uleb128 0x9
 528 01bd CB010000 		.4byte	.LASF20
 529 01c1 04       		.byte	0x4
 530 01c2 3E       		.byte	0x3e
 531 01c3 7A000000 		.4byte	0x7a
 532 01c7 08       		.byte	0x8
 533 01c8 09       		.uleb128 0x9
 534 01c9 00000000 		.4byte	.LASF31
 535 01cd 04       		.byte	0x4
 536 01ce 3F       		.byte	0x3f
 537 01cf A8000000 		.4byte	0xa8
 538 01d3 0C       		.byte	0xc
 539 01d4 09       		.uleb128 0x9
 540 01d5 13020000 		.4byte	.LASF17
 541 01d9 04       		.byte	0x4
 542 01da 40       		.byte	0x40
 543 01db 25000000 		.4byte	0x25
 544 01df 18       		.byte	0x18
 545 01e0 09       		.uleb128 0x9
 546 01e1 40000000 		.4byte	.LASF18
 547 01e5 04       		.byte	0x4
 548 01e6 41       		.byte	0x41
 549 01e7 25000000 		.4byte	0x25
 550 01eb 1C       		.byte	0x1c
 551 01ec 09       		.uleb128 0x9
 552 01ed 10000000 		.4byte	.LASF32
 553 01f1 04       		.byte	0x4
 554 01f2 44       		.byte	0x44
 555 01f3 7A000000 		.4byte	0x7a
 556 01f7 20       		.byte	0x20
 557 01f8 09       		.uleb128 0x9
 558 01f9 05000000 		.4byte	.LASF33
 559 01fd 04       		.byte	0x4
 560 01fe 45       		.byte	0x45
 561 01ff 7A000000 		.4byte	0x7a
 562 0203 24       		.byte	0x24
 563 0204 09       		.uleb128 0x9
 564 0205 DB000000 		.4byte	.LASF19
 565 0209 04       		.byte	0x4
 566 020a 46       		.byte	0x46
 567 020b 7A000000 		.4byte	0x7a
 568 020f 28       		.byte	0x28
 569 0210 09       		.uleb128 0x9
 570 0211 E2010000 		.4byte	.LASF34
ARM GAS  /tmp/ccMMlNdP.s 			page 11


 571 0215 04       		.byte	0x4
 572 0216 48       		.byte	0x48
 573 0217 7A000000 		.4byte	0x7a
 574 021b 2C       		.byte	0x2c
 575 021c 00       		.byte	0
 576 021d 03       		.uleb128 0x3
 577 021e 0A010000 		.4byte	.LASF35
 578 0222 04       		.byte	0x4
 579 0223 49       		.byte	0x49
 580 0224 9C010000 		.4byte	0x19c
 581 0228 05       		.uleb128 0x5
 582 0229 1D020000 		.4byte	0x21d
 583 022d 08       		.uleb128 0x8
 584 022e E0       		.byte	0xe0
 585 022f 04       		.byte	0x4
 586 0230 4E       		.byte	0x4e
 587 0231 F6020000 		.4byte	0x2f6
 588 0235 09       		.uleb128 0x9
 589 0236 78010000 		.4byte	.LASF30
 590 023a 04       		.byte	0x4
 591 023b 51       		.byte	0x51
 592 023c 7A000000 		.4byte	0x7a
 593 0240 00       		.byte	0
 594 0241 09       		.uleb128 0x9
 595 0242 00000000 		.4byte	.LASF31
 596 0246 04       		.byte	0x4
 597 0247 52       		.byte	0x52
 598 0248 A8000000 		.4byte	0xa8
 599 024c 04       		.byte	0x4
 600 024d 09       		.uleb128 0x9
 601 024e AE010000 		.4byte	.LASF36
 602 0252 04       		.byte	0x4
 603 0253 53       		.byte	0x53
 604 0254 7A000000 		.4byte	0x7a
 605 0258 10       		.byte	0x10
 606 0259 09       		.uleb128 0x9
 607 025a 20000000 		.4byte	.LASF37
 608 025e 04       		.byte	0x4
 609 025f 54       		.byte	0x54
 610 0260 7A000000 		.4byte	0x7a
 611 0264 14       		.byte	0x14
 612 0265 09       		.uleb128 0x9
 613 0266 B3010000 		.4byte	.LASF38
 614 026a 04       		.byte	0x4
 615 026b 57       		.byte	0x57
 616 026c 7A000000 		.4byte	0x7a
 617 0270 18       		.byte	0x18
 618 0271 09       		.uleb128 0x9
 619 0272 8D000000 		.4byte	.LASF39
 620 0276 04       		.byte	0x4
 621 0277 58       		.byte	0x58
 622 0278 7A000000 		.4byte	0x7a
 623 027c 1C       		.byte	0x1c
 624 027d 09       		.uleb128 0x9
 625 027e EB030000 		.4byte	.LASF40
 626 0282 04       		.byte	0x4
 627 0283 59       		.byte	0x59
ARM GAS  /tmp/ccMMlNdP.s 			page 12


 628 0284 7A000000 		.4byte	0x7a
 629 0288 20       		.byte	0x20
 630 0289 09       		.uleb128 0x9
 631 028a 4A000000 		.4byte	.LASF41
 632 028e 04       		.byte	0x4
 633 028f 5A       		.byte	0x5a
 634 0290 7A000000 		.4byte	0x7a
 635 0294 24       		.byte	0x24
 636 0295 09       		.uleb128 0x9
 637 0296 05000000 		.4byte	.LASF33
 638 029a 04       		.byte	0x4
 639 029b 5B       		.byte	0x5b
 640 029c 7A000000 		.4byte	0x7a
 641 02a0 28       		.byte	0x28
 642 02a1 09       		.uleb128 0x9
 643 02a2 61040000 		.4byte	.LASF42
 644 02a6 04       		.byte	0x4
 645 02a7 5D       		.byte	0x5d
 646 02a8 7A000000 		.4byte	0x7a
 647 02ac 2C       		.byte	0x2c
 648 02ad 09       		.uleb128 0x9
 649 02ae 2E020000 		.4byte	.LASF43
 650 02b2 04       		.byte	0x4
 651 02b3 5E       		.byte	0x5e
 652 02b4 7A000000 		.4byte	0x7a
 653 02b8 30       		.byte	0x30
 654 02b9 09       		.uleb128 0x9
 655 02ba B2000000 		.4byte	.LASF44
 656 02be 04       		.byte	0x4
 657 02bf 5F       		.byte	0x5f
 658 02c0 F6020000 		.4byte	0x2f6
 659 02c4 38       		.byte	0x38
 660 02c5 09       		.uleb128 0x9
 661 02c6 CD000000 		.4byte	.LASF45
 662 02ca 04       		.byte	0x4
 663 02cb 60       		.byte	0x60
 664 02cc F6020000 		.4byte	0x2f6
 665 02d0 40       		.byte	0x40
 666 02d1 09       		.uleb128 0x9
 667 02d2 21010000 		.4byte	.LASF46
 668 02d6 04       		.byte	0x4
 669 02d7 62       		.byte	0x62
 670 02d8 FD020000 		.4byte	0x2fd
 671 02dc 48       		.byte	0x48
 672 02dd 09       		.uleb128 0x9
 673 02de 71040000 		.4byte	.LASF47
 674 02e2 04       		.byte	0x4
 675 02e3 63       		.byte	0x63
 676 02e4 0D030000 		.4byte	0x30d
 677 02e8 A8       		.byte	0xa8
 678 02e9 09       		.uleb128 0x9
 679 02ea 63010000 		.4byte	.LASF48
 680 02ee 04       		.byte	0x4
 681 02ef 64       		.byte	0x64
 682 02f0 7A000000 		.4byte	0x7a
 683 02f4 D8       		.byte	0xd8
 684 02f5 00       		.byte	0
ARM GAS  /tmp/ccMMlNdP.s 			page 13


 685 02f6 02       		.uleb128 0x2
 686 02f7 08       		.byte	0x8
 687 02f8 04       		.byte	0x4
 688 02f9 73020000 		.4byte	.LASF49
 689 02fd 06       		.uleb128 0x6
 690 02fe F6020000 		.4byte	0x2f6
 691 0302 0D030000 		.4byte	0x30d
 692 0306 07       		.uleb128 0x7
 693 0307 81000000 		.4byte	0x81
 694 030b 0B       		.byte	0xb
 695 030c 00       		.byte	0
 696 030d 06       		.uleb128 0x6
 697 030e 7A000000 		.4byte	0x7a
 698 0312 1D030000 		.4byte	0x31d
 699 0316 07       		.uleb128 0x7
 700 0317 81000000 		.4byte	0x81
 701 031b 0B       		.byte	0xb
 702 031c 00       		.byte	0
 703 031d 03       		.uleb128 0x3
 704 031e 24020000 		.4byte	.LASF50
 705 0322 04       		.byte	0x4
 706 0323 65       		.byte	0x65
 707 0324 2D020000 		.4byte	0x22d
 708 0328 05       		.uleb128 0x5
 709 0329 1D030000 		.4byte	0x31d
 710 032d 0D       		.uleb128 0xd
 711 032e FE000000 		.4byte	.LASF51
 712 0332 04       		.byte	0x4
 713 0333 67       		.byte	0x67
 714 0334 38030000 		.4byte	0x338
 715 0338 0E       		.uleb128 0xe
 716 0339 04       		.byte	0x4
 717 033a 9D000000 		.4byte	0x9d
 718 033e 0D       		.uleb128 0xd
 719 033f 5D020000 		.4byte	.LASF52
 720 0343 04       		.byte	0x4
 721 0344 68       		.byte	0x68
 722 0345 88000000 		.4byte	0x88
 723 0349 0D       		.uleb128 0xd
 724 034a 83000000 		.4byte	.LASF53
 725 034e 04       		.byte	0x4
 726 034f 69       		.byte	0x69
 727 0350 97010000 		.4byte	0x197
 728 0354 0D       		.uleb128 0xd
 729 0355 9B000000 		.4byte	.LASF54
 730 0359 04       		.byte	0x4
 731 035a 6A       		.byte	0x6a
 732 035b 28020000 		.4byte	0x228
 733 035f 0D       		.uleb128 0xd
 734 0360 FA030000 		.4byte	.LASF55
 735 0364 04       		.byte	0x4
 736 0365 6B       		.byte	0x6b
 737 0366 28030000 		.4byte	0x328
 738 036a 0D       		.uleb128 0xd
 739 036b 5F000000 		.4byte	.LASF56
 740 036f 04       		.byte	0x4
 741 0370 6C       		.byte	0x6c
ARM GAS  /tmp/ccMMlNdP.s 			page 14


 742 0371 98000000 		.4byte	0x98
 743 0375 0F       		.uleb128 0xf
 744 0376 30000000 		.4byte	.LASF57
 745 037a 01       		.byte	0x1
 746 037b 36       		.byte	0x36
 747 037c 00000000 		.4byte	.LFB2
 748 0380 B0000000 		.4byte	.LFE2-.LFB2
 749 0384 01       		.uleb128 0x1
 750 0385 9C       		.byte	0x9c
 751 0386 A3030000 		.4byte	0x3a3
 752 038a 10       		.uleb128 0x10
 753 038b 6D736700 		.ascii	"msg\000"
 754 038f 01       		.byte	0x1
 755 0390 36       		.byte	0x36
 756 0391 A3030000 		.4byte	0x3a3
 757 0395 00000000 		.4byte	.LLST5
 758 0399 11       		.uleb128 0x11
 759 039a A4000000 		.4byte	.LVL12
 760 039e 32040000 		.4byte	0x432
 761 03a2 00       		.byte	0
 762 03a3 0E       		.uleb128 0xe
 763 03a4 04       		.byte	0x4
 764 03a5 0F010000 		.4byte	0x10f
 765 03a9 0F       		.uleb128 0xf
 766 03aa D1010000 		.4byte	.LASF58
 767 03ae 01       		.byte	0x1
 768 03af 21       		.byte	0x21
 769 03b0 00000000 		.4byte	.LFB1
 770 03b4 C0000000 		.4byte	.LFE1-.LFB1
 771 03b8 01       		.uleb128 0x1
 772 03b9 9C       		.byte	0x9c
 773 03ba 13040000 		.4byte	0x413
 774 03be 12       		.uleb128 0x12
 775 03bf 75000000 		.4byte	.LASF16
 776 03c3 01       		.byte	0x1
 777 03c4 21       		.byte	0x21
 778 03c5 5E000000 		.4byte	0x5e
 779 03c9 3A000000 		.4byte	.LLST0
 780 03cd 12       		.uleb128 0x12
 781 03ce 13020000 		.4byte	.LASF17
 782 03d2 01       		.byte	0x1
 783 03d3 21       		.byte	0x21
 784 03d4 25000000 		.4byte	0x25
 785 03d8 67000000 		.4byte	.LLST1
 786 03dc 12       		.uleb128 0x12
 787 03dd 40000000 		.4byte	.LASF18
 788 03e1 01       		.byte	0x1
 789 03e2 21       		.byte	0x21
 790 03e3 25000000 		.4byte	0x25
 791 03e7 8B000000 		.4byte	.LLST2
 792 03eb 12       		.uleb128 0x12
 793 03ec DB000000 		.4byte	.LASF19
 794 03f0 01       		.byte	0x1
 795 03f1 21       		.byte	0x21
 796 03f2 7A000000 		.4byte	0x7a
 797 03f6 AF000000 		.4byte	.LLST3
 798 03fa 12       		.uleb128 0x12
ARM GAS  /tmp/ccMMlNdP.s 			page 15


 799 03fb CB010000 		.4byte	.LASF20
 800 03ff 01       		.byte	0x1
 801 0400 21       		.byte	0x21
 802 0401 7A000000 		.4byte	0x7a
 803 0405 DC000000 		.4byte	.LLST4
 804 0409 11       		.uleb128 0x11
 805 040a B4000000 		.4byte	.LVL7
 806 040e 32040000 		.4byte	0x432
 807 0412 00       		.byte	0
 808 0413 0F       		.uleb128 0xf
 809 0414 CE030000 		.4byte	.LASF59
 810 0418 01       		.byte	0x1
 811 0419 1A       		.byte	0x1a
 812 041a 00000000 		.4byte	.LFB0
 813 041e 34000000 		.4byte	.LFE0-.LFB0
 814 0422 01       		.uleb128 0x1
 815 0423 9C       		.byte	0x9c
 816 0424 32040000 		.4byte	0x432
 817 0428 11       		.uleb128 0x11
 818 0429 2C000000 		.4byte	.LVL0
 819 042d 32040000 		.4byte	0x432
 820 0431 00       		.byte	0
 821 0432 13       		.uleb128 0x13
 822 0433 49040000 		.4byte	.LASF63
 823 0437 49040000 		.4byte	.LASF63
 824 043b 00       		.byte	0
 825              		.section	.debug_abbrev,"",%progbits
 826              	.Ldebug_abbrev0:
 827 0000 01       		.uleb128 0x1
 828 0001 11       		.uleb128 0x11
 829 0002 01       		.byte	0x1
 830 0003 25       		.uleb128 0x25
 831 0004 0E       		.uleb128 0xe
 832 0005 13       		.uleb128 0x13
 833 0006 0B       		.uleb128 0xb
 834 0007 03       		.uleb128 0x3
 835 0008 0E       		.uleb128 0xe
 836 0009 1B       		.uleb128 0x1b
 837 000a 0E       		.uleb128 0xe
 838 000b 55       		.uleb128 0x55
 839 000c 17       		.uleb128 0x17
 840 000d 11       		.uleb128 0x11
 841 000e 01       		.uleb128 0x1
 842 000f 10       		.uleb128 0x10
 843 0010 17       		.uleb128 0x17
 844 0011 00       		.byte	0
 845 0012 00       		.byte	0
 846 0013 02       		.uleb128 0x2
 847 0014 24       		.uleb128 0x24
 848 0015 00       		.byte	0
 849 0016 0B       		.uleb128 0xb
 850 0017 0B       		.uleb128 0xb
 851 0018 3E       		.uleb128 0x3e
 852 0019 0B       		.uleb128 0xb
 853 001a 03       		.uleb128 0x3
 854 001b 0E       		.uleb128 0xe
 855 001c 00       		.byte	0
ARM GAS  /tmp/ccMMlNdP.s 			page 16


 856 001d 00       		.byte	0
 857 001e 03       		.uleb128 0x3
 858 001f 16       		.uleb128 0x16
 859 0020 00       		.byte	0
 860 0021 03       		.uleb128 0x3
 861 0022 0E       		.uleb128 0xe
 862 0023 3A       		.uleb128 0x3a
 863 0024 0B       		.uleb128 0xb
 864 0025 3B       		.uleb128 0x3b
 865 0026 0B       		.uleb128 0xb
 866 0027 49       		.uleb128 0x49
 867 0028 13       		.uleb128 0x13
 868 0029 00       		.byte	0
 869 002a 00       		.byte	0
 870 002b 04       		.uleb128 0x4
 871 002c 24       		.uleb128 0x24
 872 002d 00       		.byte	0
 873 002e 0B       		.uleb128 0xb
 874 002f 0B       		.uleb128 0xb
 875 0030 3E       		.uleb128 0x3e
 876 0031 0B       		.uleb128 0xb
 877 0032 03       		.uleb128 0x3
 878 0033 08       		.uleb128 0x8
 879 0034 00       		.byte	0
 880 0035 00       		.byte	0
 881 0036 05       		.uleb128 0x5
 882 0037 35       		.uleb128 0x35
 883 0038 00       		.byte	0
 884 0039 49       		.uleb128 0x49
 885 003a 13       		.uleb128 0x13
 886 003b 00       		.byte	0
 887 003c 00       		.byte	0
 888 003d 06       		.uleb128 0x6
 889 003e 01       		.uleb128 0x1
 890 003f 01       		.byte	0x1
 891 0040 49       		.uleb128 0x49
 892 0041 13       		.uleb128 0x13
 893 0042 01       		.uleb128 0x1
 894 0043 13       		.uleb128 0x13
 895 0044 00       		.byte	0
 896 0045 00       		.byte	0
 897 0046 07       		.uleb128 0x7
 898 0047 21       		.uleb128 0x21
 899 0048 00       		.byte	0
 900 0049 49       		.uleb128 0x49
 901 004a 13       		.uleb128 0x13
 902 004b 2F       		.uleb128 0x2f
 903 004c 0B       		.uleb128 0xb
 904 004d 00       		.byte	0
 905 004e 00       		.byte	0
 906 004f 08       		.uleb128 0x8
 907 0050 13       		.uleb128 0x13
 908 0051 01       		.byte	0x1
 909 0052 0B       		.uleb128 0xb
 910 0053 0B       		.uleb128 0xb
 911 0054 3A       		.uleb128 0x3a
 912 0055 0B       		.uleb128 0xb
ARM GAS  /tmp/ccMMlNdP.s 			page 17


 913 0056 3B       		.uleb128 0x3b
 914 0057 0B       		.uleb128 0xb
 915 0058 01       		.uleb128 0x1
 916 0059 13       		.uleb128 0x13
 917 005a 00       		.byte	0
 918 005b 00       		.byte	0
 919 005c 09       		.uleb128 0x9
 920 005d 0D       		.uleb128 0xd
 921 005e 00       		.byte	0
 922 005f 03       		.uleb128 0x3
 923 0060 0E       		.uleb128 0xe
 924 0061 3A       		.uleb128 0x3a
 925 0062 0B       		.uleb128 0xb
 926 0063 3B       		.uleb128 0x3b
 927 0064 0B       		.uleb128 0xb
 928 0065 49       		.uleb128 0x49
 929 0066 13       		.uleb128 0x13
 930 0067 38       		.uleb128 0x38
 931 0068 0B       		.uleb128 0xb
 932 0069 00       		.byte	0
 933 006a 00       		.byte	0
 934 006b 0A       		.uleb128 0xa
 935 006c 13       		.uleb128 0x13
 936 006d 01       		.byte	0x1
 937 006e 0B       		.uleb128 0xb
 938 006f 05       		.uleb128 0x5
 939 0070 3A       		.uleb128 0x3a
 940 0071 0B       		.uleb128 0xb
 941 0072 3B       		.uleb128 0x3b
 942 0073 0B       		.uleb128 0xb
 943 0074 01       		.uleb128 0x1
 944 0075 13       		.uleb128 0x13
 945 0076 00       		.byte	0
 946 0077 00       		.byte	0
 947 0078 0B       		.uleb128 0xb
 948 0079 0D       		.uleb128 0xd
 949 007a 00       		.byte	0
 950 007b 03       		.uleb128 0x3
 951 007c 08       		.uleb128 0x8
 952 007d 3A       		.uleb128 0x3a
 953 007e 0B       		.uleb128 0xb
 954 007f 3B       		.uleb128 0x3b
 955 0080 0B       		.uleb128 0xb
 956 0081 49       		.uleb128 0x49
 957 0082 13       		.uleb128 0x13
 958 0083 38       		.uleb128 0x38
 959 0084 0B       		.uleb128 0xb
 960 0085 00       		.byte	0
 961 0086 00       		.byte	0
 962 0087 0C       		.uleb128 0xc
 963 0088 0D       		.uleb128 0xd
 964 0089 00       		.byte	0
 965 008a 03       		.uleb128 0x3
 966 008b 0E       		.uleb128 0xe
 967 008c 3A       		.uleb128 0x3a
 968 008d 0B       		.uleb128 0xb
 969 008e 3B       		.uleb128 0x3b
ARM GAS  /tmp/ccMMlNdP.s 			page 18


 970 008f 0B       		.uleb128 0xb
 971 0090 49       		.uleb128 0x49
 972 0091 13       		.uleb128 0x13
 973 0092 38       		.uleb128 0x38
 974 0093 05       		.uleb128 0x5
 975 0094 00       		.byte	0
 976 0095 00       		.byte	0
 977 0096 0D       		.uleb128 0xd
 978 0097 34       		.uleb128 0x34
 979 0098 00       		.byte	0
 980 0099 03       		.uleb128 0x3
 981 009a 0E       		.uleb128 0xe
 982 009b 3A       		.uleb128 0x3a
 983 009c 0B       		.uleb128 0xb
 984 009d 3B       		.uleb128 0x3b
 985 009e 0B       		.uleb128 0xb
 986 009f 49       		.uleb128 0x49
 987 00a0 13       		.uleb128 0x13
 988 00a1 3F       		.uleb128 0x3f
 989 00a2 19       		.uleb128 0x19
 990 00a3 3C       		.uleb128 0x3c
 991 00a4 19       		.uleb128 0x19
 992 00a5 00       		.byte	0
 993 00a6 00       		.byte	0
 994 00a7 0E       		.uleb128 0xe
 995 00a8 0F       		.uleb128 0xf
 996 00a9 00       		.byte	0
 997 00aa 0B       		.uleb128 0xb
 998 00ab 0B       		.uleb128 0xb
 999 00ac 49       		.uleb128 0x49
 1000 00ad 13       		.uleb128 0x13
 1001 00ae 00       		.byte	0
 1002 00af 00       		.byte	0
 1003 00b0 0F       		.uleb128 0xf
 1004 00b1 2E       		.uleb128 0x2e
 1005 00b2 01       		.byte	0x1
 1006 00b3 3F       		.uleb128 0x3f
 1007 00b4 19       		.uleb128 0x19
 1008 00b5 03       		.uleb128 0x3
 1009 00b6 0E       		.uleb128 0xe
 1010 00b7 3A       		.uleb128 0x3a
 1011 00b8 0B       		.uleb128 0xb
 1012 00b9 3B       		.uleb128 0x3b
 1013 00ba 0B       		.uleb128 0xb
 1014 00bb 27       		.uleb128 0x27
 1015 00bc 19       		.uleb128 0x19
 1016 00bd 11       		.uleb128 0x11
 1017 00be 01       		.uleb128 0x1
 1018 00bf 12       		.uleb128 0x12
 1019 00c0 06       		.uleb128 0x6
 1020 00c1 40       		.uleb128 0x40
 1021 00c2 18       		.uleb128 0x18
 1022 00c3 9742     		.uleb128 0x2117
 1023 00c5 19       		.uleb128 0x19
 1024 00c6 01       		.uleb128 0x1
 1025 00c7 13       		.uleb128 0x13
 1026 00c8 00       		.byte	0
ARM GAS  /tmp/ccMMlNdP.s 			page 19


 1027 00c9 00       		.byte	0
 1028 00ca 10       		.uleb128 0x10
 1029 00cb 05       		.uleb128 0x5
 1030 00cc 00       		.byte	0
 1031 00cd 03       		.uleb128 0x3
 1032 00ce 08       		.uleb128 0x8
 1033 00cf 3A       		.uleb128 0x3a
 1034 00d0 0B       		.uleb128 0xb
 1035 00d1 3B       		.uleb128 0x3b
 1036 00d2 0B       		.uleb128 0xb
 1037 00d3 49       		.uleb128 0x49
 1038 00d4 13       		.uleb128 0x13
 1039 00d5 02       		.uleb128 0x2
 1040 00d6 17       		.uleb128 0x17
 1041 00d7 00       		.byte	0
 1042 00d8 00       		.byte	0
 1043 00d9 11       		.uleb128 0x11
 1044 00da 898201   		.uleb128 0x4109
 1045 00dd 00       		.byte	0
 1046 00de 11       		.uleb128 0x11
 1047 00df 01       		.uleb128 0x1
 1048 00e0 31       		.uleb128 0x31
 1049 00e1 13       		.uleb128 0x13
 1050 00e2 00       		.byte	0
 1051 00e3 00       		.byte	0
 1052 00e4 12       		.uleb128 0x12
 1053 00e5 05       		.uleb128 0x5
 1054 00e6 00       		.byte	0
 1055 00e7 03       		.uleb128 0x3
 1056 00e8 0E       		.uleb128 0xe
 1057 00e9 3A       		.uleb128 0x3a
 1058 00ea 0B       		.uleb128 0xb
 1059 00eb 3B       		.uleb128 0x3b
 1060 00ec 0B       		.uleb128 0xb
 1061 00ed 49       		.uleb128 0x49
 1062 00ee 13       		.uleb128 0x13
 1063 00ef 02       		.uleb128 0x2
 1064 00f0 17       		.uleb128 0x17
 1065 00f1 00       		.byte	0
 1066 00f2 00       		.byte	0
 1067 00f3 13       		.uleb128 0x13
 1068 00f4 2E       		.uleb128 0x2e
 1069 00f5 00       		.byte	0
 1070 00f6 3F       		.uleb128 0x3f
 1071 00f7 19       		.uleb128 0x19
 1072 00f8 3C       		.uleb128 0x3c
 1073 00f9 19       		.uleb128 0x19
 1074 00fa 6E       		.uleb128 0x6e
 1075 00fb 0E       		.uleb128 0xe
 1076 00fc 03       		.uleb128 0x3
 1077 00fd 0E       		.uleb128 0xe
 1078 00fe 00       		.byte	0
 1079 00ff 00       		.byte	0
 1080 0100 00       		.byte	0
 1081              		.section	.debug_loc,"",%progbits
 1082              	.Ldebug_loc0:
 1083              	.LLST5:
ARM GAS  /tmp/ccMMlNdP.s 			page 20


 1084 0000 00000000 		.4byte	.LVL8
 1085 0004 70000000 		.4byte	.LVL9
 1086 0008 0100     		.2byte	0x1
 1087 000a 50       		.byte	0x50
 1088 000b 70000000 		.4byte	.LVL9
 1089 000f 98000000 		.4byte	.LVL10
 1090 0013 0400     		.2byte	0x4
 1091 0015 F3       		.byte	0xf3
 1092 0016 01       		.uleb128 0x1
 1093 0017 50       		.byte	0x50
 1094 0018 9F       		.byte	0x9f
 1095 0019 98000000 		.4byte	.LVL10
 1096 001d A0000000 		.4byte	.LVL11
 1097 0021 0100     		.2byte	0x1
 1098 0023 50       		.byte	0x50
 1099 0024 A0000000 		.4byte	.LVL11
 1100 0028 B0000000 		.4byte	.LFE2
 1101 002c 0400     		.2byte	0x4
 1102 002e F3       		.byte	0xf3
 1103 002f 01       		.uleb128 0x1
 1104 0030 50       		.byte	0x50
 1105 0031 9F       		.byte	0x9f
 1106 0032 00000000 		.4byte	0
 1107 0036 00000000 		.4byte	0
 1108              	.LLST0:
 1109 003a 00000000 		.4byte	.LVL1
 1110 003e 20000000 		.4byte	.LVL2
 1111 0042 0100     		.2byte	0x1
 1112 0044 50       		.byte	0x50
 1113 0045 20000000 		.4byte	.LVL2
 1114 0049 2C000000 		.4byte	.LVL3
 1115 004d 0200     		.2byte	0x2
 1116 004f 76       		.byte	0x76
 1117 0050 08       		.sleb128 8
 1118 0051 2C000000 		.4byte	.LVL3
 1119 0055 C0000000 		.4byte	.LFE1
 1120 0059 0400     		.2byte	0x4
 1121 005b F3       		.byte	0xf3
 1122 005c 01       		.uleb128 0x1
 1123 005d 50       		.byte	0x50
 1124 005e 9F       		.byte	0x9f
 1125 005f 00000000 		.4byte	0
 1126 0063 00000000 		.4byte	0
 1127              	.LLST1:
 1128 0067 00000000 		.4byte	.LVL1
 1129 006b B3000000 		.4byte	.LVL7-1
 1130 006f 0200     		.2byte	0x2
 1131 0071 90       		.byte	0x90
 1132 0072 40       		.uleb128 0x40
 1133 0073 B3000000 		.4byte	.LVL7-1
 1134 0077 C0000000 		.4byte	.LFE1
 1135 007b 0600     		.2byte	0x6
 1136 007d F3       		.byte	0xf3
 1137 007e 03       		.uleb128 0x3
 1138 007f F5       		.byte	0xf5
 1139 0080 40       		.uleb128 0x40
 1140 0081 25       		.uleb128 0x25
ARM GAS  /tmp/ccMMlNdP.s 			page 21


 1141 0082 9F       		.byte	0x9f
 1142 0083 00000000 		.4byte	0
 1143 0087 00000000 		.4byte	0
 1144              	.LLST2:
 1145 008b 00000000 		.4byte	.LVL1
 1146 008f B3000000 		.4byte	.LVL7-1
 1147 0093 0200     		.2byte	0x2
 1148 0095 90       		.byte	0x90
 1149 0096 41       		.uleb128 0x41
 1150 0097 B3000000 		.4byte	.LVL7-1
 1151 009b C0000000 		.4byte	.LFE1
 1152 009f 0600     		.2byte	0x6
 1153 00a1 F3       		.byte	0xf3
 1154 00a2 03       		.uleb128 0x3
 1155 00a3 F5       		.byte	0xf5
 1156 00a4 41       		.uleb128 0x41
 1157 00a5 25       		.uleb128 0x25
 1158 00a6 9F       		.byte	0x9f
 1159 00a7 00000000 		.4byte	0
 1160 00ab 00000000 		.4byte	0
 1161              	.LLST3:
 1162 00af 00000000 		.4byte	.LVL1
 1163 00b3 4E000000 		.4byte	.LVL4
 1164 00b7 0100     		.2byte	0x1
 1165 00b9 51       		.byte	0x51
 1166 00ba 4E000000 		.4byte	.LVL4
 1167 00be 58000000 		.4byte	.LVL5
 1168 00c2 0200     		.2byte	0x2
 1169 00c4 70       		.byte	0x70
 1170 00c5 14       		.sleb128 20
 1171 00c6 58000000 		.4byte	.LVL5
 1172 00ca C0000000 		.4byte	.LFE1
 1173 00ce 0400     		.2byte	0x4
 1174 00d0 F3       		.byte	0xf3
 1175 00d1 01       		.uleb128 0x1
 1176 00d2 51       		.byte	0x51
 1177 00d3 9F       		.byte	0x9f
 1178 00d4 00000000 		.4byte	0
 1179 00d8 00000000 		.4byte	0
 1180              	.LLST4:
 1181 00dc 00000000 		.4byte	.LVL1
 1182 00e0 62000000 		.4byte	.LVL6
 1183 00e4 0100     		.2byte	0x1
 1184 00e6 52       		.byte	0x52
 1185 00e7 62000000 		.4byte	.LVL6
 1186 00eb C0000000 		.4byte	.LFE1
 1187 00ef 0400     		.2byte	0x4
 1188 00f1 F3       		.byte	0xf3
 1189 00f2 01       		.uleb128 0x1
 1190 00f3 52       		.byte	0x52
 1191 00f4 9F       		.byte	0x9f
 1192 00f5 00000000 		.4byte	0
 1193 00f9 00000000 		.4byte	0
 1194              		.section	.debug_aranges,"",%progbits
 1195 0000 2C000000 		.4byte	0x2c
 1196 0004 0200     		.2byte	0x2
 1197 0006 00000000 		.4byte	.Ldebug_info0
ARM GAS  /tmp/ccMMlNdP.s 			page 22


 1198 000a 04       		.byte	0x4
 1199 000b 00       		.byte	0
 1200 000c 0000     		.2byte	0
 1201 000e 0000     		.2byte	0
 1202 0010 00000000 		.4byte	.LFB0
 1203 0014 34000000 		.4byte	.LFE0-.LFB0
 1204 0018 00000000 		.4byte	.LFB1
 1205 001c C0000000 		.4byte	.LFE1-.LFB1
 1206 0020 00000000 		.4byte	.LFB2
 1207 0024 B0000000 		.4byte	.LFE2-.LFB2
 1208 0028 00000000 		.4byte	0
 1209 002c 00000000 		.4byte	0
 1210              		.section	.debug_ranges,"",%progbits
 1211              	.Ldebug_ranges0:
 1212 0000 00000000 		.4byte	.LFB0
 1213 0004 34000000 		.4byte	.LFE0
 1214 0008 00000000 		.4byte	.LFB1
 1215 000c C0000000 		.4byte	.LFE1
 1216 0010 00000000 		.4byte	.LFB2
 1217 0014 B0000000 		.4byte	.LFE2
 1218 0018 00000000 		.4byte	0
 1219 001c 00000000 		.4byte	0
 1220              		.section	.debug_line,"",%progbits
 1221              	.Ldebug_line0:
 1222 0000 C9010000 		.section	.debug_str,"MS",%progbits,1
 1222      02006401 
 1222      00000201 
 1222      FB0E0D00 
 1222      01010101 
 1223              	.LASF31:
 1224 0000 776F7264 		.ascii	"word\000"
 1224      00
 1225              	.LASF33:
 1226 0005 63757272 		.ascii	"currentBit\000"
 1226      656E7442 
 1226      697400
 1227              	.LASF32:
 1228 0010 73746174 		.ascii	"state\000"
 1228      6500
 1229              	.LASF5:
 1230 0016 73686F72 		.ascii	"short int\000"
 1230      7420696E 
 1230      7400
 1231              	.LASF37:
 1232 0020 73656E73 		.ascii	"sensor\000"
 1232      6F7200
 1233              	.LASF23:
 1234 0027 6D657373 		.ascii	"messages\000"
 1234      61676573 
 1234      00
 1235              	.LASF57:
 1236 0030 6972636F 		.ascii	"ircomPopMessage\000"
 1236      6D506F70 
 1236      4D657373 
 1236      61676500 
 1237              	.LASF18:
 1238 0040 64697265 		.ascii	"direction\000"
ARM GAS  /tmp/ccMMlNdP.s 			page 23


 1238      6374696F 
 1238      6E00
 1239              	.LASF41:
 1240 004a 7369676E 		.ascii	"signal\000"
 1240      616C00
 1241              	.LASF26:
 1242 0051 6D657373 		.ascii	"messagesCount\000"
 1242      61676573 
 1242      436F756E 
 1242      7400
 1243              	.LASF56:
 1244 005f 70726F78 		.ascii	"prox_sampling_enabled\000"
 1244      5F73616D 
 1244      706C696E 
 1244      675F656E 
 1244      61626C65 
 1245              	.LASF16:
 1246 0075 76616C75 		.ascii	"value\000"
 1246      6500
 1247              	.LASF12:
 1248 007b 75696E74 		.ascii	"uint8_t\000"
 1248      385F7400 
 1249              	.LASF53:
 1250 0083 6972636F 		.ascii	"ircomData\000"
 1250      6D446174 
 1250      6100
 1251              	.LASF39:
 1252 008d 73776974 		.ascii	"switchCounter\000"
 1252      6368436F 
 1252      756E7465 
 1252      7200
 1253              	.LASF54:
 1254 009b 6972636F 		.ascii	"ircomReceiveData\000"
 1254      6D526563 
 1254      65697665 
 1254      44617461 
 1254      00
 1255              	.LASF0:
 1256 00ac 666C6F61 		.ascii	"float\000"
 1256      7400
 1257              	.LASF44:
 1258 00b2 6D61726B 		.ascii	"markDuration\000"
 1258      44757261 
 1258      74696F6E 
 1258      00
 1259              	.LASF9:
 1260 00bf 6C6F6E67 		.ascii	"long long int\000"
 1260      206C6F6E 
 1260      6720696E 
 1260      7400
 1261              	.LASF45:
 1262 00cd 73706163 		.ascii	"spaceDuration\000"
 1262      65447572 
 1262      6174696F 
 1262      6E00
 1263              	.LASF19:
 1264 00db 72656365 		.ascii	"receivingSensor\000"
ARM GAS  /tmp/ccMMlNdP.s 			page 24


 1264      6976696E 
 1264      6753656E 
 1264      736F7200 
 1265              	.LASF7:
 1266 00eb 6C6F6E67 		.ascii	"long int\000"
 1266      20696E74 
 1266      00
 1267              	.LASF3:
 1268 00f4 5F5F7569 		.ascii	"__uint8_t\000"
 1268      6E74385F 
 1268      7400
 1269              	.LASF51:
 1270 00fe 77696E64 		.ascii	"window_data\000"
 1270      6F775F64 
 1270      61746100 
 1271              	.LASF35:
 1272 010a 4972636F 		.ascii	"IrcomReceive\000"
 1272      6D526563 
 1272      65697665 
 1272      00
 1273              	.LASF29:
 1274 0117 72656365 		.ascii	"receiving\000"
 1274      6976696E 
 1274      6700
 1275              	.LASF46:
 1276 0121 64757261 		.ascii	"durations\000"
 1276      74696F6E 
 1276      7300
 1277              	.LASF2:
 1278 012b 756E7369 		.ascii	"unsigned char\000"
 1278      676E6564 
 1278      20636861 
 1278      7200
 1279              	.LASF62:
 1280 0139 2F686F6D 		.ascii	"/home/leander/uos_codes/epuck2_lab/Task1/\000"
 1280      652F6C65 
 1280      616E6465 
 1280      722F756F 
 1280      735F636F 
 1281              	.LASF48:
 1282 0163 696E7465 		.ascii	"interruptedListening\000"
 1282      72727570 
 1282      7465644C 
 1282      69737465 
 1282      6E696E67 
 1283              	.LASF30:
 1284 0178 646F6E65 		.ascii	"done\000"
 1284      00
 1285              	.LASF24:
 1286 017d 6D657373 		.ascii	"messagesBegin\000"
 1286      61676573 
 1286      42656769 
 1286      6E00
 1287              	.LASF1:
 1288 018b 7369676E 		.ascii	"signed char\000"
 1288      65642063 
 1288      68617200 
ARM GAS  /tmp/ccMMlNdP.s 			page 25


 1289              	.LASF10:
 1290 0197 6C6F6E67 		.ascii	"long long unsigned int\000"
 1290      206C6F6E 
 1290      6720756E 
 1290      7369676E 
 1290      65642069 
 1291              	.LASF36:
 1292 01ae 74797065 		.ascii	"type\000"
 1292      00
 1293              	.LASF38:
 1294 01b3 70756C73 		.ascii	"pulseState\000"
 1294      65537461 
 1294      746500
 1295              	.LASF11:
 1296 01be 756E7369 		.ascii	"unsigned int\000"
 1296      676E6564 
 1296      20696E74 
 1296      00
 1297              	.LASF20:
 1298 01cb 6572726F 		.ascii	"error\000"
 1298      7200
 1299              	.LASF58:
 1300 01d1 6972636F 		.ascii	"ircomPushMessage\000"
 1300      6D507573 
 1300      684D6573 
 1300      73616765 
 1300      00
 1301              	.LASF34:
 1302 01e2 636F6E74 		.ascii	"continuousListening\000"
 1302      696E756F 
 1302      75734C69 
 1302      7374656E 
 1302      696E6700 
 1303              	.LASF27:
 1304 01f6 74696D65 		.ascii	"time\000"
 1304      00
 1305              	.LASF6:
 1306 01fb 73686F72 		.ascii	"short unsigned int\000"
 1306      7420756E 
 1306      7369676E 
 1306      65642069 
 1306      6E7400
 1307              	.LASF15:
 1308 020e 63686172 		.ascii	"char\000"
 1308      00
 1309              	.LASF17:
 1310 0213 64697374 		.ascii	"distance\000"
 1310      616E6365 
 1310      00
 1311              	.LASF13:
 1312 021c 696E7431 		.ascii	"int16_t\000"
 1312      365F7400 
 1313              	.LASF50:
 1314 0224 4972636F 		.ascii	"IrcomSend\000"
 1314      6D53656E 
 1314      6400
 1315              	.LASF43:
ARM GAS  /tmp/ccMMlNdP.s 			page 26


 1316 022e 73706163 		.ascii	"spaceSwitchCount\000"
 1316      65537769 
 1316      74636843 
 1316      6F756E74 
 1316      00
 1317              	.LASF25:
 1318 023f 6D657373 		.ascii	"messagesEnd\000"
 1318      61676573 
 1318      456E6400 
 1319              	.LASF8:
 1320 024b 6C6F6E67 		.ascii	"long unsigned int\000"
 1320      20756E73 
 1320      69676E65 
 1320      6420696E 
 1320      7400
 1321              	.LASF52:
 1322 025d 6972636F 		.ascii	"ircom_last_ir_scan_id\000"
 1322      6D5F6C61 
 1322      73745F69 
 1322      725F7363 
 1322      616E5F69 
 1323              	.LASF49:
 1324 0273 646F7562 		.ascii	"double\000"
 1324      6C6500
 1325              	.LASF14:
 1326 027a 6972636F 		.ascii	"ircomWord\000"
 1326      6D576F72 
 1326      6400
 1327              	.LASF28:
 1328 0284 4972636F 		.ascii	"Ircom\000"
 1328      6D00
 1329              	.LASF60:
 1330 028a 474E5520 		.ascii	"GNU C11 7.2.1 20170904 (release) [ARM/embedded-7-br"
 1330      43313120 
 1330      372E322E 
 1330      31203230 
 1330      31373039 
 1331 02bd 616E6368 		.ascii	"anch revision 255204] -mcpu=cortex-m4 -mfloat-abi=h"
 1331      20726576 
 1331      6973696F 
 1331      6E203235 
 1331      35323034 
 1332 02f0 61726420 		.ascii	"ard -mfpu=fpv4-sp-d16 -mno-thumb-interwork -mthumb "
 1332      2D6D6670 
 1332      753D6670 
 1332      76342D73 
 1332      702D6431 
 1333 0323 2D676764 		.ascii	"-ggdb -O2 -fomit-frame-pointer -falign-functions=16"
 1333      62202D4F 
 1333      32202D66 
 1333      6F6D6974 
 1333      2D667261 
 1334 0356 202D666E 		.ascii	" -fno-strict-aliasing -fstack-protector-all -ffunct"
 1334      6F2D7374 
 1334      72696374 
 1334      2D616C69 
 1334      6173696E 
ARM GAS  /tmp/ccMMlNdP.s 			page 27


 1335 0389 696F6E2D 		.ascii	"ion-sections -fdata-sections -fno-common -fsingle-p"
 1335      73656374 
 1335      696F6E73 
 1335      202D6664 
 1335      6174612D 
 1336 03bc 72656369 		.ascii	"recision-constant\000"
 1336      73696F6E 
 1336      2D636F6E 
 1336      7374616E 
 1336      7400
 1337              	.LASF59:
 1338 03ce 6972636F 		.ascii	"ircomFlushMessages\000"
 1338      6D466C75 
 1338      73684D65 
 1338      73736167 
 1338      657300
 1339              	.LASF4:
 1340 03e1 5F5F696E 		.ascii	"__int16_t\000"
 1340      7431365F 
 1340      7400
 1341              	.LASF40:
 1342 03eb 73776974 		.ascii	"switchCountMax\000"
 1342      6368436F 
 1342      756E744D 
 1342      617800
 1343              	.LASF55:
 1344 03fa 6972636F 		.ascii	"ircomSendData\000"
 1344      6D53656E 
 1344      64446174 
 1344      6100
 1345              	.LASF21:
 1346 0408 4972636F 		.ascii	"IrcomMessage\000"
 1346      6D4D6573 
 1346      73616765 
 1346      00
 1347              	.LASF61:
 1348 0415 2E2E2F65 		.ascii	"../e-puck2_main-processor/src/ircom/ircomMessages.c"
 1348      2D707563 
 1348      6B325F6D 
 1348      61696E2D 
 1348      70726F63 
 1349 0448 00       		.ascii	"\000"
 1350              	.LASF63:
 1351 0449 5F5F7374 		.ascii	"__stack_chk_fail\000"
 1351      61636B5F 
 1351      63686B5F 
 1351      6661696C 
 1351      00
 1352              	.LASF22:
 1353 045a 70617573 		.ascii	"paused\000"
 1353      656400
 1354              	.LASF42:
 1355 0461 6D61726B 		.ascii	"markSwitchCount\000"
 1355      53776974 
 1355      6368436F 
 1355      756E7400 
 1356              	.LASF47:
ARM GAS  /tmp/ccMMlNdP.s 			page 28


 1357 0471 73776974 		.ascii	"switchCounts\000"
 1357      6368436F 
 1357      756E7473 
 1357      00
 1358              		.ident	"GCC: (GNU Tools for Arm Embedded Processors 7-2017-q4-major) 7.2.1 20170904 (release) [ARM
ARM GAS  /tmp/ccMMlNdP.s 			page 29


DEFINED SYMBOLS
                            *ABS*:0000000000000000 ircomMessages.c
     /tmp/ccMMlNdP.s:18     .text.ircomFlushMessages:0000000000000000 $t
     /tmp/ccMMlNdP.s:26     .text.ircomFlushMessages:0000000000000000 ircomFlushMessages
     /tmp/ccMMlNdP.s:69     .text.ircomFlushMessages:000000000000002c $d
     /tmp/ccMMlNdP.s:75     .text.ircomPushMessage:0000000000000000 $t
     /tmp/ccMMlNdP.s:83     .text.ircomPushMessage:0000000000000000 ircomPushMessage
     /tmp/ccMMlNdP.s:185    .text.ircomPushMessage:00000000000000b4 $d
     /tmp/ccMMlNdP.s:192    .text.ircomPopMessage:0000000000000000 $t
     /tmp/ccMMlNdP.s:200    .text.ircomPopMessage:0000000000000000 ircomPopMessage
     /tmp/ccMMlNdP.s:298    .text.ircomPopMessage:00000000000000a4 $d

UNDEFINED SYMBOLS
__stack_chk_fail
__stack_chk_guard
ircomData
