ARM GAS  /tmp/ccDgCmrr.s 			page 1


   1              		.cpu cortex-m4
   2              		.eabi_attribute 27, 1
   3              		.eabi_attribute 28, 1
   4              		.eabi_attribute 20, 1
   5              		.eabi_attribute 21, 1
   6              		.eabi_attribute 23, 3
   7              		.eabi_attribute 24, 1
   8              		.eabi_attribute 25, 1
   9              		.eabi_attribute 26, 1
  10              		.eabi_attribute 30, 2
  11              		.eabi_attribute 34, 1
  12              		.eabi_attribute 18, 4
  13              		.file	"ircomReceive.c"
  14              		.text
  15              	.Ltext0:
  16              		.cfi_sections	.debug_frame
  17              		.section	.text.ircomReceiveGetMaxSensor,"ax",%progbits
  18              		.align	1
  19              		.p2align 4,,15
  20              		.global	ircomReceiveGetMaxSensor
  21              		.syntax unified
  22              		.thumb
  23              		.thumb_func
  24              		.fpu fpv4-sp-d16
  25              		.type	ircomReceiveGetMaxSensor, %function
  26              	ircomReceiveGetMaxSensor:
  27              	.LFB262:
  28              		.file 1 "../e-puck2_main-processor/src/ircom/ircomReceive.c"
  29              		.loc 1 150 0
  30              		.cfi_startproc
  31              		@ args = 0, pretend = 0, frame = 8
  32              		@ frame_needed = 0, uses_anonymous_args = 0
  33 0000 F0B5     		push	{r4, r5, r6, r7, lr}
  34              		.cfi_def_cfa_offset 20
  35              		.cfi_offset 4, -20
  36              		.cfi_offset 5, -16
  37              		.cfi_offset 6, -12
  38              		.cfi_offset 7, -8
  39              		.cfi_offset 14, -4
  40              	.LBB11:
  41              	.LBB12:
  42              		.loc 1 161 0
  43 0002 1E4B     		ldr	r3, .L17
  44              	.LBE12:
  45              	.LBE11:
  46              		.loc 1 150 0
  47 0004 DFF878E0 		ldr	lr, .L17+4
  48              	.LBB17:
  49              	.LBB13:
  50              		.loc 1 161 0
  51 0008 1E68     		ldr	r6, [r3]
  52              	.LBE13:
  53              	.LBE17:
  54              		.loc 1 150 0
  55 000a DEF80020 		ldr	r2, [lr]
  56 000e 83B0     		sub	sp, sp, #12
  57              		.cfi_def_cfa_offset 32
ARM GAS  /tmp/ccDgCmrr.s 			page 2


  58              		.loc 1 154 0
  59 0010 4FF0000C 		mov	ip, #0
  60              		.loc 1 150 0
  61 0014 0192     		str	r2, [sp, #4]
  62              	.LVL0:
  63              		.loc 1 157 0
  64 0016 6746     		mov	r7, ip
  65              		.loc 1 155 0
  66 0018 4FF0FF30 		mov	r0, #-1
  67              	.LVL1:
  68              	.L2:
  69 001c 07F58075 		add	r5, r7, #256
  70              		.loc 1 150 0
  71 0020 3B46     		mov	r3, r7
  72              	.LBB18:
  73              		.loc 1 158 0
  74 0022 0024     		movs	r4, #0
  75 0024 4FF48051 		mov	r1, #4096
  76 0028 06E0     		b	.L4
  77              	.LVL2:
  78              	.L15:
  79 002a 9442     		cmp	r4, r2
  80              	.LBB14:
  81              		.loc 1 170 0
  82 002c 03F10803 		add	r3, r3, #8
  83              	.LVL3:
  84 0030 B8BF     		it	lt
  85 0032 1446     		movlt	r4, r2
  86              	.LVL4:
  87              	.LBE14:
  88              		.loc 1 159 0
  89 0034 AB42     		cmp	r3, r5
  90 0036 07D0     		beq	.L14
  91              	.LVL5:
  92              	.L4:
  93              	.LBB15:
  94              		.loc 1 161 0
  95 0038 36F91320 		ldrsh	r2, [r6, r3, lsl #1]
  96              	.LVL6:
  97              		.loc 1 162 0
  98 003c 8A42     		cmp	r2, r1
  99 003e F4DA     		bge	.L15
 100              		.loc 1 170 0
 101 0040 0833     		adds	r3, r3, #8
 102              	.LVL7:
 103              	.LBE15:
 104              		.loc 1 159 0
 105 0042 AB42     		cmp	r3, r5
 106              	.LBB16:
 107 0044 1146     		mov	r1, r2
 108              	.LVL8:
 109              	.LBE16:
 110 0046 F7D1     		bne	.L4
 111              	.LVL9:
 112              	.L14:
 113              		.loc 1 173 0
 114 0048 611A     		subs	r1, r4, r1
ARM GAS  /tmp/ccDgCmrr.s 			page 3


 115              	.LVL10:
 116 004a 6145     		cmp	r1, ip
 117 004c C8BF     		it	gt
 118 004e 3846     		movgt	r0, r7
 119              	.LBE18:
 120              		.loc 1 157 0
 121 0050 07F10107 		add	r7, r7, #1
 122              	.LVL11:
 123              	.LBB19:
 124 0054 C8BF     		it	gt
 125 0056 8C46     		movgt	ip, r1
 126              	.LVL12:
 127              	.LBE19:
 128 0058 082F     		cmp	r7, #8
 129 005a DFD1     		bne	.L2
 130              		.loc 1 184 0
 131 005c 019A     		ldr	r2, [sp, #4]
 132              	.LVL13:
 133 005e DEF80030 		ldr	r3, [lr]
 134              	.LVL14:
 135              		.loc 1 180 0
 136 0062 BCF14A0F 		cmp	ip, #74
 137 0066 D8BF     		it	le
 138 0068 4FF0FF30 		movle	r0, #-1
 139              		.loc 1 184 0
 140 006c 9A42     		cmp	r2, r3
 141 006e 40B2     		sxtb	r0, r0
 142 0070 01D1     		bne	.L16
 143 0072 03B0     		add	sp, sp, #12
 144              		.cfi_remember_state
 145              		.cfi_def_cfa_offset 20
 146              		@ sp needed
 147 0074 F0BD     		pop	{r4, r5, r6, r7, pc}
 148              	.LVL15:
 149              	.L16:
 150              		.cfi_restore_state
 151 0076 FFF7FEFF 		bl	__stack_chk_fail
 152              	.LVL16:
 153              	.L18:
 154 007a 00BF     		.align	2
 155              	.L17:
 156 007c 00000000 		.word	window_data
 157 0080 00000000 		.word	__stack_chk_guard
 158              		.cfi_endproc
 159              	.LFE262:
 160              		.size	ircomReceiveGetMaxSensor, .-ircomReceiveGetMaxSensor
 161              		.section	.text.ircomReceiveDemodulate,"ax",%progbits
 162              		.align	1
 163              		.p2align 4,,15
 164              		.global	ircomReceiveDemodulate
 165              		.syntax unified
 166              		.thumb
 167              		.thumb_func
 168              		.fpu fpv4-sp-d16
 169              		.type	ircomReceiveDemodulate, %function
 170              	ircomReceiveDemodulate:
 171              	.LFB263:
ARM GAS  /tmp/ccDgCmrr.s 			page 4


 172              		.loc 1 186 0
 173              		.cfi_startproc
 174              		@ args = 0, pretend = 0, frame = 8
 175              		@ frame_needed = 0, uses_anonymous_args = 0
 176              	.LVL17:
 177 0000 2DE9F043 		push	{r4, r5, r6, r7, r8, r9, lr}
 178              		.cfi_def_cfa_offset 28
 179              		.cfi_offset 4, -28
 180              		.cfi_offset 5, -24
 181              		.cfi_offset 6, -20
 182              		.cfi_offset 7, -16
 183              		.cfi_offset 8, -12
 184              		.cfi_offset 9, -8
 185              		.cfi_offset 14, -4
 186 0004 3C4F     		ldr	r7, .L51
 187 0006 3D4A     		ldr	r2, .L51+4
 188 0008 3B68     		ldr	r3, [r7]
 189              		.loc 1 187 0
 190 000a DFF8F8C0 		ldr	ip, .L51+12
 191              		.loc 1 195 0
 192 000e 3C49     		ldr	r1, .L51+8
 193              		.loc 1 186 0
 194 0010 83B0     		sub	sp, sp, #12
 195              		.cfi_def_cfa_offset 40
 196 0012 161D     		adds	r6, r2, #4
 197              		.loc 1 186 0
 198 0014 0193     		str	r3, [sp, #4]
 199              		.loc 1 187 0
 200 0016 DCF82830 		ldr	r3, [ip, #40]
 201              	.LVL18:
 202              		.loc 1 195 0
 203 001a D1F80080 		ldr	r8, [r1]
 204              		.loc 1 186 0
 205 001e 8146     		mov	r9, r0
 206 0020 3546     		mov	r5, r6
 207 0022 06F17C0E 		add	lr, r6, #124
 208              		.loc 1 195 0
 209 0026 1146     		mov	r1, r2
 210              	.LVL19:
 211              	.L20:
 212              		.loc 1 195 0 is_stmt 0 discriminator 3
 213 0028 38F91340 		ldrsh	r4, [r8, r3, lsl #1]
 214 002c 41F8044F 		str	r4, [r1, #4]!
 215              		.loc 1 193 0 is_stmt 1 discriminator 3
 216 0030 7145     		cmp	r1, lr
 217 0032 03F10803 		add	r3, r3, #8
 218              	.LVL20:
 219 0036 F7D1     		bne	.L20
 220 0038 1346     		mov	r3, r2
 221              	.LVL21:
 222              		.loc 1 199 0
 223 003a 4FF00008 		mov	r8, #0
 224 003e 4FF4805E 		mov	lr, #4096
 225 0042 04E0     		b	.L22
 226              	.LVL22:
 227              	.L45:
 228 0044 A045     		cmp	r8, r4
ARM GAS  /tmp/ccDgCmrr.s 			page 5


 229 0046 B8BF     		it	lt
 230 0048 A046     		movlt	r8, r4
 231              	.LVL23:
 232              		.loc 1 200 0
 233 004a 8B42     		cmp	r3, r1
 234 004c 06D0     		beq	.L44
 235              	.LVL24:
 236              	.L22:
 237              		.loc 1 202 0
 238 004e 53F8044F 		ldr	r4, [r3, #4]!
 239 0052 7445     		cmp	r4, lr
 240 0054 F6DA     		bge	.L45
 241              		.loc 1 200 0
 242 0056 8B42     		cmp	r3, r1
 243 0058 A646     		mov	lr, r4
 244              	.LVL25:
 245 005a F8D1     		bne	.L22
 246              	.LVL26:
 247              	.L44:
 248              		.loc 1 211 0
 249 005c A8EB0E0E 		sub	lr, r8, lr
 250              	.LVL27:
 251 0060 BEF14A0F 		cmp	lr, #74
 252 0064 43DD     		ble	.L23
 253 0066 1446     		mov	r4, r2
 254              		.loc 1 215 0
 255 0068 0021     		movs	r1, #0
 256              	.LVL28:
 257              	.L24:
 258              		.loc 1 218 0 discriminator 3
 259 006a 54F8040F 		ldr	r0, [r4, #4]!
 260              		.loc 1 216 0 discriminator 3
 261 006e A342     		cmp	r3, r4
 262              		.loc 1 218 0 discriminator 3
 263 0070 0144     		add	r1, r1, r0
 264              	.LVL29:
 265              		.loc 1 216 0 discriminator 3
 266 0072 FAD1     		bne	.L24
 267              		.loc 1 220 0
 268 0074 0029     		cmp	r1, #0
 269 0076 B8BF     		it	lt
 270 0078 1F31     		addlt	r1, r1, #31
 271              	.LVL30:
 272 007a 4C11     		asrs	r4, r1, #5
 273              	.LVL31:
 274              	.L26:
 275              		.loc 1 225 0 discriminator 3
 276 007c 52F8041F 		ldr	r1, [r2, #4]!
 277 0080 091B     		subs	r1, r1, r4
 278              		.loc 1 223 0 discriminator 3
 279 0082 9342     		cmp	r3, r2
 280              		.loc 1 225 0 discriminator 3
 281 0084 1160     		str	r1, [r2]
 282              		.loc 1 223 0 discriminator 3
 283 0086 F9D1     		bne	.L26
 284              		.loc 1 230 0
 285 0088 3268     		ldr	r2, [r6]
ARM GAS  /tmp/ccDgCmrr.s 			page 6


 286              		.loc 1 233 0
 287 008a 002A     		cmp	r2, #0
 288 008c CCBF     		ite	gt
 289 008e 0121     		movgt	r1, #1
 290 0090 4FF0FF31 		movle	r1, #-1
 291 0094 0024     		movs	r4, #0
 292              	.LVL32:
 293 0096 05E0     		b	.L30
 294              	.LVL33:
 295              	.L47:
 296              		.loc 1 241 0
 297 0098 4A1C     		adds	r2, r1, #1
 298 009a 01D1     		bne	.L29
 299              	.LVL34:
 300              		.loc 1 244 0
 301 009c 0134     		adds	r4, r4, #1
 302              	.LVL35:
 303              		.loc 1 243 0
 304 009e 0121     		movs	r1, #1
 305              	.LVL36:
 306              	.L29:
 307              		.loc 1 237 0 discriminator 2
 308 00a0 9D42     		cmp	r5, r3
 309 00a2 0AD0     		beq	.L46
 310              	.LVL37:
 311              	.L30:
 312              		.loc 1 239 0
 313 00a4 55F8042F 		ldr	r2, [r5, #4]!
 314 00a8 002A     		cmp	r2, #0
 315 00aa F5DC     		bgt	.L47
 316              		.loc 1 249 0
 317 00ac 0129     		cmp	r1, #1
 318              	.LVL38:
 319              		.loc 1 252 0
 320 00ae 04BF     		itt	eq
 321 00b0 0134     		addeq	r4, r4, #1
 322              	.LVL39:
 323              		.loc 1 251 0
 324 00b2 4FF0FF31 		moveq	r1, #-1
 325              	.LVL40:
 326              		.loc 1 237 0
 327 00b6 9D42     		cmp	r5, r3
 328 00b8 F4D1     		bne	.L30
 329              	.L46:
 330              		.loc 1 257 0
 331 00ba B9F1000F 		cmp	r9, #0
 332 00be 14D1     		bne	.L48
 333              		.loc 1 260 0
 334 00c0 072C     		cmp	r4, #7
 335 00c2 0ADC     		bgt	.L49
 336              		.loc 1 265 0
 337 00c4 032C     		cmp	r4, #3
 338              		.loc 1 266 0
 339 00c6 C8BF     		it	gt
 340 00c8 0120     		movgt	r0, #1
 341              		.loc 1 265 0
 342 00ca 10DD     		ble	.L23
ARM GAS  /tmp/ccDgCmrr.s 			page 7


 343              	.LVL41:
 344              	.L32:
 345              		.loc 1 269 0
 346 00cc 019A     		ldr	r2, [sp, #4]
 347 00ce 3B68     		ldr	r3, [r7]
 348 00d0 9A42     		cmp	r2, r3
 349 00d2 0FD1     		bne	.L50
 350 00d4 03B0     		add	sp, sp, #12
 351              		.cfi_remember_state
 352              		.cfi_def_cfa_offset 28
 353              		@ sp needed
 354 00d6 BDE8F083 		pop	{r4, r5, r6, r7, r8, r9, pc}
 355              	.LVL42:
 356              	.L49:
 357              		.cfi_restore_state
 358              		.loc 1 262 0
 359 00da 07EE90EA 		vmov	s15, lr	@ int
 360 00de F8EEE77A 		vcvt.f32.s32	s15, s15
 361              		.loc 1 263 0
 362 00e2 4846     		mov	r0, r9
 363              		.loc 1 262 0
 364 00e4 CCED067A 		vstr.32	s15, [ip, #24]
 365              		.loc 1 263 0
 366 00e8 F0E7     		b	.L32
 367              	.L48:
 368              		.loc 1 258 0
 369 00ea 20B2     		sxth	r0, r4
 370 00ec EEE7     		b	.L32
 371              	.LVL43:
 372              	.L23:
 373              		.loc 1 268 0
 374 00ee 4FF0FF30 		mov	r0, #-1
 375 00f2 EBE7     		b	.L32
 376              	.L50:
 377              		.loc 1 269 0
 378 00f4 FFF7FEFF 		bl	__stack_chk_fail
 379              	.LVL44:
 380              	.L52:
 381              		.align	2
 382              	.L51:
 383 00f8 00000000 		.word	__stack_chk_guard
 384 00fc FCFFFFFF 		.word	.LANCHOR0-4
 385 0100 00000000 		.word	window_data
 386 0104 00000000 		.word	ircomReceiveData
 387              		.cfi_endproc
 388              	.LFE263:
 389              		.size	ircomReceiveDemodulate, .-ircomReceiveDemodulate
 390              		.section	.text.ircomReceiveListen.part.0,"ax",%progbits
 391              		.align	1
 392              		.p2align 4,,15
 393              		.syntax unified
 394              		.thumb
 395              		.thumb_func
 396              		.fpu fpv4-sp-d16
 397              		.type	ircomReceiveListen.part.0, %function
 398              	ircomReceiveListen.part.0:
 399              	.LFB270:
ARM GAS  /tmp/ccDgCmrr.s 			page 8


 400              		.loc 1 24 0
 401              		.cfi_startproc
 402              		@ args = 0, pretend = 0, frame = 8
 403              		@ frame_needed = 0, uses_anonymous_args = 0
 404 0000 F0B5     		push	{r4, r5, r6, r7, lr}
 405              		.cfi_def_cfa_offset 20
 406              		.cfi_offset 4, -20
 407              		.cfi_offset 5, -16
 408              		.cfi_offset 6, -12
 409              		.cfi_offset 7, -8
 410              		.cfi_offset 14, -4
 411 0002 204D     		ldr	r5, .L64
 412 0004 83B0     		sub	sp, sp, #12
 413              		.cfi_def_cfa_offset 32
 414              		.loc 1 24 0
 415 0006 2B68     		ldr	r3, [r5]
 416 0008 0193     		str	r3, [sp, #4]
 417              		.loc 1 30 0
 418 000a FFF7FEFF 		bl	ircomReceiveGetMaxSensor
 419              	.LVL45:
 420              		.loc 1 33 0
 421 000e 071E     		subs	r7, r0, #0
 422 0010 2FDB     		blt	.L53
 423              	.LVL46:
 424              		.loc 1 38 0
 425 0012 1D4E     		ldr	r6, .L64+4
 426              		.loc 1 40 0
 427 0014 0120     		movs	r0, #1
 428              	.LVL47:
 429              		.loc 1 38 0
 430 0016 B762     		str	r7, [r6, #40]
 431              		.loc 1 40 0
 432 0018 FFF7FEFF 		bl	ircomReceiveDemodulate
 433              	.LVL48:
 434              		.loc 1 43 0
 435 001c 0128     		cmp	r0, #1
 436 001e 28DD     		ble	.L53
 437              	.LBB20:
 438              		.loc 1 54 0
 439 0020 1A4B     		ldr	r3, .L64+8
 440 0022 1A68     		ldr	r2, [r3]
 441 0024 3CB2     		sxth	r4, r7
 442              	.LBE20:
 443              		.loc 1 52 0
 444 0026 0023     		movs	r3, #0
 445 0028 02EB4404 		add	r4, r2, r4, lsl #1
 446              		.loc 1 51 0
 447 002c 1946     		mov	r1, r3
 448              		.loc 1 50 0
 449 002e 4FF48052 		mov	r2, #4096
 450 0032 02E0     		b	.L58
 451              	.LVL49:
 452              	.L62:
 453              		.loc 1 52 0
 454 0034 0133     		adds	r3, r3, #1
 455              	.LVL50:
 456 0036 202B     		cmp	r3, #32
ARM GAS  /tmp/ccDgCmrr.s 			page 9


 457 0038 0AD0     		beq	.L57
 458              	.LVL51:
 459              	.L58:
 460              	.LBB21:
 461              		.loc 1 54 0
 462 003a 1801     		lsls	r0, r3, #4
 463 003c 205E     		ldrsh	r0, [r4, r0]
 464              	.LVL52:
 465 003e 8142     		cmp	r1, r0
 466 0040 B8BF     		it	lt
 467 0042 0146     		movlt	r1, r0
 468              	.LVL53:
 469 0044 8242     		cmp	r2, r0
 470 0046 A8BF     		it	ge
 471 0048 0246     		movge	r2, r0
 472              	.LVL54:
 473              		.loc 1 59 0
 474 004a 881A     		subs	r0, r1, r2
 475              	.LVL55:
 476 004c 4A28     		cmp	r0, #74
 477 004e F1DD     		ble	.L62
 478              	.LVL56:
 479              	.L57:
 480              	.LBE21:
 481              		.loc 1 63 0
 482 0050 0F4A     		ldr	r2, .L64+12
 483              	.LVL57:
 484 0052 1068     		ldr	r0, [r2]
 485 0054 C0F12000 		rsb	r0, r0, #32
 486 0058 1844     		add	r0, r0, r3
 487 005a FFF7FEFF 		bl	ircom_skip_samples
 488              	.LVL58:
 489              		.loc 1 70 0
 490 005e FFF7FEFF 		bl	ircomDisableProximity
 491              	.LVL59:
 492              		.loc 1 73 0
 493 0062 0023     		movs	r3, #0
 494              		.loc 1 77 0
 495 0064 0122     		movs	r2, #1
 496              		.loc 1 73 0
 497 0066 7362     		str	r3, [r6, #36]
 498              		.loc 1 74 0
 499 0068 B762     		str	r7, [r6, #40]
 500              		.loc 1 75 0
 501 006a 7360     		str	r3, [r6, #4]
 502              		.loc 1 76 0
 503 006c B360     		str	r3, [r6, #8]
 504              		.loc 1 77 0
 505 006e 3260     		str	r2, [r6]
 506              		.loc 1 78 0
 507 0070 3262     		str	r2, [r6, #32]
 508              	.L53:
 509              		.loc 1 79 0
 510 0072 019A     		ldr	r2, [sp, #4]
 511 0074 2B68     		ldr	r3, [r5]
 512 0076 9A42     		cmp	r2, r3
 513 0078 01D1     		bne	.L63
ARM GAS  /tmp/ccDgCmrr.s 			page 10


 514 007a 03B0     		add	sp, sp, #12
 515              		.cfi_remember_state
 516              		.cfi_def_cfa_offset 20
 517              		@ sp needed
 518 007c F0BD     		pop	{r4, r5, r6, r7, pc}
 519              	.LVL60:
 520              	.L63:
 521              		.cfi_restore_state
 522 007e FFF7FEFF 		bl	__stack_chk_fail
 523              	.LVL61:
 524              	.L65:
 525 0082 00BF     		.align	2
 526              	.L64:
 527 0084 00000000 		.word	__stack_chk_guard
 528 0088 00000000 		.word	ircomReceiveData
 529 008c 00000000 		.word	window_data
 530 0090 00000000 		.word	ircom_last_ir_scan_id
 531              		.cfi_endproc
 532              	.LFE270:
 533              		.size	ircomReceiveListen.part.0, .-ircomReceiveListen.part.0
 534              		.section	.text.ircomReceiveListen,"ax",%progbits
 535              		.align	1
 536              		.p2align 4,,15
 537              		.global	ircomReceiveListen
 538              		.syntax unified
 539              		.thumb
 540              		.thumb_func
 541              		.fpu fpv4-sp-d16
 542              		.type	ircomReceiveListen, %function
 543              	ircomReceiveListen:
 544              	.LFB260:
 545              		.loc 1 24 0
 546              		.cfi_startproc
 547              		@ args = 0, pretend = 0, frame = 8
 548              		@ frame_needed = 0, uses_anonymous_args = 0
 549 0000 10B5     		push	{r4, lr}
 550              		.cfi_def_cfa_offset 8
 551              		.cfi_offset 4, -8
 552              		.cfi_offset 14, -4
 553 0002 0B4C     		ldr	r4, .L72
 554 0004 82B0     		sub	sp, sp, #8
 555              		.cfi_def_cfa_offset 16
 556              		.loc 1 24 0
 557 0006 2368     		ldr	r3, [r4]
 558 0008 0193     		str	r3, [sp, #4]
 559              		.loc 1 26 0
 560 000a FFF7FEFF 		bl	ircom_is_array_filled
 561              	.LVL62:
 562              		.loc 1 79 0
 563 000e 019A     		ldr	r2, [sp, #4]
 564 0010 2368     		ldr	r3, [r4]
 565              		.loc 1 26 0
 566 0012 30B1     		cbz	r0, .L66
 567 0014 9A42     		cmp	r2, r3
 568 0016 08D1     		bne	.L71
 569              		.loc 1 79 0
 570 0018 02B0     		add	sp, sp, #8
ARM GAS  /tmp/ccDgCmrr.s 			page 11


 571              		.cfi_remember_state
 572              		.cfi_def_cfa_offset 8
 573              		@ sp needed
 574 001a BDE81040 		pop	{r4, lr}
 575              		.cfi_restore 14
 576              		.cfi_restore 4
 577              		.cfi_def_cfa_offset 0
 578 001e FFF7FEBF 		b	ircomReceiveListen.part.0
 579              	.LVL63:
 580              	.L66:
 581              		.cfi_restore_state
 582 0022 9A42     		cmp	r2, r3
 583 0024 01D1     		bne	.L71
 584 0026 02B0     		add	sp, sp, #8
 585              		.cfi_remember_state
 586              		.cfi_def_cfa_offset 8
 587              		@ sp needed
 588 0028 10BD     		pop	{r4, pc}
 589              	.L71:
 590              		.cfi_restore_state
 591 002a FFF7FEFF 		bl	__stack_chk_fail
 592              	.LVL64:
 593              	.L73:
 594 002e 00BF     		.align	2
 595              	.L72:
 596 0030 00000000 		.word	__stack_chk_guard
 597              		.cfi_endproc
 598              	.LFE260:
 599              		.size	ircomReceiveListen, .-ircomReceiveListen
 600              		.section	.text.ircomReceiveCheckCRC,"ax",%progbits
 601              		.align	1
 602              		.p2align 4,,15
 603              		.global	ircomReceiveCheckCRC
 604              		.syntax unified
 605              		.thumb
 606              		.thumb_func
 607              		.fpu fpv4-sp-d16
 608              		.type	ircomReceiveCheckCRC, %function
 609              	ircomReceiveCheckCRC:
 610              	.LFB264:
 611              		.loc 1 271 0
 612              		.cfi_startproc
 613              		@ args = 0, pretend = 0, frame = 8
 614              		@ frame_needed = 0, uses_anonymous_args = 0
 615 0000 30B5     		push	{r4, r5, lr}
 616              		.cfi_def_cfa_offset 12
 617              		.cfi_offset 4, -12
 618              		.cfi_offset 5, -8
 619              		.cfi_offset 14, -4
 620 0002 0F4C     		ldr	r4, .L81
 621 0004 0F49     		ldr	r1, .L81+4
 622 0006 2368     		ldr	r3, [r4]
 623 0008 83B0     		sub	sp, sp, #12
 624              		.cfi_def_cfa_offset 24
 625              		.loc 1 274 0
 626 000a 0020     		movs	r0, #0
 627              		.loc 1 271 0
ARM GAS  /tmp/ccDgCmrr.s 			page 12


 628 000c 0193     		str	r3, [sp, #4]
 629              	.LVL65:
 630              		.loc 1 275 0
 631 000e 0346     		mov	r3, r0
 632              	.LVL66:
 633              	.L76:
 634              		.loc 1 277 0
 635 0010 CA18     		adds	r2, r1, r3
 636              		.loc 1 275 0
 637 0012 0133     		adds	r3, r3, #1
 638              	.LVL67:
 639              		.loc 1 277 0
 640 0014 127B     		ldrb	r2, [r2, #12]	@ zero_extendqisi2
 641 0016 012A     		cmp	r2, #1
 642              		.loc 1 278 0
 643 0018 08BF     		it	eq
 644 001a 0130     		addeq	r0, r0, #1
 645              	.LVL68:
 646              		.loc 1 275 0
 647 001c 082B     		cmp	r3, #8
 648 001e F7D1     		bne	.L76
 649              		.loc 1 280 0
 650 0020 0D7D     		ldrb	r5, [r1, #20]	@ zero_extendqisi2
 651 0022 4B7D     		ldrb	r3, [r1, #21]	@ zero_extendqisi2
 652              	.LVL69:
 653              		.loc 1 284 0
 654 0024 0199     		ldr	r1, [sp, #4]
 655 0026 2268     		ldr	r2, [r4]
 656              		.loc 1 280 0
 657 0028 03EB4503 		add	r3, r3, r5, lsl #1
 658              		.loc 1 283 0
 659 002c 1844     		add	r0, r0, r3
 660              	.LVL70:
 661              		.loc 1 284 0
 662 002e 9142     		cmp	r1, r2
 663 0030 00F00300 		and	r0, r0, #3
 664 0034 01D1     		bne	.L80
 665 0036 03B0     		add	sp, sp, #12
 666              		.cfi_remember_state
 667              		.cfi_def_cfa_offset 12
 668              		@ sp needed
 669 0038 30BD     		pop	{r4, r5, pc}
 670              	.L80:
 671              		.cfi_restore_state
 672 003a FFF7FEFF 		bl	__stack_chk_fail
 673              	.LVL71:
 674              	.L82:
 675 003e 00BF     		.align	2
 676              	.L81:
 677 0040 00000000 		.word	__stack_chk_guard
 678 0044 00000000 		.word	ircomReceiveData
 679              		.cfi_endproc
 680              	.LFE264:
 681              		.size	ircomReceiveCheckCRC, .-ircomReceiveCheckCRC
 682              		.section	.text.ircomListen,"ax",%progbits
 683              		.align	1
 684              		.p2align 4,,15
ARM GAS  /tmp/ccDgCmrr.s 			page 13


 685              		.global	ircomListen
 686              		.syntax unified
 687              		.thumb
 688              		.thumb_func
 689              		.fpu fpv4-sp-d16
 690              		.type	ircomListen, %function
 691              	ircomListen:
 692              	.LFB265:
 693              		.loc 1 291 0
 694              		.cfi_startproc
 695              		@ args = 0, pretend = 0, frame = 8
 696              		@ frame_needed = 0, uses_anonymous_args = 0
 697 0000 30B5     		push	{r4, r5, lr}
 698              		.cfi_def_cfa_offset 12
 699              		.cfi_offset 4, -12
 700              		.cfi_offset 5, -8
 701              		.cfi_offset 14, -4
 702 0002 104C     		ldr	r4, .L88
 703 0004 83B0     		sub	sp, sp, #12
 704              		.cfi_def_cfa_offset 24
 705              		.loc 1 291 0
 706 0006 2368     		ldr	r3, [r4]
 707 0008 0193     		str	r3, [sp, #4]
 708              		.loc 1 293 0
 709 000a 0120     		movs	r0, #1
 710 000c FFF7FEFF 		bl	ircomPause
 711              	.LVL72:
 712              		.loc 1 303 0
 713 0010 0D4A     		ldr	r2, .L88+4
 714              		.loc 1 296 0
 715 0012 0E4B     		ldr	r3, .L88+8
 716              		.loc 1 299 0
 717 0014 0E49     		ldr	r1, .L88+12
 718              		.loc 1 303 0
 719 0016 D268     		ldr	r2, [r2, #12]
 720              		.loc 1 296 0
 721 0018 0020     		movs	r0, #0
 722              		.loc 1 299 0
 723 001a 0125     		movs	r5, #1
 724              		.loc 1 296 0
 725 001c 5860     		str	r0, [r3, #4]
 726              		.loc 1 297 0
 727 001e 1860     		str	r0, [r3]
 728              		.loc 1 298 0
 729 0020 1862     		str	r0, [r3, #32]
 730              		.loc 1 299 0
 731 0022 4D60     		str	r5, [r1, #4]
 732              		.loc 1 300 0
 733 0024 0B4D     		ldr	r5, .L88+16
 734 0026 9D61     		str	r5, [r3, #24]	@ float
 735              		.loc 1 303 0
 736 0028 6321     		movs	r1, #99
 737 002a D162     		str	r1, [r2, #44]
 738              		.loc 1 306 0
 739 002c 019A     		ldr	r2, [sp, #4]
 740 002e 2368     		ldr	r3, [r4]
 741 0030 9A42     		cmp	r2, r3
ARM GAS  /tmp/ccDgCmrr.s 			page 14


 742 0032 04D1     		bne	.L87
 743              		.loc 1 307 0
 744 0034 03B0     		add	sp, sp, #12
 745              		.cfi_remember_state
 746              		.cfi_def_cfa_offset 12
 747              		@ sp needed
 748 0036 BDE83040 		pop	{r4, r5, lr}
 749              		.cfi_restore 14
 750              		.cfi_restore 5
 751              		.cfi_restore 4
 752              		.cfi_def_cfa_offset 0
 753              		.loc 1 306 0
 754 003a FFF7FEBF 		b	ircomPause
 755              	.LVL73:
 756              	.L87:
 757              		.cfi_restore_state
 758 003e FFF7FEFF 		bl	__stack_chk_fail
 759              	.LVL74:
 760              	.L89:
 761 0042 00BF     		.align	2
 762              	.L88:
 763 0044 00000000 		.word	__stack_chk_guard
 764 0048 00000000 		.word	GPTD14
 765 004c 00000000 		.word	ircomReceiveData
 766 0050 00000000 		.word	ircomData
 767 0054 000080BF 		.word	-1082130432
 768              		.cfi_endproc
 769              	.LFE265:
 770              		.size	ircomListen, .-ircomListen
 771              		.section	.text.ircomReceiveWord,"ax",%progbits
 772              		.align	1
 773              		.p2align 4,,15
 774              		.global	ircomReceiveWord
 775              		.syntax unified
 776              		.thumb
 777              		.thumb_func
 778              		.fpu fpv4-sp-d16
 779              		.type	ircomReceiveWord, %function
 780              	ircomReceiveWord:
 781              	.LFB261:
 782              		.loc 1 83 0
 783              		.cfi_startproc
 784              		@ args = 0, pretend = 0, frame = 8
 785              		@ frame_needed = 0, uses_anonymous_args = 0
 786 0000 70B5     		push	{r4, r5, r6, lr}
 787              		.cfi_def_cfa_offset 16
 788              		.cfi_offset 4, -16
 789              		.cfi_offset 5, -12
 790              		.cfi_offset 6, -8
 791              		.cfi_offset 14, -4
 792 0002 354D     		ldr	r5, .L110
 793 0004 82B0     		sub	sp, sp, #8
 794              		.cfi_def_cfa_offset 24
 795              		.loc 1 83 0
 796 0006 2B68     		ldr	r3, [r5]
 797 0008 0193     		str	r3, [sp, #4]
 798              		.loc 1 85 0
ARM GAS  /tmp/ccDgCmrr.s 			page 15


 799 000a FFF7FEFF 		bl	ircom_is_array_filled
 800              	.LVL75:
 801 000e 28B9     		cbnz	r0, .L108
 802              	.L90:
 803              		.loc 1 148 0
 804 0010 019A     		ldr	r2, [sp, #4]
 805 0012 2B68     		ldr	r3, [r5]
 806 0014 9A42     		cmp	r2, r3
 807 0016 5DD1     		bne	.L107
 808 0018 02B0     		add	sp, sp, #8
 809              		.cfi_remember_state
 810              		.cfi_def_cfa_offset 16
 811              		@ sp needed
 812 001a 70BD     		pop	{r4, r5, r6, pc}
 813              	.L108:
 814              		.cfi_restore_state
 815              		.loc 1 89 0
 816 001c 0020     		movs	r0, #0
 817 001e FFF7FEFF 		bl	ircomReceiveDemodulate
 818              	.LVL76:
 819              		.loc 1 92 0
 820 0022 0028     		cmp	r0, #0
 821              	.LVL77:
 822              		.loc 1 95 0
 823 0024 2D4C     		ldr	r4, .L110+4
 824              		.loc 1 92 0
 825 0026 41DB     		blt	.L109
 826              		.loc 1 112 0
 827 0028 636A     		ldr	r3, [r4, #36]
 828 002a E218     		adds	r2, r4, r3
 829 002c C0B2     		uxtb	r0, r0
 830 002e 0133     		adds	r3, r3, #1
 831 0030 6362     		str	r3, [r4, #36]
 832 0032 1073     		strb	r0, [r2, #12]
 833              		.loc 1 115 0
 834 0034 636A     		ldr	r3, [r4, #36]
 835 0036 092B     		cmp	r3, #9
 836 0038 EADD     		ble	.L90
 837              	.LBB27:
 838              	.LBB28:
 839              	.LBB29:
 840              	.LBB30:
 841              	.LBB31:
 842              		.loc 1 274 0
 843 003a 0021     		movs	r1, #0
 844              		.loc 1 275 0
 845 003c 0B46     		mov	r3, r1
 846              	.L98:
 847              	.LVL78:
 848              		.loc 1 277 0
 849 003e E218     		adds	r2, r4, r3
 850              		.loc 1 275 0
 851 0040 0133     		adds	r3, r3, #1
 852              	.LVL79:
 853              		.loc 1 277 0
 854 0042 127B     		ldrb	r2, [r2, #12]	@ zero_extendqisi2
 855 0044 012A     		cmp	r2, #1
ARM GAS  /tmp/ccDgCmrr.s 			page 16


 856              		.loc 1 278 0
 857 0046 08BF     		it	eq
 858 0048 0131     		addeq	r1, r1, #1
 859              	.LVL80:
 860              		.loc 1 275 0
 861 004a 082B     		cmp	r3, #8
 862 004c F7D1     		bne	.L98
 863              	.LVL81:
 864              		.loc 1 280 0
 865 004e 227D     		ldrb	r2, [r4, #20]	@ zero_extendqisi2
 866 0050 637D     		ldrb	r3, [r4, #21]	@ zero_extendqisi2
 867 0052 03EB4203 		add	r3, r3, r2, lsl #1
 868              		.loc 1 283 0
 869 0056 1944     		add	r1, r1, r3
 870              	.LBE31:
 871              	.LBE30:
 872              		.loc 1 118 0
 873 0058 01F00301 		and	r1, r1, #3
 874              		.loc 1 121 0
 875 005c 0123     		movs	r3, #1
 876              		.loc 1 122 0
 877 005e 0026     		movs	r6, #0
 878              		.loc 1 118 0
 879 0060 A160     		str	r1, [r4, #8]
 880              		.loc 1 121 0
 881 0062 6360     		str	r3, [r4, #4]
 882              		.loc 1 122 0
 883 0064 2660     		str	r6, [r4]
 884              		.loc 1 123 0
 885 0066 2662     		str	r6, [r4, #32]
 886              		.loc 1 125 0
 887 0068 D4ED067A 		vldr.32	s15, [r4, #24]
 888 006c FDEEE77A 		vcvt.s32.f32	s15, s15
 889 0070 17EE900A 		vmov	r0, s15	@ int
 890 0074 FFF7FEFF 		bl	ircomEstimateDistanceNew
 891              	.LVL82:
 892 0078 84ED060A 		vstr.32	s0, [r4, #24]
 893              		.loc 1 126 0
 894 007c A06A     		ldr	r0, [r4, #40]
 895 007e FFF7FEFF 		bl	ircomEstimateDirection
 896              	.LVL83:
 897              		.loc 1 129 0
 898 0082 1748     		ldr	r0, .L110+8
 899              		.loc 1 126 0
 900 0084 84ED070A 		vstr.32	s0, [r4, #28]
 901              		.loc 1 129 0
 902 0088 FFF7FEFF 		bl	ircomBin2Int
 903              	.LVL84:
 904              		.loc 1 130 0
 905 008c 94ED060A 		vldr.32	s0, [r4, #24]
 906 0090 D4ED070A 		vldr.32	s1, [r4, #28]
 907 0094 A16A     		ldr	r1, [r4, #40]
 908 0096 A268     		ldr	r2, [r4, #8]
 909 0098 FFF7FEFF 		bl	ircomPushMessage
 910              	.LVL85:
 911              		.loc 1 138 0
 912 009c FFF7FEFF 		bl	ircomEnableProximity
ARM GAS  /tmp/ccDgCmrr.s 			page 17


 913              	.LVL86:
 914              		.loc 1 141 0
 915 00a0 E36A     		ldr	r3, [r4, #44]
 916 00a2 012B     		cmp	r3, #1
 917 00a4 0DD0     		beq	.L99
 918              	.L106:
 919              		.loc 1 144 0
 920 00a6 0F4B     		ldr	r3, .L110+12
 921 00a8 5E60     		str	r6, [r3, #4]
 922 00aa B1E7     		b	.L90
 923              	.L109:
 924              	.LBE29:
 925              	.LBE28:
 926              	.LBE27:
 927              		.loc 1 95 0
 928 00ac 0123     		movs	r3, #1
 929              		.loc 1 97 0
 930 00ae 0026     		movs	r6, #0
 931              		.loc 1 95 0
 932 00b0 6360     		str	r3, [r4, #4]
 933              		.loc 1 96 0
 934 00b2 A360     		str	r3, [r4, #8]
 935              		.loc 1 97 0
 936 00b4 2660     		str	r6, [r4]
 937              		.loc 1 98 0
 938 00b6 2662     		str	r6, [r4, #32]
 939              		.loc 1 101 0
 940 00b8 FFF7FEFF 		bl	ircomEnableProximity
 941              	.LVL87:
 942              		.loc 1 104 0
 943 00bc E36A     		ldr	r3, [r4, #44]
 944 00be 012B     		cmp	r3, #1
 945 00c0 F1D1     		bne	.L106
 946              	.L99:
 947              		.loc 1 105 0
 948 00c2 019A     		ldr	r2, [sp, #4]
 949 00c4 2B68     		ldr	r3, [r5]
 950 00c6 9A42     		cmp	r2, r3
 951 00c8 04D1     		bne	.L107
 952              		.loc 1 148 0
 953 00ca 02B0     		add	sp, sp, #8
 954              		.cfi_remember_state
 955              		.cfi_def_cfa_offset 16
 956              		@ sp needed
 957 00cc BDE87040 		pop	{r4, r5, r6, lr}
 958              		.cfi_restore 14
 959              		.cfi_restore 6
 960              		.cfi_restore 5
 961              		.cfi_restore 4
 962              		.cfi_def_cfa_offset 0
 963              		.loc 1 105 0
 964 00d0 FFF7FEBF 		b	ircomListen
 965              	.LVL88:
 966              	.L107:
 967              		.cfi_restore_state
 968              		.loc 1 148 0
 969 00d4 FFF7FEFF 		bl	__stack_chk_fail
ARM GAS  /tmp/ccDgCmrr.s 			page 18


 970              	.LVL89:
 971              	.L111:
 972              		.align	2
 973              	.L110:
 974 00d8 00000000 		.word	__stack_chk_guard
 975 00dc 00000000 		.word	ircomReceiveData
 976 00e0 0C000000 		.word	ircomReceiveData+12
 977 00e4 00000000 		.word	ircomData
 978              		.cfi_endproc
 979              	.LFE261:
 980              		.size	ircomReceiveWord, .-ircomReceiveWord
 981              		.section	.text.ircomReceiveMain,"ax",%progbits
 982              		.align	1
 983              		.p2align 4,,15
 984              		.global	ircomReceiveMain
 985              		.syntax unified
 986              		.thumb
 987              		.thumb_func
 988              		.fpu fpv4-sp-d16
 989              		.type	ircomReceiveMain, %function
 990              	ircomReceiveMain:
 991              	.LFB259:
 992              		.loc 1 12 0
 993              		.cfi_startproc
 994              		@ args = 0, pretend = 0, frame = 8
 995              		@ frame_needed = 0, uses_anonymous_args = 0
 996 0000 10B5     		push	{r4, lr}
 997              		.cfi_def_cfa_offset 8
 998              		.cfi_offset 4, -8
 999              		.cfi_offset 14, -4
 1000 0002 134C     		ldr	r4, .L126
 1001              		.loc 1 14 0
 1002 0004 134B     		ldr	r3, .L126+4
 1003              		.loc 1 12 0
 1004 0006 2268     		ldr	r2, [r4]
 1005 0008 82B0     		sub	sp, sp, #8
 1006              		.cfi_def_cfa_offset 16
 1007              		.loc 1 12 0
 1008 000a 0192     		str	r2, [sp, #4]
 1009              		.loc 1 14 0
 1010 000c 1B6A     		ldr	r3, [r3, #32]
 1011 000e 53B1     		cbz	r3, .L114
 1012 0010 012B     		cmp	r3, #1
 1013 0012 0BD1     		bne	.L112
 1014              		.loc 1 19 0
 1015 0014 019A     		ldr	r2, [sp, #4]
 1016 0016 2368     		ldr	r3, [r4]
 1017 0018 9A42     		cmp	r2, r3
 1018 001a 16D1     		bne	.L124
 1019              		.loc 1 22 0
 1020 001c 02B0     		add	sp, sp, #8
 1021              		.cfi_remember_state
 1022              		.cfi_def_cfa_offset 8
 1023              		@ sp needed
 1024 001e BDE81040 		pop	{r4, lr}
 1025              		.cfi_restore 14
 1026              		.cfi_restore 4
ARM GAS  /tmp/ccDgCmrr.s 			page 19


 1027              		.cfi_def_cfa_offset 0
 1028              		.loc 1 19 0
 1029 0022 FFF7FEBF 		b	ircomReceiveWord
 1030              	.LVL90:
 1031              	.L114:
 1032              		.cfi_restore_state
 1033              	.LBB32:
 1034              	.LBB33:
 1035              		.loc 1 26 0
 1036 0026 FFF7FEFF 		bl	ircom_is_array_filled
 1037              	.LVL91:
 1038 002a 28B9     		cbnz	r0, .L125
 1039              	.L112:
 1040              	.LBE33:
 1041              	.LBE32:
 1042              		.loc 1 22 0
 1043 002c 019A     		ldr	r2, [sp, #4]
 1044 002e 2368     		ldr	r3, [r4]
 1045 0030 9A42     		cmp	r2, r3
 1046 0032 0AD1     		bne	.L124
 1047 0034 02B0     		add	sp, sp, #8
 1048              		.cfi_remember_state
 1049              		.cfi_def_cfa_offset 8
 1050              		@ sp needed
 1051 0036 10BD     		pop	{r4, pc}
 1052              	.L125:
 1053              		.cfi_restore_state
 1054              	.LBB36:
 1055              	.LBB34:
 1056 0038 019A     		ldr	r2, [sp, #4]
 1057 003a 2368     		ldr	r3, [r4]
 1058 003c 9A42     		cmp	r2, r3
 1059 003e 04D1     		bne	.L124
 1060              	.LBE34:
 1061              	.LBE36:
 1062 0040 02B0     		add	sp, sp, #8
 1063              		.cfi_remember_state
 1064              		.cfi_def_cfa_offset 8
 1065              		@ sp needed
 1066 0042 BDE81040 		pop	{r4, lr}
 1067              		.cfi_restore 14
 1068              		.cfi_restore 4
 1069              		.cfi_def_cfa_offset 0
 1070              	.LBB37:
 1071              	.LBB35:
 1072 0046 FFF7FEBF 		b	ircomReceiveListen.part.0
 1073              	.LVL92:
 1074              	.L124:
 1075              		.cfi_restore_state
 1076              	.LBE35:
 1077              	.LBE37:
 1078 004a FFF7FEFF 		bl	__stack_chk_fail
 1079              	.LVL93:
 1080              	.L127:
 1081 004e 00BF     		.align	2
 1082              	.L126:
 1083 0050 00000000 		.word	__stack_chk_guard
ARM GAS  /tmp/ccDgCmrr.s 			page 20


 1084 0054 00000000 		.word	ircomReceiveData
 1085              		.cfi_endproc
 1086              	.LFE259:
 1087              		.size	ircomReceiveMain, .-ircomReceiveMain
 1088              		.section	.text.ircomReceiveDone,"ax",%progbits
 1089              		.align	1
 1090              		.p2align 4,,15
 1091              		.global	ircomReceiveDone
 1092              		.syntax unified
 1093              		.thumb
 1094              		.thumb_func
 1095              		.fpu fpv4-sp-d16
 1096              		.type	ircomReceiveDone, %function
 1097              	ircomReceiveDone:
 1098              	.LFB266:
 1099              		.loc 1 310 0
 1100              		.cfi_startproc
 1101              		@ args = 0, pretend = 0, frame = 8
 1102              		@ frame_needed = 0, uses_anonymous_args = 0
 1103 0000 00B5     		push	{lr}
 1104              		.cfi_def_cfa_offset 4
 1105              		.cfi_offset 14, -4
 1106 0002 074B     		ldr	r3, .L132
 1107              		.loc 1 311 0
 1108 0004 074A     		ldr	r2, .L132+4
 1109              		.loc 1 310 0
 1110 0006 1968     		ldr	r1, [r3]
 1111 0008 83B0     		sub	sp, sp, #12
 1112              		.cfi_def_cfa_offset 16
 1113              		.loc 1 310 0
 1114 000a 0191     		str	r1, [sp, #4]
 1115              		.loc 1 311 0
 1116 000c 5068     		ldr	r0, [r2, #4]
 1117              		.loc 1 312 0
 1118 000e 019A     		ldr	r2, [sp, #4]
 1119 0010 1B68     		ldr	r3, [r3]
 1120 0012 9A42     		cmp	r2, r3
 1121 0014 02D1     		bne	.L131
 1122 0016 03B0     		add	sp, sp, #12
 1123              		.cfi_remember_state
 1124              		.cfi_def_cfa_offset 4
 1125              		@ sp needed
 1126 0018 5DF804FB 		ldr	pc, [sp], #4
 1127              	.L131:
 1128              		.cfi_restore_state
 1129 001c FFF7FEFF 		bl	__stack_chk_fail
 1130              	.LVL94:
 1131              	.L133:
 1132              		.align	2
 1133              	.L132:
 1134 0020 00000000 		.word	__stack_chk_guard
 1135 0024 00000000 		.word	ircomReceiveData
 1136              		.cfi_endproc
 1137              	.LFE266:
 1138              		.size	ircomReceiveDone, .-ircomReceiveDone
 1139              		.section	.text.ircomIsReceiving,"ax",%progbits
 1140              		.align	1
ARM GAS  /tmp/ccDgCmrr.s 			page 21


 1141              		.p2align 4,,15
 1142              		.global	ircomIsReceiving
 1143              		.syntax unified
 1144              		.thumb
 1145              		.thumb_func
 1146              		.fpu fpv4-sp-d16
 1147              		.type	ircomIsReceiving, %function
 1148              	ircomIsReceiving:
 1149              	.LFB267:
 1150              		.loc 1 314 0
 1151              		.cfi_startproc
 1152              		@ args = 0, pretend = 0, frame = 8
 1153              		@ frame_needed = 0, uses_anonymous_args = 0
 1154 0000 00B5     		push	{lr}
 1155              		.cfi_def_cfa_offset 4
 1156              		.cfi_offset 14, -4
 1157 0002 0A4B     		ldr	r3, .L138
 1158              		.loc 1 315 0
 1159 0004 0A4A     		ldr	r2, .L138+4
 1160              		.loc 1 314 0
 1161 0006 1968     		ldr	r1, [r3]
 1162 0008 83B0     		sub	sp, sp, #12
 1163              		.cfi_def_cfa_offset 16
 1164              		.loc 1 314 0
 1165 000a 0191     		str	r1, [sp, #4]
 1166              		.loc 1 315 0
 1167 000c 1068     		ldr	r0, [r2]
 1168              		.loc 1 320 0
 1169 000e 019A     		ldr	r2, [sp, #4]
 1170 0010 1B68     		ldr	r3, [r3]
 1171 0012 A0F10100 		sub	r0, #1
 1172 0016 B0FA80F0 		clz	r0, r0
 1173 001a 9A42     		cmp	r2, r3
 1174 001c 4FEA5010 		lsr	r0, r0, #5
 1175 0020 02D1     		bne	.L137
 1176 0022 03B0     		add	sp, sp, #12
 1177              		.cfi_remember_state
 1178              		.cfi_def_cfa_offset 4
 1179              		@ sp needed
 1180 0024 5DF804FB 		ldr	pc, [sp], #4
 1181              	.L137:
 1182              		.cfi_restore_state
 1183 0028 FFF7FEFF 		bl	__stack_chk_fail
 1184              	.LVL95:
 1185              	.L139:
 1186              		.align	2
 1187              	.L138:
 1188 002c 00000000 		.word	__stack_chk_guard
 1189 0030 00000000 		.word	ircomReceiveData
 1190              		.cfi_endproc
 1191              	.LFE267:
 1192              		.size	ircomIsReceiving, .-ircomIsReceiving
 1193              		.section	.text.ircomIsListening,"ax",%progbits
 1194              		.align	1
 1195              		.p2align 4,,15
 1196              		.global	ircomIsListening
 1197              		.syntax unified
ARM GAS  /tmp/ccDgCmrr.s 			page 22


 1198              		.thumb
 1199              		.thumb_func
 1200              		.fpu fpv4-sp-d16
 1201              		.type	ircomIsListening, %function
 1202              	ircomIsListening:
 1203              	.LFB268:
 1204              		.loc 1 322 0
 1205              		.cfi_startproc
 1206              		@ args = 0, pretend = 0, frame = 8
 1207              		@ frame_needed = 0, uses_anonymous_args = 0
 1208 0000 00B5     		push	{lr}
 1209              		.cfi_def_cfa_offset 4
 1210              		.cfi_offset 14, -4
 1211 0002 0A4B     		ldr	r3, .L144
 1212              		.loc 1 323 0
 1213 0004 0A4A     		ldr	r2, .L144+4
 1214              		.loc 1 322 0
 1215 0006 1968     		ldr	r1, [r3]
 1216 0008 83B0     		sub	sp, sp, #12
 1217              		.cfi_def_cfa_offset 16
 1218              		.loc 1 322 0
 1219 000a 0191     		str	r1, [sp, #4]
 1220              		.loc 1 323 0
 1221 000c 5068     		ldr	r0, [r2, #4]
 1222              		.loc 1 327 0
 1223 000e 019A     		ldr	r2, [sp, #4]
 1224 0010 1B68     		ldr	r3, [r3]
 1225 0012 A0F10100 		sub	r0, #1
 1226 0016 B0FA80F0 		clz	r0, r0
 1227 001a 9A42     		cmp	r2, r3
 1228 001c 4FEA5010 		lsr	r0, r0, #5
 1229 0020 02D1     		bne	.L143
 1230 0022 03B0     		add	sp, sp, #12
 1231              		.cfi_remember_state
 1232              		.cfi_def_cfa_offset 4
 1233              		@ sp needed
 1234 0024 5DF804FB 		ldr	pc, [sp], #4
 1235              	.L143:
 1236              		.cfi_restore_state
 1237 0028 FFF7FEFF 		bl	__stack_chk_fail
 1238              	.LVL96:
 1239              	.L145:
 1240              		.align	2
 1241              	.L144:
 1242 002c 00000000 		.word	__stack_chk_guard
 1243 0030 00000000 		.word	ircomData
 1244              		.cfi_endproc
 1245              	.LFE268:
 1246              		.size	ircomIsListening, .-ircomIsListening
 1247              		.section	.text.ircomStopListening,"ax",%progbits
 1248              		.align	1
 1249              		.p2align 4,,15
 1250              		.global	ircomStopListening
 1251              		.syntax unified
 1252              		.thumb
 1253              		.thumb_func
 1254              		.fpu fpv4-sp-d16
ARM GAS  /tmp/ccDgCmrr.s 			page 23


 1255              		.type	ircomStopListening, %function
 1256              	ircomStopListening:
 1257              	.LFB269:
 1258              		.loc 1 329 0
 1259              		.cfi_startproc
 1260              		@ args = 0, pretend = 0, frame = 8
 1261              		@ frame_needed = 0, uses_anonymous_args = 0
 1262 0000 30B5     		push	{r4, r5, lr}
 1263              		.cfi_def_cfa_offset 12
 1264              		.cfi_offset 4, -12
 1265              		.cfi_offset 5, -8
 1266              		.cfi_offset 14, -4
 1267 0002 0A4D     		ldr	r5, .L150
 1268              		.loc 1 331 0
 1269 0004 0A4B     		ldr	r3, .L150+4
 1270              		.loc 1 329 0
 1271 0006 2A68     		ldr	r2, [r5]
 1272 0008 83B0     		sub	sp, sp, #12
 1273              		.cfi_def_cfa_offset 24
 1274              		.loc 1 331 0
 1275 000a 0024     		movs	r4, #0
 1276              		.loc 1 329 0
 1277 000c 0192     		str	r2, [sp, #4]
 1278              		.loc 1 331 0
 1279 000e 5C60     		str	r4, [r3, #4]
 1280              		.loc 1 332 0
 1281 0010 1C60     		str	r4, [r3]
 1282              		.loc 1 333 0
 1283 0012 1C62     		str	r4, [r3, #32]
 1284              		.loc 1 336 0
 1285 0014 FFF7FEFF 		bl	ircomEnableProximity
 1286              	.LVL97:
 1287              		.loc 1 339 0
 1288 0018 064B     		ldr	r3, .L150+8
 1289 001a 5C60     		str	r4, [r3, #4]
 1290              		.loc 1 340 0
 1291 001c 019A     		ldr	r2, [sp, #4]
 1292 001e 2B68     		ldr	r3, [r5]
 1293 0020 9A42     		cmp	r2, r3
 1294 0022 01D1     		bne	.L149
 1295 0024 03B0     		add	sp, sp, #12
 1296              		.cfi_remember_state
 1297              		.cfi_def_cfa_offset 12
 1298              		@ sp needed
 1299 0026 30BD     		pop	{r4, r5, pc}
 1300              	.L149:
 1301              		.cfi_restore_state
 1302 0028 FFF7FEFF 		bl	__stack_chk_fail
 1303              	.LVL98:
 1304              	.L151:
 1305              		.align	2
 1306              	.L150:
 1307 002c 00000000 		.word	__stack_chk_guard
 1308 0030 00000000 		.word	ircomReceiveData
 1309 0034 00000000 		.word	ircomData
 1310              		.cfi_endproc
 1311              	.LFE269:
ARM GAS  /tmp/ccDgCmrr.s 			page 24


 1312              		.size	ircomStopListening, .-ircomStopListening
 1313              		.section	.bss.rs.11239,"aw",%nobits
 1314              		.align	2
 1315              		.set	.LANCHOR0,. + 0
 1316              		.type	rs.11239, %object
 1317              		.size	rs.11239, 128
 1318              	rs.11239:
 1319 0000 00000000 		.space	128
 1319      00000000 
 1319      00000000 
 1319      00000000 
 1319      00000000 
 1320              		.text
 1321              	.Letext0:
 1322              		.file 2 "/home/leander/uos_codes/epuck2_lab/Eclipse_e-puck2/Tools/gcc-arm-none-eabi-7-2017-q4-majo
 1323              		.file 3 "/home/leander/uos_codes/epuck2_lab/Eclipse_e-puck2/Tools/gcc-arm-none-eabi-7-2017-q4-majo
 1324              		.file 4 "/home/leander/uos_codes/epuck2_lab/Eclipse_e-puck2/Tools/gcc-arm-none-eabi-7-2017-q4-majo
 1325              		.file 5 "/home/leander/uos_codes/epuck2_lab/Eclipse_e-puck2/Tools/gcc-arm-none-eabi-7-2017-q4-majo
 1326              		.file 6 "/home/leander/uos_codes/epuck2_lab/Eclipse_e-puck2/Tools/gcc-arm-none-eabi-7-2017-q4-majo
 1327              		.file 7 "/home/leander/uos_codes/epuck2_lab/Eclipse_e-puck2/Tools/gcc-arm-none-eabi-7-2017-q4-majo
 1328              		.file 8 "../e-puck2_main-processor/ChibiOS//os/rt/ports/ARMCMx/compilers/GCC/chtypes.h"
 1329              		.file 9 "../e-puck2_main-processor/ChibiOS//os/rt/include/chsystypes.h"
 1330              		.file 10 "../e-puck2_main-processor/ChibiOS//os/rt/include/chschd.h"
 1331              		.file 11 "../e-puck2_main-processor/ChibiOS//os/ext/CMSIS/include/core_cm4.h"
 1332              		.file 12 "../e-puck2_main-processor/ChibiOS//os/ext/CMSIS/ST/system_stm32f4xx.h"
 1333              		.file 13 "../e-puck2_main-processor/ChibiOS//os/ext/CMSIS/ST/stm32f407xx.h"
 1334              		.file 14 "../e-puck2_main-processor/ChibiOS//os/rt/ports/ARMCMx/chcore.h"
 1335              		.file 15 "../e-puck2_main-processor/ChibiOS//os/rt/ports/ARMCMx/chcore_v7m.h"
 1336              		.file 16 "../e-puck2_main-processor/ChibiOS//os/rt/include/chdebug.h"
 1337              		.file 17 "../e-puck2_main-processor/ChibiOS//os/rt/include/chtm.h"
 1338              		.file 18 "../e-puck2_main-processor/ChibiOS//os/rt/include/chstats.h"
 1339              		.file 19 "../e-puck2_main-processor/ChibiOS//os/rt/include/chsem.h"
 1340              		.file 20 "../e-puck2_main-processor/ChibiOS//os/rt/include/chmtx.h"
 1341              		.file 21 "../e-puck2_main-processor/ChibiOS//os/rt/include/chregistry.h"
 1342              		.file 22 "../e-puck2_main-processor/ChibiOS//os/rt/include/chevents.h"
 1343              		.file 23 "../e-puck2_main-processor/ChibiOS//os/rt/include/chqueues.h"
 1344              		.file 24 "../e-puck2_main-processor/ChibiOS//os/hal/ports/STM32/STM32F4xx/stm32_dma.h"
 1345              		.file 25 "../e-puck2_main-processor/ChibiOS//os/hal/include/hal_ioblock.h"
 1346              		.file 26 "../e-puck2_main-processor/ChibiOS//os/hal/ports/STM32/LLD/GPIOv2/pal_lld.h"
 1347              		.file 27 "../e-puck2_main-processor/ChibiOS//os/hal/include/adc.h"
 1348              		.file 28 "../e-puck2_main-processor/ChibiOS//os/hal/ports/STM32/STM32F4xx/adc_lld.h"
 1349              		.file 29 "../e-puck2_main-processor/ChibiOS//os/hal/include/can.h"
 1350              		.file 30 "../e-puck2_main-processor/ChibiOS//os/hal/ports/STM32/LLD/can_lld.h"
 1351              		.file 31 "../e-puck2_main-processor/ChibiOS//os/hal/include/dac.h"
 1352              		.file 32 "../e-puck2_main-processor/ChibiOS//os/hal/ports/STM32/LLD/DACv1/dac_lld.h"
 1353              		.file 33 "../e-puck2_main-processor/ChibiOS//os/hal/include/ext.h"
 1354              		.file 34 "../e-puck2_main-processor/ChibiOS//os/hal/ports/STM32/LLD/ext_lld.h"
 1355              		.file 35 "../e-puck2_main-processor/ChibiOS//os/hal/include/gpt.h"
 1356              		.file 36 "../e-puck2_main-processor/ChibiOS//os/hal/ports/STM32/LLD/TIMv1/gpt_lld.h"
 1357              		.file 37 "../e-puck2_main-processor/ChibiOS//os/hal/ports/STM32/LLD/TIMv1/stm32_tim.h"
 1358              		.file 38 "../e-puck2_main-processor/ChibiOS//os/hal/include/i2c.h"
 1359              		.file 39 "../e-puck2_main-processor/ChibiOS//os/hal/ports/STM32/LLD/I2Cv1/i2c_lld.h"
 1360              		.file 40 "../e-puck2_main-processor/ChibiOS//os/hal/include/i2s.h"
 1361              		.file 41 "../e-puck2_main-processor/ChibiOS//os/hal/ports/STM32/LLD/SPIv1/i2s_lld.h"
 1362              		.file 42 "../e-puck2_main-processor/ChibiOS//os/hal/include/pwm.h"
 1363              		.file 43 "../e-puck2_main-processor/ChibiOS//os/hal/ports/STM32/LLD/TIMv1/pwm_lld.h"
 1364              		.file 44 "../e-puck2_main-processor/ChibiOS//os/hal/include/serial.h"
ARM GAS  /tmp/ccDgCmrr.s 			page 25


 1365              		.file 45 "../e-puck2_main-processor/ChibiOS//os/hal/ports/STM32/LLD/USARTv1/serial_lld.h"
 1366              		.file 46 "../e-puck2_main-processor/ChibiOS//os/hal/include/sdc.h"
 1367              		.file 47 "../e-puck2_main-processor/ChibiOS//os/hal/ports/STM32/LLD/sdc_lld.h"
 1368              		.file 48 "../e-puck2_main-processor/ChibiOS//os/hal/include/spi.h"
 1369              		.file 49 "../e-puck2_main-processor/ChibiOS//os/hal/ports/STM32/LLD/SPIv1/spi_lld.h"
 1370              		.file 50 "../e-puck2_main-processor/ChibiOS//os/hal/include/usb.h"
 1371              		.file 51 "../e-puck2_main-processor/ChibiOS//os/hal/ports/STM32/LLD/OTGv1/usb_lld.h"
 1372              		.file 52 "../e-puck2_main-processor/ChibiOS//os/hal/ports/STM32/LLD/OTGv1/stm32_otg.h"
 1373              		.file 53 "../e-puck2_main-processor/src/ircom/ircom.h"
 1374              		.file 54 "../e-puck2_main-processor/src/ircom/ircomTools.h"
 1375              		.file 55 "../e-puck2_main-processor/src/ircom/ircomMessages.h"