ARM GAS  /tmp/ccMMlNdP.s 			page 1


   1              		.cpu cortex-m4
   2              		.eabi_attribute 27, 1
   3              		.eabi_attribute 28, 1
   4              		.eabi_attribute 20, 1
   5              		.eabi_attribute 21, 1
   6              		.eabi_attribute 23, 3
   7              		.eabi_attribute 24, 1
   8              		.eabi_attribute 25, 1
   9              		.eabi_attribute 26, 1
  10              		.eabi_attribute 30, 2
  11              		.eabi_attribute 34, 1
  12              		.eabi_attribute 18, 4
  13              		.file	"ircomMessages.c"
  14              		.text
  15              	.Ltext0:
  16              		.cfi_sections	.debug_frame
  17              		.section	.text.ircomFlushMessages,"ax",%progbits
  18              		.align	1
  19              		.p2align 4,,15
  20              		.global	ircomFlushMessages
  21              		.syntax unified
  22              		.thumb
  23              		.thumb_func
  24              		.fpu fpv4-sp-d16
  25              		.type	ircomFlushMessages, %function
  26              	ircomFlushMessages:
  27              	.LFB0:
  28              		.file 1 "../e-puck2_main-processor/src/ircom/ircomMessages.c"
  29              		.loc 1 27 0
  30              		.cfi_startproc
  31              		@ args = 0, pretend = 0, frame = 8
  32              		@ frame_needed = 0, uses_anonymous_args = 0
  33 0000 00B5     		push	{lr}
  34              		.cfi_def_cfa_offset 4
  35              		.cfi_offset 14, -4
  36 0002 0A49     		ldr	r1, .L6
  37              		.loc 1 28 0
  38 0004 0A4B     		ldr	r3, .L6+4
  39              		.loc 1 27 0
  40 0006 0A68     		ldr	r2, [r1]
  41 0008 83B0     		sub	sp, sp, #12
  42              		.cfi_def_cfa_offset 16
  43              		.loc 1 27 0
  44 000a 0192     		str	r2, [sp, #4]
  45              		.loc 1 28 0
  46 000c 0022     		movs	r2, #0
  47 000e C3F8A021 		str	r2, [r3, #416]
  48              		.loc 1 29 0
  49 0012 C3F89821 		str	r2, [r3, #408]
  50              		.loc 1 30 0
  51 0016 C3F89C21 		str	r2, [r3, #412]
  52              		.loc 1 31 0
  53 001a 019A     		ldr	r2, [sp, #4]
  54 001c 0B68     		ldr	r3, [r1]
  55 001e 9A42     		cmp	r2, r3
  56 0020 02D1     		bne	.L5
  57 0022 03B0     		add	sp, sp, #12
ARM GAS  /tmp/ccMMlNdP.s 			page 2


  58              		.cfi_remember_state
  59              		.cfi_def_cfa_offset 4
  60              		@ sp needed
  61 0024 5DF804FB 		ldr	pc, [sp], #4
  62              	.L5:
  63              		.cfi_restore_state
  64 0028 FFF7FEFF 		bl	__stack_chk_fail
  65              	.LVL0:
  66              	.L7:
  67              		.align	2
  68              	.L6:
  69 002c 00000000 		.word	__stack_chk_guard
  70 0030 00000000 		.word	ircomData
  71              		.cfi_endproc
  72              	.LFE0:
  73              		.size	ircomFlushMessages, .-ircomFlushMessages
  74              		.section	.text.ircomPushMessage,"ax",%progbits
  75              		.align	1
  76              		.p2align 4,,15
  77              		.global	ircomPushMessage
  78              		.syntax unified
  79              		.thumb
  80              		.thumb_func
  81              		.fpu fpv4-sp-d16
  82              		.type	ircomPushMessage, %function
  83              	ircomPushMessage:
  84              	.LFB1:
  85              		.loc 1 34 0
  86              		.cfi_startproc
  87              		@ args = 0, pretend = 0, frame = 8
  88              		@ frame_needed = 0, uses_anonymous_args = 0
  89              	.LVL1:
  90 0000 70B5     		push	{r4, r5, r6, lr}
  91              		.cfi_def_cfa_offset 16
  92              		.cfi_offset 4, -16
  93              		.cfi_offset 5, -12
  94              		.cfi_offset 6, -8
  95              		.cfi_offset 14, -4
  96 0002 2C4C     		ldr	r4, .L15
  97              		.loc 1 35 0
  98 0004 2C4B     		ldr	r3, .L15+4
  99              		.loc 1 34 0
 100 0006 2568     		ldr	r5, [r4]
 101 0008 82B0     		sub	sp, sp, #8
 102              		.cfi_def_cfa_offset 24
 103              		.loc 1 34 0
 104 000a 0195     		str	r5, [sp, #4]
 105              		.loc 1 35 0
 106 000c D3F89C61 		ldr	r6, [r3, #412]
 107              		.loc 1 41 0
 108 0010 2A4D     		ldr	r5, .L15+8
 109              		.loc 1 35 0
 110 0012 06EB8606 		add	r6, r6, r6, lsl #2
 111 0016 03EB8606 		add	r6, r3, r6, lsl #2
 112 001a B060     		str	r0, [r6, #8]
 113              		.loc 1 36 0
 114 001c D3F89C01 		ldr	r0, [r3, #412]
ARM GAS  /tmp/ccMMlNdP.s 			page 3


 115              	.LVL2:
 116 0020 00EB8000 		add	r0, r0, r0, lsl #2
 117 0024 03EB8000 		add	r0, r3, r0, lsl #2
 118 0028 80ED030A 		vstr.32	s0, [r0, #12]
 119              	.LVL3:
 120              		.loc 1 37 0
 121 002c D3F89C01 		ldr	r0, [r3, #412]
 122 0030 00EB8000 		add	r0, r0, r0, lsl #2
 123 0034 03EB8000 		add	r0, r3, r0, lsl #2
 124 0038 C0ED040A 		vstr.32	s1, [r0, #16]
 125              		.loc 1 38 0
 126 003c D3F89C01 		ldr	r0, [r3, #412]
 127 0040 00EB8000 		add	r0, r0, r0, lsl #2
 128 0044 03EB8000 		add	r0, r3, r0, lsl #2
 129 0048 4161     		str	r1, [r0, #20]
 130              		.loc 1 39 0
 131 004a D3F89C11 		ldr	r1, [r3, #412]
 132              	.LVL4:
 133 004e 01EB8101 		add	r1, r1, r1, lsl #2
 134 0052 03EB8101 		add	r1, r3, r1, lsl #2
 135 0056 8A61     		str	r2, [r1, #24]
 136              	.LVL5:
 137              		.loc 1 41 0
 138 0058 D3F89C11 		ldr	r1, [r3, #412]
 139 005c 0131     		adds	r1, r1, #1
 140 005e 85FB0120 		smull	r2, r0, r5, r1
 141              	.LVL6:
 142 0062 CA17     		asrs	r2, r1, #31
 143 0064 C2EBE002 		rsb	r2, r2, r0, asr #3
 144 0068 02EB8202 		add	r2, r2, r2, lsl #2
 145 006c A1EB8202 		sub	r2, r1, r2, lsl #2
 146 0070 C3F89C21 		str	r2, [r3, #412]
 147              		.loc 1 44 0
 148 0074 D3F8A021 		ldr	r2, [r3, #416]
 149 0078 142A     		cmp	r2, #20
 150 007a 0AD0     		beq	.L13
 151              		.loc 1 50 0
 152 007c D3F8A021 		ldr	r2, [r3, #416]
 153 0080 0132     		adds	r2, r2, #1
 154 0082 C3F8A021 		str	r2, [r3, #416]
 155              	.L8:
 156              		.loc 1 52 0
 157 0086 019A     		ldr	r2, [sp, #4]
 158 0088 2368     		ldr	r3, [r4]
 159 008a 9A42     		cmp	r2, r3
 160 008c 10D1     		bne	.L14
 161 008e 02B0     		add	sp, sp, #8
 162              		.cfi_remember_state
 163              		.cfi_def_cfa_offset 16
 164              		@ sp needed
 165 0090 70BD     		pop	{r4, r5, r6, pc}
 166              	.L13:
 167              		.cfi_restore_state
 168              		.loc 1 46 0
 169 0092 D3F89811 		ldr	r1, [r3, #408]
 170 0096 0131     		adds	r1, r1, #1
 171 0098 85FB0125 		smull	r2, r5, r5, r1
ARM GAS  /tmp/ccMMlNdP.s 			page 4


 172 009c CA17     		asrs	r2, r1, #31
 173 009e C2EBE505 		rsb	r5, r2, r5, asr #3
 174 00a2 05EB8505 		add	r5, r5, r5, lsl #2
 175 00a6 A1EB8505 		sub	r5, r1, r5, lsl #2
 176 00aa C3F89851 		str	r5, [r3, #408]
 177 00ae EAE7     		b	.L8
 178              	.L14:
 179              		.loc 1 52 0
 180 00b0 FFF7FEFF 		bl	__stack_chk_fail
 181              	.LVL7:
 182              	.L16:
 183              		.align	2
 184              	.L15:
 185 00b4 00000000 		.word	__stack_chk_guard
 186 00b8 00000000 		.word	ircomData
 187 00bc 67666666 		.word	1717986919
 188              		.cfi_endproc
 189              	.LFE1:
 190              		.size	ircomPushMessage, .-ircomPushMessage
 191              		.section	.text.ircomPopMessage,"ax",%progbits
 192              		.align	1
 193              		.p2align 4,,15
 194              		.global	ircomPopMessage
 195              		.syntax unified
 196              		.thumb
 197              		.thumb_func
 198              		.fpu fpv4-sp-d16
 199              		.type	ircomPopMessage, %function
 200              	ircomPopMessage:
 201              	.LFB2:
 202              		.loc 1 55 0
 203              		.cfi_startproc
 204              		@ args = 0, pretend = 0, frame = 8
 205              		@ frame_needed = 0, uses_anonymous_args = 0
 206              	.LVL8:
 207 0000 10B5     		push	{r4, lr}
 208              		.cfi_def_cfa_offset 8
 209              		.cfi_offset 4, -8
 210              		.cfi_offset 14, -4
 211 0002 284C     		ldr	r4, .L24
 212              		.loc 1 56 0
 213 0004 284B     		ldr	r3, .L24+4
 214              		.loc 1 55 0
 215 0006 2268     		ldr	r2, [r4]
 216 0008 82B0     		sub	sp, sp, #8
 217              		.cfi_def_cfa_offset 16
 218              		.loc 1 55 0
 219 000a 0192     		str	r2, [sp, #4]
 220              		.loc 1 56 0
 221 000c D3F8A021 		ldr	r2, [r3, #416]
 222 0010 002A     		cmp	r2, #0
 223 0012 41D0     		beq	.L22
 224              		.loc 1 63 0
 225 0014 D3F89811 		ldr	r1, [r3, #408]
 226              		.loc 1 69 0
 227 0018 244A     		ldr	r2, .L24+8
 228              		.loc 1 63 0
ARM GAS  /tmp/ccMMlNdP.s 			page 5


 229 001a 01EB8101 		add	r1, r1, r1, lsl #2
 230 001e 03EB8101 		add	r1, r3, r1, lsl #2
 231 0022 8968     		ldr	r1, [r1, #8]
 232 0024 0160     		str	r1, [r0]
 233              		.loc 1 64 0
 234 0026 D3F89811 		ldr	r1, [r3, #408]
 235 002a 01EB8101 		add	r1, r1, r1, lsl #2
 236 002e 03EB8101 		add	r1, r3, r1, lsl #2
 237 0032 C968     		ldr	r1, [r1, #12]	@ float
 238 0034 4160     		str	r1, [r0, #4]	@ float
 239              		.loc 1 65 0
 240 0036 D3F89811 		ldr	r1, [r3, #408]
 241 003a 01EB8101 		add	r1, r1, r1, lsl #2
 242 003e 03EB8101 		add	r1, r3, r1, lsl #2
 243 0042 0969     		ldr	r1, [r1, #16]	@ float
 244 0044 8160     		str	r1, [r0, #8]	@ float
 245              		.loc 1 66 0
 246 0046 D3F89811 		ldr	r1, [r3, #408]
 247 004a 01EB8101 		add	r1, r1, r1, lsl #2
 248 004e 03EB8101 		add	r1, r3, r1, lsl #2
 249 0052 4969     		ldr	r1, [r1, #20]
 250 0054 C160     		str	r1, [r0, #12]
 251              		.loc 1 67 0
 252 0056 D3F89811 		ldr	r1, [r3, #408]
 253 005a 01EB8101 		add	r1, r1, r1, lsl #2
 254 005e 03EB8101 		add	r1, r3, r1, lsl #2
 255 0062 8969     		ldr	r1, [r1, #24]
 256 0064 0161     		str	r1, [r0, #16]
 257              		.loc 1 69 0
 258 0066 D3F89811 		ldr	r1, [r3, #408]
 259 006a 0131     		adds	r1, r1, #1
 260 006c 82FB0120 		smull	r2, r0, r2, r1
 261              	.LVL9:
 262 0070 CA17     		asrs	r2, r1, #31
 263 0072 C2EBE002 		rsb	r2, r2, r0, asr #3
 264 0076 02EB8202 		add	r2, r2, r2, lsl #2
 265 007a A1EB8202 		sub	r2, r1, r2, lsl #2
 266 007e C3F89821 		str	r2, [r3, #408]
 267              		.loc 1 70 0
 268 0082 D3F8A021 		ldr	r2, [r3, #416]
 269 0086 013A     		subs	r2, r2, #1
 270 0088 C3F8A021 		str	r2, [r3, #416]
 271              	.L17:
 272              		.loc 1 71 0
 273 008c 019A     		ldr	r2, [sp, #4]
 274 008e 2368     		ldr	r3, [r4]
 275 0090 9A42     		cmp	r2, r3
 276 0092 05D1     		bne	.L23
 277 0094 02B0     		add	sp, sp, #8
 278              		.cfi_remember_state
 279              		.cfi_def_cfa_offset 8
 280              		@ sp needed
 281 0096 10BD     		pop	{r4, pc}
 282              	.LVL10:
 283              	.L22:
 284              		.cfi_restore_state
 285              		.loc 1 58 0
ARM GAS  /tmp/ccMMlNdP.s 			page 6


 286 0098 4FF0FF33 		mov	r3, #-1
 287 009c 0361     		str	r3, [r0, #16]
 288              		.loc 1 59 0
 289 009e F5E7     		b	.L17
 290              	.LVL11:
 291              	.L23:
 292              		.loc 1 71 0
 293 00a0 FFF7FEFF 		bl	__stack_chk_fail
 294              	.LVL12:
 295              	.L25:
 296              		.align	2
 297              	.L24:
 298 00a4 00000000 		.word	__stack_chk_guard
 299 00a8 00000000 		.word	ircomData
 300 00ac 67666666 		.word	1717986919
 301              		.cfi_endproc
 302              	.LFE2:
 303              		.size	ircomPopMessage, .-ircomPopMessage
 304              		.text
 305              	.Letext0:
 306              		.file 2 "/home/leander/uos_codes/epuck2_lab/Eclipse_e-puck2/Tools/gcc-arm-none-eabi-7-2017-q4-majo
 307              		.file 3 "/home/leander/uos_codes/epuck2_lab/Eclipse_e-puck2/Tools/gcc-arm-none-eabi-7-2017-q4-majo
 308              		.file 4 "../e-puck2_main-processor/src/ircom/ircom.h"