ARM GAS  /tmp/ccqwoZT4.s 			page 1


   1              		.cpu cortex-m4
   2              		.eabi_attribute 27, 1
   3              		.eabi_attribute 28, 1
   4              		.eabi_attribute 20, 1
   5              		.eabi_attribute 21, 1
   6              		.eabi_attribute 23, 3
   7              		.eabi_attribute 24, 1
   8              		.eabi_attribute 25, 1
   9              		.eabi_attribute 26, 1
  10              		.eabi_attribute 30, 2
  11              		.eabi_attribute 34, 1
  12              		.eabi_attribute 18, 4
  13              		.file	"main.c"
  14              		.text
  15              	.Ltext0:
  16              		.cfi_sections	.debug_frame
  17              		.section	.text.init,"ax",%progbits
  18              		.align	1
  19              		.p2align 4,,15
  20              		.global	init
  21              		.syntax unified
  22              		.thumb
  23              		.thumb_func
  24              		.fpu fpv4-sp-d16
  25              		.type	init, %function
  26              	init:
  27              	.LFB259:
  28              		.file 1 "main.c"
  29              		.loc 1 75 0
  30              		.cfi_startproc
  31              		@ args = 0, pretend = 0, frame = 8
  32              		@ frame_needed = 0, uses_anonymous_args = 0
  33 0000 10B5     		push	{r4, lr}
  34              		.cfi_def_cfa_offset 8
  35              		.cfi_offset 4, -8
  36              		.cfi_offset 14, -4
  37 0002 134C     		ldr	r4, .L7
  38 0004 82B0     		sub	sp, sp, #8
  39              		.cfi_def_cfa_offset 16
  40              		.loc 1 75 0
  41 0006 2368     		ldr	r3, [r4]
  42 0008 0193     		str	r3, [sp, #4]
  43              		.loc 1 76 0
  44 000a FFF7FEFF 		bl	halInit
  45              	.LVL0:
  46              		.loc 1 77 0
  47 000e FFF7FEFF 		bl	chSysInit
  48              	.LVL1:
  49              		.loc 1 78 0
  50 0012 FFF7FEFF 		bl	mpu_init
  51              	.LVL2:
  52              		.loc 1 81 0
  53 0016 FFF7FEFF 		bl	clear_leds
  54              	.LVL3:
  55              		.loc 1 82 0
  56 001a FFF7FEFF 		bl	spi_comm_start
  57              	.LVL4:
ARM GAS  /tmp/ccqwoZT4.s 			page 2


  58              		.loc 1 85 0
  59 001e FFF7FEFF 		bl	motors_init
  60              	.LVL5:
  61              		.loc 1 88 0
  62 0022 FFF7FEFF 		bl	serial_start
  63              	.LVL6:
  64              		.loc 1 91 0
  65 0026 0B4A     		ldr	r2, .L7+4
  66 0028 0B49     		ldr	r1, .L7+8
  67 002a 0C48     		ldr	r0, .L7+12
  68 002c FFF7FEFF 		bl	messagebus_init
  69              	.LVL7:
  70              		.loc 1 92 0
  71 0030 0020     		movs	r0, #0
  72 0032 FFF7FEFF 		bl	proximity_start
  73              	.LVL8:
  74              		.loc 1 93 0
  75 0036 FFF7FEFF 		bl	calibrate_ir
  76              	.LVL9:
  77              		.loc 1 96 0
  78 003a 019A     		ldr	r2, [sp, #4]
  79 003c 2368     		ldr	r3, [r4]
  80 003e 9A42     		cmp	r2, r3
  81 0040 04D1     		bne	.L6
  82              		.loc 1 97 0
  83 0042 02B0     		add	sp, sp, #8
  84              		.cfi_remember_state
  85              		.cfi_def_cfa_offset 8
  86              		@ sp needed
  87 0044 BDE81040 		pop	{r4, lr}
  88              		.cfi_restore 14
  89              		.cfi_restore 4
  90              		.cfi_def_cfa_offset 0
  91              		.loc 1 96 0
  92 0048 FFF7FEBF 		b	VL53L0X_start
  93              	.LVL10:
  94              	.L6:
  95              		.cfi_restore_state
  96 004c FFF7FEFF 		bl	__stack_chk_fail
  97              	.LVL11:
  98              	.L8:
  99              		.align	2
 100              	.L7:
 101 0050 00000000 		.word	__stack_chk_guard
 102 0054 00000000 		.word	.LANCHOR0
 103 0058 00000000 		.word	.LANCHOR1
 104 005c 00000000 		.word	.LANCHOR2
 105              		.cfi_endproc
 106              	.LFE259:
 107              		.size	init, .-init
 108              		.section	.text.send_bt_values,"ax",%progbits
 109              		.align	1
 110              		.p2align 4,,15
 111              		.global	send_bt_values
 112              		.syntax unified
 113              		.thumb
 114              		.thumb_func
ARM GAS  /tmp/ccqwoZT4.s 			page 3


 115              		.fpu fpv4-sp-d16
 116              		.type	send_bt_values, %function
 117              	send_bt_values:
 118              	.LFB260:
 119              		.loc 1 99 0
 120              		.cfi_startproc
 121              		@ args = 0, pretend = 0, frame = 120
 122              		@ frame_needed = 0, uses_anonymous_args = 0
 123 0000 2DE9F04F 		push	{r4, r5, r6, r7, r8, r9, r10, fp, lr}
 124              		.cfi_def_cfa_offset 36
 125              		.cfi_offset 4, -36
 126              		.cfi_offset 5, -32
 127              		.cfi_offset 6, -28
 128              		.cfi_offset 7, -24
 129              		.cfi_offset 8, -20
 130              		.cfi_offset 9, -16
 131              		.cfi_offset 10, -12
 132              		.cfi_offset 11, -8
 133              		.cfi_offset 14, -4
 134 0004 2DED028B 		vpush.64	{d8}
 135              		.cfi_def_cfa_offset 44
 136              		.cfi_offset 80, -44
 137              		.cfi_offset 81, -40
 138 0008 284C     		ldr	r4, .L13
 139 000a ABB0     		sub	sp, sp, #172
 140              		.cfi_def_cfa_offset 216
 141              		.loc 1 99 0
 142 000c 2368     		ldr	r3, [r4]
 143 000e 2993     		str	r3, [sp, #164]
 144              		.loc 1 103 0
 145 0010 0020     		movs	r0, #0
 146 0012 FFF7FEFF 		bl	get_calibrated_prox
 147              	.LVL12:
 148 0016 0546     		mov	r5, r0
 149 0018 0120     		movs	r0, #1
 150 001a FFF7FEFF 		bl	get_calibrated_prox
 151              	.LVL13:
 152 001e 0646     		mov	r6, r0
 153 0020 0220     		movs	r0, #2
 154 0022 FFF7FEFF 		bl	get_calibrated_prox
 155              	.LVL14:
 156 0026 0F90     		str	r0, [sp, #60]
 157 0028 0320     		movs	r0, #3
 158 002a FFF7FEFF 		bl	get_calibrated_prox
 159              	.LVL15:
 160 002e 0746     		mov	r7, r0
 161 0030 0420     		movs	r0, #4
 162 0032 FFF7FEFF 		bl	get_calibrated_prox
 163              	.LVL16:
 164 0036 8046     		mov	r8, r0
 165 0038 0520     		movs	r0, #5
 166 003a FFF7FEFF 		bl	get_calibrated_prox
 167              	.LVL17:
 168 003e 8146     		mov	r9, r0
 169 0040 0620     		movs	r0, #6
 170 0042 FFF7FEFF 		bl	get_calibrated_prox
 171              	.LVL18:
ARM GAS  /tmp/ccqwoZT4.s 			page 4


 172 0046 8246     		mov	r10, r0
 173 0048 0720     		movs	r0, #7
 174 004a FFF7FEFF 		bl	get_calibrated_prox
 175              	.LVL19:
 176 004e 184B     		ldr	r3, .L13+4
 177 0050 8346     		mov	fp, r0
 178 0052 93ED008B 		vldr.64	d8, [r3]
 179 0056 FFF7FEFF 		bl	left_motor_get_desired_speed
 180              	.LVL20:
 181 005a 0E90     		str	r0, [sp, #56]
 182 005c FFF7FEFF 		bl	right_motor_get_desired_speed
 183              	.LVL21:
 184 0060 0D90     		str	r0, [sp, #52]
 185 0062 FFF7FEFF 		bl	get_selector
 186              	.LVL22:
 187 0066 0F99     		ldr	r1, [sp, #60]
 188 0068 0D9A     		ldr	r2, [sp, #52]
 189 006a 0E9B     		ldr	r3, [sp, #56]
 190 006c 0091     		str	r1, [sp]
 191 006e 0A90     		str	r0, [sp, #40]
 192 0070 0992     		str	r2, [sp, #36]
 193 0072 0893     		str	r3, [sp, #32]
 194 0074 2A46     		mov	r2, r5
 195 0076 3346     		mov	r3, r6
 196 0078 0E49     		ldr	r1, .L13+8
 197 007a 0197     		str	r7, [sp, #4]
 198 007c 8DED068B 		vstr.64	d8, [sp, #24]
 199 0080 CDE904AB 		strd	r10, fp, [sp, #16]
 200 0084 CDE90289 		strd	r8, r9, [sp, #8]
 201 0088 10A8     		add	r0, sp, #64
 202 008a FFF7FEFF 		bl	sprintf
 203              	.LVL23:
 204              		.loc 1 117 0
 205 008e 0146     		mov	r1, r0
 206 0090 10A8     		add	r0, sp, #64
 207              	.LVL24:
 208 0092 FFF7FEFF 		bl	e_send_uart1_char
 209              	.LVL25:
 210              		.loc 1 118 0
 211 0096 299A     		ldr	r2, [sp, #164]
 212 0098 2368     		ldr	r3, [r4]
 213 009a 9A42     		cmp	r2, r3
 214 009c 04D1     		bne	.L12
 215 009e 2BB0     		add	sp, sp, #172
 216              		.cfi_remember_state
 217              		.cfi_def_cfa_offset 44
 218              		@ sp needed
 219 00a0 BDEC028B 		vldm	sp!, {d8}
 220              		.cfi_restore 80
 221              		.cfi_restore 81
 222              		.cfi_def_cfa_offset 36
 223 00a4 BDE8F08F 		pop	{r4, r5, r6, r7, r8, r9, r10, fp, pc}
 224              	.L12:
 225              		.cfi_restore_state
 226 00a8 FFF7FEFF 		bl	__stack_chk_fail
 227              	.LVL26:
 228              	.L14:
ARM GAS  /tmp/ccqwoZT4.s 			page 5


 229              		.align	2
 230              	.L13:
 231 00ac 00000000 		.word	__stack_chk_guard
 232 00b0 00000000 		.word	.LANCHOR3
 233 00b4 00000000 		.word	.LC0
 234              		.cfi_endproc
 235              	.LFE260:
 236              		.size	send_bt_values, .-send_bt_values
 237              		.global	__aeabi_i2d
 238              		.global	__aeabi_ui2d
 239              		.section	.text.fill_sensor_values,"ax",%progbits
 240              		.align	1
 241              		.p2align 4,,15
 242              		.global	fill_sensor_values
 243              		.syntax unified
 244              		.thumb
 245              		.thumb_func
 246              		.fpu fpv4-sp-d16
 247              		.type	fill_sensor_values, %function
 248              	fill_sensor_values:
 249              	.LFB261:
 250              		.loc 1 123 0
 251              		.cfi_startproc
 252              		@ args = 0, pretend = 0, frame = 8
 253              		@ frame_needed = 0, uses_anonymous_args = 0
 254 0000 70B5     		push	{r4, r5, r6, lr}
 255              		.cfi_def_cfa_offset 16
 256              		.cfi_offset 4, -16
 257              		.cfi_offset 5, -12
 258              		.cfi_offset 6, -8
 259              		.cfi_offset 14, -4
 260 0002 0F4E     		ldr	r6, .L21
 261 0004 0F4D     		ldr	r5, .L21+4
 262 0006 3368     		ldr	r3, [r6]
 263 0008 82B0     		sub	sp, sp, #8
 264              		.cfi_def_cfa_offset 24
 265              	.LBB12:
 266              		.loc 1 124 0
 267 000a 0024     		movs	r4, #0
 268              	.LBE12:
 269              		.loc 1 123 0
 270 000c 0193     		str	r3, [sp, #4]
 271              	.LVL27:
 272              	.L16:
 273              	.LBB13:
 274              		.loc 1 125 0 discriminator 3
 275 000e 2046     		mov	r0, r4
 276 0010 FFF7FEFF 		bl	get_calibrated_prox
 277              	.LVL28:
 278 0014 FFF7FEFF 		bl	__aeabi_i2d
 279              	.LVL29:
 280              		.loc 1 124 0 discriminator 3
 281 0018 0134     		adds	r4, r4, #1
 282              	.LVL30:
 283 001a 082C     		cmp	r4, #8
 284              		.loc 1 125 0 discriminator 3
 285 001c E5E80201 		strd	r0, [r5], #8
ARM GAS  /tmp/ccqwoZT4.s 			page 6


 286              		.loc 1 124 0 discriminator 3
 287 0020 F5D1     		bne	.L16
 288              	.LBE13:
 289              		.loc 1 127 0
 290 0022 FFF7FEFF 		bl	VL53L0X_get_dist_mm
 291              	.LVL31:
 292 0026 FFF7FEFF 		bl	__aeabi_ui2d
 293              	.LVL32:
 294              		.loc 1 128 0
 295 002a 019A     		ldr	r2, [sp, #4]
 296 002c 3368     		ldr	r3, [r6]
 297              		.loc 1 127 0
 298 002e 064C     		ldr	r4, .L21+8
 299              	.LVL33:
 300              		.loc 1 128 0
 301 0030 9A42     		cmp	r2, r3
 302              		.loc 1 127 0
 303 0032 C4E90001 		strd	r0, [r4]
 304              		.loc 1 128 0
 305 0036 01D1     		bne	.L20
 306 0038 02B0     		add	sp, sp, #8
 307              		.cfi_remember_state
 308              		.cfi_def_cfa_offset 16
 309              		@ sp needed
 310 003a 70BD     		pop	{r4, r5, r6, pc}
 311              	.L20:
 312              		.cfi_restore_state
 313 003c FFF7FEFF 		bl	__stack_chk_fail
 314              	.LVL34:
 315              	.L22:
 316              		.align	2
 317              	.L21:
 318 0040 00000000 		.word	__stack_chk_guard
 319 0044 00000000 		.word	.LANCHOR4
 320 0048 00000000 		.word	.LANCHOR3
 321              		.cfi_endproc
 322              	.LFE261:
 323              		.size	fill_sensor_values, .-fill_sensor_values
 324              		.global	__aeabi_dcmpgt
 325              		.section	.text.fill_proximity_weights,"ax",%progbits
 326              		.align	1
 327              		.p2align 4,,15
 328              		.global	fill_proximity_weights
 329              		.syntax unified
 330              		.thumb
 331              		.thumb_func
 332              		.fpu fpv4-sp-d16
 333              		.type	fill_proximity_weights, %function
 334              	fill_proximity_weights:
 335              	.LFB262:
 336              		.loc 1 133 0
 337              		.cfi_startproc
 338              		@ args = 0, pretend = 0, frame = 8
 339              		@ frame_needed = 0, uses_anonymous_args = 0
 340 0000 2DE9F04F 		push	{r4, r5, r6, r7, r8, r9, r10, fp, lr}
 341              		.cfi_def_cfa_offset 36
 342              		.cfi_offset 4, -36
ARM GAS  /tmp/ccqwoZT4.s 			page 7


 343              		.cfi_offset 5, -32
 344              		.cfi_offset 6, -28
 345              		.cfi_offset 7, -24
 346              		.cfi_offset 8, -20
 347              		.cfi_offset 9, -16
 348              		.cfi_offset 10, -12
 349              		.cfi_offset 11, -8
 350              		.cfi_offset 14, -4
 351 0004 2DED028B 		vpush.64	{d8}
 352              		.cfi_def_cfa_offset 44
 353              		.cfi_offset 80, -44
 354              		.cfi_offset 81, -40
 355 0008 DFF87890 		ldr	r9, .L36+20
 356 000c 1A4C     		ldr	r4, .L36+8
 357 000e D9F80030 		ldr	r3, [r9]
 358 0012 1A4D     		ldr	r5, .L36+12
 359              	.LBB14:
 360              		.loc 1 135 0
 361 0014 1A4F     		ldr	r7, .L36+16
 362              		.loc 1 136 0
 363 0016 DFF870B0 		ldr	fp, .L36+24
 364              	.LBE14:
 365              		.loc 1 133 0
 366 001a 83B0     		sub	sp, sp, #12
 367              		.cfi_def_cfa_offset 56
 368              	.LBB15:
 369              		.loc 1 135 0
 370 001c 0026     		movs	r6, #0
 371              	.LBE15:
 372              		.loc 1 133 0
 373 001e 0193     		str	r3, [sp, #4]
 374              	.LVL35:
 375              	.LBB16:
 376              		.loc 1 138 0
 377 0020 9FED138B 		vldr.64	d8, .L36
 378              		.loc 1 136 0
 379 0024 4FF0000A 		mov	r10, #0
 380 0028 04F14008 		add	r8, r4, #64
 381 002c 05E0     		b	.L27
 382              	.LVL36:
 383              	.L34:
 384              		.loc 1 134 0
 385 002e 4445     		cmp	r4, r8
 386              		.loc 1 136 0
 387 0030 C5E900AB 		strd	r10, [r5]
 388 0034 05F10805 		add	r5, r5, #8
 389              		.loc 1 134 0
 390 0038 0DD0     		beq	.L33
 391              	.L27:
 392              		.loc 1 135 0
 393 003a 3246     		mov	r2, r6
 394 003c 3B46     		mov	r3, r7
 395 003e F4E80201 		ldrd	r0, [r4], #8
 396 0042 FFF7FEFF 		bl	__aeabi_dcmpgt
 397              	.LVL37:
 398 0046 0028     		cmp	r0, #0
 399 0048 F1D1     		bne	.L34
ARM GAS  /tmp/ccqwoZT4.s 			page 8


 400              		.loc 1 134 0
 401 004a 4445     		cmp	r4, r8
 402              		.loc 1 138 0
 403 004c 85ED008B 		vstr.64	d8, [r5]
 404 0050 05F10805 		add	r5, r5, #8
 405              		.loc 1 134 0
 406 0054 F1D1     		bne	.L27
 407              	.L33:
 408              	.LBE16:
 409              		.loc 1 141 0
 410 0056 019A     		ldr	r2, [sp, #4]
 411 0058 D9F80030 		ldr	r3, [r9]
 412 005c 9A42     		cmp	r2, r3
 413 005e 04D1     		bne	.L35
 414 0060 03B0     		add	sp, sp, #12
 415              		.cfi_remember_state
 416              		.cfi_def_cfa_offset 44
 417              		@ sp needed
 418 0062 BDEC028B 		vldm	sp!, {d8}
 419              		.cfi_restore 80
 420              		.cfi_restore 81
 421              		.cfi_def_cfa_offset 36
 422 0066 BDE8F08F 		pop	{r4, r5, r6, r7, r8, r9, r10, fp, pc}
 423              	.L35:
 424              		.cfi_restore_state
 425 006a FFF7FEFF 		bl	__stack_chk_fail
 426              	.LVL38:
 427              	.L37:
 428 006e 00BF     		.align	3
 429              	.L36:
 430 0070 00000000 		.word	0
 431 0074 00000000 		.word	0
 432 0078 00000000 		.word	.LANCHOR4
 433 007c 00000000 		.word	.LANCHOR5
 434 0080 00005940 		.word	1079574528
 435 0084 00000000 		.word	__stack_chk_guard
 436 0088 0000F03F 		.word	1072693248
 437              		.cfi_endproc
 438              	.LFE262:
 439              		.size	fill_proximity_weights, .-fill_proximity_weights
 440              		.section	.text.glow_leds,"ax",%progbits
 441              		.align	1
 442              		.p2align 4,,15
 443              		.global	glow_leds
 444              		.syntax unified
 445              		.thumb
 446              		.thumb_func
 447              		.fpu fpv4-sp-d16
 448              		.type	glow_leds, %function
 449              	glow_leds:
 450              	.LFB263:
 451              		.loc 1 144 0
 452              		.cfi_startproc
 453              		@ args = 0, pretend = 0, frame = 8
 454              		@ frame_needed = 0, uses_anonymous_args = 0
 455 0000 10B5     		push	{r4, lr}
 456              		.cfi_def_cfa_offset 8
ARM GAS  /tmp/ccqwoZT4.s 			page 9


 457              		.cfi_offset 4, -8
 458              		.cfi_offset 14, -4
 459 0002 3A4C     		ldr	r4, .L65
 460 0004 82B0     		sub	sp, sp, #8
 461              		.cfi_def_cfa_offset 16
 462              		.loc 1 144 0
 463 0006 2368     		ldr	r3, [r4]
 464 0008 0193     		str	r3, [sp, #4]
 465              		.loc 1 145 0
 466 000a 0020     		movs	r0, #0
 467 000c FFF7FEFF 		bl	get_calibrated_prox
 468              	.LVL39:
 469 0010 6428     		cmp	r0, #100
 470 0012 04DC     		bgt	.L41
 471              		.loc 1 145 0 is_stmt 0 discriminator 1
 472 0014 0720     		movs	r0, #7
 473 0016 FFF7FEFF 		bl	get_calibrated_prox
 474              	.LVL40:
 475 001a 6428     		cmp	r0, #100
 476 001c 60DD     		ble	.L62
 477              	.L41:
 478              	.LBB17:
 479              		.loc 1 146 0 is_stmt 1
 480 001e 0121     		movs	r1, #1
 481 0020 0020     		movs	r0, #0
 482 0022 FFF7FEFF 		bl	e_set_led
 483              	.LVL41:
 484              	.L40:
 485              	.LBE17:
 486              		.loc 1 151 0
 487 0026 0120     		movs	r0, #1
 488 0028 FFF7FEFF 		bl	get_calibrated_prox
 489              	.LVL42:
 490 002c 6428     		cmp	r0, #100
 491              	.LBB18:
 492              		.loc 1 152 0
 493 002e C7BF     		ittee	gt
 494 0030 0121     		movgt	r1, #1
 495 0032 0846     		movgt	r0, r1
 496              	.LBE18:
 497              	.LBB19:
 498              		.loc 1 154 0
 499 0034 0021     		movle	r1, #0
 500 0036 0120     		movle	r0, #1
 501 0038 FFF7FEFF 		bl	e_set_led
 502              	.LVL43:
 503              	.LBE19:
 504              		.loc 1 157 0
 505 003c 0220     		movs	r0, #2
 506 003e FFF7FEFF 		bl	get_calibrated_prox
 507              	.LVL44:
 508 0042 6428     		cmp	r0, #100
 509              	.LBB20:
 510              		.loc 1 158 0
 511 0044 CCBF     		ite	gt
 512 0046 0121     		movgt	r1, #1
 513              	.LBE20:
ARM GAS  /tmp/ccqwoZT4.s 			page 10


 514              	.LBB21:
 515              		.loc 1 160 0
 516 0048 0021     		movle	r1, #0
 517 004a 0220     		movs	r0, #2
 518 004c FFF7FEFF 		bl	e_set_led
 519              	.LVL45:
 520              	.LBE21:
 521              		.loc 1 163 0
 522 0050 0320     		movs	r0, #3
 523 0052 FFF7FEFF 		bl	get_calibrated_prox
 524              	.LVL46:
 525 0056 6428     		cmp	r0, #100
 526              	.LBB22:
 527              		.loc 1 164 0
 528 0058 CCBF     		ite	gt
 529 005a 0121     		movgt	r1, #1
 530              	.LBE22:
 531              	.LBB23:
 532              		.loc 1 166 0
 533 005c 0021     		movle	r1, #0
 534 005e 0320     		movs	r0, #3
 535 0060 FFF7FEFF 		bl	e_set_led
 536              	.LVL47:
 537              	.LBE23:
 538              		.loc 1 169 0
 539 0064 0320     		movs	r0, #3
 540 0066 FFF7FEFF 		bl	get_calibrated_prox
 541              	.LVL48:
 542 006a 6428     		cmp	r0, #100
 543 006c 04DC     		bgt	.L50
 544              		.loc 1 169 0 is_stmt 0 discriminator 1
 545 006e 0420     		movs	r0, #4
 546 0070 FFF7FEFF 		bl	get_calibrated_prox
 547              	.LVL49:
 548 0074 6428     		cmp	r0, #100
 549 0076 2EDD     		ble	.L63
 550              	.L50:
 551              	.LBB24:
 552              		.loc 1 170 0 is_stmt 1
 553 0078 0121     		movs	r1, #1
 554 007a 0420     		movs	r0, #4
 555 007c FFF7FEFF 		bl	e_set_led
 556              	.LVL50:
 557              	.L49:
 558              	.LBE24:
 559              		.loc 1 175 0
 560 0080 0420     		movs	r0, #4
 561 0082 FFF7FEFF 		bl	get_calibrated_prox
 562              	.LVL51:
 563 0086 6428     		cmp	r0, #100
 564              	.LBB25:
 565              		.loc 1 176 0
 566 0088 CCBF     		ite	gt
 567 008a 0121     		movgt	r1, #1
 568              	.LBE25:
 569              	.LBB26:
 570              		.loc 1 178 0
ARM GAS  /tmp/ccqwoZT4.s 			page 11


 571 008c 0021     		movle	r1, #0
 572 008e 0520     		movs	r0, #5
 573 0090 FFF7FEFF 		bl	e_set_led
 574              	.LVL52:
 575              	.LBE26:
 576              		.loc 1 181 0
 577 0094 0520     		movs	r0, #5
 578 0096 FFF7FEFF 		bl	get_calibrated_prox
 579              	.LVL53:
 580 009a 6428     		cmp	r0, #100
 581              	.LBB27:
 582              		.loc 1 182 0
 583 009c CCBF     		ite	gt
 584 009e 0121     		movgt	r1, #1
 585              	.LBE27:
 586              	.LBB28:
 587              		.loc 1 184 0
 588 00a0 0021     		movle	r1, #0
 589 00a2 0620     		movs	r0, #6
 590 00a4 FFF7FEFF 		bl	e_set_led
 591              	.LVL54:
 592              	.LBE28:
 593              		.loc 1 187 0
 594 00a8 0620     		movs	r0, #6
 595 00aa FFF7FEFF 		bl	get_calibrated_prox
 596              	.LVL55:
 597 00ae 6428     		cmp	r0, #100
 598              	.LBB29:
 599              		.loc 1 188 0
 600 00b0 019A     		ldr	r2, [sp, #4]
 601 00b2 2368     		ldr	r3, [r4]
 602              	.LBE29:
 603              		.loc 1 187 0
 604 00b4 09DC     		bgt	.L64
 605              	.LBB30:
 606              		.loc 1 190 0
 607 00b6 9A42     		cmp	r2, r3
 608 00b8 08BF     		it	eq
 609 00ba 0021     		moveq	r1, #0
 610 00bc 09D1     		bne	.L61
 611              	.L60:
 612 00be 0720     		movs	r0, #7
 613              	.LBE30:
 614              		.loc 1 192 0
 615 00c0 02B0     		add	sp, sp, #8
 616              		.cfi_remember_state
 617              		.cfi_def_cfa_offset 8
 618              		@ sp needed
 619 00c2 BDE81040 		pop	{r4, lr}
 620              		.cfi_restore 14
 621              		.cfi_restore 4
 622              		.cfi_def_cfa_offset 0
 623              	.LBB31:
 624              		.loc 1 190 0
 625 00c6 FFF7FEBF 		b	e_set_led
 626              	.LVL56:
 627              	.L64:
ARM GAS  /tmp/ccqwoZT4.s 			page 12


 628              		.cfi_restore_state
 629              	.LBE31:
 630              	.LBB32:
 631              		.loc 1 188 0
 632 00ca 9A42     		cmp	r2, r3
 633 00cc 08BF     		it	eq
 634 00ce 0121     		moveq	r1, #1
 635 00d0 F5D0     		beq	.L60
 636              	.L61:
 637              	.LBE32:
 638              	.LBB33:
 639              		.loc 1 190 0
 640 00d2 FFF7FEFF 		bl	__stack_chk_fail
 641              	.LVL57:
 642              	.L63:
 643              	.LBE33:
 644              	.LBB34:
 645              		.loc 1 172 0
 646 00d6 0021     		movs	r1, #0
 647 00d8 0420     		movs	r0, #4
 648 00da FFF7FEFF 		bl	e_set_led
 649              	.LVL58:
 650 00de CFE7     		b	.L49
 651              	.L62:
 652              	.LBE34:
 653              	.LBB35:
 654              		.loc 1 148 0
 655 00e0 0021     		movs	r1, #0
 656 00e2 0846     		mov	r0, r1
 657 00e4 FFF7FEFF 		bl	e_set_led
 658              	.LVL59:
 659 00e8 9DE7     		b	.L40
 660              	.L66:
 661 00ea 00BF     		.align	2
 662              	.L65:
 663 00ec 00000000 		.word	__stack_chk_guard
 664              	.LBE35:
 665              		.cfi_endproc
 666              	.LFE263:
 667              		.size	glow_leds, .-glow_leds
 668              		.section	.text.stop,"ax",%progbits
 669              		.align	1
 670              		.p2align 4,,15
 671              		.global	stop
 672              		.syntax unified
 673              		.thumb
 674              		.thumb_func
 675              		.fpu fpv4-sp-d16
 676              		.type	stop, %function
 677              	stop:
 678              	.LFB264:
 679              		.loc 1 198 0
 680              		.cfi_startproc
 681              		@ args = 0, pretend = 0, frame = 8
 682              		@ frame_needed = 0, uses_anonymous_args = 0
 683 0000 10B5     		push	{r4, lr}
 684              		.cfi_def_cfa_offset 8
ARM GAS  /tmp/ccqwoZT4.s 			page 13


 685              		.cfi_offset 4, -8
 686              		.cfi_offset 14, -4
 687 0002 094C     		ldr	r4, .L72
 688 0004 82B0     		sub	sp, sp, #8
 689              		.cfi_def_cfa_offset 16
 690              		.loc 1 198 0
 691 0006 2368     		ldr	r3, [r4]
 692 0008 0193     		str	r3, [sp, #4]
 693              		.loc 1 199 0
 694 000a 0020     		movs	r0, #0
 695 000c FFF7FEFF 		bl	left_motor_set_speed
 696              	.LVL60:
 697              		.loc 1 200 0
 698 0010 019A     		ldr	r2, [sp, #4]
 699 0012 2368     		ldr	r3, [r4]
 700 0014 9A42     		cmp	r2, r3
 701 0016 05D1     		bne	.L71
 702 0018 0020     		movs	r0, #0
 703              		.loc 1 201 0
 704 001a 02B0     		add	sp, sp, #8
 705              		.cfi_remember_state
 706              		.cfi_def_cfa_offset 8
 707              		@ sp needed
 708 001c BDE81040 		pop	{r4, lr}
 709              		.cfi_restore 14
 710              		.cfi_restore 4
 711              		.cfi_def_cfa_offset 0
 712              		.loc 1 200 0
 713 0020 FFF7FEBF 		b	right_motor_set_speed
 714              	.LVL61:
 715              	.L71:
 716              		.cfi_restore_state
 717 0024 FFF7FEFF 		bl	__stack_chk_fail
 718              	.LVL62:
 719              	.L73:
 720              		.align	2
 721              	.L72:
 722 0028 00000000 		.word	__stack_chk_guard
 723              		.cfi_endproc
 724              	.LFE264:
 725              		.size	stop, .-stop
 726              		.global	__aeabi_dmul
 727              		.global	__aeabi_dadd
 728              		.global	__aeabi_dsub
 729              		.global	__aeabi_d2iz
 730              		.section	.text.run_braitenberg,"ax",%progbits
 731              		.align	1
 732              		.p2align 4,,15
 733              		.global	run_braitenberg
 734              		.syntax unified
 735              		.thumb
 736              		.thumb_func
 737              		.fpu fpv4-sp-d16
 738              		.type	run_braitenberg, %function
 739              	run_braitenberg:
 740              	.LFB265:
 741              		.loc 1 206 0
ARM GAS  /tmp/ccqwoZT4.s 			page 14


 742              		.cfi_startproc
 743              		@ args = 0, pretend = 0, frame = 16
 744              		@ frame_needed = 0, uses_anonymous_args = 0
 745 0000 2DE9F04F 		push	{r4, r5, r6, r7, r8, r9, r10, fp, lr}
 746              		.cfi_def_cfa_offset 36
 747              		.cfi_offset 4, -36
 748              		.cfi_offset 5, -32
 749              		.cfi_offset 6, -28
 750              		.cfi_offset 7, -24
 751              		.cfi_offset 8, -20
 752              		.cfi_offset 9, -16
 753              		.cfi_offset 10, -12
 754              		.cfi_offset 11, -8
 755              		.cfi_offset 14, -4
 756              		.loc 1 208 0
 757 0004 434B     		ldr	r3, .L79
 758              		.loc 1 206 0
 759 0006 444D     		ldr	r5, .L79+4
 760              		.loc 1 212 0
 761 0008 444C     		ldr	r4, .L79+8
 762              		.loc 1 206 0
 763 000a 2A68     		ldr	r2, [r5]
 764              		.loc 1 208 0
 765 000c D3E90089 		ldrd	r8, [r3]
 766              		.loc 1 206 0
 767 0010 85B0     		sub	sp, sp, #20
 768              		.cfi_def_cfa_offset 56
 769              		.loc 1 210 0
 770 0012 93ED047B 		vldr.64	d7, [r3, #16]
 771              		.loc 1 209 0
 772 0016 D3E902AB 		ldrd	r10, [r3, #8]
 773              		.loc 1 206 0
 774 001a 0392     		str	r2, [sp, #12]
 775              		.loc 1 212 0
 776 001c 4046     		mov	r0, r8
 777 001e D4E90E23 		ldrd	r2, [r4, #56]
 778 0022 4946     		mov	r1, r9
 779              		.loc 1 210 0
 780 0024 8DED007B 		vstr.64	d7, [sp]
 781              		.loc 1 212 0
 782 0028 FFF7FEFF 		bl	__aeabi_dmul
 783              	.LVL63:
 784              		.loc 1 213 0
 785 002c D4E90C23 		ldrd	r2, [r4, #48]
 786              		.loc 1 212 0
 787 0030 0646     		mov	r6, r0
 788 0032 0F46     		mov	r7, r1
 789              		.loc 1 213 0
 790 0034 5046     		mov	r0, r10
 791 0036 5946     		mov	r1, fp
 792 0038 FFF7FEFF 		bl	__aeabi_dmul
 793              	.LVL64:
 794              		.loc 1 212 0
 795 003c 0246     		mov	r2, r0
 796 003e 0B46     		mov	r3, r1
 797 0040 3046     		mov	r0, r6
 798 0042 3946     		mov	r1, r7
ARM GAS  /tmp/ccqwoZT4.s 			page 15


 799 0044 FFF7FEFF 		bl	__aeabi_dadd
 800              	.LVL65:
 801              		.loc 1 214 0
 802 0048 D4E90A23 		ldrd	r2, [r4, #40]
 803              		.loc 1 212 0
 804 004c 0646     		mov	r6, r0
 805 004e 0F46     		mov	r7, r1
 806              		.loc 1 214 0
 807 0050 DDE90001 		ldrd	r0, [sp]
 808 0054 FFF7FEFF 		bl	__aeabi_dmul
 809              	.LVL66:
 810              		.loc 1 213 0
 811 0058 0246     		mov	r2, r0
 812 005a 0B46     		mov	r3, r1
 813 005c 3046     		mov	r0, r6
 814 005e 3946     		mov	r1, r7
 815 0060 FFF7FEFF 		bl	__aeabi_dadd
 816              	.LVL67:
 817              		.loc 1 211 0
 818 0064 0246     		mov	r2, r0
 819 0066 0B46     		mov	r3, r1
 820 0068 0020     		movs	r0, #0
 821 006a 2D49     		ldr	r1, .L79+12
 822 006c FFF7FEFF 		bl	__aeabi_dsub
 823              	.LVL68:
 824              		.loc 1 208 0
 825 0070 D4E90023 		ldrd	r2, [r4]
 826              		.loc 1 211 0
 827 0074 0646     		mov	r6, r0
 828 0076 0F46     		mov	r7, r1
 829              		.loc 1 208 0
 830 0078 4046     		mov	r0, r8
 831 007a 4946     		mov	r1, r9
 832 007c FFF7FEFF 		bl	__aeabi_dmul
 833              	.LVL69:
 834              		.loc 1 209 0
 835 0080 D4E90223 		ldrd	r2, [r4, #8]
 836              		.loc 1 208 0
 837 0084 8046     		mov	r8, r0
 838 0086 8946     		mov	r9, r1
 839              		.loc 1 209 0
 840 0088 5046     		mov	r0, r10
 841 008a 5946     		mov	r1, fp
 842 008c FFF7FEFF 		bl	__aeabi_dmul
 843              	.LVL70:
 844              		.loc 1 208 0
 845 0090 0246     		mov	r2, r0
 846 0092 0B46     		mov	r3, r1
 847 0094 4046     		mov	r0, r8
 848 0096 4946     		mov	r1, r9
 849 0098 FFF7FEFF 		bl	__aeabi_dadd
 850              	.LVL71:
 851              		.loc 1 210 0
 852 009c D4E90423 		ldrd	r2, [r4, #16]
 853              		.loc 1 208 0
 854 00a0 8046     		mov	r8, r0
 855 00a2 8946     		mov	r9, r1
ARM GAS  /tmp/ccqwoZT4.s 			page 16


 856              		.loc 1 210 0
 857 00a4 DDE90001 		ldrd	r0, [sp]
 858 00a8 FFF7FEFF 		bl	__aeabi_dmul
 859              	.LVL72:
 860              		.loc 1 209 0
 861 00ac 0246     		mov	r2, r0
 862 00ae 0B46     		mov	r3, r1
 863 00b0 4046     		mov	r0, r8
 864 00b2 4946     		mov	r1, r9
 865 00b4 FFF7FEFF 		bl	__aeabi_dadd
 866              	.LVL73:
 867              		.loc 1 207 0
 868 00b8 0246     		mov	r2, r0
 869 00ba 0B46     		mov	r3, r1
 870 00bc 0020     		movs	r0, #0
 871 00be 1849     		ldr	r1, .L79+12
 872              		.loc 1 217 0
 873 00c0 184C     		ldr	r4, .L79+16
 874              		.loc 1 207 0
 875 00c2 FFF7FEFF 		bl	__aeabi_dsub
 876              	.LVL74:
 877              		.loc 1 216 0
 878 00c6 0022     		movs	r2, #0
 879 00c8 174B     		ldr	r3, .L79+20
 880 00ca FFF7FEFF 		bl	__aeabi_dmul
 881              	.LVL75:
 882 00ce 174B     		ldr	r3, .L79+24
 883 00d0 8046     		mov	r8, r0
 884 00d2 8946     		mov	r9, r1
 885              		.loc 1 217 0
 886 00d4 0022     		movs	r2, #0
 887              		.loc 1 216 0
 888 00d6 C3E90089 		strd	r8, [r3]
 889              		.loc 1 217 0
 890 00da 3046     		mov	r0, r6
 891 00dc 124B     		ldr	r3, .L79+20
 892 00de 3946     		mov	r1, r7
 893 00e0 FFF7FEFF 		bl	__aeabi_dmul
 894              	.LVL76:
 895 00e4 C4E90001 		strd	r0, [r4]
 896              		.loc 1 219 0
 897 00e8 4946     		mov	r1, r9
 898 00ea 4046     		mov	r0, r8
 899 00ec FFF7FEFF 		bl	__aeabi_d2iz
 900              	.LVL77:
 901 00f0 FFF7FEFF 		bl	left_motor_set_speed
 902              	.LVL78:
 903              		.loc 1 220 0
 904 00f4 039A     		ldr	r2, [sp, #12]
 905 00f6 2B68     		ldr	r3, [r5]
 906 00f8 9A42     		cmp	r2, r3
 907 00fa 08D1     		bne	.L78
 908 00fc D4E90001 		ldrd	r0, [r4]
 909 0100 FFF7FEFF 		bl	__aeabi_d2iz
 910              	.LVL79:
 911              		.loc 1 221 0
 912 0104 05B0     		add	sp, sp, #20
ARM GAS  /tmp/ccqwoZT4.s 			page 17


 913              		.cfi_remember_state
 914              		.cfi_def_cfa_offset 36
 915              		@ sp needed
 916 0106 BDE8F04F 		pop	{r4, r5, r6, r7, r8, r9, r10, fp, lr}
 917              		.cfi_restore 14
 918              		.cfi_restore 11
 919              		.cfi_restore 10
 920              		.cfi_restore 9
 921              		.cfi_restore 8
 922              		.cfi_restore 7
 923              		.cfi_restore 6
 924              		.cfi_restore 5
 925              		.cfi_restore 4
 926              		.cfi_def_cfa_offset 0
 927              		.loc 1 220 0
 928 010a FFF7FEBF 		b	right_motor_set_speed
 929              	.LVL80:
 930              	.L78:
 931              		.cfi_restore_state
 932 010e FFF7FEFF 		bl	__stack_chk_fail
 933              	.LVL81:
 934              	.L80:
 935 0112 00BF     		.align	2
 936              	.L79:
 937 0114 00000000 		.word	.LANCHOR6
 938 0118 00000000 		.word	__stack_chk_guard
 939 011c 00000000 		.word	.LANCHOR5
 940 0120 0000F03F 		.word	1072693248
 941 0124 00000000 		.word	.LANCHOR8
 942 0128 00508440 		.word	1082413056
 943 012c 00000000 		.word	.LANCHOR7
 944              		.cfi_endproc
 945              	.LFE265:
 946              		.size	run_braitenberg, .-run_braitenberg
 947              		.global	__aeabi_dcmpeq
 948              		.section	.text.stray_criticals,"ax",%progbits
 949              		.align	1
 950              		.p2align 4,,15
 951              		.global	stray_criticals
 952              		.syntax unified
 953              		.thumb
 954              		.thumb_func
 955              		.fpu fpv4-sp-d16
 956              		.type	stray_criticals, %function
 957              	stray_criticals:
 958              	.LFB266:
 959              		.loc 1 226 0
 960              		.cfi_startproc
 961              		@ args = 0, pretend = 0, frame = 8
 962              		@ frame_needed = 0, uses_anonymous_args = 0
 963 0000 F0B5     		push	{r4, r5, r6, r7, lr}
 964              		.cfi_def_cfa_offset 20
 965              		.cfi_offset 4, -20
 966              		.cfi_offset 5, -16
 967              		.cfi_offset 6, -12
 968              		.cfi_offset 7, -8
 969              		.cfi_offset 14, -4
ARM GAS  /tmp/ccqwoZT4.s 			page 18


 970 0002 8B4C     		ldr	r4, .L141+16
 971              		.loc 1 228 0
 972 0004 8B4E     		ldr	r6, .L141+20
 973              		.loc 1 226 0
 974 0006 2368     		ldr	r3, [r4]
 975              		.loc 1 228 0
 976 0008 8B4D     		ldr	r5, .L141+24
 977              		.loc 1 226 0
 978 000a 83B0     		sub	sp, sp, #12
 979              		.cfi_def_cfa_offset 32
 980              		.loc 1 228 0
 981 000c D6E90A01 		ldrd	r0, [r6, #40]
 982              		.loc 1 226 0
 983 0010 0193     		str	r3, [sp, #4]
 984              		.loc 1 228 0
 985 0012 0022     		movs	r2, #0
 986 0014 894B     		ldr	r3, .L141+28
 987 0016 FFF7FEFF 		bl	__aeabi_dcmpgt
 988              	.LVL82:
 989 001a 0028     		cmp	r0, #0
 990 001c 71D0     		beq	.L82
 991              		.loc 1 228 0 is_stmt 0 discriminator 1
 992 001e 0022     		movs	r2, #0
 993 0020 0023     		movs	r3, #0
 994 0022 D5E90C01 		ldrd	r0, [r5, #48]
 995 0026 FFF7FEFF 		bl	__aeabi_dcmpeq
 996              	.LVL83:
 997 002a 0028     		cmp	r0, #0
 998 002c 69D0     		beq	.L82
 999              		.loc 1 229 0 is_stmt 1 discriminator 2
 1000 002e 0022     		movs	r2, #0
 1001 0030 0023     		movs	r3, #0
 1002 0032 D5E90E01 		ldrd	r0, [r5, #56]
 1003 0036 FFF7FEFF 		bl	__aeabi_dcmpeq
 1004              	.LVL84:
 1005 003a 78B9     		cbnz	r0, .L89
 1006              		.loc 1 232 0
 1007 003c 0022     		movs	r2, #0
 1008 003e 0023     		movs	r3, #0
 1009 0040 D5E90A01 		ldrd	r0, [r5, #40]
 1010 0044 FFF7FEFF 		bl	__aeabi_dcmpeq
 1011              	.LVL85:
 1012 0048 0028     		cmp	r0, #0
 1013 004a 78D0     		beq	.L85
 1014              	.L88:
 1015              		.loc 1 234 0 discriminator 1
 1016 004c 0022     		movs	r2, #0
 1017 004e 7B4B     		ldr	r3, .L141+28
 1018 0050 D6E90E01 		ldrd	r0, [r6, #56]
 1019 0054 FFF7FEFF 		bl	__aeabi_dcmpgt
 1020              	.LVL86:
 1021 0058 0028     		cmp	r0, #0
 1022 005a 70D0     		beq	.L85
 1023              	.L89:
 1024              		.loc 1 232 0 discriminator 1
 1025 005c 0022     		movs	r2, #0
 1026 005e 0023     		movs	r3, #0
ARM GAS  /tmp/ccqwoZT4.s 			page 19


 1027 0060 D5E90001 		ldrd	r0, [r5]
 1028 0064 FFF7FEFF 		bl	__aeabi_dcmpeq
 1029              	.LVL87:
 1030 0068 0028     		cmp	r0, #0
 1031 006a 68D0     		beq	.L85
 1032 006c 0022     		movs	r2, #0
 1033 006e 0023     		movs	r3, #0
 1034 0070 D5E90201 		ldrd	r0, [r5, #8]
 1035 0074 FFF7FEFF 		bl	__aeabi_dcmpeq
 1036              	.LVL88:
 1037 0078 0028     		cmp	r0, #0
 1038 007a 7FD0     		beq	.L93
 1039              		.loc 1 232 0 is_stmt 0 discriminator 2
 1040 007c 0022     		movs	r2, #0
 1041 007e 0023     		movs	r3, #0
 1042 0080 D5E90401 		ldrd	r0, [r5, #16]
 1043 0084 FFF7FEFF 		bl	__aeabi_dcmpeq
 1044              	.LVL89:
 1045 0088 0028     		cmp	r0, #0
 1046 008a 40F0AE80 		bne	.L138
 1047              		.loc 1 252 0 is_stmt 1
 1048 008e 0022     		movs	r2, #0
 1049 0090 6A4B     		ldr	r3, .L141+28
 1050 0092 D6E90001 		ldrd	r0, [r6]
 1051 0096 FFF7FEFF 		bl	__aeabi_dcmpgt
 1052              	.LVL90:
 1053 009a 0028     		cmp	r0, #0
 1054 009c 6ED0     		beq	.L93
 1055              	.L111:
 1056              		.loc 1 256 0
 1057 009e 0022     		movs	r2, #0
 1058 00a0 0023     		movs	r3, #0
 1059 00a2 D5E90001 		ldrd	r0, [r5]
 1060 00a6 FFF7FEFF 		bl	__aeabi_dcmpeq
 1061              	.LVL91:
 1062 00aa 18B3     		cbz	r0, .L97
 1063              	.L102:
 1064              		.loc 1 258 0
 1065 00ac 0022     		movs	r2, #0
 1066 00ae 0023     		movs	r3, #0
 1067 00b0 D5E90201 		ldrd	r0, [r5, #8]
 1068 00b4 FFF7FEFF 		bl	__aeabi_dcmpeq
 1069              	.LVL92:
 1070 00b8 E0B1     		cbz	r0, .L97
 1071              		.loc 1 258 0 is_stmt 0 discriminator 1
 1072 00ba 0022     		movs	r2, #0
 1073 00bc 5F4B     		ldr	r3, .L141+28
 1074 00be D6E90401 		ldrd	r0, [r6, #16]
 1075 00c2 FFF7FEFF 		bl	__aeabi_dcmpgt
 1076              	.LVL93:
 1077 00c6 A8B1     		cbz	r0, .L97
 1078              	.L103:
 1079              		.loc 1 256 0 is_stmt 1 discriminator 1
 1080 00c8 0022     		movs	r2, #0
 1081 00ca 0023     		movs	r3, #0
 1082 00cc D5E90A01 		ldrd	r0, [r5, #40]
 1083 00d0 FFF7FEFF 		bl	__aeabi_dcmpeq
ARM GAS  /tmp/ccqwoZT4.s 			page 20


 1084              	.LVL94:
 1085 00d4 70B1     		cbz	r0, .L97
 1086 00d6 0022     		movs	r2, #0
 1087 00d8 0023     		movs	r3, #0
 1088 00da D5E90C01 		ldrd	r0, [r5, #48]
 1089 00de FFF7FEFF 		bl	__aeabi_dcmpeq
 1090              	.LVL95:
 1091 00e2 38B1     		cbz	r0, .L97
 1092              		.loc 1 256 0 is_stmt 0 discriminator 2
 1093 00e4 0022     		movs	r2, #0
 1094 00e6 0023     		movs	r3, #0
 1095 00e8 D5E90E01 		ldrd	r0, [r5, #56]
 1096 00ec FFF7FEFF 		bl	__aeabi_dcmpeq
 1097              	.LVL96:
 1098 00f0 0028     		cmp	r0, #0
 1099 00f2 54D1     		bne	.L139
 1100              	.L97:
 1101              		.loc 1 278 0 is_stmt 1
 1102 00f4 019A     		ldr	r2, [sp, #4]
 1103 00f6 2368     		ldr	r3, [r4]
 1104 00f8 9A42     		cmp	r2, r3
 1105 00fa 40F08D80 		bne	.L140
 1106 00fe 03B0     		add	sp, sp, #12
 1107              		.cfi_remember_state
 1108              		.cfi_def_cfa_offset 20
 1109              		@ sp needed
 1110 0100 F0BD     		pop	{r4, r5, r6, r7, pc}
 1111              	.L82:
 1112              		.cfi_restore_state
 1113              		.loc 1 229 0
 1114 0102 0022     		movs	r2, #0
 1115 0104 0023     		movs	r3, #0
 1116 0106 D5E90A01 		ldrd	r0, [r5, #40]
 1117 010a FFF7FEFF 		bl	__aeabi_dcmpeq
 1118              	.LVL97:
 1119 010e B0B1     		cbz	r0, .L85
 1120              		.loc 1 231 0
 1121 0110 0022     		movs	r2, #0
 1122 0112 4A4B     		ldr	r3, .L141+28
 1123 0114 D6E90C01 		ldrd	r0, [r6, #48]
 1124 0118 FFF7FEFF 		bl	__aeabi_dcmpgt
 1125              	.LVL98:
 1126 011c 38B1     		cbz	r0, .L110
 1127              		.loc 1 229 0
 1128 011e 0022     		movs	r2, #0
 1129 0120 0023     		movs	r3, #0
 1130 0122 D5E90E01 		ldrd	r0, [r5, #56]
 1131 0126 FFF7FEFF 		bl	__aeabi_dcmpeq
 1132              	.LVL99:
 1133 012a 0028     		cmp	r0, #0
 1134 012c 96D1     		bne	.L89
 1135              	.L110:
 1136              		.loc 1 234 0
 1137 012e 0022     		movs	r2, #0
 1138 0130 0023     		movs	r3, #0
 1139 0132 D5E90C01 		ldrd	r0, [r5, #48]
 1140 0136 FFF7FEFF 		bl	__aeabi_dcmpeq
ARM GAS  /tmp/ccqwoZT4.s 			page 21


 1141              	.LVL100:
 1142 013a 0028     		cmp	r0, #0
 1143 013c 86D1     		bne	.L88
 1144              	.L85:
 1145              		.loc 1 252 0
 1146 013e 0022     		movs	r2, #0
 1147 0140 3E4B     		ldr	r3, .L141+28
 1148 0142 D6E90001 		ldrd	r0, [r6]
 1149 0146 FFF7FEFF 		bl	__aeabi_dcmpgt
 1150              	.LVL101:
 1151 014a 78B1     		cbz	r0, .L100
 1152              		.loc 1 252 0 is_stmt 0 discriminator 1
 1153 014c 0022     		movs	r2, #0
 1154 014e 0023     		movs	r3, #0
 1155 0150 D5E90201 		ldrd	r0, [r5, #8]
 1156 0154 FFF7FEFF 		bl	__aeabi_dcmpeq
 1157              	.LVL102:
 1158 0158 40B1     		cbz	r0, .L100
 1159              		.loc 1 253 0 is_stmt 1
 1160 015a 0022     		movs	r2, #0
 1161 015c 0023     		movs	r3, #0
 1162 015e D5E90401 		ldrd	r0, [r5, #16]
 1163 0162 FFF7FEFF 		bl	__aeabi_dcmpeq
 1164              	.LVL103:
 1165 0166 0028     		cmp	r0, #0
 1166 0168 AED1     		bne	.L103
 1167 016a 98E7     		b	.L111
 1168              	.L100:
 1169 016c 0022     		movs	r2, #0
 1170 016e 0023     		movs	r3, #0
 1171 0170 D5E90001 		ldrd	r0, [r5]
 1172 0174 FFF7FEFF 		bl	__aeabi_dcmpeq
 1173              	.LVL104:
 1174 0178 0028     		cmp	r0, #0
 1175 017a BBD0     		beq	.L97
 1176              	.L93:
 1177              		.loc 1 255 0
 1178 017c 0022     		movs	r2, #0
 1179 017e 2F4B     		ldr	r3, .L141+28
 1180 0180 D6E90201 		ldrd	r0, [r6, #8]
 1181 0184 FFF7FEFF 		bl	__aeabi_dcmpgt
 1182              	.LVL105:
 1183 0188 0028     		cmp	r0, #0
 1184 018a 8FD0     		beq	.L102
 1185              		.loc 1 253 0
 1186 018c 0022     		movs	r2, #0
 1187 018e 0023     		movs	r3, #0
 1188 0190 D5E90401 		ldrd	r0, [r5, #16]
 1189 0194 FFF7FEFF 		bl	__aeabi_dcmpeq
 1190              	.LVL106:
 1191 0198 0028     		cmp	r0, #0
 1192 019a 95D1     		bne	.L103
 1193 019c 86E7     		b	.L102
 1194              	.L139:
 1195              	.LBB36:
 1196              	.LBB37:
 1197              		.loc 1 199 0
ARM GAS  /tmp/ccqwoZT4.s 			page 22


 1198 019e 0020     		movs	r0, #0
 1199 01a0 FFF7FEFF 		bl	left_motor_set_speed
 1200              	.LVL107:
 1201              		.loc 1 200 0
 1202 01a4 0020     		movs	r0, #0
 1203 01a6 FFF7FEFF 		bl	right_motor_set_speed
 1204              	.LVL108:
 1205              	.LBE37:
 1206              	.LBE36:
 1207              		.loc 1 266 0
 1208 01aa 1DA7     		adr	r7, .L141
 1209 01ac D7E90067 		ldrd	r6, [r7]
 1210              		.loc 1 263 0
 1211 01b0 4FF4FA70 		mov	r0, #500
 1212 01b4 FFF7FEFF 		bl	chThdSleep
 1213              	.LVL109:
 1214              		.loc 1 266 0
 1215 01b8 2149     		ldr	r1, .L141+32
 1216              		.loc 1 267 0
 1217 01ba 224D     		ldr	r5, .L141+36
 1218 01bc 1AA3     		adr	r3, .L141+8
 1219 01be D3E90023 		ldrd	r2, [r3]
 1220              		.loc 1 266 0
 1221 01c2 C1E90067 		strd	r6, [r1]
 1222              		.loc 1 269 0
 1223 01c6 6FF4A270 		mvn	r0, #324
 1224              	.L137:
 1225              		.loc 1 267 0
 1226 01ca C5E90023 		strd	r2, [r5]
 1227              		.loc 1 269 0
 1228 01ce FFF7FEFF 		bl	left_motor_set_speed
 1229              	.LVL110:
 1230              		.loc 1 270 0
 1231 01d2 D5E90001 		ldrd	r0, [r5]
 1232 01d6 FFF7FEFF 		bl	__aeabi_d2iz
 1233              	.LVL111:
 1234 01da FFF7FEFF 		bl	right_motor_set_speed
 1235              	.LVL112:
 1236              		.loc 1 271 0
 1237 01de 4FF4FA70 		mov	r0, #500
 1238 01e2 FFF7FEFF 		bl	chThdSleep
 1239              	.LVL113:
 1240              		.loc 1 273 0
 1241 01e6 0120     		movs	r0, #1
 1242 01e8 84E7     		b	.L97
 1243              	.L138:
 1244              	.LBB38:
 1245              	.LBB39:
 1246              		.loc 1 199 0
 1247 01ea 0020     		movs	r0, #0
 1248 01ec FFF7FEFF 		bl	left_motor_set_speed
 1249              	.LVL114:
 1250              		.loc 1 200 0
 1251 01f0 0020     		movs	r0, #0
 1252 01f2 FFF7FEFF 		bl	right_motor_set_speed
 1253              	.LVL115:
 1254              	.LBE39:
ARM GAS  /tmp/ccqwoZT4.s 			page 23


 1255              	.LBE38:
 1256              		.loc 1 242 0
 1257 01f6 0CA7     		adr	r7, .L141+8
 1258 01f8 D7E90067 		ldrd	r6, [r7]
 1259              		.loc 1 239 0
 1260 01fc 4FF4FA70 		mov	r0, #500
 1261 0200 FFF7FEFF 		bl	chThdSleep
 1262              	.LVL116:
 1263              		.loc 1 242 0
 1264 0204 0E49     		ldr	r1, .L141+32
 1265              		.loc 1 243 0
 1266 0206 0F4D     		ldr	r5, .L141+36
 1267 0208 05A3     		adr	r3, .L141
 1268 020a D3E90023 		ldrd	r2, [r3]
 1269              		.loc 1 242 0
 1270 020e C1E90067 		strd	r6, [r1]
 1271              		.loc 1 245 0
 1272 0212 40F24510 		movw	r0, #325
 1273 0216 D8E7     		b	.L137
 1274              	.L140:
 1275              		.loc 1 278 0
 1276 0218 FFF7FEFF 		bl	__stack_chk_fail
 1277              	.LVL117:
 1278              	.L142:
 1279 021c AFF30080 		.align	3
 1280              	.L141:
 1281 0220 00000000 		.word	0
 1282 0224 005074C0 		.word	-1066119168
 1283 0228 00000000 		.word	0
 1284 022c 00507440 		.word	1081364480
 1285 0230 00000000 		.word	__stack_chk_guard
 1286 0234 00000000 		.word	.LANCHOR4
 1287 0238 00000000 		.word	.LANCHOR5
 1288 023c 00406F40 		.word	1081032704
 1289 0240 00000000 		.word	.LANCHOR7
 1290 0244 00000000 		.word	.LANCHOR8
 1291              		.cfi_endproc
 1292              	.LFE266:
 1293              		.size	stray_criticals, .-stray_criticals
 1294              		.section	.text.startup.main,"ax",%progbits
 1295              		.align	1
 1296              		.p2align 4,,15
 1297              		.global	main
 1298              		.syntax unified
 1299              		.thumb
 1300              		.thumb_func
 1301              		.fpu fpv4-sp-d16
 1302              		.type	main, %function
 1303              	main:
 1304              	.LFB267:
 1305              		.loc 1 281 0
 1306              		.cfi_startproc
 1307              		@ args = 0, pretend = 0, frame = 8
 1308              		@ frame_needed = 0, uses_anonymous_args = 0
 1309 0000 2DE9F04F 		push	{r4, r5, r6, r7, r8, r9, r10, fp, lr}
 1310              		.cfi_def_cfa_offset 36
 1311              		.cfi_offset 4, -36
ARM GAS  /tmp/ccqwoZT4.s 			page 24


 1312              		.cfi_offset 5, -32
 1313              		.cfi_offset 6, -28
 1314              		.cfi_offset 7, -24
 1315              		.cfi_offset 8, -20
 1316              		.cfi_offset 9, -16
 1317              		.cfi_offset 10, -12
 1318              		.cfi_offset 11, -8
 1319              		.cfi_offset 14, -4
 1320 0004 2DED048B 		vpush.64	{d8, d9}
 1321              		.cfi_def_cfa_offset 52
 1322              		.cfi_offset 80, -52
 1323              		.cfi_offset 81, -48
 1324              		.cfi_offset 82, -44
 1325              		.cfi_offset 83, -40
 1326 0008 514B     		ldr	r3, .L187+16
 1327 000a DFF86491 		ldr	r9, .L187+48
 1328 000e 1B68     		ldr	r3, [r3]
 1329              	.LBB40:
 1330              	.LBB41:
 1331              		.loc 1 135 0
 1332 0010 DFF860B1 		ldr	fp, .L187+52
 1333              	.LBE41:
 1334              	.LBE40:
 1335              		.loc 1 281 0
 1336 0014 83B0     		sub	sp, sp, #12
 1337              		.cfi_def_cfa_offset 64
 1338              	.LBB45:
 1339              	.LBB42:
 1340              		.loc 1 136 0
 1341 0016 9FED4A8B 		vldr.64	d8, .L187
 1342              	.LBE42:
 1343              	.LBE45:
 1344              		.loc 1 281 0
 1345 001a 0193     		str	r3, [sp, #4]
 1346              		.loc 1 309 0
 1347 001c 9FED4A9B 		vldr.64	d9, .L187+8
 1348              		.loc 1 283 0
 1349 0020 FFF7FEFF 		bl	init
 1350              	.LVL118:
 1351              	.LBB46:
 1352              	.LBB43:
 1353              		.loc 1 135 0
 1354 0024 4FF0000A 		mov	r10, #0
 1355              		.loc 1 138 0
 1356 0028 0026     		movs	r6, #0
 1357 002a 0027     		movs	r7, #0
 1358              	.L144:
 1359              	.LBE43:
 1360              	.LBE46:
 1361              		.loc 1 288 0
 1362 002c FFF7FEFF 		bl	get_selector
 1363              	.LVL119:
 1364 0030 60B1     		cbz	r0, .L145
 1365              	.L184:
 1366              	.LBB47:
 1367              	.LBB48:
 1368              		.loc 1 199 0
ARM GAS  /tmp/ccqwoZT4.s 			page 25


 1369 0032 0020     		movs	r0, #0
 1370 0034 FFF7FEFF 		bl	left_motor_set_speed
 1371              	.LVL120:
 1372              		.loc 1 200 0
 1373 0038 0020     		movs	r0, #0
 1374 003a FFF7FEFF 		bl	right_motor_set_speed
 1375              	.LVL121:
 1376              	.LBE48:
 1377              	.LBE47:
 1378              		.loc 1 290 0
 1379 003e 6420     		movs	r0, #100
 1380 0040 FFF7FEFF 		bl	chThdSleep
 1381              	.LVL122:
 1382              		.loc 1 288 0
 1383 0044 FFF7FEFF 		bl	get_selector
 1384              	.LVL123:
 1385 0048 0028     		cmp	r0, #0
 1386 004a F2D1     		bne	.L184
 1387              	.L145:
 1388 004c DFF80881 		ldr	r8, .L187+24
 1389 0050 404D     		ldr	r5, .L187+20
 1390              		.loc 1 294 0
 1391 0052 FFF7FEFF 		bl	glow_leds
 1392              	.LVL124:
 1393              		.loc 1 296 0
 1394 0056 4446     		mov	r4, r8
 1395              		.loc 1 295 0
 1396 0058 FFF7FEFF 		bl	send_bt_values
 1397              	.LVL125:
 1398              		.loc 1 296 0
 1399 005c FFF7FEFF 		bl	fill_sensor_values
 1400              	.LVL126:
 1401 0060 05E0     		b	.L150
 1402              	.LVL127:
 1403              	.L186:
 1404              	.LBB49:
 1405              	.LBB44:
 1406              		.loc 1 134 0
 1407 0062 4D45     		cmp	r5, r9
 1408              		.loc 1 136 0
 1409 0064 84ED008B 		vstr.64	d8, [r4]
 1410 0068 04F10804 		add	r4, r4, #8
 1411              		.loc 1 134 0
 1412 006c 0DD0     		beq	.L185
 1413              	.L150:
 1414              		.loc 1 135 0
 1415 006e 5246     		mov	r2, r10
 1416 0070 5B46     		mov	r3, fp
 1417 0072 F5E80201 		ldrd	r0, [r5], #8
 1418 0076 FFF7FEFF 		bl	__aeabi_dcmpgt
 1419              	.LVL128:
 1420 007a 0028     		cmp	r0, #0
 1421 007c F1D1     		bne	.L186
 1422              		.loc 1 134 0
 1423 007e 4D45     		cmp	r5, r9
 1424              		.loc 1 138 0
 1425 0080 C4E90067 		strd	r6, [r4]
ARM GAS  /tmp/ccqwoZT4.s 			page 26


 1426 0084 04F10804 		add	r4, r4, #8
 1427              		.loc 1 134 0
 1428 0088 F1D1     		bne	.L150
 1429              	.L185:
 1430              	.LBE44:
 1431              	.LBE49:
 1432              		.loc 1 300 0
 1433 008a FFF7FEFF 		bl	stray_criticals
 1434              	.LVL129:
 1435 008e 0028     		cmp	r0, #0
 1436 0090 CCD1     		bne	.L144
 1437              		.loc 1 305 0
 1438 0092 3149     		ldr	r1, .L187+24
 1439 0094 3246     		mov	r2, r6
 1440 0096 0C46     		mov	r4, r1
 1441 0098 3B46     		mov	r3, r7
 1442 009a D1E90A01 		ldrd	r0, [r1, #40]
 1443 009e FFF7FEFF 		bl	__aeabi_dcmpeq
 1444              	.LVL130:
 1445 00a2 88B1     		cbz	r0, .L151
 1446              		.loc 1 305 0 is_stmt 0 discriminator 2
 1447 00a4 3246     		mov	r2, r6
 1448 00a6 3B46     		mov	r3, r7
 1449 00a8 D4E90C01 		ldrd	r0, [r4, #48]
 1450 00ac FFF7FEFF 		bl	__aeabi_dcmpeq
 1451              	.LVL131:
 1452 00b0 50B1     		cbz	r0, .L151
 1453              	.L152:
 1454              		.loc 1 317 0 is_stmt 1
 1455 00b2 FFF7FEFF 		bl	run_braitenberg
 1456              	.LVL132:
 1457              	.L158:
 1458              	.LBB50:
 1459              		.loc 1 322 0 discriminator 3
 1460 00b6 E8E80267 		strd	r6, [r8], #8
 1461              	.LVL133:
 1462              		.loc 1 321 0 discriminator 3
 1463 00ba 284B     		ldr	r3, .L187+28
 1464 00bc 4345     		cmp	r3, r8
 1465 00be FAD1     		bne	.L158
 1466              	.LBE50:
 1467              		.loc 1 326 0
 1468 00c0 3220     		movs	r0, #50
 1469 00c2 FFF7FEFF 		bl	chThdSleep
 1470              	.LVL134:
 1471 00c6 B1E7     		b	.L144
 1472              	.L151:
 1473              		.loc 1 305 0 discriminator 3
 1474 00c8 2349     		ldr	r1, .L187+24
 1475 00ca 3246     		mov	r2, r6
 1476 00cc 0C46     		mov	r4, r1
 1477 00ce 3B46     		mov	r3, r7
 1478 00d0 D1E90201 		ldrd	r0, [r1, #8]
 1479 00d4 FFF7FEFF 		bl	__aeabi_dcmpeq
 1480              	.LVL135:
 1481 00d8 38B1     		cbz	r0, .L154
 1482              		.loc 1 306 0
ARM GAS  /tmp/ccqwoZT4.s 			page 27


 1483 00da 3246     		mov	r2, r6
 1484 00dc 3B46     		mov	r3, r7
 1485 00de D4E90401 		ldrd	r0, [r4, #16]
 1486 00e2 FFF7FEFF 		bl	__aeabi_dcmpeq
 1487              	.LVL136:
 1488 00e6 0028     		cmp	r0, #0
 1489 00e8 E3D1     		bne	.L152
 1490              	.L154:
 1491              		.loc 1 306 0 is_stmt 0 discriminator 1
 1492 00ea 1B49     		ldr	r1, .L187+24
 1493 00ec 3246     		mov	r2, r6
 1494 00ee 0C46     		mov	r4, r1
 1495 00f0 3B46     		mov	r3, r7
 1496 00f2 D1E90001 		ldrd	r0, [r1]
 1497 00f6 FFF7FEFF 		bl	__aeabi_dcmpeq
 1498              	.LVL137:
 1499 00fa 38B1     		cbz	r0, .L156
 1500              		.loc 1 307 0 is_stmt 1
 1501 00fc 3246     		mov	r2, r6
 1502 00fe 3B46     		mov	r3, r7
 1503 0100 D4E90E01 		ldrd	r0, [r4, #56]
 1504 0104 FFF7FEFF 		bl	__aeabi_dcmpeq
 1505              	.LVL138:
 1506 0108 0028     		cmp	r0, #0
 1507 010a D2D1     		bne	.L152
 1508              	.L156:
 1509              		.loc 1 309 0
 1510 010c 1449     		ldr	r1, .L187+32
 1511              		.loc 1 310 0
 1512 010e 154B     		ldr	r3, .L187+36
 1513              		.loc 1 312 0
 1514 0110 1548     		ldr	r0, .L187+40
 1515              		.loc 1 309 0
 1516 0112 81ED009B 		vstr.64	d9, [r1]
 1517              		.loc 1 310 0
 1518 0116 1549     		ldr	r1, .L187+44
 1519 0118 0022     		movs	r2, #0
 1520 011a 0C46     		mov	r4, r1
 1521 011c C1E90023 		strd	r2, [r1]
 1522              		.loc 1 312 0
 1523 0120 FFF7FEFF 		bl	left_motor_set_speed
 1524              	.LVL139:
 1525              		.loc 1 313 0
 1526 0124 D4E90001 		ldrd	r0, [r4]
 1527 0128 FFF7FEFF 		bl	__aeabi_d2iz
 1528              	.LVL140:
 1529 012c FFF7FEFF 		bl	right_motor_set_speed
 1530              	.LVL141:
 1531              		.loc 1 314 0
 1532 0130 4FF4FA70 		mov	r0, #500
 1533 0134 FFF7FEFF 		bl	chThdSleep
 1534              	.LVL142:
 1535 0138 BDE7     		b	.L158
 1536              	.L188:
 1537 013a 00BFAFF3 		.align	3
 1537      0080
 1538              	.L187:
ARM GAS  /tmp/ccqwoZT4.s 			page 28


 1539 0140 00000000 		.word	0
 1540 0144 0000F03F 		.word	1072693248
 1541 0148 00000000 		.word	0
 1542 014c 005084C0 		.word	-1065070592
 1543 0150 00000000 		.word	__stack_chk_guard
 1544 0154 00000000 		.word	.LANCHOR4
 1545 0158 00000000 		.word	.LANCHOR5
 1546 015c 40000000 		.word	.LANCHOR5+64
 1547 0160 00000000 		.word	.LANCHOR7
 1548 0164 00508440 		.word	1082413056
 1549 0168 76FDFFFF 		.word	-650
 1550 016c 00000000 		.word	.LANCHOR8
 1551 0170 40000000 		.word	.LANCHOR4+64
 1552 0174 00005940 		.word	1079574528
 1553              		.cfi_endproc
 1554              	.LFE267:
 1555              		.size	main, .-main
 1556              		.section	.text.__stack_chk_fail,"ax",%progbits
 1557              		.align	1
 1558              		.p2align 4,,15
 1559              		.global	__stack_chk_fail
 1560              		.syntax unified
 1561              		.thumb
 1562              		.thumb_func
 1563              		.fpu fpv4-sp-d16
 1564              		.type	__stack_chk_fail, %function
 1565              	__stack_chk_fail:
 1566              	.LFB268:
 1567              		.loc 1 334 0
 1568              		.cfi_startproc
 1569              		@ args = 0, pretend = 0, frame = 8
 1570              		@ frame_needed = 0, uses_anonymous_args = 0
 1571 0000 00B5     		push	{lr}
 1572              		.cfi_def_cfa_offset 4
 1573              		.cfi_offset 14, -4
 1574 0002 084B     		ldr	r3, .L194
 1575 0004 83B0     		sub	sp, sp, #12
 1576              		.cfi_def_cfa_offset 16
 1577              		.loc 1 334 0
 1578 0006 1A68     		ldr	r2, [r3]
 1579 0008 0192     		str	r2, [sp, #4]
 1580              		.loc 1 335 0
 1581 000a 019A     		ldr	r2, [sp, #4]
 1582 000c 1B68     		ldr	r3, [r3]
 1583 000e 9A42     		cmp	r2, r3
 1584 0010 05D1     		bne	.L193
 1585 0012 0548     		ldr	r0, .L194+4
 1586              		.loc 1 336 0
 1587 0014 03B0     		add	sp, sp, #12
 1588              		.cfi_remember_state
 1589              		.cfi_def_cfa_offset 4
 1590              		@ sp needed
 1591 0016 5DF804EB 		ldr	lr, [sp], #4
 1592              		.cfi_restore 14
 1593              		.cfi_def_cfa_offset 0
 1594              		.loc 1 335 0
 1595 001a FFF7FEBF 		b	chSysHalt
ARM GAS  /tmp/ccqwoZT4.s 			page 29


 1596              	.LVL143:
 1597              	.L193:
 1598              		.cfi_restore_state
 1599 001e FFF7FEFF 		bl	__stack_chk_fail
 1600              	.LVL144:
 1601              	.L195:
 1602 0022 00BF     		.align	2
 1603              	.L194:
 1604 0024 00000000 		.word	__stack_chk_guard
 1605 0028 00000000 		.word	.LC1
 1606              		.cfi_endproc
 1607              	.LFE268:
 1608              		.size	__stack_chk_fail, .-__stack_chk_fail
 1609              		.global	__stack_chk_guard
 1610              		.global	bus_condvar
 1611              		.global	bus_lock
 1612              		.global	bus
 1613              		.global	tof_value
 1614              		.global	right_speed
 1615              		.global	left_speed
 1616              		.global	proximity_weights
 1617              		.global	proximity_values
 1618              		.global	braitenberg_weights
 1619              		.section	.bss.bus,"aw",%nobits
 1620              		.align	2
 1621              		.set	.LANCHOR2,. + 0
 1622              		.type	bus, %object
 1623              		.size	bus, 12
 1624              	bus:
 1625 0000 00000000 		.space	12
 1625      00000000 
 1625      00000000 
 1626              		.section	.bss.left_speed,"aw",%nobits
 1627              		.align	3
 1628              		.set	.LANCHOR7,. + 0
 1629              		.type	left_speed, %object
 1630              		.size	left_speed, 8
 1631              	left_speed:
 1632 0000 00000000 		.space	8
 1632      00000000 
 1633              		.section	.bss.proximity_values,"aw",%nobits
 1634              		.align	3
 1635              		.set	.LANCHOR4,. + 0
 1636              		.type	proximity_values, %object
 1637              		.size	proximity_values, 64
 1638              	proximity_values:
 1639 0000 00000000 		.space	64
 1639      00000000 
 1639      00000000 
 1639      00000000 
 1639      00000000 
 1640              		.section	.bss.proximity_weights,"aw",%nobits
 1641              		.align	3
 1642              		.set	.LANCHOR5,. + 0
 1643              		.type	proximity_weights, %object
 1644              		.size	proximity_weights, 64
 1645              	proximity_weights:
ARM GAS  /tmp/ccqwoZT4.s 			page 30


 1646 0000 00000000 		.space	64
 1646      00000000 
 1646      00000000 
 1646      00000000 
 1646      00000000 
 1647              		.section	.bss.right_speed,"aw",%nobits
 1648              		.align	3
 1649              		.set	.LANCHOR8,. + 0
 1650              		.type	right_speed, %object
 1651              		.size	right_speed, 8
 1652              	right_speed:
 1653 0000 00000000 		.space	8
 1653      00000000 
 1654              		.section	.bss.tof_value,"aw",%nobits
 1655              		.align	3
 1656              		.set	.LANCHOR3,. + 0
 1657              		.type	tof_value, %object
 1658              		.size	tof_value, 8
 1659              	tof_value:
 1660 0000 00000000 		.space	8
 1660      00000000 
 1661              		.section	.data.__stack_chk_guard,"aw",%progbits
 1662              		.align	2
 1663              		.type	__stack_chk_guard, %object
 1664              		.size	__stack_chk_guard, 4
 1665              	__stack_chk_guard:
 1666 0000 96E3DEE2 		.word	-488709226
 1667              		.section	.data.braitenberg_weights,"aw",%progbits
 1668              		.align	3
 1669              		.set	.LANCHOR6,. + 0
 1670              		.type	braitenberg_weights, %object
 1671              		.size	braitenberg_weights, 24
 1672              	braitenberg_weights:
 1673 0000 00000060 		.word	1610612736
 1674 0004 6666E63F 		.word	1072064102
 1675 0008 00000000 		.word	0
 1676 000c 0000E03F 		.word	1071644672
 1677 0010 00000040 		.word	1073741824
 1678 0014 3333D33F 		.word	1070805811
 1679              		.section	.data.bus_condvar,"aw",%progbits
 1680              		.align	2
 1681              		.set	.LANCHOR0,. + 0
 1682              		.type	bus_condvar, %object
 1683              		.size	bus_condvar, 8
 1684              	bus_condvar:
 1685 0000 00000000 		.word	bus_condvar
 1686 0004 00000000 		.word	bus_condvar
 1687              		.section	.data.bus_lock,"aw",%progbits
 1688              		.align	2
 1689              		.set	.LANCHOR1,. + 0
 1690              		.type	bus_lock, %object
 1691              		.size	bus_lock, 20
 1692              	bus_lock:
 1693 0000 00000000 		.word	bus_lock
 1694 0004 00000000 		.word	bus_lock
 1695 0008 00000000 		.word	0
 1696 000c 00000000 		.word	0
ARM GAS  /tmp/ccqwoZT4.s 			page 31


 1697 0010 00000000 		.word	0
 1698              		.section	.rodata.__stack_chk_fail.str1.4,"aMS",%progbits,1
 1699              		.align	2
 1700              	.LC1:
 1701 0000 53746163 		.ascii	"Stack smashing detected\000"
 1701      6B20736D 
 1701      61736869 
 1701      6E672064 
 1701      65746563 
 1702              		.section	.rodata.send_bt_values.str1.4,"aMS",%progbits,1
 1703              		.align	2
 1704              	.LC0:
 1705 0000 25642C25 		.ascii	"%d,%d,%d,%d,%d,%d,%d,%d,%d,%d,%d,%d,\012\000"
 1705      642C2564 
 1705      2C25642C 
 1705      25642C25 
 1705      642C2564 
 1706              		.text
 1707              	.Letext0:
 1708              		.file 2 "/home/leander/uos_codes/epuck2_lab/Eclipse_e-puck2/Tools/gcc-arm-none-eabi-7-2017-q4-majo
 1709              		.file 3 "/home/leander/uos_codes/epuck2_lab/Eclipse_e-puck2/Tools/gcc-arm-none-eabi-7-2017-q4-majo
 1710              		.file 4 "/home/leander/uos_codes/epuck2_lab/Eclipse_e-puck2/Tools/gcc-arm-none-eabi-7-2017-q4-majo
 1711              		.file 5 "/home/leander/uos_codes/epuck2_lab/Eclipse_e-puck2/Tools/gcc-arm-none-eabi-7-2017-q4-majo
 1712              		.file 6 "/home/leander/uos_codes/epuck2_lab/Eclipse_e-puck2/Tools/gcc-arm-none-eabi-7-2017-q4-majo
 1713              		.file 7 "/home/leander/uos_codes/epuck2_lab/Eclipse_e-puck2/Tools/gcc-arm-none-eabi-7-2017-q4-majo
 1714              		.file 8 "/home/leander/uos_codes/epuck2_lab/Eclipse_e-puck2/Tools/gcc-arm-none-eabi-7-2017-q4-majo
 1715              		.file 9 "/home/leander/uos_codes/epuck2_lab/Eclipse_e-puck2/Tools/gcc-arm-none-eabi-7-2017-q4-majo
 1716              		.file 10 "../e-puck2_main-processor/ChibiOS//os/rt/ports/ARMCMx/compilers/GCC/chtypes.h"
 1717              		.file 11 "../e-puck2_main-processor/ChibiOS//os/rt/include/chsystypes.h"
 1718              		.file 12 "../e-puck2_main-processor/ChibiOS//os/rt/include/chschd.h"
 1719              		.file 13 "../e-puck2_main-processor/ChibiOS//os/ext/CMSIS/include/core_cm4.h"
 1720              		.file 14 "../e-puck2_main-processor/ChibiOS//os/ext/CMSIS/ST/system_stm32f4xx.h"
 1721              		.file 15 "../e-puck2_main-processor/ChibiOS//os/ext/CMSIS/ST/stm32f407xx.h"
 1722              		.file 16 "../e-puck2_main-processor/ChibiOS//os/rt/ports/ARMCMx/chcore.h"
 1723              		.file 17 "../e-puck2_main-processor/ChibiOS//os/rt/ports/ARMCMx/chcore_v7m.h"
 1724              		.file 18 "../e-puck2_main-processor/ChibiOS//os/rt/include/chdebug.h"
 1725              		.file 19 "../e-puck2_main-processor/ChibiOS//os/rt/include/chtm.h"
 1726              		.file 20 "../e-puck2_main-processor/ChibiOS//os/rt/include/chstats.h"
 1727              		.file 21 "../e-puck2_main-processor/ChibiOS//os/rt/include/chsem.h"
 1728              		.file 22 "../e-puck2_main-processor/ChibiOS//os/rt/include/chmtx.h"
 1729              		.file 23 "../e-puck2_main-processor/ChibiOS//os/rt/include/chregistry.h"
 1730              		.file 24 "../e-puck2_main-processor/ChibiOS//os/rt/include/chcond.h"
 1731              		.file 25 "../e-puck2_main-processor/ChibiOS//os/rt/include/chevents.h"
 1732              		.file 26 "../e-puck2_main-processor/ChibiOS//os/rt/include/chqueues.h"
 1733              		.file 27 "../e-puck2_main-processor/ChibiOS//os/hal/ports/STM32/STM32F4xx/stm32_dma.h"
 1734              		.file 28 "../e-puck2_main-processor/ChibiOS//os/hal/include/hal_ioblock.h"
 1735              		.file 29 "../e-puck2_main-processor/ChibiOS//os/hal/ports/STM32/LLD/GPIOv2/pal_lld.h"
 1736              		.file 30 "../e-puck2_main-processor/ChibiOS//os/hal/include/adc.h"
 1737              		.file 31 "../e-puck2_main-processor/ChibiOS//os/hal/ports/STM32/STM32F4xx/adc_lld.h"
 1738              		.file 32 "../e-puck2_main-processor/ChibiOS//os/hal/include/can.h"
 1739              		.file 33 "../e-puck2_main-processor/ChibiOS//os/hal/ports/STM32/LLD/can_lld.h"
 1740              		.file 34 "../e-puck2_main-processor/ChibiOS//os/hal/include/dac.h"
 1741              		.file 35 "../e-puck2_main-processor/ChibiOS//os/hal/ports/STM32/LLD/DACv1/dac_lld.h"
 1742              		.file 36 "../e-puck2_main-processor/ChibiOS//os/hal/include/ext.h"
 1743              		.file 37 "../e-puck2_main-processor/ChibiOS//os/hal/ports/STM32/LLD/ext_lld.h"
 1744              		.file 38 "../e-puck2_main-processor/ChibiOS//os/hal/include/gpt.h"
 1745              		.file 39 "../e-puck2_main-processor/ChibiOS//os/hal/ports/STM32/LLD/TIMv1/gpt_lld.h"
ARM GAS  /tmp/ccqwoZT4.s 			page 32


 1746              		.file 40 "../e-puck2_main-processor/ChibiOS//os/hal/ports/STM32/LLD/TIMv1/stm32_tim.h"
 1747              		.file 41 "../e-puck2_main-processor/ChibiOS//os/hal/include/i2c.h"
 1748              		.file 42 "../e-puck2_main-processor/ChibiOS//os/hal/ports/STM32/LLD/I2Cv1/i2c_lld.h"
 1749              		.file 43 "../e-puck2_main-processor/ChibiOS//os/hal/include/i2s.h"
 1750              		.file 44 "../e-puck2_main-processor/ChibiOS//os/hal/ports/STM32/LLD/SPIv1/i2s_lld.h"
 1751              		.file 45 "../e-puck2_main-processor/ChibiOS//os/hal/include/pwm.h"
 1752              		.file 46 "../e-puck2_main-processor/ChibiOS//os/hal/ports/STM32/LLD/TIMv1/pwm_lld.h"
 1753              		.file 47 "../e-puck2_main-processor/ChibiOS//os/hal/include/serial.h"
 1754              		.file 48 "../e-puck2_main-processor/ChibiOS//os/hal/ports/STM32/LLD/USARTv1/serial_lld.h"
 1755              		.file 49 "../e-puck2_main-processor/ChibiOS//os/hal/include/sdc.h"
 1756              		.file 50 "../e-puck2_main-processor/ChibiOS//os/hal/ports/STM32/LLD/sdc_lld.h"
 1757              		.file 51 "../e-puck2_main-processor/ChibiOS//os/hal/include/spi.h"
 1758              		.file 52 "../e-puck2_main-processor/ChibiOS//os/hal/ports/STM32/LLD/SPIv1/spi_lld.h"
 1759              		.file 53 "../e-puck2_main-processor/ChibiOS//os/hal/include/usb.h"
 1760              		.file 54 "../e-puck2_main-processor/ChibiOS//os/hal/ports/STM32/LLD/OTGv1/usb_lld.h"
 1761              		.file 55 "../e-puck2_main-processor/ChibiOS//os/hal/ports/STM32/LLD/OTGv1/stm32_otg.h"
 1762              		.file 56 "/home/leander/uos_codes/epuck2_lab/Eclipse_e-puck2/Tools/gcc-arm-none-eabi-7-2017-q4-maj
 1763              		.file 57 "../e-puck2_main-processor/src/msgbus/messagebus.h"
 1764              		.file 58 "../e-puck2_main-processor/src/parameter/parameter.h"
 1765              		.file 59 "./main.h"
 1766              		.file 60 "../e-puck2_main-processor/src/motors.h"
 1767              		.file 61 "../e-puck2_main-processor/ChibiOS//os/rt/include/chsys.h"
 1768              		.file 62 "../e-puck2_main-processor/src/selector.h"
 1769              		.file 63 "../e-puck2_main-processor/ChibiOS//os/rt/include/chthreads.h"
 1770              		.file 64 "../e-puck2_main-processor/src/sensors/proximity.h"
 1771              		.file 65 "../e-puck2_main-processor/src/sensors/VL53L0X/VL53L0X.h"
 1772              		.file 66 "/home/leander/uos_codes/epuck2_lab/Eclipse_e-puck2/Tools/gcc-arm-none-eabi-7-2017-q4-maj
 1773              		.file 67 "../e-puck2_main-processor/src/epuck1x/uart/e_uart_char.h"
 1774              		.file 68 "../e-puck2_main-processor/ChibiOS//os/hal/include/hal.h"
 1775              		.file 69 "../e-puck2_main-processor/src/memory_protection.h"
 1776              		.file 70 "../e-puck2_main-processor/src/leds.h"
 1777              		.file 71 "../e-puck2_main-processor/src/spi_comm.h"
 1778              		.file 72 "../e-puck2_main-processor/src/serial_comm.h"