ARM GAS  /tmp/ccbsbWcm.s 			page 1


   1              		.cpu cortex-m4
   2              		.eabi_attribute 27, 1
   3              		.eabi_attribute 28, 1
   4              		.eabi_attribute 20, 1
   5              		.eabi_attribute 21, 1
   6              		.eabi_attribute 23, 3
   7              		.eabi_attribute 24, 1
   8              		.eabi_attribute 25, 1
   9              		.eabi_attribute 26, 1
  10              		.eabi_attribute 30, 2
  11              		.eabi_attribute 34, 1
  12              		.eabi_attribute 18, 4
  13              		.file	"nvic.c"
  14              		.text
  15              	.Ltext0:
  16              		.cfi_sections	.debug_frame
  17              		.section	.text.nvicEnableVector,"ax",%progbits
  18              		.align	1
  19              		.p2align 4,,15
  20              		.global	nvicEnableVector
  21              		.syntax unified
  22              		.thumb
  23              		.thumb_func
  24              		.fpu fpv4-sp-d16
  25              		.type	nvicEnableVector, %function
  26              	nvicEnableVector:
  27              	.LFB256:
  28              		.file 1 "../e-puck2_main-processor/ChibiOS//os/hal/ports/common/ARMCMx/nvic.c"
  29              		.loc 1 57 0
  30              		.cfi_startproc
  31              		@ args = 0, pretend = 0, frame = 8
  32              		@ frame_needed = 0, uses_anonymous_args = 0
  33              	.LVL0:
  34 0000 30B5     		push	{r4, r5, lr}
  35              		.cfi_def_cfa_offset 12
  36              		.cfi_offset 4, -12
  37              		.cfi_offset 5, -8
  38              		.cfi_offset 14, -4
  39              		.loc 1 60 0
  40 0002 4309     		lsrs	r3, r0, #5
  41              		.loc 1 57 0
  42 0004 104D     		ldr	r5, .L6
  43 0006 83B0     		sub	sp, sp, #12
  44              		.cfi_def_cfa_offset 24
  45 0008 9B00     		lsls	r3, r3, #2
  46              		.loc 1 57 0
  47 000a 2A68     		ldr	r2, [r5]
  48 000c 0192     		str	r2, [sp, #4]
  49              		.loc 1 59 0
  50 000e 00F16044 		add	r4, r0, #-536870912
  51 0012 03F16043 		add	r3, r3, #-536870912
  52 0016 03F56143 		add	r3, r3, #57600
  53              		.loc 1 60 0
  54 001a 0122     		movs	r2, #1
  55              		.loc 1 59 0
  56 001c 0901     		lsls	r1, r1, #4
  57              	.LVL1:
ARM GAS  /tmp/ccbsbWcm.s 			page 2


  58 001e 04F56144 		add	r4, r4, #57600
  59              		.loc 1 60 0
  60 0022 00F01F00 		and	r0, r0, #31
  61              	.LVL2:
  62 0026 02FA00F0 		lsl	r0, r2, r0
  63              		.loc 1 59 0
  64 002a C9B2     		uxtb	r1, r1
  65 002c 84F80013 		strb	r1, [r4, #768]
  66              		.loc 1 60 0
  67 0030 C3F88001 		str	r0, [r3, #384]
  68              		.loc 1 61 0
  69 0034 1860     		str	r0, [r3]
  70              		.loc 1 62 0
  71 0036 019A     		ldr	r2, [sp, #4]
  72 0038 2B68     		ldr	r3, [r5]
  73 003a 9A42     		cmp	r2, r3
  74 003c 01D1     		bne	.L5
  75 003e 03B0     		add	sp, sp, #12
  76              		.cfi_remember_state
  77              		.cfi_def_cfa_offset 12
  78              		@ sp needed
  79 0040 30BD     		pop	{r4, r5, pc}
  80              	.LVL3:
  81              	.L5:
  82              		.cfi_restore_state
  83 0042 FFF7FEFF 		bl	__stack_chk_fail
  84              	.LVL4:
  85              	.L7:
  86 0046 00BF     		.align	2
  87              	.L6:
  88 0048 00000000 		.word	__stack_chk_guard
  89              		.cfi_endproc
  90              	.LFE256:
  91              		.size	nvicEnableVector, .-nvicEnableVector
  92              		.section	.text.nvicDisableVector,"ax",%progbits
  93              		.align	1
  94              		.p2align 4,,15
  95              		.global	nvicDisableVector
  96              		.syntax unified
  97              		.thumb
  98              		.thumb_func
  99              		.fpu fpv4-sp-d16
 100              		.type	nvicDisableVector, %function
 101              	nvicDisableVector:
 102              	.LFB257:
 103              		.loc 1 69 0
 104              		.cfi_startproc
 105              		@ args = 0, pretend = 0, frame = 8
 106              		@ frame_needed = 0, uses_anonymous_args = 0
 107              	.LVL5:
 108 0000 30B5     		push	{r4, r5, lr}
 109              		.cfi_def_cfa_offset 12
 110              		.cfi_offset 4, -12
 111              		.cfi_offset 5, -8
 112              		.cfi_offset 14, -4
 113              		.loc 1 71 0
 114 0002 4309     		lsrs	r3, r0, #5
ARM GAS  /tmp/ccbsbWcm.s 			page 3


 115              		.loc 1 69 0
 116 0004 0B49     		ldr	r1, .L12
 117              		.loc 1 71 0
 118 0006 0C4C     		ldr	r4, .L12+4
 119 0008 00F01F05 		and	r5, r0, #31
 120              		.loc 1 69 0
 121 000c 83B0     		sub	sp, sp, #12
 122              		.cfi_def_cfa_offset 24
 123              		.loc 1 71 0
 124 000e 2033     		adds	r3, r3, #32
 125 0010 0122     		movs	r2, #1
 126 0012 AA40     		lsls	r2, r2, r5
 127              		.loc 1 72 0
 128 0014 2044     		add	r0, r0, r4
 129              	.LVL6:
 130              		.loc 1 69 0
 131 0016 0D68     		ldr	r5, [r1]
 132 0018 0195     		str	r5, [sp, #4]
 133              		.loc 1 71 0
 134 001a 44F82320 		str	r2, [r4, r3, lsl #2]
 135              		.loc 1 72 0
 136 001e 0023     		movs	r3, #0
 137 0020 80F80033 		strb	r3, [r0, #768]
 138              		.loc 1 73 0
 139 0024 019A     		ldr	r2, [sp, #4]
 140 0026 0B68     		ldr	r3, [r1]
 141 0028 9A42     		cmp	r2, r3
 142 002a 01D1     		bne	.L11
 143 002c 03B0     		add	sp, sp, #12
 144              		.cfi_remember_state
 145              		.cfi_def_cfa_offset 12
 146              		@ sp needed
 147 002e 30BD     		pop	{r4, r5, pc}
 148              	.L11:
 149              		.cfi_restore_state
 150 0030 FFF7FEFF 		bl	__stack_chk_fail
 151              	.LVL7:
 152              	.L13:
 153              		.align	2
 154              	.L12:
 155 0034 00000000 		.word	__stack_chk_guard
 156 0038 00E100E0 		.word	-536813312
 157              		.cfi_endproc
 158              	.LFE257:
 159              		.size	nvicDisableVector, .-nvicDisableVector
 160              		.section	.text.nvicSetSystemHandlerPriority,"ax",%progbits
 161              		.align	1
 162              		.p2align 4,,15
 163              		.global	nvicSetSystemHandlerPriority
 164              		.syntax unified
 165              		.thumb
 166              		.thumb_func
 167              		.fpu fpv4-sp-d16
 168              		.type	nvicSetSystemHandlerPriority, %function
 169              	nvicSetSystemHandlerPriority:
 170              	.LFB258:
 171              		.loc 1 81 0
ARM GAS  /tmp/ccbsbWcm.s 			page 4


 172              		.cfi_startproc
 173              		@ args = 0, pretend = 0, frame = 8
 174              		@ frame_needed = 0, uses_anonymous_args = 0
 175              	.LVL8:
 176 0000 70B5     		push	{r4, r5, r6, lr}
 177              		.cfi_def_cfa_offset 16
 178              		.cfi_offset 4, -16
 179              		.cfi_offset 5, -12
 180              		.cfi_offset 6, -8
 181              		.cfi_offset 14, -4
 182 0002 0D4E     		ldr	r6, .L19
 183 0004 82B0     		sub	sp, sp, #8
 184              		.cfi_def_cfa_offset 24
 185              		.loc 1 81 0
 186 0006 3368     		ldr	r3, [r6]
 187 0008 0193     		str	r3, [sp, #4]
 188              		.loc 1 83 0
 189 000a 0C28     		cmp	r0, #12
 190              		.loc 1 81 0
 191 000c 0446     		mov	r4, r0
 192 000e 0D46     		mov	r5, r1
 193              		.loc 1 83 0
 194 0010 02D9     		bls	.L15
 195              		.loc 1 83 0 is_stmt 0 discriminator 2
 196 0012 0A48     		ldr	r0, .L19+4
 197              	.LVL9:
 198 0014 FFF7FEFF 		bl	chSysHalt
 199              	.LVL10:
 200              	.L15:
 201              		.loc 1 85 0 is_stmt 1
 202 0018 04F16040 		add	r0, r4, #-536870912
 203 001c 00F56D40 		add	r0, r0, #60672
 204 0020 2D01     		lsls	r5, r5, #4
 205              	.LVL11:
 206 0022 EDB2     		uxtb	r5, r5
 207 0024 0576     		strb	r5, [r0, #24]
 208              		.loc 1 86 0
 209 0026 019A     		ldr	r2, [sp, #4]
 210 0028 3368     		ldr	r3, [r6]
 211 002a 9A42     		cmp	r2, r3
 212 002c 01D1     		bne	.L18
 213 002e 02B0     		add	sp, sp, #8
 214              		.cfi_remember_state
 215              		.cfi_def_cfa_offset 16
 216              		@ sp needed
 217 0030 70BD     		pop	{r4, r5, r6, pc}
 218              	.LVL12:
 219              	.L18:
 220              		.cfi_restore_state
 221 0032 FFF7FEFF 		bl	__stack_chk_fail
 222              	.LVL13:
 223              	.L20:
 224 0036 00BF     		.align	2
 225              	.L19:
 226 0038 00000000 		.word	__stack_chk_guard
 227 003c 00000000 		.word	.LANCHOR0
 228              		.cfi_endproc
ARM GAS  /tmp/ccbsbWcm.s 			page 5


 229              	.LFE258:
 230              		.size	nvicSetSystemHandlerPriority, .-nvicSetSystemHandlerPriority
 231              		.section	.text.nvicClearPending,"ax",%progbits
 232              		.align	1
 233              		.p2align 4,,15
 234              		.global	nvicClearPending
 235              		.syntax unified
 236              		.thumb
 237              		.thumb_func
 238              		.fpu fpv4-sp-d16
 239              		.type	nvicClearPending, %function
 240              	nvicClearPending:
 241              	.LFB259:
 242              		.loc 1 93 0
 243              		.cfi_startproc
 244              		@ args = 0, pretend = 0, frame = 8
 245              		@ frame_needed = 0, uses_anonymous_args = 0
 246              	.LVL14:
 247 0000 10B5     		push	{r4, lr}
 248              		.cfi_def_cfa_offset 8
 249              		.cfi_offset 4, -8
 250              		.cfi_offset 14, -4
 251 0002 0B49     		ldr	r1, .L25
 252              		.loc 1 95 0
 253 0004 0B4C     		ldr	r4, .L25+4
 254              		.loc 1 93 0
 255 0006 0A68     		ldr	r2, [r1]
 256 0008 82B0     		sub	sp, sp, #8
 257              		.cfi_def_cfa_offset 16
 258              		.loc 1 95 0
 259 000a 4309     		lsrs	r3, r0, #5
 260              		.loc 1 93 0
 261 000c 0192     		str	r2, [sp, #4]
 262              		.loc 1 95 0
 263 000e 6033     		adds	r3, r3, #96
 264 0010 0122     		movs	r2, #1
 265 0012 00F01F00 		and	r0, r0, #31
 266              	.LVL15:
 267 0016 02FA00F0 		lsl	r0, r2, r0
 268 001a 44F82300 		str	r0, [r4, r3, lsl #2]
 269              		.loc 1 96 0
 270 001e 019A     		ldr	r2, [sp, #4]
 271 0020 0B68     		ldr	r3, [r1]
 272 0022 9A42     		cmp	r2, r3
 273 0024 01D1     		bne	.L24
 274 0026 02B0     		add	sp, sp, #8
 275              		.cfi_remember_state
 276              		.cfi_def_cfa_offset 8
 277              		@ sp needed
 278 0028 10BD     		pop	{r4, pc}
 279              	.L24:
 280              		.cfi_restore_state
 281 002a FFF7FEFF 		bl	__stack_chk_fail
 282              	.LVL16:
 283              	.L26:
 284 002e 00BF     		.align	2
 285              	.L25:
ARM GAS  /tmp/ccbsbWcm.s 			page 6


 286 0030 00000000 		.word	__stack_chk_guard
 287 0034 00E100E0 		.word	-536813312
 288              		.cfi_endproc
 289              	.LFE259:
 290              		.size	nvicClearPending, .-nvicClearPending
 291              		.section	.rodata.__func__.9850,"a",%progbits
 292              		.align	2
 293              		.set	.LANCHOR0,. + 0
 294              		.type	__func__.9850, %object
 295              		.size	__func__.9850, 29
 296              	__func__.9850:
 297 0000 6E766963 		.ascii	"nvicSetSystemHandlerPriority\000"
 297      53657453 
 297      79737465 
 297      6D48616E 
 297      646C6572 
 298              		.text
 299              	.Letext0:
 300              		.file 2 "/home/leander/uos_codes/epuck2_lab/Eclipse_e-puck2/Tools/gcc-arm-none-eabi-7-2017-q4-majo
 301              		.file 3 "/home/leander/uos_codes/epuck2_lab/Eclipse_e-puck2/Tools/gcc-arm-none-eabi-7-2017-q4-majo
 302              		.file 4 "/home/leander/uos_codes/epuck2_lab/Eclipse_e-puck2/Tools/gcc-arm-none-eabi-7-2017-q4-majo
 303              		.file 5 "../e-puck2_main-processor/ChibiOS//os/rt/ports/ARMCMx/compilers/GCC/chtypes.h"
 304              		.file 6 "../e-puck2_main-processor/ChibiOS//os/rt/include/chsystypes.h"
 305              		.file 7 "../e-puck2_main-processor/ChibiOS//os/rt/include/chschd.h"
 306              		.file 8 "../e-puck2_main-processor/ChibiOS//os/ext/CMSIS/include/core_cm4.h"
 307              		.file 9 "../e-puck2_main-processor/ChibiOS//os/ext/CMSIS/ST/system_stm32f4xx.h"
 308              		.file 10 "../e-puck2_main-processor/ChibiOS//os/ext/CMSIS/ST/stm32f407xx.h"
 309              		.file 11 "../e-puck2_main-processor/ChibiOS//os/rt/ports/ARMCMx/chcore.h"
 310              		.file 12 "../e-puck2_main-processor/ChibiOS//os/rt/ports/ARMCMx/chcore_v7m.h"
 311              		.file 13 "../e-puck2_main-processor/ChibiOS//os/rt/include/chdebug.h"
 312              		.file 14 "../e-puck2_main-processor/ChibiOS//os/rt/include/chtm.h"
 313              		.file 15 "../e-puck2_main-processor/ChibiOS//os/rt/include/chstats.h"
 314              		.file 16 "../e-puck2_main-processor/ChibiOS//os/rt/include/chsem.h"
 315              		.file 17 "../e-puck2_main-processor/ChibiOS//os/rt/include/chmtx.h"
 316              		.file 18 "../e-puck2_main-processor/ChibiOS//os/rt/include/chregistry.h"
 317              		.file 19 "../e-puck2_main-processor/ChibiOS//os/rt/include/chevents.h"
 318              		.file 20 "../e-puck2_main-processor/ChibiOS//os/rt/include/chqueues.h"
 319              		.file 21 "../e-puck2_main-processor/ChibiOS//os/hal/ports/STM32/STM32F4xx/stm32_dma.h"
 320              		.file 22 "../e-puck2_main-processor/ChibiOS//os/hal/include/hal_ioblock.h"
 321              		.file 23 "../e-puck2_main-processor/ChibiOS//os/hal/ports/STM32/LLD/GPIOv2/pal_lld.h"
 322              		.file 24 "../e-puck2_main-processor/ChibiOS//os/hal/include/adc.h"
 323              		.file 25 "../e-puck2_main-processor/ChibiOS//os/hal/ports/STM32/STM32F4xx/adc_lld.h"
 324              		.file 26 "../e-puck2_main-processor/ChibiOS//os/hal/include/can.h"
 325              		.file 27 "../e-puck2_main-processor/ChibiOS//os/hal/ports/STM32/LLD/can_lld.h"
 326              		.file 28 "../e-puck2_main-processor/ChibiOS//os/hal/include/dac.h"
 327              		.file 29 "../e-puck2_main-processor/ChibiOS//os/hal/ports/STM32/LLD/DACv1/dac_lld.h"
 328              		.file 30 "../e-puck2_main-processor/ChibiOS//os/hal/include/ext.h"
 329              		.file 31 "../e-puck2_main-processor/ChibiOS//os/hal/ports/STM32/LLD/ext_lld.h"
 330              		.file 32 "../e-puck2_main-processor/ChibiOS//os/hal/include/gpt.h"
 331              		.file 33 "../e-puck2_main-processor/ChibiOS//os/hal/ports/STM32/LLD/TIMv1/gpt_lld.h"
 332              		.file 34 "../e-puck2_main-processor/ChibiOS//os/hal/ports/STM32/LLD/TIMv1/stm32_tim.h"
 333              		.file 35 "../e-puck2_main-processor/ChibiOS//os/hal/include/i2c.h"
 334              		.file 36 "../e-puck2_main-processor/ChibiOS//os/hal/ports/STM32/LLD/I2Cv1/i2c_lld.h"
 335              		.file 37 "../e-puck2_main-processor/ChibiOS//os/hal/include/i2s.h"
 336              		.file 38 "../e-puck2_main-processor/ChibiOS//os/hal/ports/STM32/LLD/SPIv1/i2s_lld.h"
 337              		.file 39 "../e-puck2_main-processor/ChibiOS//os/hal/include/pwm.h"
 338              		.file 40 "../e-puck2_main-processor/ChibiOS//os/hal/ports/STM32/LLD/TIMv1/pwm_lld.h"
ARM GAS  /tmp/ccbsbWcm.s 			page 7


 339              		.file 41 "../e-puck2_main-processor/ChibiOS//os/hal/include/serial.h"
 340              		.file 42 "../e-puck2_main-processor/ChibiOS//os/hal/ports/STM32/LLD/USARTv1/serial_lld.h"
 341              		.file 43 "../e-puck2_main-processor/ChibiOS//os/hal/include/sdc.h"
 342              		.file 44 "../e-puck2_main-processor/ChibiOS//os/hal/ports/STM32/LLD/sdc_lld.h"
 343              		.file 45 "../e-puck2_main-processor/ChibiOS//os/hal/include/spi.h"
 344              		.file 46 "../e-puck2_main-processor/ChibiOS//os/hal/ports/STM32/LLD/SPIv1/spi_lld.h"
 345              		.file 47 "../e-puck2_main-processor/ChibiOS//os/hal/include/usb.h"
 346              		.file 48 "../e-puck2_main-processor/ChibiOS//os/hal/ports/STM32/LLD/OTGv1/usb_lld.h"
 347              		.file 49 "../e-puck2_main-processor/ChibiOS//os/hal/ports/STM32/LLD/OTGv1/stm32_otg.h"
 348              		.file 50 "../e-puck2_main-processor/ChibiOS//os/rt/include/chsys.h"