ARM GAS  /tmp/ccuNvn3H.s 			page 1


   1              		.cpu cortex-m4
   2              		.eabi_attribute 27, 1
   3              		.eabi_attribute 28, 1
   4              		.eabi_attribute 20, 1
   5              		.eabi_attribute 21, 1
   6              		.eabi_attribute 23, 3
   7              		.eabi_attribute 24, 1
   8              		.eabi_attribute 25, 1
   9              		.eabi_attribute 26, 1
  10              		.eabi_attribute 30, 2
  11              		.eabi_attribute 34, 1
  12              		.eabi_attribute 18, 4
  13              		.file	"ov7670.c"
  14              		.text
  15              	.Ltext0:
  16              		.cfi_sections	.debug_frame
  17              		.section	.text.ov7670_write_reg,"ax",%progbits
  18              		.align	1
  19              		.p2align 4,,15
  20              		.global	ov7670_write_reg
  21              		.syntax unified
  22              		.thumb
  23              		.thumb_func
  24              		.fpu fpv4-sp-d16
  25              		.type	ov7670_write_reg, %function
  26              	ov7670_write_reg:
  27              	.LFB257:
  28              		.file 1 "../e-puck2_main-processor/src/camera/ov7670.c"
  29              		.loc 1 169 0
  30              		.cfi_startproc
  31              		@ args = 0, pretend = 0, frame = 8
  32              		@ frame_needed = 0, uses_anonymous_args = 0
  33              	.LVL0:
  34 0000 70B5     		push	{r4, r5, r6, lr}
  35              		.cfi_def_cfa_offset 16
  36              		.cfi_offset 4, -16
  37              		.cfi_offset 5, -12
  38              		.cfi_offset 6, -8
  39              		.cfi_offset 14, -4
  40              		.loc 1 172 0
  41 0002 1C4C     		ldr	r4, .L17
  42              		.loc 1 169 0
  43 0004 1C4E     		ldr	r6, .L17+4
  44 0006 86B0     		sub	sp, sp, #24
  45              		.cfi_def_cfa_offset 40
  46              		.loc 1 169 0
  47 0008 3368     		ldr	r3, [r6]
  48 000a 0593     		str	r3, [sp, #20]
  49 000c 0546     		mov	r5, r0
  50              		.loc 1 172 0
  51 000e 2046     		mov	r0, r4
  52              	.LVL1:
  53              		.loc 1 170 0
  54 0010 8DF81010 		strb	r1, [sp, #16]
  55 0014 8DF81120 		strb	r2, [sp, #17]
  56              		.loc 1 172 0
  57 0018 FFF7FEFF 		bl	i2cAcquireBus
ARM GAS  /tmp/ccuNvn3H.s 			page 2


  58              	.LVL2:
  59              		.loc 1 173 0
  60 001c 2378     		ldrb	r3, [r4]	@ zero_extendqisi2
  61 001e 012B     		cmp	r3, #1
  62 0020 0CD0     		beq	.L2
  63              	.LBB8:
  64              		.loc 1 174 0
  65 0022 0023     		movs	r3, #0
  66 0024 3222     		movs	r2, #50
  67 0026 CDE90132 		strd	r3, r2, [sp, #4]
  68 002a 2946     		mov	r1, r5
  69 002c 0093     		str	r3, [sp]
  70 002e 04AA     		add	r2, sp, #16
  71 0030 0223     		movs	r3, #2
  72 0032 2046     		mov	r0, r4
  73 0034 FFF7FEFF 		bl	i2cMasterTransmitTimeout
  74              	.LVL3:
  75              		.loc 1 175 0
  76 0038 0546     		mov	r5, r0
  77 003a 48B9     		cbnz	r0, .L14
  78              	.LVL4:
  79              	.L2:
  80              	.LBE8:
  81              		.loc 1 185 0
  82 003c 0D48     		ldr	r0, .L17
  83 003e FFF7FEFF 		bl	i2cReleaseBus
  84              	.LVL5:
  85              		.loc 1 187 0
  86 0042 0020     		movs	r0, #0
  87              	.L4:
  88              		.loc 1 188 0
  89 0044 059A     		ldr	r2, [sp, #20]
  90 0046 3368     		ldr	r3, [r6]
  91 0048 9A42     		cmp	r2, r3
  92 004a 10D1     		bne	.L15
  93 004c 06B0     		add	sp, sp, #24
  94              		.cfi_remember_state
  95              		.cfi_def_cfa_offset 16
  96              		@ sp needed
  97 004e 70BD     		pop	{r4, r5, r6, pc}
  98              	.LVL6:
  99              	.L14:
 100              		.cfi_restore_state
 101              	.LBB9:
 102              		.loc 1 176 0
 103 0050 FFF7FEFF 		bl	i2c_update_last_error
 104              	.LVL7:
 105              		.loc 1 177 0
 106 0054 2378     		ldrb	r3, [r4]	@ zero_extendqisi2
 107 0056 052B     		cmp	r3, #5
 108 0058 04D0     		beq	.L16
 109              	.L3:
 110              		.loc 1 181 0
 111 005a 0648     		ldr	r0, .L17
 112 005c FFF7FEFF 		bl	i2cReleaseBus
 113              	.LVL8:
 114              		.loc 1 182 0
ARM GAS  /tmp/ccuNvn3H.s 			page 3


 115 0060 28B2     		sxth	r0, r5
 116 0062 EFE7     		b	.L4
 117              	.L16:
 118              		.loc 1 178 0
 119 0064 FFF7FEFF 		bl	i2c_stop
 120              	.LVL9:
 121              		.loc 1 179 0
 122 0068 FFF7FEFF 		bl	i2c_start
 123              	.LVL10:
 124 006c F5E7     		b	.L3
 125              	.LVL11:
 126              	.L15:
 127              	.LBE9:
 128              		.loc 1 188 0
 129 006e FFF7FEFF 		bl	__stack_chk_fail
 130              	.LVL12:
 131              	.L18:
 132 0072 00BF     		.align	2
 133              	.L17:
 134 0074 00000000 		.word	I2CD1
 135 0078 00000000 		.word	__stack_chk_guard
 136              		.cfi_endproc
 137              	.LFE257:
 138              		.size	ov7670_write_reg, .-ov7670_write_reg
 139              		.section	.text.ov7670_read_reg,"ax",%progbits
 140              		.align	1
 141              		.p2align 4,,15
 142              		.global	ov7670_read_reg
 143              		.syntax unified
 144              		.thumb
 145              		.thumb_func
 146              		.fpu fpv4-sp-d16
 147              		.type	ov7670_read_reg, %function
 148              	ov7670_read_reg:
 149              	.LFB258:
 150              		.loc 1 190 0
 151              		.cfi_startproc
 152              		@ args = 0, pretend = 0, frame = 8
 153              		@ frame_needed = 0, uses_anonymous_args = 0
 154              	.LVL13:
 155 0000 2DE9F043 		push	{r4, r5, r6, r7, r8, r9, lr}
 156              		.cfi_def_cfa_offset 28
 157              		.cfi_offset 4, -28
 158              		.cfi_offset 5, -24
 159              		.cfi_offset 6, -20
 160              		.cfi_offset 7, -16
 161              		.cfi_offset 8, -12
 162              		.cfi_offset 9, -8
 163              		.cfi_offset 14, -4
 164              		.loc 1 194 0
 165 0004 224C     		ldr	r4, .L38
 166              		.loc 1 190 0
 167 0006 234F     		ldr	r7, .L38+4
 168 0008 87B0     		sub	sp, sp, #28
 169              		.cfi_def_cfa_offset 56
 170              		.loc 1 190 0
 171 000a 3B68     		ldr	r3, [r7]
ARM GAS  /tmp/ccuNvn3H.s 			page 4


 172 000c 0593     		str	r3, [sp, #20]
 173 000e 0646     		mov	r6, r0
 174              		.loc 1 194 0
 175 0010 2046     		mov	r0, r4
 176              	.LVL14:
 177              		.loc 1 192 0
 178 0012 8DF81010 		strb	r1, [sp, #16]
 179              		.loc 1 190 0
 180 0016 9046     		mov	r8, r2
 181              		.loc 1 194 0
 182 0018 FFF7FEFF 		bl	i2cAcquireBus
 183              	.LVL15:
 184              		.loc 1 195 0
 185 001c 2378     		ldrb	r3, [r4]	@ zero_extendqisi2
 186 001e 012B     		cmp	r3, #1
 187 0020 23D0     		beq	.L20
 188              	.LBB10:
 189              		.loc 1 196 0
 190 0022 0023     		movs	r3, #0
 191 0024 B6B2     		uxth	r6, r6
 192 0026 4FF03209 		mov	r9, #50
 193 002a CDE90139 		strd	r3, r9, [sp, #4]
 194 002e 0093     		str	r3, [sp]
 195 0030 3146     		mov	r1, r6
 196 0032 0123     		movs	r3, #1
 197 0034 04AA     		add	r2, sp, #16
 198 0036 2046     		mov	r0, r4
 199 0038 FFF7FEFF 		bl	i2cMasterTransmitTimeout
 200              	.LVL16:
 201              		.loc 1 197 0
 202 003c 0546     		mov	r5, r0
 203 003e 48B1     		cbz	r0, .L21
 204              	.L35:
 205              		.loc 1 208 0
 206 0040 FFF7FEFF 		bl	i2c_update_last_error
 207              	.LVL17:
 208              		.loc 1 209 0
 209 0044 2378     		ldrb	r3, [r4]	@ zero_extendqisi2
 210 0046 052B     		cmp	r3, #5
 211 0048 1AD0     		beq	.L36
 212              	.L24:
 213              		.loc 1 213 0
 214 004a 1148     		ldr	r0, .L38
 215 004c FFF7FEFF 		bl	i2cReleaseBus
 216              	.LVL18:
 217              		.loc 1 214 0
 218 0050 68B2     		sxtb	r0, r5
 219 0052 0EE0     		b	.L23
 220              	.LVL19:
 221              	.L21:
 222              		.loc 1 206 0
 223 0054 CDF80090 		str	r9, [sp]
 224 0058 4246     		mov	r2, r8
 225 005a 3146     		mov	r1, r6
 226 005c 0123     		movs	r3, #1
 227 005e 2046     		mov	r0, r4
 228              	.LVL20:
ARM GAS  /tmp/ccuNvn3H.s 			page 5


 229 0060 FFF7FEFF 		bl	i2cMasterReceiveTimeout
 230              	.LVL21:
 231              		.loc 1 207 0
 232 0064 0546     		mov	r5, r0
 233 0066 0028     		cmp	r0, #0
 234 0068 EAD1     		bne	.L35
 235              	.LVL22:
 236              	.L20:
 237              	.LBE10:
 238              		.loc 1 217 0
 239 006a 0948     		ldr	r0, .L38
 240 006c FFF7FEFF 		bl	i2cReleaseBus
 241              	.LVL23:
 242              		.loc 1 219 0
 243 0070 0020     		movs	r0, #0
 244              	.L23:
 245              		.loc 1 220 0
 246 0072 059A     		ldr	r2, [sp, #20]
 247 0074 3B68     		ldr	r3, [r7]
 248 0076 9A42     		cmp	r2, r3
 249 0078 07D1     		bne	.L37
 250 007a 07B0     		add	sp, sp, #28
 251              		.cfi_remember_state
 252              		.cfi_def_cfa_offset 28
 253              		@ sp needed
 254 007c BDE8F083 		pop	{r4, r5, r6, r7, r8, r9, pc}
 255              	.LVL24:
 256              	.L36:
 257              		.cfi_restore_state
 258              	.LBB11:
 259              		.loc 1 210 0
 260 0080 FFF7FEFF 		bl	i2c_stop
 261              	.LVL25:
 262              		.loc 1 211 0
 263 0084 FFF7FEFF 		bl	i2c_start
 264              	.LVL26:
 265 0088 DFE7     		b	.L24
 266              	.LVL27:
 267              	.L37:
 268              	.LBE11:
 269              		.loc 1 220 0
 270 008a FFF7FEFF 		bl	__stack_chk_fail
 271              	.LVL28:
 272              	.L39:
 273 008e 00BF     		.align	2
 274              	.L38:
 275 0090 00000000 		.word	I2CD1
 276 0094 00000000 		.word	__stack_chk_guard
 277              		.cfi_endproc
 278              	.LFE258:
 279              		.size	ov7670_read_reg, .-ov7670_read_reg
 280              		.section	.text.ov7670_read_id,"ax",%progbits
 281              		.align	1
 282              		.p2align 4,,15
 283              		.global	ov7670_read_id
 284              		.syntax unified
 285              		.thumb
ARM GAS  /tmp/ccuNvn3H.s 			page 6


 286              		.thumb_func
 287              		.fpu fpv4-sp-d16
 288              		.type	ov7670_read_id, %function
 289              	ov7670_read_id:
 290              	.LFB259:
 291              		.loc 1 232 0
 292              		.cfi_startproc
 293              		@ args = 0, pretend = 0, frame = 8
 294              		@ frame_needed = 0, uses_anonymous_args = 0
 295              	.LVL29:
 296 0000 30B5     		push	{r4, r5, lr}
 297              		.cfi_def_cfa_offset 12
 298              		.cfi_offset 4, -12
 299              		.cfi_offset 5, -8
 300              		.cfi_offset 14, -4
 301 0002 83B0     		sub	sp, sp, #12
 302              		.cfi_def_cfa_offset 24
 303              		.loc 1 233 0
 304 0004 02AA     		add	r2, sp, #8
 305              		.loc 1 232 0
 306 0006 124C     		ldr	r4, .L46
 307              		.loc 1 233 0
 308 0008 0023     		movs	r3, #0
 309 000a 22F8083D 		strh	r3, [r2, #-8]!	@ movhi
 310              	.LVL30:
 311              		.loc 1 232 0
 312 000e 0546     		mov	r5, r0
 313 0010 2368     		ldr	r3, [r4]
 314 0012 0193     		str	r3, [sp, #4]
 315              		.loc 1 236 0
 316 0014 0A21     		movs	r1, #10
 317 0016 2120     		movs	r0, #33
 318              	.LVL31:
 319 0018 FFF7FEFF 		bl	ov7670_read_reg
 320              	.LVL32:
 321 001c 28B1     		cbz	r0, .L44
 322              	.L41:
 323              		.loc 1 245 0
 324 001e 019A     		ldr	r2, [sp, #4]
 325 0020 2368     		ldr	r3, [r4]
 326 0022 9A42     		cmp	r2, r3
 327 0024 11D1     		bne	.L45
 328 0026 03B0     		add	sp, sp, #12
 329              		.cfi_remember_state
 330              		.cfi_def_cfa_offset 12
 331              		@ sp needed
 332 0028 30BD     		pop	{r4, r5, pc}
 333              	.LVL33:
 334              	.L44:
 335              		.cfi_restore_state
 336              		.loc 1 239 0
 337 002a 0DF10102 		add	r2, sp, #1
 338 002e 0B21     		movs	r1, #11
 339 0030 2120     		movs	r0, #33
 340              	.LVL34:
 341 0032 FFF7FEFF 		bl	ov7670_read_reg
 342              	.LVL35:
ARM GAS  /tmp/ccuNvn3H.s 			page 7


 343 0036 0028     		cmp	r0, #0
 344 0038 F1D1     		bne	.L41
 345              		.loc 1 242 0
 346 003a 9DF80020 		ldrb	r2, [sp]	@ zero_extendqisi2
 347 003e 9DF80130 		ldrb	r3, [sp, #1]	@ zero_extendqisi2
 348 0042 43EA0223 		orr	r3, r3, r2, lsl #8
 349 0046 2B80     		strh	r3, [r5]	@ movhi
 350              		.loc 1 244 0
 351 0048 E9E7     		b	.L41
 352              	.L45:
 353              		.loc 1 245 0
 354 004a FFF7FEFF 		bl	__stack_chk_fail
 355              	.LVL36:
 356              	.L47:
 357 004e 00BF     		.align	2
 358              	.L46:
 359 0050 00000000 		.word	__stack_chk_guard
 360              		.cfi_endproc
 361              	.LFE259:
 362              		.size	ov7670_read_id, .-ov7670_read_id
 363              		.section	.text.ov7670_set_vga,"ax",%progbits
 364              		.align	1
 365              		.p2align 4,,15
 366              		.global	ov7670_set_vga
 367              		.syntax unified
 368              		.thumb
 369              		.thumb_func
 370              		.fpu fpv4-sp-d16
 371              		.type	ov7670_set_vga, %function
 372              	ov7670_set_vga:
 373              	.LFB260:
 374              		.loc 1 255 0
 375              		.cfi_startproc
 376              		@ args = 0, pretend = 0, frame = 8
 377              		@ frame_needed = 0, uses_anonymous_args = 0
 378 0000 00B5     		push	{lr}
 379              		.cfi_def_cfa_offset 4
 380              		.cfi_offset 14, -4
 381 0002 074B     		ldr	r3, .L52
 382 0004 83B0     		sub	sp, sp, #12
 383              		.cfi_def_cfa_offset 16
 384              		.loc 1 255 0
 385 0006 1A68     		ldr	r2, [r3]
 386 0008 0192     		str	r2, [sp, #4]
 387              		.loc 1 257 0
 388 000a 019A     		ldr	r2, [sp, #4]
 389 000c 1B68     		ldr	r3, [r3]
 390 000e 9A42     		cmp	r2, r3
 391 0010 04D1     		bne	.L51
 392 0012 4FF0FF30 		mov	r0, #-1
 393 0016 03B0     		add	sp, sp, #12
 394              		.cfi_remember_state
 395              		.cfi_def_cfa_offset 4
 396              		@ sp needed
 397 0018 5DF804FB 		ldr	pc, [sp], #4
 398              	.L51:
 399              		.cfi_restore_state
ARM GAS  /tmp/ccuNvn3H.s 			page 8


 400 001c FFF7FEFF 		bl	__stack_chk_fail
 401              	.LVL37:
 402              	.L53:
 403              		.align	2
 404              	.L52:
 405 0020 00000000 		.word	__stack_chk_guard
 406              		.cfi_endproc
 407              	.LFE260:
 408              		.size	ov7670_set_vga, .-ov7670_set_vga
 409              		.section	.text.ov7670_set_qvga,"ax",%progbits
 410              		.align	1
 411              		.p2align 4,,15
 412              		.global	ov7670_set_qvga
 413              		.syntax unified
 414              		.thumb
 415              		.thumb_func
 416              		.fpu fpv4-sp-d16
 417              		.type	ov7670_set_qvga, %function
 418              	ov7670_set_qvga:
 419              	.LFB278:
 420              		.cfi_startproc
 421              		@ args = 0, pretend = 0, frame = 8
 422              		@ frame_needed = 0, uses_anonymous_args = 0
 423 0000 00B5     		push	{lr}
 424              		.cfi_def_cfa_offset 4
 425              		.cfi_offset 14, -4
 426 0002 074B     		ldr	r3, .L58
 427 0004 83B0     		sub	sp, sp, #12
 428              		.cfi_def_cfa_offset 16
 429 0006 1A68     		ldr	r2, [r3]
 430 0008 0192     		str	r2, [sp, #4]
 431 000a 019A     		ldr	r2, [sp, #4]
 432 000c 1B68     		ldr	r3, [r3]
 433 000e 9A42     		cmp	r2, r3
 434 0010 04D1     		bne	.L57
 435 0012 4FF0FF30 		mov	r0, #-1
 436 0016 03B0     		add	sp, sp, #12
 437              		.cfi_remember_state
 438              		.cfi_def_cfa_offset 4
 439              		@ sp needed
 440 0018 5DF804FB 		ldr	pc, [sp], #4
 441              	.L57:
 442              		.cfi_restore_state
 443 001c FFF7FEFF 		bl	__stack_chk_fail
 444              	.L59:
 445              		.align	2
 446              	.L58:
 447 0020 00000000 		.word	__stack_chk_guard
 448              		.cfi_endproc
 449              	.LFE278:
 450              		.size	ov7670_set_qvga, .-ov7670_set_qvga
 451              		.section	.text.ov7670_set_qqvga,"ax",%progbits
 452              		.align	1
 453              		.p2align 4,,15
 454              		.global	ov7670_set_qqvga
 455              		.syntax unified
 456              		.thumb
ARM GAS  /tmp/ccuNvn3H.s 			page 9


 457              		.thumb_func
 458              		.fpu fpv4-sp-d16
 459              		.type	ov7670_set_qqvga, %function
 460              	ov7670_set_qqvga:
 461              	.LFB262:
 462              		.loc 1 271 0
 463              		.cfi_startproc
 464              		@ args = 0, pretend = 0, frame = 8
 465              		@ frame_needed = 0, uses_anonymous_args = 0
 466              		.loc 1 271 0
 467 0000 10B5     		push	{r4, lr}
 468              		.cfi_def_cfa_offset 8
 469              		.cfi_offset 4, -8
 470              		.cfi_offset 14, -4
 471 0002 314C     		ldr	r4, .L66
 472 0004 82B0     		sub	sp, sp, #8
 473              		.cfi_def_cfa_offset 16
 474              		.loc 1 271 0
 475 0006 2368     		ldr	r3, [r4]
 476 0008 0193     		str	r3, [sp, #4]
 477              	.LVL38:
 478              		.loc 1 274 0
 479 000a 1622     		movs	r2, #22
 480 000c 1721     		movs	r1, #23
 481 000e 2120     		movs	r0, #33
 482 0010 FFF7FEFF 		bl	ov7670_write_reg
 483              	.LVL39:
 484 0014 40B2     		sxtb	r0, r0
 485              	.LVL40:
 486 0016 28B1     		cbz	r0, .L64
 487              	.LVL41:
 488              	.L61:
 489              		.loc 1 311 0
 490 0018 019A     		ldr	r2, [sp, #4]
 491 001a 2368     		ldr	r3, [r4]
 492 001c 9A42     		cmp	r2, r3
 493 001e 50D1     		bne	.L65
 494 0020 02B0     		add	sp, sp, #8
 495              		.cfi_remember_state
 496              		.cfi_def_cfa_offset 8
 497              		@ sp needed
 498 0022 10BD     		pop	{r4, pc}
 499              	.LVL42:
 500              	.L64:
 501              		.cfi_restore_state
 502              		.loc 1 277 0
 503 0024 0422     		movs	r2, #4
 504 0026 1821     		movs	r1, #24
 505 0028 2120     		movs	r0, #33
 506              	.LVL43:
 507 002a FFF7FEFF 		bl	ov7670_write_reg
 508              	.LVL44:
 509 002e 40B2     		sxtb	r0, r0
 510              	.LVL45:
 511 0030 0028     		cmp	r0, #0
 512 0032 F1D1     		bne	.L61
 513              		.loc 1 280 0
ARM GAS  /tmp/ccuNvn3H.s 			page 10


 514 0034 2422     		movs	r2, #36
 515 0036 3221     		movs	r1, #50
 516 0038 2120     		movs	r0, #33
 517              	.LVL46:
 518 003a FFF7FEFF 		bl	ov7670_write_reg
 519              	.LVL47:
 520 003e 40B2     		sxtb	r0, r0
 521              	.LVL48:
 522 0040 0028     		cmp	r0, #0
 523 0042 E9D1     		bne	.L61
 524              		.loc 1 283 0
 525 0044 0222     		movs	r2, #2
 526 0046 1921     		movs	r1, #25
 527 0048 2120     		movs	r0, #33
 528              	.LVL49:
 529 004a FFF7FEFF 		bl	ov7670_write_reg
 530              	.LVL50:
 531 004e 40B2     		sxtb	r0, r0
 532              	.LVL51:
 533 0050 0028     		cmp	r0, #0
 534 0052 E1D1     		bne	.L61
 535              		.loc 1 286 0
 536 0054 7A22     		movs	r2, #122
 537 0056 1A21     		movs	r1, #26
 538 0058 2120     		movs	r0, #33
 539              	.LVL52:
 540 005a FFF7FEFF 		bl	ov7670_write_reg
 541              	.LVL53:
 542 005e 40B2     		sxtb	r0, r0
 543              	.LVL54:
 544 0060 0028     		cmp	r0, #0
 545 0062 D9D1     		bne	.L61
 546              	.LBB14:
 547              	.LBB15:
 548              		.loc 1 289 0
 549 0064 0A22     		movs	r2, #10
 550 0066 0321     		movs	r1, #3
 551 0068 2120     		movs	r0, #33
 552              	.LVL55:
 553 006a FFF7FEFF 		bl	ov7670_write_reg
 554              	.LVL56:
 555 006e 40B2     		sxtb	r0, r0
 556              	.LVL57:
 557 0070 0028     		cmp	r0, #0
 558 0072 D1D1     		bne	.L61
 559              		.loc 1 292 0
 560 0074 0422     		movs	r2, #4
 561 0076 0C21     		movs	r1, #12
 562 0078 2120     		movs	r0, #33
 563              	.LVL58:
 564 007a FFF7FEFF 		bl	ov7670_write_reg
 565              	.LVL59:
 566 007e 40B2     		sxtb	r0, r0
 567              	.LVL60:
 568 0080 0028     		cmp	r0, #0
 569 0082 C9D1     		bne	.L61
 570              		.loc 1 295 0
ARM GAS  /tmp/ccuNvn3H.s 			page 11


 571 0084 1A22     		movs	r2, #26
 572 0086 3E21     		movs	r1, #62
 573 0088 2120     		movs	r0, #33
 574              	.LVL61:
 575 008a FFF7FEFF 		bl	ov7670_write_reg
 576              	.LVL62:
 577 008e 40B2     		sxtb	r0, r0
 578              	.LVL63:
 579 0090 0028     		cmp	r0, #0
 580 0092 C1D1     		bne	.L61
 581              		.loc 1 298 0
 582 0094 2222     		movs	r2, #34
 583 0096 7221     		movs	r1, #114
 584 0098 2120     		movs	r0, #33
 585              	.LVL64:
 586 009a FFF7FEFF 		bl	ov7670_write_reg
 587              	.LVL65:
 588 009e 40B2     		sxtb	r0, r0
 589              	.LVL66:
 590 00a0 0028     		cmp	r0, #0
 591 00a2 B9D1     		bne	.L61
 592              		.loc 1 301 0
 593 00a4 F222     		movs	r2, #242
 594 00a6 7321     		movs	r1, #115
 595 00a8 2120     		movs	r0, #33
 596              	.LVL67:
 597 00aa FFF7FEFF 		bl	ov7670_write_reg
 598              	.LVL68:
 599 00ae 40B2     		sxtb	r0, r0
 600              	.LVL69:
 601 00b0 0028     		cmp	r0, #0
 602 00b2 B1D1     		bne	.L61
 603              		.loc 1 305 0
 604 00b4 054B     		ldr	r3, .L66+4
 605 00b6 064A     		ldr	r2, .L66+8
 606 00b8 1A60     		str	r2, [r3]
 607              		.loc 1 307 0
 608 00ba 8022     		movs	r2, #128
 609 00bc 5A71     		strb	r2, [r3, #5]
 610              		.loc 1 308 0
 611 00be 9A71     		strb	r2, [r3, #6]
 612 00c0 AAE7     		b	.L61
 613              	.LVL70:
 614              	.L65:
 615              	.LBE15:
 616              	.LBE14:
 617              		.loc 1 311 0
 618 00c2 FFF7FEFF 		bl	__stack_chk_fail
 619              	.LVL71:
 620              	.L67:
 621 00c6 00BF     		.align	2
 622              	.L66:
 623 00c8 00000000 		.word	__stack_chk_guard
 624 00cc 00000000 		.word	.LANCHOR0
 625 00d0 A0007800 		.word	7864480
 626              		.cfi_endproc
 627              	.LFE262:
ARM GAS  /tmp/ccuNvn3H.s 			page 12


 628              		.size	ov7670_set_qqvga, .-ov7670_set_qqvga
 629              		.section	.text.ov7670_set_size,"ax",%progbits
 630              		.align	1
 631              		.p2align 4,,15
 632              		.global	ov7670_set_size
 633              		.syntax unified
 634              		.thumb
 635              		.thumb_func
 636              		.fpu fpv4-sp-d16
 637              		.type	ov7670_set_size, %function
 638              	ov7670_set_size:
 639              	.LFB263:
 640              		.loc 1 323 0
 641              		.cfi_startproc
 642              		@ args = 0, pretend = 0, frame = 8
 643              		@ frame_needed = 0, uses_anonymous_args = 0
 644              	.LVL72:
 645 0000 00B5     		push	{lr}
 646              		.cfi_def_cfa_offset 4
 647              		.cfi_offset 14, -4
 648 0002 0C4B     		ldr	r3, .L74
 649 0004 83B0     		sub	sp, sp, #12
 650              		.cfi_def_cfa_offset 16
 651              		.loc 1 323 0
 652 0006 1A68     		ldr	r2, [r3]
 653 0008 0192     		str	r2, [sp, #4]
 654              		.loc 1 324 0
 655 000a 0228     		cmp	r0, #2
 656              		.loc 1 333 0
 657 000c 019A     		ldr	r2, [sp, #4]
 658 000e 1B68     		ldr	r3, [r3]
 659              		.loc 1 324 0
 660 0010 06D1     		bne	.L69
 661              		.loc 1 329 0
 662 0012 9A42     		cmp	r2, r3
 663 0014 0BD1     		bne	.L73
 664              		.loc 1 333 0
 665 0016 03B0     		add	sp, sp, #12
 666              		.cfi_remember_state
 667              		.cfi_def_cfa_offset 4
 668              		@ sp needed
 669 0018 5DF804EB 		ldr	lr, [sp], #4
 670              		.cfi_restore 14
 671              		.cfi_def_cfa_offset 0
 672              		.loc 1 329 0
 673 001c FFF7FEBF 		b	ov7670_set_qqvga
 674              	.LVL73:
 675              	.L69:
 676              		.cfi_restore_state
 677              		.loc 1 333 0
 678 0020 9A42     		cmp	r2, r3
 679 0022 4FF0FF30 		mov	r0, #-1
 680              	.LVL74:
 681 0026 02D1     		bne	.L73
 682 0028 03B0     		add	sp, sp, #12
 683              		.cfi_remember_state
 684              		.cfi_def_cfa_offset 4
ARM GAS  /tmp/ccuNvn3H.s 			page 13


 685              		@ sp needed
 686 002a 5DF804FB 		ldr	pc, [sp], #4
 687              	.L73:
 688              		.cfi_restore_state
 689 002e FFF7FEFF 		bl	__stack_chk_fail
 690              	.LVL75:
 691              	.L75:
 692 0032 00BF     		.align	2
 693              	.L74:
 694 0034 00000000 		.word	__stack_chk_guard
 695              		.cfi_endproc
 696              	.LFE263:
 697              		.size	ov7670_set_size, .-ov7670_set_size
 698              		.section	.text.ov7670_config,"ax",%progbits
 699              		.align	1
 700              		.p2align 4,,15
 701              		.global	ov7670_config
 702              		.syntax unified
 703              		.thumb
 704              		.thumb_func
 705              		.fpu fpv4-sp-d16
 706              		.type	ov7670_config, %function
 707              	ov7670_config:
 708              	.LFB265:
 709              		.loc 1 357 0
 710              		.cfi_startproc
 711              		@ args = 0, pretend = 0, frame = 8
 712              		@ frame_needed = 0, uses_anonymous_args = 0
 713              	.LVL76:
 714 0000 10B5     		push	{r4, lr}
 715              		.cfi_def_cfa_offset 8
 716              		.cfi_offset 4, -8
 717              		.cfi_offset 14, -4
 718 0002 0C4B     		ldr	r3, .L82
 719              		.loc 1 361 0
 720 0004 0C4A     		ldr	r2, .L82+4
 721              		.loc 1 357 0
 722 0006 1C68     		ldr	r4, [r3]
 723              		.loc 1 361 0
 724 0008 1071     		strb	r0, [r2, #4]
 725              		.loc 1 357 0
 726 000a 82B0     		sub	sp, sp, #8
 727              		.cfi_def_cfa_offset 16
 728              	.LBB16:
 729              	.LBB17:
 730              		.loc 1 324 0
 731 000c 0229     		cmp	r1, #2
 732              	.LBE17:
 733              	.LBE16:
 734              		.loc 1 357 0
 735 000e 0194     		str	r4, [sp, #4]
 736              	.LVL77:
 737              		.loc 1 368 0
 738 0010 019A     		ldr	r2, [sp, #4]
 739 0012 1B68     		ldr	r3, [r3]
 740              	.LBB20:
 741              	.LBB18:
ARM GAS  /tmp/ccuNvn3H.s 			page 14


 742              		.loc 1 324 0
 743 0014 06D1     		bne	.L77
 744              		.loc 1 329 0
 745 0016 9A42     		cmp	r2, r3
 746 0018 0AD1     		bne	.L81
 747              	.LBE18:
 748              	.LBE20:
 749              		.loc 1 368 0
 750 001a 02B0     		add	sp, sp, #8
 751              		.cfi_remember_state
 752              		.cfi_def_cfa_offset 8
 753              		@ sp needed
 754 001c BDE81040 		pop	{r4, lr}
 755              		.cfi_restore 14
 756              		.cfi_restore 4
 757              		.cfi_def_cfa_offset 0
 758              	.LBB21:
 759              	.LBB19:
 760              		.loc 1 329 0
 761 0020 FFF7FEBF 		b	ov7670_set_qqvga
 762              	.LVL78:
 763              	.L77:
 764              		.cfi_restore_state
 765              	.LBE19:
 766              	.LBE21:
 767              		.loc 1 368 0
 768 0024 9A42     		cmp	r2, r3
 769 0026 4FF0FF30 		mov	r0, #-1
 770              	.LVL79:
 771 002a 01D1     		bne	.L81
 772 002c 02B0     		add	sp, sp, #8
 773              		.cfi_remember_state
 774              		.cfi_def_cfa_offset 8
 775              		@ sp needed
 776 002e 10BD     		pop	{r4, pc}
 777              	.L81:
 778              		.cfi_restore_state
 779 0030 FFF7FEFF 		bl	__stack_chk_fail
 780              	.LVL80:
 781              	.L83:
 782              		.align	2
 783              	.L82:
 784 0034 00000000 		.word	__stack_chk_guard
 785 0038 00000000 		.word	.LANCHOR0
 786              		.cfi_endproc
 787              	.LFE265:
 788              		.size	ov7670_config, .-ov7670_config
 789              		.section	.text.ov7670_advanced_config,"ax",%progbits
 790              		.align	1
 791              		.p2align 4,,15
 792              		.global	ov7670_advanced_config
 793              		.syntax unified
 794              		.thumb
 795              		.thumb_func
 796              		.fpu fpv4-sp-d16
 797              		.type	ov7670_advanced_config, %function
 798              	ov7670_advanced_config:
ARM GAS  /tmp/ccuNvn3H.s 			page 15


 799              	.LFB266:
 800              		.loc 1 372 0
 801              		.cfi_startproc
 802              		@ args = 12, pretend = 0, frame = 16
 803              		@ frame_needed = 0, uses_anonymous_args = 0
 804              	.LVL81:
 805 0000 2DE9F04F 		push	{r4, r5, r6, r7, r8, r9, r10, fp, lr}
 806              		.cfi_def_cfa_offset 36
 807              		.cfi_offset 4, -36
 808              		.cfi_offset 5, -32
 809              		.cfi_offset 6, -28
 810              		.cfi_offset 7, -24
 811              		.cfi_offset 8, -20
 812              		.cfi_offset 9, -16
 813              		.cfi_offset 10, -12
 814              		.cfi_offset 11, -8
 815              		.cfi_offset 14, -4
 816              		.loc 1 375 0
 817 0004 01F1B705 		add	r5, r1, #183
 818              		.loc 1 377 0
 819 0008 05EB030B 		add	fp, r5, r3
 820              		.loc 1 372 0
 821 000c AB4F     		ldr	r7, .L121
 822 000e 85B0     		sub	sp, sp, #20
 823              		.cfi_def_cfa_offset 56
 824              		.loc 1 382 0
 825 0010 BBF5447F 		cmp	fp, #784
 826              		.loc 1 372 0
 827 0014 3C68     		ldr	r4, [r7]
 828 0016 0394     		str	r4, [sp, #12]
 829              	.LVL82:
 830              		.loc 1 379 0
 831 0018 4FF00001 		mov	r1, #0
 832              		.loc 1 383 0
 833 001c 28BF     		it	cs
 834 001e ABF5447B 		subcs	fp, fp, #784
 835              		.loc 1 386 0
 836 0022 B3F5207F 		cmp	r3, #640
 837              		.loc 1 372 0
 838 0026 DDF83890 		ldr	r9, [sp, #56]
 839 002a 0190     		str	r0, [sp, #4]
 840 002c 1C46     		mov	r4, r3
 841              		.loc 1 376 0
 842 002e 02F10A0A 		add	r10, r2, #10
 843              	.LVL83:
 844              		.loc 1 379 0
 845 0032 8DF80A10 		strb	r1, [sp, #10]
 846 0036 ADF80810 		strh	r1, [sp, #8]	@ movhi
 847              		.loc 1 372 0
 848 003a 9DF83C60 		ldrb	r6, [sp, #60]	@ zero_extendqisi2
 849 003e 9DF84080 		ldrb	r8, [sp, #64]	@ zero_extendqisi2
 850              		.loc 1 386 0
 851 0042 00F20F81 		bhi	.L103
 852              		.loc 1 386 0 is_stmt 0 discriminator 1
 853 0046 B9F5F07F 		cmp	r9, #480
 854 004a 00F20B81 		bhi	.L103
 855              		.loc 1 390 0 is_stmt 1
ARM GAS  /tmp/ccuNvn3H.s 			page 16


 856 004e B5F5207F 		cmp	r5, #640
 857 0052 00F20D81 		bhi	.L104
 858              		.loc 1 394 0
 859 0056 BAF5F07F 		cmp	r10, #480
 860 005a 00F20C81 		bhi	.L105
 861              		.loc 1 398 0
 862 005e B045     		cmp	r8, r6
 863 0060 00F20381 		bhi	.L106
 864              		.loc 1 402 0
 865 0064 02AA     		add	r2, sp, #8
 866 0066 7221     		movs	r1, #114
 867 0068 2120     		movs	r0, #33
 868              	.LVL84:
 869 006a FFF7FEFF 		bl	ov7670_read_reg
 870              	.LVL85:
 871 006e 10BB     		cbnz	r0, .L86
 872              		.loc 1 405 0
 873 0070 9DF80820 		ldrb	r2, [sp, #8]	@ zero_extendqisi2
 874              		.loc 1 407 0
 875 0074 402E     		cmp	r6, #64
 876              		.loc 1 405 0
 877 0076 02F0CC02 		and	r2, r2, #204
 878 007a 8DF80820 		strb	r2, [sp, #8]
 879              		.loc 1 407 0
 880 007e 00F0D980 		beq	.L88
 881 0082 802E     		cmp	r6, #128
 882 0084 00F0CC80 		beq	.L89
 883 0088 202E     		cmp	r6, #32
 884 008a 00F0B180 		beq	.L115
 885              	.LVL86:
 886              	.L87:
 887              		.loc 1 433 0
 888 008e B8F1400F 		cmp	r8, #64
 889 0092 00F0B380 		beq	.L92
 890              	.L120:
 891 0096 B8F1800F 		cmp	r8, #128
 892 009a 00F0D580 		beq	.L93
 893 009e B8F1200F 		cmp	r8, #32
 894 00a2 00F0B980 		beq	.L116
 895              	.LVL87:
 896              	.L91:
 897              		.loc 1 459 0
 898 00a6 C5F3C702 		ubfx	r2, r5, #3, #8
 899 00aa 1721     		movs	r1, #23
 900 00ac 2120     		movs	r0, #33
 901 00ae FFF7FEFF 		bl	ov7670_write_reg
 902              	.LVL88:
 903 00b2 40B2     		sxtb	r0, r0
 904              	.LVL89:
 905 00b4 38B1     		cbz	r0, .L117
 906              	.LVL90:
 907              	.L86:
 908              		.loc 1 565 0
 909 00b6 039A     		ldr	r2, [sp, #12]
 910 00b8 3B68     		ldr	r3, [r7]
 911 00ba 9A42     		cmp	r2, r3
 912 00bc 40F0E480 		bne	.L118
ARM GAS  /tmp/ccuNvn3H.s 			page 17


 913 00c0 05B0     		add	sp, sp, #20
 914              		.cfi_remember_state
 915              		.cfi_def_cfa_offset 36
 916              		@ sp needed
 917 00c2 BDE8F08F 		pop	{r4, r5, r6, r7, r8, r9, r10, fp, pc}
 918              	.LVL91:
 919              	.L117:
 920              		.cfi_restore_state
 921              		.loc 1 462 0
 922 00c6 CBF3C702 		ubfx	r2, fp, #3, #8
 923 00ca 1821     		movs	r1, #24
 924 00cc 2120     		movs	r0, #33
 925              	.LVL92:
 926 00ce FFF7FEFF 		bl	ov7670_write_reg
 927              	.LVL93:
 928 00d2 40B2     		sxtb	r0, r0
 929              	.LVL94:
 930 00d4 0028     		cmp	r0, #0
 931 00d6 EED1     		bne	.L86
 932              		.loc 1 465 0
 933 00d8 4FEACB03 		lsl	r3, fp, #3
 934 00dc 03F03802 		and	r2, r3, #56
 935 00e0 05F00705 		and	r5, r5, #7
 936              	.LVL95:
 937 00e4 2A43     		orrs	r2, r2, r5
 938 00e6 3221     		movs	r1, #50
 939 00e8 2120     		movs	r0, #33
 940              	.LVL96:
 941 00ea FFF7FEFF 		bl	ov7670_write_reg
 942              	.LVL97:
 943 00ee 40B2     		sxtb	r0, r0
 944              	.LVL98:
 945 00f0 0028     		cmp	r0, #0
 946 00f2 E0D1     		bne	.L86
 947              		.loc 1 468 0
 948 00f4 CAF38702 		ubfx	r2, r10, #2, #8
 949 00f8 1921     		movs	r1, #25
 950 00fa 2120     		movs	r0, #33
 951              	.LVL99:
 952 00fc FFF7FEFF 		bl	ov7670_write_reg
 953              	.LVL100:
 954 0100 40B2     		sxtb	r0, r0
 955              	.LVL101:
 956 0102 0028     		cmp	r0, #0
 957 0104 D7D1     		bne	.L86
 958              		.loc 1 378 0
 959 0106 D144     		add	r9, r9, r10
 960              	.LVL102:
 961              		.loc 1 471 0
 962 0108 C9F38702 		ubfx	r2, r9, #2, #8
 963 010c 1A21     		movs	r1, #26
 964 010e 2120     		movs	r0, #33
 965              	.LVL103:
 966 0110 FFF7FEFF 		bl	ov7670_write_reg
 967              	.LVL104:
 968 0114 40B2     		sxtb	r0, r0
 969              	.LVL105:
ARM GAS  /tmp/ccuNvn3H.s 			page 18


 970 0116 0028     		cmp	r0, #0
 971 0118 CDD1     		bne	.L86
 972              		.loc 1 474 0
 973 011a 4FEA8909 		lsl	r9, r9, #2
 974 011e 09F00C09 		and	r9, r9, #12
 975 0122 0AF00302 		and	r2, r10, #3
 976 0126 49EA0202 		orr	r2, r9, r2
 977 012a 0321     		movs	r1, #3
 978 012c 2120     		movs	r0, #33
 979              	.LVL106:
 980 012e FFF7FEFF 		bl	ov7670_write_reg
 981              	.LVL107:
 982 0132 40B2     		sxtb	r0, r0
 983              	.LVL108:
 984 0134 0028     		cmp	r0, #0
 985 0136 BED1     		bne	.L86
 986              		.loc 1 478 0
 987 0138 0DF10902 		add	r2, sp, #9
 988 013c 3E21     		movs	r1, #62
 989 013e 2120     		movs	r0, #33
 990              	.LVL109:
 991 0140 FFF7FEFF 		bl	ov7670_read_reg
 992              	.LVL110:
 993 0144 0028     		cmp	r0, #0
 994 0146 B6D1     		bne	.L86
 995              		.loc 1 481 0
 996 0148 9DF80930 		ldrb	r3, [sp, #9]	@ zero_extendqisi2
 997 014c 23F00703 		bic	r3, r3, #7
 998              		.loc 1 482 0
 999 0150 43F00803 		orr	r3, r3, #8
 1000              		.loc 1 483 0
 1001 0154 0DF10A02 		add	r2, sp, #10
 1002 0158 7321     		movs	r1, #115
 1003 015a 2120     		movs	r0, #33
 1004              	.LVL111:
 1005              		.loc 1 482 0
 1006 015c 8DF80930 		strb	r3, [sp, #9]
 1007              		.loc 1 483 0
 1008 0160 FFF7FEFF 		bl	ov7670_read_reg
 1009              	.LVL112:
 1010 0164 0028     		cmp	r0, #0
 1011 0166 A6D1     		bne	.L86
 1012              		.loc 1 486 0
 1013 0168 9DF80A30 		ldrb	r3, [sp, #10]	@ zero_extendqisi2
 1014 016c 03F0F803 		and	r3, r3, #248
 1015              		.loc 1 487 0
 1016 0170 63F00F02 		orn	r2, r3, #15
 1017              		.loc 1 490 0
 1018 0174 402E     		cmp	r6, #64
 1019              		.loc 1 487 0
 1020 0176 8DF80A20 		strb	r2, [sp, #10]
 1021              		.loc 1 490 0
 1022 017a 00F09280 		beq	.L96
 1023 017e 802E     		cmp	r6, #128
 1024 0180 00F08480 		beq	.L97
 1025              		.loc 1 522 0
 1026 0184 202E     		cmp	r6, #32
ARM GAS  /tmp/ccuNvn3H.s 			page 19


 1027 0186 03D1     		bne	.L98
 1028              		.loc 1 522 0 is_stmt 0 discriminator 1
 1029 0188 B8F1200F 		cmp	r8, #32
 1030 018c 00F09480 		beq	.L119
 1031              	.L98:
 1032              		.loc 1 527 0 is_stmt 1
 1033 0190 0422     		movs	r2, #4
 1034              	.L114:
 1035              		.loc 1 523 0
 1036 0192 0C21     		movs	r1, #12
 1037 0194 2120     		movs	r0, #33
 1038              	.LVL113:
 1039 0196 FFF7FEFF 		bl	ov7670_write_reg
 1040              	.LVL114:
 1041 019a 40B2     		sxtb	r0, r0
 1042              	.LVL115:
 1043 019c 0028     		cmp	r0, #0
 1044 019e 8AD1     		bne	.L86
 1045              		.loc 1 532 0
 1046 01a0 9DF80920 		ldrb	r2, [sp, #9]	@ zero_extendqisi2
 1047 01a4 3E21     		movs	r1, #62
 1048 01a6 42F01002 		orr	r2, r2, #16
 1049 01aa 2120     		movs	r0, #33
 1050              	.LVL116:
 1051 01ac FFF7FEFF 		bl	ov7670_write_reg
 1052              	.LVL117:
 1053 01b0 40B2     		sxtb	r0, r0
 1054              	.LVL118:
 1055 01b2 0028     		cmp	r0, #0
 1056 01b4 7FF47FAF 		bne	.L86
 1057              		.loc 1 535 0
 1058 01b8 9DF80820 		ldrb	r2, [sp, #8]	@ zero_extendqisi2
 1059 01bc 7221     		movs	r1, #114
 1060 01be 2120     		movs	r0, #33
 1061              	.LVL119:
 1062 01c0 FFF7FEFF 		bl	ov7670_write_reg
 1063              	.LVL120:
 1064 01c4 40B2     		sxtb	r0, r0
 1065              	.LVL121:
 1066 01c6 0028     		cmp	r0, #0
 1067 01c8 7FF475AF 		bne	.L86
 1068              		.loc 1 538 0
 1069 01cc 9DF80A20 		ldrb	r2, [sp, #10]	@ zero_extendqisi2
 1070 01d0 7321     		movs	r1, #115
 1071 01d2 2120     		movs	r0, #33
 1072              	.LVL122:
 1073 01d4 FFF7FEFF 		bl	ov7670_write_reg
 1074              	.LVL123:
 1075 01d8 40B2     		sxtb	r0, r0
 1076              	.LVL124:
 1077 01da 0028     		cmp	r0, #0
 1078 01dc 7FF46BAF 		bne	.L86
 1079              		.loc 1 555 0
 1080 01e0 374B     		ldr	r3, .L121+4
 1081 01e2 9DF80420 		ldrb	r2, [sp, #4]	@ zero_extendqisi2
 1082 01e6 1A71     		strb	r2, [r3, #4]
 1083              		.loc 1 556 0
ARM GAS  /tmp/ccuNvn3H.s 			page 20


 1084 01e8 5E71     		strb	r6, [r3, #5]
 1085              		.loc 1 557 0
 1086 01ea 83F80680 		strb	r8, [r3, #6]
 1087              		.loc 1 563 0
 1088 01ee 62E7     		b	.L86
 1089              	.LVL125:
 1090              	.L115:
 1091              		.loc 1 409 0
 1092 01f0 334A     		ldr	r2, .L121+4
 1093              		.loc 1 433 0
 1094 01f2 B8F1400F 		cmp	r8, #64
 1095              		.loc 1 409 0
 1096 01f6 1480     		strh	r4, [r2]	@ movhi
 1097              		.loc 1 433 0
 1098 01f8 7FF44DAF 		bne	.L120
 1099              	.LVL126:
 1100              	.L92:
 1101              		.loc 1 440 0
 1102 01fc 19F0010F 		tst	r9, #1
 1103 0200 3CD1     		bne	.L110
 1104              		.loc 1 443 0
 1105 0202 9DF80810 		ldrb	r1, [sp, #8]	@ zero_extendqisi2
 1106              		.loc 1 444 0
 1107 0206 2E48     		ldr	r0, .L121+4
 1108              	.LVL127:
 1109              		.loc 1 443 0
 1110 0208 41F01001 		orr	r1, r1, #16
 1111              		.loc 1 444 0
 1112 020c 4FEA5902 		lsr	r2, r9, #1
 1113              		.loc 1 443 0
 1114 0210 8DF80810 		strb	r1, [sp, #8]
 1115              		.loc 1 444 0
 1116 0214 4280     		strh	r2, [r0, #2]	@ movhi
 1117              		.loc 1 446 0
 1118 0216 46E7     		b	.L91
 1119              	.LVL128:
 1120              	.L116:
 1121              		.loc 1 435 0
 1122 0218 294A     		ldr	r2, .L121+4
 1123 021a A2F80290 		strh	r9, [r2, #2]	@ movhi
 1124              		.loc 1 436 0
 1125 021e 42E7     		b	.L91
 1126              	.LVL129:
 1127              	.L89:
 1128              		.loc 1 424 0
 1129 0220 A307     		lsls	r3, r4, #30
 1130 0222 2ED1     		bne	.L108
 1131              		.loc 1 428 0
 1132 0224 2649     		ldr	r1, .L121+4
 1133              		.loc 1 427 0
 1134 0226 42F00202 		orr	r2, r2, #2
 1135              		.loc 1 428 0
 1136 022a A408     		lsrs	r4, r4, #2
 1137              	.LVL130:
 1138              		.loc 1 427 0
 1139 022c 8DF80820 		strb	r2, [sp, #8]
 1140              		.loc 1 428 0
ARM GAS  /tmp/ccuNvn3H.s 			page 21


 1141 0230 0C80     		strh	r4, [r1]	@ movhi
 1142              		.loc 1 430 0
 1143 0232 2CE7     		b	.L87
 1144              	.LVL131:
 1145              	.L88:
 1146              		.loc 1 414 0
 1147 0234 E107     		lsls	r1, r4, #31
 1148 0236 24D4     		bmi	.L108
 1149              		.loc 1 418 0
 1150 0238 2149     		ldr	r1, .L121+4
 1151              		.loc 1 417 0
 1152 023a 42F00102 		orr	r2, r2, #1
 1153              		.loc 1 418 0
 1154 023e 6408     		lsrs	r4, r4, #1
 1155              	.LVL132:
 1156              		.loc 1 417 0
 1157 0240 8DF80820 		strb	r2, [sp, #8]
 1158              		.loc 1 418 0
 1159 0244 0C80     		strh	r4, [r1]	@ movhi
 1160              		.loc 1 420 0
 1161 0246 22E7     		b	.L87
 1162              	.L93:
 1163              		.loc 1 450 0
 1164 0248 19F0030F 		tst	r9, #3
 1165 024c 16D1     		bne	.L110
 1166              		.loc 1 453 0
 1167 024e 9DF80810 		ldrb	r1, [sp, #8]	@ zero_extendqisi2
 1168              		.loc 1 454 0
 1169 0252 1B48     		ldr	r0, .L121+4
 1170              	.LVL133:
 1171              		.loc 1 453 0
 1172 0254 41F02001 		orr	r1, r1, #32
 1173              		.loc 1 454 0
 1174 0258 4FEA9902 		lsr	r2, r9, #2
 1175              		.loc 1 453 0
 1176 025c 8DF80810 		strb	r1, [sp, #8]
 1177              		.loc 1 454 0
 1178 0260 4280     		strh	r2, [r0, #2]	@ movhi
 1179              		.loc 1 456 0
 1180 0262 20E7     		b	.L91
 1181              	.LVL134:
 1182              	.L103:
 1183              		.loc 1 387 0
 1184 0264 6FF00700 		mvn	r0, #7
 1185              	.LVL135:
 1186 0268 25E7     		b	.L86
 1187              	.LVL136:
 1188              	.L106:
 1189              		.loc 1 399 0
 1190 026a 6FF00300 		mvn	r0, #3
 1191              	.LVL137:
 1192 026e 22E7     		b	.L86
 1193              	.LVL138:
 1194              	.L104:
 1195              		.loc 1 391 0
 1196 0270 6FF00100 		mvn	r0, #1
 1197              	.LVL139:
ARM GAS  /tmp/ccuNvn3H.s 			page 22


 1198 0274 1FE7     		b	.L86
 1199              	.LVL140:
 1200              	.L105:
 1201              		.loc 1 395 0
 1202 0276 6FF00200 		mvn	r0, #2
 1203              	.LVL141:
 1204 027a 1CE7     		b	.L86
 1205              	.LVL142:
 1206              	.L110:
 1207              		.loc 1 441 0
 1208 027c 6FF00600 		mvn	r0, #6
 1209              	.LVL143:
 1210 0280 19E7     		b	.L86
 1211              	.LVL144:
 1212              	.L108:
 1213              		.loc 1 415 0
 1214 0282 6FF00500 		mvn	r0, #5
 1215              	.LVL145:
 1216 0286 16E7     		b	.L86
 1217              	.LVL146:
 1218              	.L118:
 1219              		.loc 1 565 0
 1220 0288 FFF7FEFF 		bl	__stack_chk_fail
 1221              	.LVL147:
 1222              	.L97:
 1223              		.loc 1 500 0
 1224 028c 9DF80920 		ldrb	r2, [sp, #9]	@ zero_extendqisi2
 1225              		.loc 1 501 0
 1226 0290 63F00D03 		orn	r3, r3, #13
 1227              		.loc 1 500 0
 1228 0294 42F00202 		orr	r2, r2, #2
 1229              		.loc 1 501 0
 1230 0298 8DF80A30 		strb	r3, [sp, #10]
 1231              		.loc 1 500 0
 1232 029c 8DF80920 		strb	r2, [sp, #9]
 1233              		.loc 1 502 0
 1234 02a0 76E7     		b	.L98
 1235              	.L96:
 1236              		.loc 1 495 0
 1237 02a2 9DF80920 		ldrb	r2, [sp, #9]	@ zero_extendqisi2
 1238              		.loc 1 496 0
 1239 02a6 63F00E03 		orn	r3, r3, #14
 1240              		.loc 1 495 0
 1241 02aa 42F00102 		orr	r2, r2, #1
 1242              		.loc 1 496 0
 1243 02ae 8DF80A30 		strb	r3, [sp, #10]
 1244              		.loc 1 495 0
 1245 02b2 8DF80920 		strb	r2, [sp, #9]
 1246              		.loc 1 497 0
 1247 02b6 6BE7     		b	.L98
 1248              	.L119:
 1249              		.loc 1 523 0
 1250 02b8 0022     		movs	r2, #0
 1251 02ba 6AE7     		b	.L114
 1252              	.L122:
 1253              		.align	2
 1254              	.L121:
ARM GAS  /tmp/ccuNvn3H.s 			page 23


 1255 02bc 00000000 		.word	__stack_chk_guard
 1256 02c0 00000000 		.word	.LANCHOR0
 1257              		.cfi_endproc
 1258              	.LFE266:
 1259              		.size	ov7670_advanced_config, .-ov7670_advanced_config
 1260              		.section	.text.ov7670_start,"ax",%progbits
 1261              		.align	1
 1262              		.p2align 4,,15
 1263              		.global	ov7670_start
 1264              		.syntax unified
 1265              		.thumb
 1266              		.thumb_func
 1267              		.fpu fpv4-sp-d16
 1268              		.type	ov7670_start, %function
 1269              	ov7670_start:
 1270              	.LFB264:
 1271              		.loc 1 340 0
 1272              		.cfi_startproc
 1273              		@ args = 0, pretend = 0, frame = 8
 1274              		@ frame_needed = 0, uses_anonymous_args = 0
 1275 0000 10B5     		push	{r4, lr}
 1276              		.cfi_def_cfa_offset 8
 1277              		.cfi_offset 4, -8
 1278              		.cfi_offset 14, -4
 1279 0002 1E4C     		ldr	r4, .L127
 1280 0004 86B0     		sub	sp, sp, #24
 1281              		.cfi_def_cfa_offset 32
 1282              		.loc 1 340 0
 1283 0006 2368     		ldr	r3, [r4]
 1284 0008 0593     		str	r3, [sp, #20]
 1285              		.loc 1 342 0
 1286 000a 8022     		movs	r2, #128
 1287 000c 1221     		movs	r1, #18
 1288 000e 2120     		movs	r0, #33
 1289 0010 FFF7FEFF 		bl	ov7670_write_reg
 1290              	.LVL148:
 1291              		.loc 1 343 0
 1292 0014 0A20     		movs	r0, #10
 1293 0016 FFF7FEFF 		bl	chThdSleep
 1294              	.LVL149:
 1295              		.loc 1 344 0
 1296 001a 8022     		movs	r2, #128
 1297 001c 1121     		movs	r1, #17
 1298 001e 2120     		movs	r0, #33
 1299 0020 FFF7FEFF 		bl	ov7670_write_reg
 1300              	.LVL150:
 1301              		.loc 1 346 0
 1302 0024 0422     		movs	r2, #4
 1303 0026 3A21     		movs	r1, #58
 1304 0028 2120     		movs	r0, #33
 1305 002a FFF7FEFF 		bl	ov7670_write_reg
 1306              	.LVL151:
 1307              		.loc 1 347 0
 1308 002e 0422     		movs	r2, #4
 1309 0030 1221     		movs	r1, #18
 1310 0032 2120     		movs	r0, #33
 1311 0034 FFF7FEFF 		bl	ov7670_write_reg
ARM GAS  /tmp/ccuNvn3H.s 			page 24


 1312              	.LVL152:
 1313              		.loc 1 349 0
 1314 0038 D022     		movs	r2, #208
 1315 003a 4021     		movs	r1, #64
 1316 003c 2120     		movs	r0, #33
 1317 003e FFF7FEFF 		bl	ov7670_write_reg
 1318              	.LVL153:
 1319              		.loc 1 350 0
 1320 0042 0222     		movs	r2, #2
 1321 0044 1521     		movs	r1, #21
 1322 0046 2120     		movs	r0, #33
 1323 0048 FFF7FEFF 		bl	ov7670_write_reg
 1324              	.LVL154:
 1325              		.loc 1 351 0
 1326 004c 8422     		movs	r2, #132
 1327 004e B021     		movs	r1, #176
 1328 0050 2120     		movs	r0, #33
 1329 0052 FFF7FEFF 		bl	ov7670_write_reg
 1330              	.LVL155:
 1331              		.loc 1 354 0
 1332 0056 2023     		movs	r3, #32
 1333 0058 7822     		movs	r2, #120
 1334 005a CDE90133 		strd	r3, r3, [sp, #4]
 1335 005e 0092     		str	r2, [sp]
 1336 0060 A023     		movs	r3, #160
 1337 0062 B422     		movs	r2, #180
 1338 0064 F021     		movs	r1, #240
 1339 0066 0120     		movs	r0, #1
 1340 0068 FFF7FEFF 		bl	ov7670_advanced_config
 1341              	.LVL156:
 1342              		.loc 1 355 0
 1343 006c 059A     		ldr	r2, [sp, #20]
 1344 006e 2368     		ldr	r3, [r4]
 1345 0070 9A42     		cmp	r2, r3
 1346 0072 01D1     		bne	.L126
 1347 0074 06B0     		add	sp, sp, #24
 1348              		.cfi_remember_state
 1349              		.cfi_def_cfa_offset 8
 1350              		@ sp needed
 1351 0076 10BD     		pop	{r4, pc}
 1352              	.L126:
 1353              		.cfi_restore_state
 1354 0078 FFF7FEFF 		bl	__stack_chk_fail
 1355              	.LVL157:
 1356              	.L128:
 1357              		.align	2
 1358              	.L127:
 1359 007c 00000000 		.word	__stack_chk_guard
 1360              		.cfi_endproc
 1361              	.LFE264:
 1362              		.size	ov7670_start, .-ov7670_start
 1363              		.section	.text.ov7670_set_brightness,"ax",%progbits
 1364              		.align	1
 1365              		.p2align 4,,15
 1366              		.global	ov7670_set_brightness
 1367              		.syntax unified
 1368              		.thumb
ARM GAS  /tmp/ccuNvn3H.s 			page 25


 1369              		.thumb_func
 1370              		.fpu fpv4-sp-d16
 1371              		.type	ov7670_set_brightness, %function
 1372              	ov7670_set_brightness:
 1373              	.LFB267:
 1374              		.loc 1 567 0
 1375              		.cfi_startproc
 1376              		@ args = 0, pretend = 0, frame = 8
 1377              		@ frame_needed = 0, uses_anonymous_args = 0
 1378              	.LVL158:
 1379 0000 10B5     		push	{r4, lr}
 1380              		.cfi_def_cfa_offset 8
 1381              		.cfi_offset 4, -8
 1382              		.cfi_offset 14, -4
 1383 0002 094C     		ldr	r4, .L133
 1384 0004 82B0     		sub	sp, sp, #8
 1385              		.cfi_def_cfa_offset 16
 1386              		.loc 1 568 0
 1387 0006 0246     		mov	r2, r0
 1388              		.loc 1 567 0
 1389 0008 2368     		ldr	r3, [r4]
 1390 000a 0193     		str	r3, [sp, #4]
 1391              		.loc 1 568 0
 1392 000c 5521     		movs	r1, #85
 1393 000e 2120     		movs	r0, #33
 1394              	.LVL159:
 1395 0010 FFF7FEFF 		bl	ov7670_write_reg
 1396              	.LVL160:
 1397              		.loc 1 569 0
 1398 0014 019A     		ldr	r2, [sp, #4]
 1399 0016 2368     		ldr	r3, [r4]
 1400 0018 9A42     		cmp	r2, r3
 1401 001a 02D1     		bne	.L132
 1402 001c 40B2     		sxtb	r0, r0
 1403 001e 02B0     		add	sp, sp, #8
 1404              		.cfi_remember_state
 1405              		.cfi_def_cfa_offset 8
 1406              		@ sp needed
 1407 0020 10BD     		pop	{r4, pc}
 1408              	.L132:
 1409              		.cfi_restore_state
 1410 0022 FFF7FEFF 		bl	__stack_chk_fail
 1411              	.LVL161:
 1412              	.L134:
 1413 0026 00BF     		.align	2
 1414              	.L133:
 1415 0028 00000000 		.word	__stack_chk_guard
 1416              		.cfi_endproc
 1417              	.LFE267:
 1418              		.size	ov7670_set_brightness, .-ov7670_set_brightness
 1419              		.section	.text.ov7670_set_contrast,"ax",%progbits
 1420              		.align	1
 1421              		.p2align 4,,15
 1422              		.global	ov7670_set_contrast
 1423              		.syntax unified
 1424              		.thumb
 1425              		.thumb_func
ARM GAS  /tmp/ccuNvn3H.s 			page 26


 1426              		.fpu fpv4-sp-d16
 1427              		.type	ov7670_set_contrast, %function
 1428              	ov7670_set_contrast:
 1429              	.LFB268:
 1430              		.loc 1 571 0
 1431              		.cfi_startproc
 1432              		@ args = 0, pretend = 0, frame = 8
 1433              		@ frame_needed = 0, uses_anonymous_args = 0
 1434              	.LVL162:
 1435 0000 10B5     		push	{r4, lr}
 1436              		.cfi_def_cfa_offset 8
 1437              		.cfi_offset 4, -8
 1438              		.cfi_offset 14, -4
 1439 0002 094C     		ldr	r4, .L139
 1440 0004 82B0     		sub	sp, sp, #8
 1441              		.cfi_def_cfa_offset 16
 1442              		.loc 1 574 0
 1443 0006 0246     		mov	r2, r0
 1444              		.loc 1 571 0
 1445 0008 2368     		ldr	r3, [r4]
 1446 000a 0193     		str	r3, [sp, #4]
 1447              		.loc 1 574 0
 1448 000c 5621     		movs	r1, #86
 1449 000e 2120     		movs	r0, #33
 1450              	.LVL163:
 1451 0010 FFF7FEFF 		bl	ov7670_write_reg
 1452              	.LVL164:
 1453              		.loc 1 575 0
 1454 0014 019A     		ldr	r2, [sp, #4]
 1455 0016 2368     		ldr	r3, [r4]
 1456 0018 9A42     		cmp	r2, r3
 1457 001a 02D1     		bne	.L138
 1458 001c 40B2     		sxtb	r0, r0
 1459 001e 02B0     		add	sp, sp, #8
 1460              		.cfi_remember_state
 1461              		.cfi_def_cfa_offset 8
 1462              		@ sp needed
 1463 0020 10BD     		pop	{r4, pc}
 1464              	.L138:
 1465              		.cfi_restore_state
 1466 0022 FFF7FEFF 		bl	__stack_chk_fail
 1467              	.LVL165:
 1468              	.L140:
 1469 0026 00BF     		.align	2
 1470              	.L139:
 1471 0028 00000000 		.word	__stack_chk_guard
 1472              		.cfi_endproc
 1473              	.LFE268:
 1474              		.size	ov7670_set_contrast, .-ov7670_set_contrast
 1475              		.section	.text.ov7670_set_mirror,"ax",%progbits
 1476              		.align	1
 1477              		.p2align 4,,15
 1478              		.global	ov7670_set_mirror
 1479              		.syntax unified
 1480              		.thumb
 1481              		.thumb_func
 1482              		.fpu fpv4-sp-d16
ARM GAS  /tmp/ccuNvn3H.s 			page 27


 1483              		.type	ov7670_set_mirror, %function
 1484              	ov7670_set_mirror:
 1485              	.LFB269:
 1486              		.loc 1 577 0
 1487              		.cfi_startproc
 1488              		@ args = 0, pretend = 0, frame = 8
 1489              		@ frame_needed = 0, uses_anonymous_args = 0
 1490              	.LVL166:
 1491 0000 70B5     		push	{r4, r5, r6, lr}
 1492              		.cfi_def_cfa_offset 16
 1493              		.cfi_offset 4, -16
 1494              		.cfi_offset 5, -12
 1495              		.cfi_offset 6, -8
 1496              		.cfi_offset 14, -4
 1497 0002 82B0     		sub	sp, sp, #8
 1498              		.cfi_def_cfa_offset 24
 1499              		.loc 1 579 0
 1500 0004 02AA     		add	r2, sp, #8
 1501              		.loc 1 577 0
 1502 0006 154C     		ldr	r4, .L150
 1503              		.loc 1 579 0
 1504 0008 0023     		movs	r3, #0
 1505 000a 02F8053D 		strb	r3, [r2, #-5]!
 1506              		.loc 1 577 0
 1507 000e 0646     		mov	r6, r0
 1508 0010 0D46     		mov	r5, r1
 1509 0012 2368     		ldr	r3, [r4]
 1510 0014 0193     		str	r3, [sp, #4]
 1511              	.LVL167:
 1512              		.loc 1 581 0
 1513 0016 1E21     		movs	r1, #30
 1514              	.LVL168:
 1515 0018 2120     		movs	r0, #33
 1516              	.LVL169:
 1517 001a FFF7FEFF 		bl	ov7670_read_reg
 1518              	.LVL170:
 1519 001e A0B9     		cbnz	r0, .L142
 1520 0020 9DF80320 		ldrb	r2, [sp, #3]	@ zero_extendqisi2
 1521              		.loc 1 585 0
 1522 0024 012E     		cmp	r6, #1
 1523              		.loc 1 586 0
 1524 0026 0CBF     		ite	eq
 1525 0028 42F01002 		orreq	r2, r2, #16
 1526              		.loc 1 588 0
 1527 002c 02F0EF02 		andne	r2, r2, #239
 1528              		.loc 1 591 0
 1529 0030 012D     		cmp	r5, #1
 1530              		.loc 1 592 0
 1531 0032 0CBF     		ite	eq
 1532 0034 42F02002 		orreq	r2, r2, #32
 1533              		.loc 1 594 0
 1534 0038 02F0DF02 		andne	r2, r2, #223
 1535              		.loc 1 597 0
 1536 003c 1E21     		movs	r1, #30
 1537 003e 2120     		movs	r0, #33
 1538              	.LVL171:
 1539              		.loc 1 594 0
ARM GAS  /tmp/ccuNvn3H.s 			page 28


 1540 0040 8DF80320 		strb	r2, [sp, #3]
 1541              		.loc 1 597 0
 1542 0044 FFF7FEFF 		bl	ov7670_write_reg
 1543              	.LVL172:
 1544 0048 40B2     		sxtb	r0, r0
 1545              	.L142:
 1546              		.loc 1 598 0
 1547 004a 019A     		ldr	r2, [sp, #4]
 1548 004c 2368     		ldr	r3, [r4]
 1549 004e 9A42     		cmp	r2, r3
 1550 0050 01D1     		bne	.L149
 1551 0052 02B0     		add	sp, sp, #8
 1552              		.cfi_remember_state
 1553              		.cfi_def_cfa_offset 16
 1554              		@ sp needed
 1555 0054 70BD     		pop	{r4, r5, r6, pc}
 1556              	.L149:
 1557              		.cfi_restore_state
 1558 0056 FFF7FEFF 		bl	__stack_chk_fail
 1559              	.LVL173:
 1560              	.L151:
 1561 005a 00BF     		.align	2
 1562              	.L150:
 1563 005c 00000000 		.word	__stack_chk_guard
 1564              		.cfi_endproc
 1565              	.LFE269:
 1566              		.size	ov7670_set_mirror, .-ov7670_set_mirror
 1567              		.section	.text.ov7670_set_awb,"ax",%progbits
 1568              		.align	1
 1569              		.p2align 4,,15
 1570              		.global	ov7670_set_awb
 1571              		.syntax unified
 1572              		.thumb
 1573              		.thumb_func
 1574              		.fpu fpv4-sp-d16
 1575              		.type	ov7670_set_awb, %function
 1576              	ov7670_set_awb:
 1577              	.LFB270:
 1578              		.loc 1 600 0
 1579              		.cfi_startproc
 1580              		@ args = 0, pretend = 0, frame = 8
 1581              		@ frame_needed = 0, uses_anonymous_args = 0
 1582              	.LVL174:
 1583 0000 30B5     		push	{r4, r5, lr}
 1584              		.cfi_def_cfa_offset 12
 1585              		.cfi_offset 4, -12
 1586              		.cfi_offset 5, -8
 1587              		.cfi_offset 14, -4
 1588 0002 83B0     		sub	sp, sp, #12
 1589              		.cfi_def_cfa_offset 24
 1590              		.loc 1 602 0
 1591 0004 02AA     		add	r2, sp, #8
 1592              		.loc 1 600 0
 1593 0006 114C     		ldr	r4, .L159
 1594              		.loc 1 602 0
 1595 0008 0023     		movs	r3, #0
 1596 000a 02F8053D 		strb	r3, [r2, #-5]!
ARM GAS  /tmp/ccuNvn3H.s 			page 29


 1597              		.loc 1 600 0
 1598 000e 0546     		mov	r5, r0
 1599 0010 2368     		ldr	r3, [r4]
 1600 0012 0193     		str	r3, [sp, #4]
 1601              	.LVL175:
 1602              		.loc 1 604 0
 1603 0014 1321     		movs	r1, #19
 1604 0016 2120     		movs	r0, #33
 1605              	.LVL176:
 1606 0018 FFF7FEFF 		bl	ov7670_read_reg
 1607              	.LVL177:
 1608 001c 70B9     		cbnz	r0, .L153
 1609 001e 9DF80320 		ldrb	r2, [sp, #3]	@ zero_extendqisi2
 1610              		.loc 1 608 0
 1611 0022 012D     		cmp	r5, #1
 1612              		.loc 1 609 0
 1613 0024 0CBF     		ite	eq
 1614 0026 42F00202 		orreq	r2, r2, #2
 1615              		.loc 1 611 0
 1616 002a 02F0FD02 		andne	r2, r2, #253
 1617              		.loc 1 614 0
 1618 002e 1321     		movs	r1, #19
 1619 0030 2120     		movs	r0, #33
 1620              	.LVL178:
 1621              		.loc 1 611 0
 1622 0032 8DF80320 		strb	r2, [sp, #3]
 1623              		.loc 1 614 0
 1624 0036 FFF7FEFF 		bl	ov7670_write_reg
 1625              	.LVL179:
 1626 003a 40B2     		sxtb	r0, r0
 1627              	.LVL180:
 1628              	.L153:
 1629              		.loc 1 619 0
 1630 003c 019A     		ldr	r2, [sp, #4]
 1631 003e 2368     		ldr	r3, [r4]
 1632 0040 9A42     		cmp	r2, r3
 1633 0042 01D1     		bne	.L158
 1634 0044 03B0     		add	sp, sp, #12
 1635              		.cfi_remember_state
 1636              		.cfi_def_cfa_offset 12
 1637              		@ sp needed
 1638 0046 30BD     		pop	{r4, r5, pc}
 1639              	.L158:
 1640              		.cfi_restore_state
 1641 0048 FFF7FEFF 		bl	__stack_chk_fail
 1642              	.LVL181:
 1643              	.L160:
 1644              		.align	2
 1645              	.L159:
 1646 004c 00000000 		.word	__stack_chk_guard
 1647              		.cfi_endproc
 1648              	.LFE270:
 1649              		.size	ov7670_set_awb, .-ov7670_set_awb
 1650              		.section	.text.ov7670_set_rgb_gain,"ax",%progbits
 1651              		.align	1
 1652              		.p2align 4,,15
 1653              		.global	ov7670_set_rgb_gain
ARM GAS  /tmp/ccuNvn3H.s 			page 30


 1654              		.syntax unified
 1655              		.thumb
 1656              		.thumb_func
 1657              		.fpu fpv4-sp-d16
 1658              		.type	ov7670_set_rgb_gain, %function
 1659              	ov7670_set_rgb_gain:
 1660              	.LFB271:
 1661              		.loc 1 621 0
 1662              		.cfi_startproc
 1663              		@ args = 0, pretend = 0, frame = 8
 1664              		@ frame_needed = 0, uses_anonymous_args = 0
 1665              	.LVL182:
 1666 0000 F0B5     		push	{r4, r5, r6, r7, lr}
 1667              		.cfi_def_cfa_offset 20
 1668              		.cfi_offset 4, -20
 1669              		.cfi_offset 5, -16
 1670              		.cfi_offset 6, -12
 1671              		.cfi_offset 7, -8
 1672              		.cfi_offset 14, -4
 1673 0002 154C     		ldr	r4, .L167
 1674 0004 83B0     		sub	sp, sp, #12
 1675              		.cfi_def_cfa_offset 32
 1676              		.loc 1 621 0
 1677 0006 0546     		mov	r5, r0
 1678 0008 2368     		ldr	r3, [r4]
 1679 000a 0193     		str	r3, [sp, #4]
 1680              	.LVL183:
 1681              		.loc 1 624 0
 1682 000c 0020     		movs	r0, #0
 1683              	.LVL184:
 1684              		.loc 1 621 0
 1685 000e 0E46     		mov	r6, r1
 1686 0010 1746     		mov	r7, r2
 1687              		.loc 1 624 0
 1688 0012 FFF7FEFF 		bl	ov7670_set_awb
 1689              	.LVL185:
 1690 0016 28B1     		cbz	r0, .L165
 1691              	.L162:
 1692              		.loc 1 639 0
 1693 0018 019A     		ldr	r2, [sp, #4]
 1694 001a 2368     		ldr	r3, [r4]
 1695 001c 9A42     		cmp	r2, r3
 1696 001e 18D1     		bne	.L166
 1697 0020 03B0     		add	sp, sp, #12
 1698              		.cfi_remember_state
 1699              		.cfi_def_cfa_offset 20
 1700              		@ sp needed
 1701 0022 F0BD     		pop	{r4, r5, r6, r7, pc}
 1702              	.L165:
 1703              		.cfi_restore_state
 1704              		.loc 1 628 0
 1705 0024 2A46     		mov	r2, r5
 1706 0026 0221     		movs	r1, #2
 1707 0028 2120     		movs	r0, #33
 1708              	.LVL186:
 1709 002a FFF7FEFF 		bl	ov7670_write_reg
 1710              	.LVL187:
ARM GAS  /tmp/ccuNvn3H.s 			page 31


 1711 002e 40B2     		sxtb	r0, r0
 1712              	.LVL188:
 1713 0030 0028     		cmp	r0, #0
 1714 0032 F1D1     		bne	.L162
 1715              		.loc 1 631 0
 1716 0034 3246     		mov	r2, r6
 1717 0036 6A21     		movs	r1, #106
 1718 0038 2120     		movs	r0, #33
 1719              	.LVL189:
 1720 003a FFF7FEFF 		bl	ov7670_write_reg
 1721              	.LVL190:
 1722 003e 40B2     		sxtb	r0, r0
 1723              	.LVL191:
 1724 0040 0028     		cmp	r0, #0
 1725 0042 E9D1     		bne	.L162
 1726              		.loc 1 634 0
 1727 0044 3A46     		mov	r2, r7
 1728 0046 0121     		movs	r1, #1
 1729 0048 2120     		movs	r0, #33
 1730              	.LVL192:
 1731 004a FFF7FEFF 		bl	ov7670_write_reg
 1732              	.LVL193:
 1733 004e 40B2     		sxtb	r0, r0
 1734              	.LVL194:
 1735 0050 E2E7     		b	.L162
 1736              	.L166:
 1737              		.loc 1 639 0
 1738 0052 FFF7FEFF 		bl	__stack_chk_fail
 1739              	.LVL195:
 1740              	.L168:
 1741 0056 00BF     		.align	2
 1742              	.L167:
 1743 0058 00000000 		.word	__stack_chk_guard
 1744              		.cfi_endproc
 1745              	.LFE271:
 1746              		.size	ov7670_set_rgb_gain, .-ov7670_set_rgb_gain
 1747              		.section	.text.ov7670_set_ae,"ax",%progbits
 1748              		.align	1
 1749              		.p2align 4,,15
 1750              		.global	ov7670_set_ae
 1751              		.syntax unified
 1752              		.thumb
 1753              		.thumb_func
 1754              		.fpu fpv4-sp-d16
 1755              		.type	ov7670_set_ae, %function
 1756              	ov7670_set_ae:
 1757              	.LFB272:
 1758              		.loc 1 641 0
 1759              		.cfi_startproc
 1760              		@ args = 0, pretend = 0, frame = 8
 1761              		@ frame_needed = 0, uses_anonymous_args = 0
 1762              	.LVL196:
 1763 0000 30B5     		push	{r4, r5, lr}
 1764              		.cfi_def_cfa_offset 12
 1765              		.cfi_offset 4, -12
 1766              		.cfi_offset 5, -8
 1767              		.cfi_offset 14, -4
ARM GAS  /tmp/ccuNvn3H.s 			page 32


 1768 0002 83B0     		sub	sp, sp, #12
 1769              		.cfi_def_cfa_offset 24
 1770              		.loc 1 643 0
 1771 0004 02AA     		add	r2, sp, #8
 1772              		.loc 1 641 0
 1773 0006 114C     		ldr	r4, .L176
 1774              		.loc 1 643 0
 1775 0008 0023     		movs	r3, #0
 1776 000a 02F8053D 		strb	r3, [r2, #-5]!
 1777              		.loc 1 641 0
 1778 000e 0546     		mov	r5, r0
 1779 0010 2368     		ldr	r3, [r4]
 1780 0012 0193     		str	r3, [sp, #4]
 1781              	.LVL197:
 1782              		.loc 1 645 0
 1783 0014 1321     		movs	r1, #19
 1784 0016 2120     		movs	r0, #33
 1785              	.LVL198:
 1786 0018 FFF7FEFF 		bl	ov7670_read_reg
 1787              	.LVL199:
 1788 001c 70B9     		cbnz	r0, .L170
 1789 001e 9DF80320 		ldrb	r2, [sp, #3]	@ zero_extendqisi2
 1790              		.loc 1 649 0
 1791 0022 012D     		cmp	r5, #1
 1792              		.loc 1 650 0
 1793 0024 0CBF     		ite	eq
 1794 0026 42F00102 		orreq	r2, r2, #1
 1795              		.loc 1 652 0
 1796 002a 02F0FE02 		andne	r2, r2, #254
 1797              		.loc 1 655 0
 1798 002e 1321     		movs	r1, #19
 1799 0030 2120     		movs	r0, #33
 1800              	.LVL200:
 1801              		.loc 1 652 0
 1802 0032 8DF80320 		strb	r2, [sp, #3]
 1803              		.loc 1 655 0
 1804 0036 FFF7FEFF 		bl	ov7670_write_reg
 1805              	.LVL201:
 1806 003a 40B2     		sxtb	r0, r0
 1807              	.LVL202:
 1808              	.L170:
 1809              		.loc 1 660 0
 1810 003c 019A     		ldr	r2, [sp, #4]
 1811 003e 2368     		ldr	r3, [r4]
 1812 0040 9A42     		cmp	r2, r3
 1813 0042 01D1     		bne	.L175
 1814 0044 03B0     		add	sp, sp, #12
 1815              		.cfi_remember_state
 1816              		.cfi_def_cfa_offset 12
 1817              		@ sp needed
 1818 0046 30BD     		pop	{r4, r5, pc}
 1819              	.L175:
 1820              		.cfi_restore_state
 1821 0048 FFF7FEFF 		bl	__stack_chk_fail
 1822              	.LVL203:
 1823              	.L177:
 1824              		.align	2
ARM GAS  /tmp/ccuNvn3H.s 			page 33


 1825              	.L176:
 1826 004c 00000000 		.word	__stack_chk_guard
 1827              		.cfi_endproc
 1828              	.LFE272:
 1829              		.size	ov7670_set_ae, .-ov7670_set_ae
 1830              		.section	.text.ov7670_set_exposure,"ax",%progbits
 1831              		.align	1
 1832              		.p2align 4,,15
 1833              		.global	ov7670_set_exposure
 1834              		.syntax unified
 1835              		.thumb
 1836              		.thumb_func
 1837              		.fpu fpv4-sp-d16
 1838              		.type	ov7670_set_exposure, %function
 1839              	ov7670_set_exposure:
 1840              	.LFB273:
 1841              		.loc 1 662 0
 1842              		.cfi_startproc
 1843              		@ args = 0, pretend = 0, frame = 8
 1844              		@ frame_needed = 0, uses_anonymous_args = 0
 1845              	.LVL204:
 1846 0000 30B5     		push	{r4, r5, lr}
 1847              		.cfi_def_cfa_offset 12
 1848              		.cfi_offset 4, -12
 1849              		.cfi_offset 5, -8
 1850              		.cfi_offset 14, -4
 1851 0002 154C     		ldr	r4, .L184
 1852 0004 83B0     		sub	sp, sp, #12
 1853              		.cfi_def_cfa_offset 24
 1854              		.loc 1 662 0
 1855 0006 0546     		mov	r5, r0
 1856 0008 2368     		ldr	r3, [r4]
 1857 000a 0193     		str	r3, [sp, #4]
 1858              	.LVL205:
 1859              		.loc 1 665 0
 1860 000c 0020     		movs	r0, #0
 1861              	.LVL206:
 1862 000e FFF7FEFF 		bl	ov7670_set_ae
 1863              	.LVL207:
 1864 0012 28B1     		cbz	r0, .L182
 1865              	.L179:
 1866              		.loc 1 680 0
 1867 0014 019A     		ldr	r2, [sp, #4]
 1868 0016 2368     		ldr	r3, [r4]
 1869 0018 9A42     		cmp	r2, r3
 1870 001a 1BD1     		bne	.L183
 1871 001c 03B0     		add	sp, sp, #12
 1872              		.cfi_remember_state
 1873              		.cfi_def_cfa_offset 12
 1874              		@ sp needed
 1875 001e 30BD     		pop	{r4, r5, pc}
 1876              	.L182:
 1877              		.cfi_restore_state
 1878              		.loc 1 669 0
 1879 0020 C5F38422 		ubfx	r2, r5, #10, #5
 1880 0024 0721     		movs	r1, #7
 1881 0026 2120     		movs	r0, #33
ARM GAS  /tmp/ccuNvn3H.s 			page 34


 1882              	.LVL208:
 1883 0028 FFF7FEFF 		bl	ov7670_write_reg
 1884              	.LVL209:
 1885 002c 40B2     		sxtb	r0, r0
 1886              	.LVL210:
 1887 002e 0028     		cmp	r0, #0
 1888 0030 F0D1     		bne	.L179
 1889              		.loc 1 672 0
 1890 0032 C5F38702 		ubfx	r2, r5, #2, #8
 1891 0036 1021     		movs	r1, #16
 1892 0038 2120     		movs	r0, #33
 1893              	.LVL211:
 1894 003a FFF7FEFF 		bl	ov7670_write_reg
 1895              	.LVL212:
 1896 003e 40B2     		sxtb	r0, r0
 1897              	.LVL213:
 1898 0040 0028     		cmp	r0, #0
 1899 0042 E7D1     		bne	.L179
 1900              		.loc 1 675 0
 1901 0044 05F00302 		and	r2, r5, #3
 1902 0048 0421     		movs	r1, #4
 1903 004a 2120     		movs	r0, #33
 1904              	.LVL214:
 1905 004c FFF7FEFF 		bl	ov7670_write_reg
 1906              	.LVL215:
 1907 0050 40B2     		sxtb	r0, r0
 1908              	.LVL216:
 1909 0052 DFE7     		b	.L179
 1910              	.L183:
 1911              		.loc 1 680 0
 1912 0054 FFF7FEFF 		bl	__stack_chk_fail
 1913              	.LVL217:
 1914              	.L185:
 1915              		.align	2
 1916              	.L184:
 1917 0058 00000000 		.word	__stack_chk_guard
 1918              		.cfi_endproc
 1919              	.LFE273:
 1920              		.size	ov7670_set_exposure, .-ov7670_set_exposure
 1921              		.section	.text.ov7670_get_image_size,"ax",%progbits
 1922              		.align	1
 1923              		.p2align 4,,15
 1924              		.global	ov7670_get_image_size
 1925              		.syntax unified
 1926              		.thumb
 1927              		.thumb_func
 1928              		.fpu fpv4-sp-d16
 1929              		.type	ov7670_get_image_size, %function
 1930              	ov7670_get_image_size:
 1931              	.LFB274:
 1932              		.loc 1 685 0
 1933              		.cfi_startproc
 1934              		@ args = 0, pretend = 0, frame = 8
 1935              		@ frame_needed = 0, uses_anonymous_args = 0
 1936 0000 10B5     		push	{r4, lr}
 1937              		.cfi_def_cfa_offset 8
 1938              		.cfi_offset 4, -8
ARM GAS  /tmp/ccuNvn3H.s 			page 35


 1939              		.cfi_offset 14, -4
 1940 0002 0A4B     		ldr	r3, .L194
 1941 0004 0A4A     		ldr	r2, .L194+4
 1942 0006 1988     		ldrh	r1, [r3]
 1943 0008 1468     		ldr	r4, [r2]
 1944 000a 5888     		ldrh	r0, [r3, #2]
 1945              		.loc 1 686 0
 1946 000c 1B79     		ldrb	r3, [r3, #4]	@ zero_extendqisi2
 1947              		.loc 1 685 0
 1948 000e 82B0     		sub	sp, sp, #8
 1949              		.cfi_def_cfa_offset 16
 1950              		.loc 1 686 0
 1951 0010 022B     		cmp	r3, #2
 1952              		.loc 1 685 0
 1953 0012 0194     		str	r4, [sp, #4]
 1954 0014 00FB01F0 		mul	r0, r0, r1
 1955              		.loc 1 691 0
 1956 0018 0199     		ldr	r1, [sp, #4]
 1957 001a 1368     		ldr	r3, [r2]
 1958              		.loc 1 689 0
 1959 001c 18BF     		it	ne
 1960 001e 4000     		lslne	r0, r0, #1
 1961              		.loc 1 691 0
 1962 0020 9942     		cmp	r1, r3
 1963 0022 01D1     		bne	.L193
 1964 0024 02B0     		add	sp, sp, #8
 1965              		.cfi_remember_state
 1966              		.cfi_def_cfa_offset 8
 1967              		@ sp needed
 1968 0026 10BD     		pop	{r4, pc}
 1969              	.L193:
 1970              		.cfi_restore_state
 1971 0028 FFF7FEFF 		bl	__stack_chk_fail
 1972              	.LVL218:
 1973              	.L195:
 1974              		.align	2
 1975              	.L194:
 1976 002c 00000000 		.word	.LANCHOR0
 1977 0030 00000000 		.word	__stack_chk_guard
 1978              		.cfi_endproc
 1979              	.LFE274:
 1980              		.size	ov7670_get_image_size, .-ov7670_get_image_size
 1981              		.section	.text.ov7670_is_connected,"ax",%progbits
 1982              		.align	1
 1983              		.p2align 4,,15
 1984              		.global	ov7670_is_connected
 1985              		.syntax unified
 1986              		.thumb
 1987              		.thumb_func
 1988              		.fpu fpv4-sp-d16
 1989              		.type	ov7670_is_connected, %function
 1990              	ov7670_is_connected:
 1991              	.LFB275:
 1992              		.loc 1 693 0
 1993              		.cfi_startproc
 1994              		@ args = 0, pretend = 0, frame = 8
 1995              		@ frame_needed = 0, uses_anonymous_args = 0
ARM GAS  /tmp/ccuNvn3H.s 			page 36


 1996 0000 30B5     		push	{r4, r5, lr}
 1997              		.cfi_def_cfa_offset 12
 1998              		.cfi_offset 4, -12
 1999              		.cfi_offset 5, -8
 2000              		.cfi_offset 14, -4
 2001 0002 83B0     		sub	sp, sp, #12
 2002              		.cfi_def_cfa_offset 24
 2003              		.loc 1 694 0
 2004 0004 02A8     		add	r0, sp, #8
 2005              		.loc 1 693 0
 2006 0006 0D4D     		ldr	r5, .L202
 2007              		.loc 1 694 0
 2008 0008 0024     		movs	r4, #0
 2009              		.loc 1 693 0
 2010 000a 2B68     		ldr	r3, [r5]
 2011              		.loc 1 694 0
 2012 000c 20F8064D 		strh	r4, [r0, #-6]!	@ movhi
 2013              		.loc 1 693 0
 2014 0010 0193     		str	r3, [sp, #4]
 2015              		.loc 1 695 0
 2016 0012 FFF7FEFF 		bl	ov7670_read_id
 2017              	.LVL219:
 2018              		.loc 1 696 0
 2019 0016 68B9     		cbnz	r0, .L199
 2020              		.loc 1 696 0 is_stmt 0 discriminator 1
 2021 0018 BDF80200 		ldrh	r0, [sp, #2]
 2022              	.LVL220:
 2023 001c 47F27364 		movw	r4, #30323
 2024              		.loc 1 697 0 is_stmt 1 discriminator 1
 2025 0020 001B     		subs	r0, r0, r4
 2026 0022 B0FA80F0 		clz	r0, r0
 2027 0026 4009     		lsrs	r0, r0, #5
 2028              	.L197:
 2029              		.loc 1 701 0
 2030 0028 019A     		ldr	r2, [sp, #4]
 2031 002a 2B68     		ldr	r3, [r5]
 2032 002c 9A42     		cmp	r2, r3
 2033 002e 03D1     		bne	.L201
 2034 0030 03B0     		add	sp, sp, #12
 2035              		.cfi_remember_state
 2036              		.cfi_def_cfa_offset 12
 2037              		@ sp needed
 2038 0032 30BD     		pop	{r4, r5, pc}
 2039              	.LVL221:
 2040              	.L199:
 2041              		.cfi_restore_state
 2042              		.loc 1 699 0
 2043 0034 2046     		mov	r0, r4
 2044              	.LVL222:
 2045 0036 F7E7     		b	.L197
 2046              	.L201:
 2047              		.loc 1 701 0
 2048 0038 FFF7FEFF 		bl	__stack_chk_fail
 2049              	.LVL223:
 2050              	.L203:
 2051              		.align	2
 2052              	.L202:
ARM GAS  /tmp/ccuNvn3H.s 			page 37


 2053 003c 00000000 		.word	__stack_chk_guard
 2054              		.cfi_endproc
 2055              	.LFE275:
 2056              		.size	ov7670_is_connected, .-ov7670_is_connected
 2057              		.section	.bss.ov7670_conf,"aw",%nobits
 2058              		.align	2
 2059              		.set	.LANCHOR0,. + 0
 2060              		.type	ov7670_conf, %object
 2061              		.size	ov7670_conf, 8
 2062              	ov7670_conf:
 2063 0000 00000000 		.space	8
 2063      00000000 
 2064              		.text
 2065              	.Letext0:
 2066              		.file 2 "/home/leander/uos_codes/epuck2_lab/Eclipse_e-puck2/Tools/gcc-arm-none-eabi-7-2017-q4-majo
 2067              		.file 3 "/home/leander/uos_codes/epuck2_lab/Eclipse_e-puck2/Tools/gcc-arm-none-eabi-7-2017-q4-majo
 2068              		.file 4 "/home/leander/uos_codes/epuck2_lab/Eclipse_e-puck2/Tools/gcc-arm-none-eabi-7-2017-q4-majo
 2069              		.file 5 "../e-puck2_main-processor/ChibiOS//os/rt/ports/ARMCMx/compilers/GCC/chtypes.h"
 2070              		.file 6 "../e-puck2_main-processor/ChibiOS//os/rt/include/chsystypes.h"
 2071              		.file 7 "../e-puck2_main-processor/ChibiOS//os/rt/include/chschd.h"
 2072              		.file 8 "../e-puck2_main-processor/ChibiOS//os/ext/CMSIS/include/core_cm4.h"
 2073              		.file 9 "../e-puck2_main-processor/ChibiOS//os/ext/CMSIS/ST/system_stm32f4xx.h"
 2074              		.file 10 "../e-puck2_main-processor/ChibiOS//os/ext/CMSIS/ST/stm32f407xx.h"
 2075              		.file 11 "../e-puck2_main-processor/ChibiOS//os/rt/ports/ARMCMx/chcore.h"
 2076              		.file 12 "../e-puck2_main-processor/ChibiOS//os/rt/ports/ARMCMx/chcore_v7m.h"
 2077              		.file 13 "../e-puck2_main-processor/ChibiOS//os/rt/include/chdebug.h"
 2078              		.file 14 "../e-puck2_main-processor/ChibiOS//os/rt/include/chtm.h"
 2079              		.file 15 "../e-puck2_main-processor/ChibiOS//os/rt/include/chstats.h"
 2080              		.file 16 "../e-puck2_main-processor/ChibiOS//os/rt/include/chsem.h"
 2081              		.file 17 "../e-puck2_main-processor/ChibiOS//os/rt/include/chmtx.h"
 2082              		.file 18 "../e-puck2_main-processor/ChibiOS//os/rt/include/chregistry.h"
 2083              		.file 19 "../e-puck2_main-processor/ChibiOS//os/rt/include/chevents.h"
 2084              		.file 20 "../e-puck2_main-processor/ChibiOS//os/rt/include/chqueues.h"
 2085              		.file 21 "../e-puck2_main-processor/ChibiOS//os/hal/ports/STM32/STM32F4xx/stm32_dma.h"
 2086              		.file 22 "../e-puck2_main-processor/ChibiOS//os/hal/include/hal_ioblock.h"
 2087              		.file 23 "../e-puck2_main-processor/ChibiOS//os/hal/ports/STM32/LLD/GPIOv2/pal_lld.h"
 2088              		.file 24 "../e-puck2_main-processor/ChibiOS//os/hal/include/adc.h"
 2089              		.file 25 "../e-puck2_main-processor/ChibiOS//os/hal/ports/STM32/STM32F4xx/adc_lld.h"
 2090              		.file 26 "../e-puck2_main-processor/ChibiOS//os/hal/include/can.h"
 2091              		.file 27 "../e-puck2_main-processor/ChibiOS//os/hal/ports/STM32/LLD/can_lld.h"
 2092              		.file 28 "../e-puck2_main-processor/ChibiOS//os/hal/include/dac.h"
 2093              		.file 29 "../e-puck2_main-processor/ChibiOS//os/hal/ports/STM32/LLD/DACv1/dac_lld.h"
 2094              		.file 30 "../e-puck2_main-processor/ChibiOS//os/hal/include/ext.h"
 2095              		.file 31 "../e-puck2_main-processor/ChibiOS//os/hal/ports/STM32/LLD/ext_lld.h"
 2096              		.file 32 "../e-puck2_main-processor/ChibiOS//os/hal/include/gpt.h"
 2097              		.file 33 "../e-puck2_main-processor/ChibiOS//os/hal/ports/STM32/LLD/TIMv1/gpt_lld.h"
 2098              		.file 34 "../e-puck2_main-processor/ChibiOS//os/hal/ports/STM32/LLD/TIMv1/stm32_tim.h"
 2099              		.file 35 "../e-puck2_main-processor/ChibiOS//os/hal/include/i2c.h"
 2100              		.file 36 "../e-puck2_main-processor/ChibiOS//os/hal/ports/STM32/LLD/I2Cv1/i2c_lld.h"
 2101              		.file 37 "../e-puck2_main-processor/ChibiOS//os/hal/include/i2s.h"
 2102              		.file 38 "../e-puck2_main-processor/ChibiOS//os/hal/ports/STM32/LLD/SPIv1/i2s_lld.h"
 2103              		.file 39 "../e-puck2_main-processor/ChibiOS//os/hal/include/pwm.h"
 2104              		.file 40 "../e-puck2_main-processor/ChibiOS//os/hal/ports/STM32/LLD/TIMv1/pwm_lld.h"
 2105              		.file 41 "../e-puck2_main-processor/ChibiOS//os/hal/include/serial.h"
 2106              		.file 42 "../e-puck2_main-processor/ChibiOS//os/hal/ports/STM32/LLD/USARTv1/serial_lld.h"
 2107              		.file 43 "../e-puck2_main-processor/ChibiOS//os/hal/include/sdc.h"
 2108              		.file 44 "../e-puck2_main-processor/ChibiOS//os/hal/ports/STM32/LLD/sdc_lld.h"
ARM GAS  /tmp/ccuNvn3H.s 			page 38


 2109              		.file 45 "../e-puck2_main-processor/ChibiOS//os/hal/include/spi.h"
 2110              		.file 46 "../e-puck2_main-processor/ChibiOS//os/hal/ports/STM32/LLD/SPIv1/spi_lld.h"
 2111              		.file 47 "../e-puck2_main-processor/ChibiOS//os/hal/include/usb.h"
 2112              		.file 48 "../e-puck2_main-processor/ChibiOS//os/hal/ports/STM32/LLD/OTGv1/usb_lld.h"
 2113              		.file 49 "../e-puck2_main-processor/ChibiOS//os/hal/ports/STM32/LLD/OTGv1/stm32_otg.h"
 2114              		.file 50 "../e-puck2_main-processor/ChibiOS//os/hal/include/serial_usb.h"
 2115              		.file 51 "../e-puck2_main-processor/src/camera/camera.h"
 2116              		.file 52 "../e-puck2_main-processor/src/camera/ov7670.h"
 2117              		.file 53 "../e-puck2_main-processor/src/usbcfg.h"
 2118              		.file 54 "../e-puck2_main-processor/ChibiOS//os/rt/include/chthreads.h"
 2119              		.file 55 "../e-puck2_main-processor/src/camera/../i2c_bus.h"