ARM GAS  /tmp/cc5QaxCL.s 			page 1


   1              		.cpu cortex-m4
   2              		.eabi_attribute 27, 1
   3              		.eabi_attribute 28, 1
   4              		.eabi_attribute 20, 1
   5              		.eabi_attribute 21, 1
   6              		.eabi_attribute 23, 3
   7              		.eabi_attribute 24, 1
   8              		.eabi_attribute 25, 1
   9              		.eabi_attribute 26, 1
  10              		.eabi_attribute 30, 2
  11              		.eabi_attribute 34, 1
  12              		.eabi_attribute 18, 4
  13              		.file	"po6030.c"
  14              		.text
  15              	.Ltext0:
  16              		.cfi_sections	.debug_frame
  17              		.section	.text.po6030_read_id,"ax",%progbits
  18              		.align	1
  19              		.p2align 4,,15
  20              		.global	po6030_read_id
  21              		.syntax unified
  22              		.thumb
  23              		.thumb_func
  24              		.fpu fpv4-sp-d16
  25              		.type	po6030_read_id, %function
  26              	po6030_read_id:
  27              	.LFB257:
  28              		.file 1 "../e-puck2_main-processor/src/camera/po6030.c"
  29              		.loc 1 104 0
  30              		.cfi_startproc
  31              		@ args = 0, pretend = 0, frame = 8
  32              		@ frame_needed = 0, uses_anonymous_args = 0
  33              	.LVL0:
  34 0000 30B5     		push	{r4, r5, lr}
  35              		.cfi_def_cfa_offset 12
  36              		.cfi_offset 4, -12
  37              		.cfi_offset 5, -8
  38              		.cfi_offset 14, -4
  39 0002 83B0     		sub	sp, sp, #12
  40              		.cfi_def_cfa_offset 24
  41              		.loc 1 105 0
  42 0004 02AA     		add	r2, sp, #8
  43              		.loc 1 104 0
  44 0006 114C     		ldr	r4, .L8
  45              		.loc 1 105 0
  46 0008 0021     		movs	r1, #0
  47              		.loc 1 104 0
  48 000a 0546     		mov	r5, r0
  49 000c 2368     		ldr	r3, [r4]
  50              		.loc 1 105 0
  51 000e 22F8081D 		strh	r1, [r2, #-8]!	@ movhi
  52              	.LVL1:
  53              		.loc 1 108 0
  54 0012 6E20     		movs	r0, #110
  55              	.LVL2:
  56              		.loc 1 104 0
  57 0014 0193     		str	r3, [sp, #4]
ARM GAS  /tmp/cc5QaxCL.s 			page 2


  58              		.loc 1 108 0
  59 0016 FFF7FEFF 		bl	read_reg
  60              	.LVL3:
  61 001a 28B1     		cbz	r0, .L6
  62              	.L2:
  63              		.loc 1 117 0
  64 001c 019A     		ldr	r2, [sp, #4]
  65 001e 2368     		ldr	r3, [r4]
  66 0020 9A42     		cmp	r2, r3
  67 0022 11D1     		bne	.L7
  68 0024 03B0     		add	sp, sp, #12
  69              		.cfi_remember_state
  70              		.cfi_def_cfa_offset 12
  71              		@ sp needed
  72 0026 30BD     		pop	{r4, r5, pc}
  73              	.LVL4:
  74              	.L6:
  75              		.cfi_restore_state
  76              		.loc 1 111 0
  77 0028 0DF10102 		add	r2, sp, #1
  78 002c 0121     		movs	r1, #1
  79 002e 6E20     		movs	r0, #110
  80              	.LVL5:
  81 0030 FFF7FEFF 		bl	read_reg
  82              	.LVL6:
  83 0034 0028     		cmp	r0, #0
  84 0036 F1D1     		bne	.L2
  85              		.loc 1 114 0
  86 0038 9DF80020 		ldrb	r2, [sp]	@ zero_extendqisi2
  87 003c 9DF80130 		ldrb	r3, [sp, #1]	@ zero_extendqisi2
  88 0040 43EA0223 		orr	r3, r3, r2, lsl #8
  89 0044 2B80     		strh	r3, [r5]	@ movhi
  90              		.loc 1 116 0
  91 0046 E9E7     		b	.L2
  92              	.L7:
  93              		.loc 1 117 0
  94 0048 FFF7FEFF 		bl	__stack_chk_fail
  95              	.LVL7:
  96              	.L9:
  97              		.align	2
  98              	.L8:
  99 004c 00000000 		.word	__stack_chk_guard
 100              		.cfi_endproc
 101              	.LFE257:
 102              		.size	po6030_read_id, .-po6030_read_id
 103              		.section	.text.po6030_set_bank,"ax",%progbits
 104              		.align	1
 105              		.p2align 4,,15
 106              		.global	po6030_set_bank
 107              		.syntax unified
 108              		.thumb
 109              		.thumb_func
 110              		.fpu fpv4-sp-d16
 111              		.type	po6030_set_bank, %function
 112              	po6030_set_bank:
 113              	.LFB258:
 114              		.loc 1 129 0
ARM GAS  /tmp/cc5QaxCL.s 			page 3


 115              		.cfi_startproc
 116              		@ args = 0, pretend = 0, frame = 8
 117              		@ frame_needed = 0, uses_anonymous_args = 0
 118              	.LVL8:
 119 0000 00B5     		push	{lr}
 120              		.cfi_def_cfa_offset 4
 121              		.cfi_offset 14, -4
 122 0002 094B     		ldr	r3, .L15
 123 0004 83B0     		sub	sp, sp, #12
 124              		.cfi_def_cfa_offset 16
 125              		.loc 1 129 0
 126 0006 1A68     		ldr	r2, [r3]
 127 0008 0192     		str	r2, [sp, #4]
 128              		.loc 1 130 0
 129 000a 0199     		ldr	r1, [sp, #4]
 130 000c 1B68     		ldr	r3, [r3]
 131 000e 9942     		cmp	r1, r3
 132 0010 07D1     		bne	.L14
 133 0012 0246     		mov	r2, r0
 134 0014 0321     		movs	r1, #3
 135 0016 6E20     		movs	r0, #110
 136              	.LVL9:
 137              		.loc 1 131 0
 138 0018 03B0     		add	sp, sp, #12
 139              		.cfi_remember_state
 140              		.cfi_def_cfa_offset 4
 141              		@ sp needed
 142 001a 5DF804EB 		ldr	lr, [sp], #4
 143              		.cfi_restore 14
 144              		.cfi_def_cfa_offset 0
 145              		.loc 1 130 0
 146 001e FFF7FEBF 		b	write_reg
 147              	.LVL10:
 148              	.L14:
 149              		.cfi_restore_state
 150 0022 FFF7FEFF 		bl	__stack_chk_fail
 151              	.LVL11:
 152              	.L16:
 153 0026 00BF     		.align	2
 154              	.L15:
 155 0028 00000000 		.word	__stack_chk_guard
 156              		.cfi_endproc
 157              	.LFE258:
 158              		.size	po6030_set_bank, .-po6030_set_bank
 159              		.section	.text.po6030_set_format,"ax",%progbits
 160              		.align	1
 161              		.p2align 4,,15
 162              		.global	po6030_set_format
 163              		.syntax unified
 164              		.thumb
 165              		.thumb_func
 166              		.fpu fpv4-sp-d16
 167              		.type	po6030_set_format, %function
 168              	po6030_set_format:
 169              	.LFB259:
 170              		.loc 1 143 0
 171              		.cfi_startproc
ARM GAS  /tmp/cc5QaxCL.s 			page 4


 172              		@ args = 0, pretend = 0, frame = 8
 173              		@ frame_needed = 0, uses_anonymous_args = 0
 174              	.LVL12:
 175 0000 30B5     		push	{r4, r5, lr}
 176              		.cfi_def_cfa_offset 12
 177              		.cfi_offset 4, -12
 178              		.cfi_offset 5, -8
 179              		.cfi_offset 14, -4
 180 0002 0E4C     		ldr	r4, .L23
 181 0004 83B0     		sub	sp, sp, #12
 182              		.cfi_def_cfa_offset 24
 183              		.loc 1 143 0
 184 0006 0546     		mov	r5, r0
 185 0008 2368     		ldr	r3, [r4]
 186 000a 0193     		str	r3, [sp, #4]
 187              	.LVL13:
 188              	.LBB62:
 189              	.LBB63:
 190              		.loc 1 130 0
 191 000c 0122     		movs	r2, #1
 192 000e 0321     		movs	r1, #3
 193 0010 6E20     		movs	r0, #110
 194              	.LVL14:
 195 0012 FFF7FEFF 		bl	write_reg
 196              	.LVL15:
 197              	.LBE63:
 198              	.LBE62:
 199              		.loc 1 146 0
 200 0016 28B1     		cbz	r0, .L21
 201              	.L18:
 202              		.loc 1 157 0
 203 0018 019A     		ldr	r2, [sp, #4]
 204 001a 2368     		ldr	r3, [r4]
 205 001c 9A42     		cmp	r2, r3
 206 001e 0BD1     		bne	.L22
 207 0020 03B0     		add	sp, sp, #12
 208              		.cfi_remember_state
 209              		.cfi_def_cfa_offset 12
 210              		@ sp needed
 211 0022 30BD     		pop	{r4, r5, pc}
 212              	.L21:
 213              		.cfi_restore_state
 214              	.LVL16:
 215              	.LBB64:
 216              	.LBB65:
 217              		.loc 1 150 0
 218 0024 2A46     		mov	r2, r5
 219 0026 3821     		movs	r1, #56
 220 0028 6E20     		movs	r0, #110
 221 002a FFF7FEFF 		bl	write_reg
 222              	.LVL17:
 223 002e 0028     		cmp	r0, #0
 224 0030 F2D1     		bne	.L18
 225              		.loc 1 154 0
 226 0032 034B     		ldr	r3, .L23+4
 227 0034 1D71     		strb	r5, [r3, #4]
 228 0036 EFE7     		b	.L18
ARM GAS  /tmp/cc5QaxCL.s 			page 5


 229              	.LVL18:
 230              	.L22:
 231              	.LBE65:
 232              	.LBE64:
 233              		.loc 1 157 0
 234 0038 FFF7FEFF 		bl	__stack_chk_fail
 235              	.LVL19:
 236              	.L24:
 237              		.align	2
 238              	.L23:
 239 003c 00000000 		.word	__stack_chk_guard
 240 0040 00000000 		.word	.LANCHOR0
 241              		.cfi_endproc
 242              	.LFE259:
 243              		.size	po6030_set_format, .-po6030_set_format
 244              		.section	.text.po6030_set_vga,"ax",%progbits
 245              		.align	1
 246              		.p2align 4,,15
 247              		.global	po6030_set_vga
 248              		.syntax unified
 249              		.thumb
 250              		.thumb_func
 251              		.fpu fpv4-sp-d16
 252              		.type	po6030_set_vga, %function
 253              	po6030_set_vga:
 254              	.LFB260:
 255              		.loc 1 167 0
 256              		.cfi_startproc
 257              		@ args = 0, pretend = 0, frame = 8
 258              		@ frame_needed = 0, uses_anonymous_args = 0
 259 0000 30B5     		push	{r4, r5, lr}
 260              		.cfi_def_cfa_offset 12
 261              		.cfi_offset 4, -12
 262              		.cfi_offset 5, -8
 263              		.cfi_offset 14, -4
 264 0002 934C     		ldr	r4, .L36
 265 0004 83B0     		sub	sp, sp, #12
 266              		.cfi_def_cfa_offset 24
 267              		.loc 1 167 0
 268 0006 2368     		ldr	r3, [r4]
 269 0008 0193     		str	r3, [sp, #4]
 270              	.LVL20:
 271              	.LBB76:
 272              	.LBB77:
 273              		.loc 1 130 0
 274 000a 0122     		movs	r2, #1
 275 000c 0321     		movs	r1, #3
 276 000e 6E20     		movs	r0, #110
 277 0010 FFF7FEFF 		bl	write_reg
 278              	.LVL21:
 279              	.LBE77:
 280              	.LBE76:
 281              		.loc 1 170 0
 282 0014 30B1     		cbz	r0, .L33
 283              	.L26:
 284              		.loc 1 297 0
 285 0016 019A     		ldr	r2, [sp, #4]
ARM GAS  /tmp/cc5QaxCL.s 			page 6


 286 0018 2368     		ldr	r3, [r4]
 287 001a 9A42     		cmp	r2, r3
 288 001c 40F00D81 		bne	.L34
 289 0020 03B0     		add	sp, sp, #12
 290              		.cfi_remember_state
 291              		.cfi_def_cfa_offset 12
 292              		@ sp needed
 293 0022 30BD     		pop	{r4, r5, pc}
 294              	.L33:
 295              		.cfi_restore_state
 296              		.loc 1 174 0
 297 0024 0246     		mov	r2, r0
 298 0026 5021     		movs	r1, #80
 299 0028 6E20     		movs	r0, #110
 300 002a FFF7FEFF 		bl	write_reg
 301              	.LVL22:
 302 002e 0028     		cmp	r0, #0
 303 0030 F1D1     		bne	.L26
 304              		.loc 1 177 0
 305 0032 0722     		movs	r2, #7
 306 0034 5121     		movs	r1, #81
 307 0036 6E20     		movs	r0, #110
 308              	.LVL23:
 309 0038 FFF7FEFF 		bl	write_reg
 310              	.LVL24:
 311 003c 0028     		cmp	r0, #0
 312 003e EAD1     		bne	.L26
 313              		.loc 1 180 0
 314 0040 0246     		mov	r2, r0
 315 0042 5221     		movs	r1, #82
 316 0044 6E20     		movs	r0, #110
 317              	.LVL25:
 318 0046 FFF7FEFF 		bl	write_reg
 319              	.LVL26:
 320 004a 0028     		cmp	r0, #0
 321 004c E3D1     		bne	.L26
 322              		.loc 1 183 0
 323 004e 0722     		movs	r2, #7
 324 0050 5321     		movs	r1, #83
 325 0052 6E20     		movs	r0, #110
 326              	.LVL27:
 327 0054 FFF7FEFF 		bl	write_reg
 328              	.LVL28:
 329 0058 0028     		cmp	r0, #0
 330 005a DCD1     		bne	.L26
 331              	.LBB78:
 332              	.LBB79:
 333              		.loc 1 186 0
 334 005c 0222     		movs	r2, #2
 335 005e 5421     		movs	r1, #84
 336 0060 6E20     		movs	r0, #110
 337              	.LVL29:
 338 0062 FFF7FEFF 		bl	write_reg
 339              	.LVL30:
 340 0066 0028     		cmp	r0, #0
 341 0068 D5D1     		bne	.L26
 342              		.loc 1 189 0
ARM GAS  /tmp/cc5QaxCL.s 			page 7


 343 006a 8622     		movs	r2, #134
 344 006c 5521     		movs	r1, #85
 345 006e 6E20     		movs	r0, #110
 346              	.LVL31:
 347 0070 FFF7FEFF 		bl	write_reg
 348              	.LVL32:
 349 0074 0028     		cmp	r0, #0
 350 0076 CED1     		bne	.L26
 351              		.loc 1 192 0
 352 0078 0122     		movs	r2, #1
 353 007a 5621     		movs	r1, #86
 354 007c 6E20     		movs	r0, #110
 355              	.LVL33:
 356 007e FFF7FEFF 		bl	write_reg
 357              	.LVL34:
 358 0082 0028     		cmp	r0, #0
 359 0084 C7D1     		bne	.L26
 360              		.loc 1 195 0
 361 0086 E622     		movs	r2, #230
 362 0088 5721     		movs	r1, #87
 363 008a 6E20     		movs	r0, #110
 364              	.LVL35:
 365 008c FFF7FEFF 		bl	write_reg
 366              	.LVL36:
 367 0090 0028     		cmp	r0, #0
 368 0092 C0D1     		bne	.L26
 369              		.loc 1 199 0
 370 0094 2022     		movs	r2, #32
 371 0096 8021     		movs	r1, #128
 372 0098 6E20     		movs	r0, #110
 373              	.LVL37:
 374 009a FFF7FEFF 		bl	write_reg
 375              	.LVL38:
 376 009e 0028     		cmp	r0, #0
 377 00a0 B9D1     		bne	.L26
 378              		.loc 1 202 0
 379 00a2 2022     		movs	r2, #32
 380 00a4 8121     		movs	r1, #129
 381 00a6 6E20     		movs	r0, #110
 382              	.LVL39:
 383 00a8 FFF7FEFF 		bl	write_reg
 384              	.LVL40:
 385 00ac 0028     		cmp	r0, #0
 386 00ae B2D1     		bne	.L26
 387              		.loc 1 206 0
 388 00b0 0246     		mov	r2, r0
 389 00b2 6021     		movs	r1, #96
 390 00b4 6E20     		movs	r0, #110
 391              	.LVL41:
 392 00b6 FFF7FEFF 		bl	write_reg
 393              	.LVL42:
 394 00ba 0028     		cmp	r0, #0
 395 00bc ABD1     		bne	.L26
 396              		.loc 1 209 0
 397 00be 0C22     		movs	r2, #12
 398 00c0 6121     		movs	r1, #97
 399 00c2 6E20     		movs	r0, #110
ARM GAS  /tmp/cc5QaxCL.s 			page 8


 400              	.LVL43:
 401 00c4 FFF7FEFF 		bl	write_reg
 402              	.LVL44:
 403 00c8 0028     		cmp	r0, #0
 404 00ca A4D1     		bne	.L26
 405              		.loc 1 212 0
 406 00cc 0122     		movs	r2, #1
 407 00ce 6221     		movs	r1, #98
 408 00d0 6E20     		movs	r0, #110
 409              	.LVL45:
 410 00d2 FFF7FEFF 		bl	write_reg
 411              	.LVL46:
 412 00d6 0028     		cmp	r0, #0
 413 00d8 9DD1     		bne	.L26
 414              		.loc 1 215 0
 415 00da EC22     		movs	r2, #236
 416 00dc 6321     		movs	r1, #99
 417 00de 6E20     		movs	r0, #110
 418              	.LVL47:
 419 00e0 FFF7FEFF 		bl	write_reg
 420              	.LVL48:
 421 00e4 0028     		cmp	r0, #0
 422 00e6 96D1     		bne	.L26
 423              		.loc 1 219 0
 424 00e8 5A4D     		ldr	r5, .L36+4
 425 00ea 2B79     		ldrb	r3, [r5, #4]	@ zero_extendqisi2
 426 00ec 0D2B     		cmp	r3, #13
 427 00ee 00F0A680 		beq	.L35
 428              		.loc 1 224 0
 429 00f2 0246     		mov	r2, r0
 430 00f4 6821     		movs	r1, #104
 431 00f6 6E20     		movs	r0, #110
 432              	.LVL49:
 433 00f8 FFF7FEFF 		bl	write_reg
 434              	.LVL50:
 435 00fc 0028     		cmp	r0, #0
 436 00fe 8AD1     		bne	.L26
 437              	.L29:
 438              		.loc 1 229 0
 439 0100 0122     		movs	r2, #1
 440 0102 8221     		movs	r1, #130
 441 0104 6E20     		movs	r0, #110
 442              	.LVL51:
 443 0106 FFF7FEFF 		bl	write_reg
 444              	.LVL52:
 445 010a 0028     		cmp	r0, #0
 446 010c 83D1     		bne	.L26
 447              	.LVL53:
 448              	.LBB80:
 449              	.LBB81:
 450              		.loc 1 130 0
 451 010e 0222     		movs	r2, #2
 452 0110 0321     		movs	r1, #3
 453 0112 6E20     		movs	r0, #110
 454              	.LVL54:
 455 0114 FFF7FEFF 		bl	write_reg
 456              	.LVL55:
ARM GAS  /tmp/cc5QaxCL.s 			page 9


 457              	.LBE81:
 458              	.LBE80:
 459              		.loc 1 233 0
 460 0118 0028     		cmp	r0, #0
 461 011a 7FF47CAF 		bne	.L26
 462              		.loc 1 237 0
 463 011e 0246     		mov	r2, r0
 464 0120 1021     		movs	r1, #16
 465 0122 6E20     		movs	r0, #110
 466 0124 FFF7FEFF 		bl	write_reg
 467              	.LVL56:
 468 0128 0028     		cmp	r0, #0
 469 012a 7FF474AF 		bne	.L26
 470              		.loc 1 240 0
 471 012e 2522     		movs	r2, #37
 472 0130 1121     		movs	r1, #17
 473 0132 6E20     		movs	r0, #110
 474              	.LVL57:
 475 0134 FFF7FEFF 		bl	write_reg
 476              	.LVL58:
 477 0138 0028     		cmp	r0, #0
 478 013a 7FF46CAF 		bne	.L26
 479              		.loc 1 243 0
 480 013e 0246     		mov	r2, r0
 481 0140 1221     		movs	r1, #18
 482 0142 6E20     		movs	r0, #110
 483              	.LVL59:
 484 0144 FFF7FEFF 		bl	write_reg
 485              	.LVL60:
 486 0148 0028     		cmp	r0, #0
 487 014a 7FF464AF 		bne	.L26
 488              		.loc 1 246 0
 489 014e 1C22     		movs	r2, #28
 490 0150 1321     		movs	r1, #19
 491 0152 6E20     		movs	r0, #110
 492              	.LVL61:
 493 0154 FFF7FEFF 		bl	write_reg
 494              	.LVL62:
 495 0158 0028     		cmp	r0, #0
 496 015a 7FF45CAF 		bne	.L26
 497              		.loc 1 249 0
 498 015e 0222     		movs	r2, #2
 499 0160 1421     		movs	r1, #20
 500 0162 6E20     		movs	r0, #110
 501              	.LVL63:
 502 0164 FFF7FEFF 		bl	write_reg
 503              	.LVL64:
 504 0168 0028     		cmp	r0, #0
 505 016a 7FF454AF 		bne	.L26
 506              		.loc 1 252 0
 507 016e 6022     		movs	r2, #96
 508 0170 1521     		movs	r1, #21
 509 0172 6E20     		movs	r0, #110
 510              	.LVL65:
 511 0174 FFF7FEFF 		bl	write_reg
 512              	.LVL66:
 513 0178 0028     		cmp	r0, #0
ARM GAS  /tmp/cc5QaxCL.s 			page 10


 514 017a 7FF44CAF 		bne	.L26
 515              		.loc 1 255 0
 516 017e 0122     		movs	r2, #1
 517 0180 1621     		movs	r1, #22
 518 0182 6E20     		movs	r0, #110
 519              	.LVL67:
 520 0184 FFF7FEFF 		bl	write_reg
 521              	.LVL68:
 522 0188 0028     		cmp	r0, #0
 523 018a 7FF444AF 		bne	.L26
 524              		.loc 1 258 0
 525 018e BE22     		movs	r2, #190
 526 0190 1721     		movs	r1, #23
 527 0192 6E20     		movs	r0, #110
 528              	.LVL69:
 529 0194 FFF7FEFF 		bl	write_reg
 530              	.LVL70:
 531 0198 0028     		cmp	r0, #0
 532 019a 7FF43CAF 		bne	.L26
 533              		.loc 1 262 0
 534 019e 0022     		movs	r2, #0
 535 01a0 1821     		movs	r1, #24
 536 01a2 6E20     		movs	r0, #110
 537              	.LVL71:
 538 01a4 FFF7FEFF 		bl	write_reg
 539              	.LVL72:
 540 01a8 0028     		cmp	r0, #0
 541 01aa 7FF434AF 		bne	.L26
 542              		.loc 1 265 0
 543 01ae E522     		movs	r2, #229
 544 01b0 1921     		movs	r1, #25
 545 01b2 6E20     		movs	r0, #110
 546              	.LVL73:
 547 01b4 FFF7FEFF 		bl	write_reg
 548              	.LVL74:
 549 01b8 0028     		cmp	r0, #0
 550 01ba 7FF42CAF 		bne	.L26
 551              		.loc 1 268 0
 552 01be 0246     		mov	r2, r0
 553 01c0 1A21     		movs	r1, #26
 554 01c2 6E20     		movs	r0, #110
 555              	.LVL75:
 556 01c4 FFF7FEFF 		bl	write_reg
 557              	.LVL76:
 558 01c8 0028     		cmp	r0, #0
 559 01ca 7FF424AF 		bne	.L26
 560              		.loc 1 271 0
 561 01ce 8722     		movs	r2, #135
 562 01d0 1B21     		movs	r1, #27
 563 01d2 6E20     		movs	r0, #110
 564              	.LVL77:
 565 01d4 FFF7FEFF 		bl	write_reg
 566              	.LVL78:
 567 01d8 0028     		cmp	r0, #0
 568 01da 7FF41CAF 		bne	.L26
 569              		.loc 1 274 0
 570 01de 0246     		mov	r2, r0
ARM GAS  /tmp/cc5QaxCL.s 			page 11


 571 01e0 1C21     		movs	r1, #28
 572 01e2 6E20     		movs	r0, #110
 573              	.LVL79:
 574 01e4 FFF7FEFF 		bl	write_reg
 575              	.LVL80:
 576 01e8 0028     		cmp	r0, #0
 577 01ea 7FF414AF 		bne	.L26
 578              		.loc 1 277 0
 579 01ee A022     		movs	r2, #160
 580 01f0 1D21     		movs	r1, #29
 581 01f2 6E20     		movs	r0, #110
 582              	.LVL81:
 583 01f4 FFF7FEFF 		bl	write_reg
 584              	.LVL82:
 585 01f8 0028     		cmp	r0, #0
 586 01fa 7FF40CAF 		bne	.L26
 587              		.loc 1 280 0
 588 01fe 0246     		mov	r2, r0
 589 0200 1E21     		movs	r1, #30
 590 0202 6E20     		movs	r0, #110
 591              	.LVL83:
 592 0204 FFF7FEFF 		bl	write_reg
 593              	.LVL84:
 594 0208 0028     		cmp	r0, #0
 595 020a 7FF404AF 		bne	.L26
 596              		.loc 1 283 0
 597 020e A022     		movs	r2, #160
 598 0210 1F21     		movs	r1, #31
 599 0212 6E20     		movs	r0, #110
 600              	.LVL85:
 601 0214 FFF7FEFF 		bl	write_reg
 602              	.LVL86:
 603 0218 0028     		cmp	r0, #0
 604 021a 7FF4FCAE 		bne	.L26
 605              	.LVL87:
 606              	.LBB82:
 607              	.LBB83:
 608              		.loc 1 130 0
 609 021e 0246     		mov	r2, r0
 610 0220 0321     		movs	r1, #3
 611 0222 6E20     		movs	r0, #110
 612              	.LVL88:
 613 0224 FFF7FEFF 		bl	write_reg
 614              	.LVL89:
 615              	.LBE83:
 616              	.LBE82:
 617              		.loc 1 287 0
 618 0228 0028     		cmp	r0, #0
 619 022a 7FF4F4AE 		bne	.L26
 620              		.loc 1 291 0
 621 022e 0A4B     		ldr	r3, .L36+8
 622 0230 2B60     		str	r3, [r5]
 623              		.loc 1 293 0
 624 0232 2023     		movs	r3, #32
 625 0234 6B71     		strb	r3, [r5, #5]
 626              		.loc 1 294 0
 627 0236 AB71     		strb	r3, [r5, #6]
ARM GAS  /tmp/cc5QaxCL.s 			page 12


 628 0238 EDE6     		b	.L26
 629              	.L34:
 630              	.LBE79:
 631              	.LBE78:
 632              		.loc 1 297 0
 633 023a FFF7FEFF 		bl	__stack_chk_fail
 634              	.LVL90:
 635              	.L35:
 636              	.LBB85:
 637              	.LBB84:
 638              		.loc 1 220 0
 639 023e 0122     		movs	r2, #1
 640 0240 6821     		movs	r1, #104
 641 0242 6E20     		movs	r0, #110
 642              	.LVL91:
 643 0244 FFF7FEFF 		bl	write_reg
 644              	.LVL92:
 645 0248 0028     		cmp	r0, #0
 646 024a 3FF459AF 		beq	.L29
 647 024e E2E6     		b	.L26
 648              	.L37:
 649              		.align	2
 650              	.L36:
 651 0250 00000000 		.word	__stack_chk_guard
 652 0254 00000000 		.word	.LANCHOR0
 653 0258 8002E001 		.word	31457920
 654              	.LBE84:
 655              	.LBE85:
 656              		.cfi_endproc
 657              	.LFE260:
 658              		.size	po6030_set_vga, .-po6030_set_vga
 659              		.section	.text.po6030_set_qvga,"ax",%progbits
 660              		.align	1
 661              		.p2align 4,,15
 662              		.global	po6030_set_qvga
 663              		.syntax unified
 664              		.thumb
 665              		.thumb_func
 666              		.fpu fpv4-sp-d16
 667              		.type	po6030_set_qvga, %function
 668              	po6030_set_qvga:
 669              	.LFB261:
 670              		.loc 1 307 0
 671              		.cfi_startproc
 672              		@ args = 0, pretend = 0, frame = 8
 673              		@ frame_needed = 0, uses_anonymous_args = 0
 674 0000 30B5     		push	{r4, r5, lr}
 675              		.cfi_def_cfa_offset 12
 676              		.cfi_offset 4, -12
 677              		.cfi_offset 5, -8
 678              		.cfi_offset 14, -4
 679 0002 934C     		ldr	r4, .L49
 680 0004 83B0     		sub	sp, sp, #12
 681              		.cfi_def_cfa_offset 24
 682              		.loc 1 307 0
 683 0006 2368     		ldr	r3, [r4]
 684 0008 0193     		str	r3, [sp, #4]
ARM GAS  /tmp/cc5QaxCL.s 			page 13


 685              	.LVL93:
 686              	.LBB96:
 687              	.LBB97:
 688              		.loc 1 130 0
 689 000a 0122     		movs	r2, #1
 690 000c 0321     		movs	r1, #3
 691 000e 6E20     		movs	r0, #110
 692 0010 FFF7FEFF 		bl	write_reg
 693              	.LVL94:
 694              	.LBE97:
 695              	.LBE96:
 696              		.loc 1 310 0
 697 0014 30B1     		cbz	r0, .L46
 698              	.L39:
 699              		.loc 1 437 0
 700 0016 019A     		ldr	r2, [sp, #4]
 701 0018 2368     		ldr	r3, [r4]
 702 001a 9A42     		cmp	r2, r3
 703 001c 40F00D81 		bne	.L47
 704 0020 03B0     		add	sp, sp, #12
 705              		.cfi_remember_state
 706              		.cfi_def_cfa_offset 12
 707              		@ sp needed
 708 0022 30BD     		pop	{r4, r5, pc}
 709              	.L46:
 710              		.cfi_restore_state
 711              		.loc 1 314 0
 712 0024 0246     		mov	r2, r0
 713 0026 5021     		movs	r1, #80
 714 0028 6E20     		movs	r0, #110
 715 002a FFF7FEFF 		bl	write_reg
 716              	.LVL95:
 717 002e 0028     		cmp	r0, #0
 718 0030 F1D1     		bne	.L39
 719              		.loc 1 317 0
 720 0032 0422     		movs	r2, #4
 721 0034 5121     		movs	r1, #81
 722 0036 6E20     		movs	r0, #110
 723              	.LVL96:
 724 0038 FFF7FEFF 		bl	write_reg
 725              	.LVL97:
 726 003c 0028     		cmp	r0, #0
 727 003e EAD1     		bne	.L39
 728              		.loc 1 320 0
 729 0040 0246     		mov	r2, r0
 730 0042 5221     		movs	r1, #82
 731 0044 6E20     		movs	r0, #110
 732              	.LVL98:
 733 0046 FFF7FEFF 		bl	write_reg
 734              	.LVL99:
 735 004a 0028     		cmp	r0, #0
 736 004c E3D1     		bne	.L39
 737              		.loc 1 323 0
 738 004e 0422     		movs	r2, #4
 739 0050 5321     		movs	r1, #83
 740 0052 6E20     		movs	r0, #110
 741              	.LVL100:
ARM GAS  /tmp/cc5QaxCL.s 			page 14


 742 0054 FFF7FEFF 		bl	write_reg
 743              	.LVL101:
 744 0058 0028     		cmp	r0, #0
 745 005a DCD1     		bne	.L39
 746              	.LBB98:
 747              	.LBB99:
 748              		.loc 1 326 0
 749 005c 0122     		movs	r2, #1
 750 005e 5421     		movs	r1, #84
 751 0060 6E20     		movs	r0, #110
 752              	.LVL102:
 753 0062 FFF7FEFF 		bl	write_reg
 754              	.LVL103:
 755 0066 0028     		cmp	r0, #0
 756 0068 D5D1     		bne	.L39
 757              		.loc 1 329 0
 758 006a 4322     		movs	r2, #67
 759 006c 5521     		movs	r1, #85
 760 006e 6E20     		movs	r0, #110
 761              	.LVL104:
 762 0070 FFF7FEFF 		bl	write_reg
 763              	.LVL105:
 764 0074 0028     		cmp	r0, #0
 765 0076 CED1     		bne	.L39
 766              		.loc 1 332 0
 767 0078 0246     		mov	r2, r0
 768 007a 5621     		movs	r1, #86
 769 007c 6E20     		movs	r0, #110
 770              	.LVL106:
 771 007e FFF7FEFF 		bl	write_reg
 772              	.LVL107:
 773 0082 0028     		cmp	r0, #0
 774 0084 C7D1     		bne	.L39
 775              		.loc 1 335 0
 776 0086 F322     		movs	r2, #243
 777 0088 5721     		movs	r1, #87
 778 008a 6E20     		movs	r0, #110
 779              	.LVL108:
 780 008c FFF7FEFF 		bl	write_reg
 781              	.LVL109:
 782 0090 0028     		cmp	r0, #0
 783 0092 C0D1     		bne	.L39
 784              		.loc 1 339 0
 785 0094 4022     		movs	r2, #64
 786 0096 8021     		movs	r1, #128
 787 0098 6E20     		movs	r0, #110
 788              	.LVL110:
 789 009a FFF7FEFF 		bl	write_reg
 790              	.LVL111:
 791 009e 0028     		cmp	r0, #0
 792 00a0 B9D1     		bne	.L39
 793              		.loc 1 342 0
 794 00a2 4022     		movs	r2, #64
 795 00a4 8121     		movs	r1, #129
 796 00a6 6E20     		movs	r0, #110
 797              	.LVL112:
 798 00a8 FFF7FEFF 		bl	write_reg
ARM GAS  /tmp/cc5QaxCL.s 			page 15


 799              	.LVL113:
 800 00ac 0028     		cmp	r0, #0
 801 00ae B2D1     		bne	.L39
 802              		.loc 1 346 0
 803 00b0 0246     		mov	r2, r0
 804 00b2 6021     		movs	r1, #96
 805 00b4 6E20     		movs	r0, #110
 806              	.LVL114:
 807 00b6 FFF7FEFF 		bl	write_reg
 808              	.LVL115:
 809 00ba 0028     		cmp	r0, #0
 810 00bc ABD1     		bne	.L39
 811              		.loc 1 349 0
 812 00be 0C22     		movs	r2, #12
 813 00c0 6121     		movs	r1, #97
 814 00c2 6E20     		movs	r0, #110
 815              	.LVL116:
 816 00c4 FFF7FEFF 		bl	write_reg
 817              	.LVL117:
 818 00c8 0028     		cmp	r0, #0
 819 00ca A4D1     		bne	.L39
 820              		.loc 1 352 0
 821 00cc 0122     		movs	r2, #1
 822 00ce 6221     		movs	r1, #98
 823 00d0 6E20     		movs	r0, #110
 824              	.LVL118:
 825 00d2 FFF7FEFF 		bl	write_reg
 826              	.LVL119:
 827 00d6 0028     		cmp	r0, #0
 828 00d8 9DD1     		bne	.L39
 829              		.loc 1 355 0
 830 00da EC22     		movs	r2, #236
 831 00dc 6321     		movs	r1, #99
 832 00de 6E20     		movs	r0, #110
 833              	.LVL120:
 834 00e0 FFF7FEFF 		bl	write_reg
 835              	.LVL121:
 836 00e4 0028     		cmp	r0, #0
 837 00e6 96D1     		bne	.L39
 838              		.loc 1 359 0
 839 00e8 5A4D     		ldr	r5, .L49+4
 840 00ea 2B79     		ldrb	r3, [r5, #4]	@ zero_extendqisi2
 841 00ec 0D2B     		cmp	r3, #13
 842 00ee 00F0A680 		beq	.L48
 843              		.loc 1 364 0
 844 00f2 0122     		movs	r2, #1
 845 00f4 6821     		movs	r1, #104
 846 00f6 6E20     		movs	r0, #110
 847              	.LVL122:
 848 00f8 FFF7FEFF 		bl	write_reg
 849              	.LVL123:
 850 00fc 0028     		cmp	r0, #0
 851 00fe 8AD1     		bne	.L39
 852              	.L42:
 853              		.loc 1 369 0
 854 0100 0122     		movs	r2, #1
 855 0102 8221     		movs	r1, #130
ARM GAS  /tmp/cc5QaxCL.s 			page 16


 856 0104 6E20     		movs	r0, #110
 857              	.LVL124:
 858 0106 FFF7FEFF 		bl	write_reg
 859              	.LVL125:
 860 010a 0028     		cmp	r0, #0
 861 010c 83D1     		bne	.L39
 862              	.LVL126:
 863              	.LBB100:
 864              	.LBB101:
 865              		.loc 1 130 0
 866 010e 0222     		movs	r2, #2
 867 0110 0321     		movs	r1, #3
 868 0112 6E20     		movs	r0, #110
 869              	.LVL127:
 870 0114 FFF7FEFF 		bl	write_reg
 871              	.LVL128:
 872              	.LBE101:
 873              	.LBE100:
 874              		.loc 1 373 0
 875 0118 0028     		cmp	r0, #0
 876 011a 7FF47CAF 		bne	.L39
 877              		.loc 1 377 0
 878 011e 0246     		mov	r2, r0
 879 0120 1021     		movs	r1, #16
 880 0122 6E20     		movs	r0, #110
 881 0124 FFF7FEFF 		bl	write_reg
 882              	.LVL129:
 883 0128 0028     		cmp	r0, #0
 884 012a 7FF474AF 		bne	.L39
 885              		.loc 1 380 0
 886 012e 1222     		movs	r2, #18
 887 0130 1121     		movs	r1, #17
 888 0132 6E20     		movs	r0, #110
 889              	.LVL130:
 890 0134 FFF7FEFF 		bl	write_reg
 891              	.LVL131:
 892 0138 0028     		cmp	r0, #0
 893 013a 7FF46CAF 		bne	.L39
 894              		.loc 1 383 0
 895 013e 0246     		mov	r2, r0
 896 0140 1221     		movs	r1, #18
 897 0142 6E20     		movs	r0, #110
 898              	.LVL132:
 899 0144 FFF7FEFF 		bl	write_reg
 900              	.LVL133:
 901 0148 0028     		cmp	r0, #0
 902 014a 7FF464AF 		bne	.L39
 903              		.loc 1 386 0
 904 014e 0E22     		movs	r2, #14
 905 0150 1321     		movs	r1, #19
 906 0152 6E20     		movs	r0, #110
 907              	.LVL134:
 908 0154 FFF7FEFF 		bl	write_reg
 909              	.LVL135:
 910 0158 0028     		cmp	r0, #0
 911 015a 7FF45CAF 		bne	.L39
 912              		.loc 1 389 0
ARM GAS  /tmp/cc5QaxCL.s 			page 17


 913 015e 0122     		movs	r2, #1
 914 0160 1421     		movs	r1, #20
 915 0162 6E20     		movs	r0, #110
 916              	.LVL136:
 917 0164 FFF7FEFF 		bl	write_reg
 918              	.LVL137:
 919 0168 0028     		cmp	r0, #0
 920 016a 7FF454AF 		bne	.L39
 921              		.loc 1 392 0
 922 016e 3022     		movs	r2, #48
 923 0170 1521     		movs	r1, #21
 924 0172 6E20     		movs	r0, #110
 925              	.LVL138:
 926 0174 FFF7FEFF 		bl	write_reg
 927              	.LVL139:
 928 0178 0028     		cmp	r0, #0
 929 017a 7FF44CAF 		bne	.L39
 930              		.loc 1 395 0
 931 017e 0246     		mov	r2, r0
 932 0180 1621     		movs	r1, #22
 933 0182 6E20     		movs	r0, #110
 934              	.LVL140:
 935 0184 FFF7FEFF 		bl	write_reg
 936              	.LVL141:
 937 0188 0028     		cmp	r0, #0
 938 018a 7FF444AF 		bne	.L39
 939              		.loc 1 398 0
 940 018e DF22     		movs	r2, #223
 941 0190 1721     		movs	r1, #23
 942 0192 6E20     		movs	r0, #110
 943              	.LVL142:
 944 0194 FFF7FEFF 		bl	write_reg
 945              	.LVL143:
 946 0198 0028     		cmp	r0, #0
 947 019a 7FF43CAF 		bne	.L39
 948              		.loc 1 402 0
 949 019e 0022     		movs	r2, #0
 950 01a0 1821     		movs	r1, #24
 951 01a2 6E20     		movs	r0, #110
 952              	.LVL144:
 953 01a4 FFF7FEFF 		bl	write_reg
 954              	.LVL145:
 955 01a8 0028     		cmp	r0, #0
 956 01aa 7FF434AF 		bne	.L39
 957              		.loc 1 405 0
 958 01ae 7222     		movs	r2, #114
 959 01b0 1921     		movs	r1, #25
 960 01b2 6E20     		movs	r0, #110
 961              	.LVL146:
 962 01b4 FFF7FEFF 		bl	write_reg
 963              	.LVL147:
 964 01b8 0028     		cmp	r0, #0
 965 01ba 7FF42CAF 		bne	.L39
 966              		.loc 1 408 0
 967 01be 0246     		mov	r2, r0
 968 01c0 1A21     		movs	r1, #26
 969 01c2 6E20     		movs	r0, #110
ARM GAS  /tmp/cc5QaxCL.s 			page 18


 970              	.LVL148:
 971 01c4 FFF7FEFF 		bl	write_reg
 972              	.LVL149:
 973 01c8 0028     		cmp	r0, #0
 974 01ca 7FF424AF 		bne	.L39
 975              		.loc 1 411 0
 976 01ce 4322     		movs	r2, #67
 977 01d0 1B21     		movs	r1, #27
 978 01d2 6E20     		movs	r0, #110
 979              	.LVL150:
 980 01d4 FFF7FEFF 		bl	write_reg
 981              	.LVL151:
 982 01d8 0028     		cmp	r0, #0
 983 01da 7FF41CAF 		bne	.L39
 984              		.loc 1 414 0
 985 01de 0246     		mov	r2, r0
 986 01e0 1C21     		movs	r1, #28
 987 01e2 6E20     		movs	r0, #110
 988              	.LVL152:
 989 01e4 FFF7FEFF 		bl	write_reg
 990              	.LVL153:
 991 01e8 0028     		cmp	r0, #0
 992 01ea 7FF414AF 		bne	.L39
 993              		.loc 1 417 0
 994 01ee 5022     		movs	r2, #80
 995 01f0 1D21     		movs	r1, #29
 996 01f2 6E20     		movs	r0, #110
 997              	.LVL154:
 998 01f4 FFF7FEFF 		bl	write_reg
 999              	.LVL155:
 1000 01f8 0028     		cmp	r0, #0
 1001 01fa 7FF40CAF 		bne	.L39
 1002              		.loc 1 420 0
 1003 01fe 0246     		mov	r2, r0
 1004 0200 1E21     		movs	r1, #30
 1005 0202 6E20     		movs	r0, #110
 1006              	.LVL156:
 1007 0204 FFF7FEFF 		bl	write_reg
 1008              	.LVL157:
 1009 0208 0028     		cmp	r0, #0
 1010 020a 7FF404AF 		bne	.L39
 1011              		.loc 1 423 0
 1012 020e 5022     		movs	r2, #80
 1013 0210 1F21     		movs	r1, #31
 1014 0212 6E20     		movs	r0, #110
 1015              	.LVL158:
 1016 0214 FFF7FEFF 		bl	write_reg
 1017              	.LVL159:
 1018 0218 0028     		cmp	r0, #0
 1019 021a 7FF4FCAE 		bne	.L39
 1020              	.LVL160:
 1021              	.LBB102:
 1022              	.LBB103:
 1023              		.loc 1 130 0
 1024 021e 0246     		mov	r2, r0
 1025 0220 0321     		movs	r1, #3
 1026 0222 6E20     		movs	r0, #110
ARM GAS  /tmp/cc5QaxCL.s 			page 19


 1027              	.LVL161:
 1028 0224 FFF7FEFF 		bl	write_reg
 1029              	.LVL162:
 1030              	.LBE103:
 1031              	.LBE102:
 1032              		.loc 1 427 0
 1033 0228 0028     		cmp	r0, #0
 1034 022a 7FF4F4AE 		bne	.L39
 1035              		.loc 1 431 0
 1036 022e 0A4B     		ldr	r3, .L49+8
 1037 0230 2B60     		str	r3, [r5]
 1038              		.loc 1 433 0
 1039 0232 4023     		movs	r3, #64
 1040 0234 6B71     		strb	r3, [r5, #5]
 1041              		.loc 1 434 0
 1042 0236 AB71     		strb	r3, [r5, #6]
 1043 0238 EDE6     		b	.L39
 1044              	.L47:
 1045              	.LBE99:
 1046              	.LBE98:
 1047              		.loc 1 437 0
 1048 023a FFF7FEFF 		bl	__stack_chk_fail
 1049              	.LVL163:
 1050              	.L48:
 1051              	.LBB105:
 1052              	.LBB104:
 1053              		.loc 1 360 0
 1054 023e 0322     		movs	r2, #3
 1055 0240 6821     		movs	r1, #104
 1056 0242 6E20     		movs	r0, #110
 1057              	.LVL164:
 1058 0244 FFF7FEFF 		bl	write_reg
 1059              	.LVL165:
 1060 0248 0028     		cmp	r0, #0
 1061 024a 3FF459AF 		beq	.L42
 1062 024e E2E6     		b	.L39
 1063              	.L50:
 1064              		.align	2
 1065              	.L49:
 1066 0250 00000000 		.word	__stack_chk_guard
 1067 0254 00000000 		.word	.LANCHOR0
 1068 0258 4001F000 		.word	15728960
 1069              	.LBE104:
 1070              	.LBE105:
 1071              		.cfi_endproc
 1072              	.LFE261:
 1073              		.size	po6030_set_qvga, .-po6030_set_qvga
 1074              		.section	.text.po6030_set_qqvga,"ax",%progbits
 1075              		.align	1
 1076              		.p2align 4,,15
 1077              		.global	po6030_set_qqvga
 1078              		.syntax unified
 1079              		.thumb
 1080              		.thumb_func
 1081              		.fpu fpv4-sp-d16
 1082              		.type	po6030_set_qqvga, %function
 1083              	po6030_set_qqvga:
ARM GAS  /tmp/cc5QaxCL.s 			page 20


 1084              	.LFB262:
 1085              		.loc 1 447 0
 1086              		.cfi_startproc
 1087              		@ args = 0, pretend = 0, frame = 8
 1088              		@ frame_needed = 0, uses_anonymous_args = 0
 1089 0000 30B5     		push	{r4, r5, lr}
 1090              		.cfi_def_cfa_offset 12
 1091              		.cfi_offset 4, -12
 1092              		.cfi_offset 5, -8
 1093              		.cfi_offset 14, -4
 1094 0002 8F4C     		ldr	r4, .L62
 1095 0004 83B0     		sub	sp, sp, #12
 1096              		.cfi_def_cfa_offset 24
 1097              		.loc 1 447 0
 1098 0006 2368     		ldr	r3, [r4]
 1099 0008 0193     		str	r3, [sp, #4]
 1100              	.LVL166:
 1101              	.LBB114:
 1102              	.LBB115:
 1103              		.loc 1 130 0
 1104 000a 0122     		movs	r2, #1
 1105 000c 0321     		movs	r1, #3
 1106 000e 6E20     		movs	r0, #110
 1107 0010 FFF7FEFF 		bl	write_reg
 1108              	.LVL167:
 1109              	.LBE115:
 1110              	.LBE114:
 1111              		.loc 1 450 0
 1112 0014 30B1     		cbz	r0, .L59
 1113              	.L52:
 1114              		.loc 1 573 0
 1115 0016 019A     		ldr	r2, [sp, #4]
 1116 0018 2368     		ldr	r3, [r4]
 1117 001a 9A42     		cmp	r2, r3
 1118 001c 40F00581 		bne	.L60
 1119 0020 03B0     		add	sp, sp, #12
 1120              		.cfi_remember_state
 1121              		.cfi_def_cfa_offset 12
 1122              		@ sp needed
 1123 0022 30BD     		pop	{r4, r5, pc}
 1124              	.L59:
 1125              		.cfi_restore_state
 1126              		.loc 1 454 0
 1127 0024 0246     		mov	r2, r0
 1128 0026 5021     		movs	r1, #80
 1129 0028 6E20     		movs	r0, #110
 1130 002a FFF7FEFF 		bl	write_reg
 1131              	.LVL168:
 1132 002e 0028     		cmp	r0, #0
 1133 0030 F1D1     		bne	.L52
 1134              		.loc 1 457 0
 1135 0032 0322     		movs	r2, #3
 1136 0034 5121     		movs	r1, #81
 1137 0036 6E20     		movs	r0, #110
 1138              	.LVL169:
 1139 0038 FFF7FEFF 		bl	write_reg
 1140              	.LVL170:
ARM GAS  /tmp/cc5QaxCL.s 			page 21


 1141 003c 0028     		cmp	r0, #0
 1142 003e EAD1     		bne	.L52
 1143              		.loc 1 460 0
 1144 0040 0246     		mov	r2, r0
 1145 0042 5221     		movs	r1, #82
 1146 0044 6E20     		movs	r0, #110
 1147              	.LVL171:
 1148 0046 FFF7FEFF 		bl	write_reg
 1149              	.LVL172:
 1150 004a 0028     		cmp	r0, #0
 1151 004c E3D1     		bne	.L52
 1152              		.loc 1 463 0
 1153 004e 0222     		movs	r2, #2
 1154 0050 5321     		movs	r1, #83
 1155 0052 6E20     		movs	r0, #110
 1156              	.LVL173:
 1157 0054 FFF7FEFF 		bl	write_reg
 1158              	.LVL174:
 1159 0058 0028     		cmp	r0, #0
 1160 005a DCD1     		bne	.L52
 1161              	.LBB116:
 1162              	.LBB117:
 1163              		.loc 1 466 0
 1164 005c 0246     		mov	r2, r0
 1165 005e 5421     		movs	r1, #84
 1166 0060 6E20     		movs	r0, #110
 1167              	.LVL175:
 1168 0062 FFF7FEFF 		bl	write_reg
 1169              	.LVL176:
 1170 0066 0028     		cmp	r0, #0
 1171 0068 D5D1     		bne	.L52
 1172              		.loc 1 469 0
 1173 006a A222     		movs	r2, #162
 1174 006c 5521     		movs	r1, #85
 1175 006e 6E20     		movs	r0, #110
 1176              	.LVL177:
 1177 0070 FFF7FEFF 		bl	write_reg
 1178              	.LVL178:
 1179 0074 0028     		cmp	r0, #0
 1180 0076 CED1     		bne	.L52
 1181              		.loc 1 472 0
 1182 0078 0246     		mov	r2, r0
 1183 007a 5621     		movs	r1, #86
 1184 007c 6E20     		movs	r0, #110
 1185              	.LVL179:
 1186 007e FFF7FEFF 		bl	write_reg
 1187              	.LVL180:
 1188 0082 0028     		cmp	r0, #0
 1189 0084 C7D1     		bne	.L52
 1190              		.loc 1 475 0
 1191 0086 7922     		movs	r2, #121
 1192 0088 5721     		movs	r1, #87
 1193 008a 6E20     		movs	r0, #110
 1194              	.LVL181:
 1195 008c FFF7FEFF 		bl	write_reg
 1196              	.LVL182:
 1197 0090 0028     		cmp	r0, #0
ARM GAS  /tmp/cc5QaxCL.s 			page 22


 1198 0092 C0D1     		bne	.L52
 1199              		.loc 1 479 0
 1200 0094 8022     		movs	r2, #128
 1201 0096 1146     		mov	r1, r2
 1202 0098 6E20     		movs	r0, #110
 1203              	.LVL183:
 1204 009a FFF7FEFF 		bl	write_reg
 1205              	.LVL184:
 1206 009e 0028     		cmp	r0, #0
 1207 00a0 B9D1     		bne	.L52
 1208              		.loc 1 482 0
 1209 00a2 8022     		movs	r2, #128
 1210 00a4 8121     		movs	r1, #129
 1211 00a6 6E20     		movs	r0, #110
 1212              	.LVL185:
 1213 00a8 FFF7FEFF 		bl	write_reg
 1214              	.LVL186:
 1215 00ac 0028     		cmp	r0, #0
 1216 00ae B2D1     		bne	.L52
 1217              		.loc 1 486 0
 1218 00b0 0246     		mov	r2, r0
 1219 00b2 6021     		movs	r1, #96
 1220 00b4 6E20     		movs	r0, #110
 1221              	.LVL187:
 1222 00b6 FFF7FEFF 		bl	write_reg
 1223              	.LVL188:
 1224 00ba 0028     		cmp	r0, #0
 1225 00bc ABD1     		bne	.L52
 1226              		.loc 1 489 0
 1227 00be 0C22     		movs	r2, #12
 1228 00c0 6121     		movs	r1, #97
 1229 00c2 6E20     		movs	r0, #110
 1230              	.LVL189:
 1231 00c4 FFF7FEFF 		bl	write_reg
 1232              	.LVL190:
 1233 00c8 0028     		cmp	r0, #0
 1234 00ca A4D1     		bne	.L52
 1235              		.loc 1 492 0
 1236 00cc 0122     		movs	r2, #1
 1237 00ce 6221     		movs	r1, #98
 1238 00d0 6E20     		movs	r0, #110
 1239              	.LVL191:
 1240 00d2 FFF7FEFF 		bl	write_reg
 1241              	.LVL192:
 1242 00d6 0028     		cmp	r0, #0
 1243 00d8 9DD1     		bne	.L52
 1244              		.loc 1 495 0
 1245 00da EC22     		movs	r2, #236
 1246 00dc 6321     		movs	r1, #99
 1247 00de 6E20     		movs	r0, #110
 1248              	.LVL193:
 1249 00e0 FFF7FEFF 		bl	write_reg
 1250              	.LVL194:
 1251 00e4 0028     		cmp	r0, #0
 1252 00e6 96D1     		bne	.L52
 1253              		.loc 1 499 0
 1254 00e8 564D     		ldr	r5, .L62+4
ARM GAS  /tmp/cc5QaxCL.s 			page 23


 1255 00ea 2B79     		ldrb	r3, [r5, #4]	@ zero_extendqisi2
 1256 00ec 0D2B     		cmp	r3, #13
 1257 00ee 00F09E80 		beq	.L61
 1258              		.loc 1 504 0
 1259 00f2 0322     		movs	r2, #3
 1260 00f4 6821     		movs	r1, #104
 1261 00f6 6E20     		movs	r0, #110
 1262              	.LVL195:
 1263 00f8 FFF7FEFF 		bl	write_reg
 1264              	.LVL196:
 1265 00fc 0028     		cmp	r0, #0
 1266 00fe 8AD1     		bne	.L52
 1267              	.L55:
 1268              		.loc 1 509 0
 1269 0100 0122     		movs	r2, #1
 1270 0102 8221     		movs	r1, #130
 1271 0104 6E20     		movs	r0, #110
 1272              	.LVL197:
 1273 0106 FFF7FEFF 		bl	write_reg
 1274              	.LVL198:
 1275 010a 0028     		cmp	r0, #0
 1276 010c 83D1     		bne	.L52
 1277              	.LVL199:
 1278              	.LBB118:
 1279              	.LBB119:
 1280              		.loc 1 130 0
 1281 010e 0222     		movs	r2, #2
 1282 0110 0321     		movs	r1, #3
 1283 0112 6E20     		movs	r0, #110
 1284              	.LVL200:
 1285 0114 FFF7FEFF 		bl	write_reg
 1286              	.LVL201:
 1287              	.LBE119:
 1288              	.LBE118:
 1289              		.loc 1 513 0
 1290 0118 0028     		cmp	r0, #0
 1291 011a 7FF47CAF 		bne	.L52
 1292              		.loc 1 517 0
 1293 011e 0246     		mov	r2, r0
 1294 0120 1021     		movs	r1, #16
 1295 0122 6E20     		movs	r0, #110
 1296 0124 FFF7FEFF 		bl	write_reg
 1297              	.LVL202:
 1298 0128 0028     		cmp	r0, #0
 1299 012a 7FF474AF 		bne	.L52
 1300              		.loc 1 520 0
 1301 012e 0922     		movs	r2, #9
 1302 0130 1121     		movs	r1, #17
 1303 0132 6E20     		movs	r0, #110
 1304              	.LVL203:
 1305 0134 FFF7FEFF 		bl	write_reg
 1306              	.LVL204:
 1307 0138 0028     		cmp	r0, #0
 1308 013a 7FF46CAF 		bne	.L52
 1309              		.loc 1 523 0
 1310 013e 0246     		mov	r2, r0
 1311 0140 1221     		movs	r1, #18
ARM GAS  /tmp/cc5QaxCL.s 			page 24


 1312 0142 6E20     		movs	r0, #110
 1313              	.LVL205:
 1314 0144 FFF7FEFF 		bl	write_reg
 1315              	.LVL206:
 1316 0148 0028     		cmp	r0, #0
 1317 014a 7FF464AF 		bne	.L52
 1318              		.loc 1 526 0
 1319 014e 0722     		movs	r2, #7
 1320 0150 1321     		movs	r1, #19
 1321 0152 6E20     		movs	r0, #110
 1322              	.LVL207:
 1323 0154 FFF7FEFF 		bl	write_reg
 1324              	.LVL208:
 1325 0158 0028     		cmp	r0, #0
 1326 015a 7FF45CAF 		bne	.L52
 1327              		.loc 1 529 0
 1328 015e 0246     		mov	r2, r0
 1329 0160 1421     		movs	r1, #20
 1330 0162 6E20     		movs	r0, #110
 1331              	.LVL209:
 1332 0164 FFF7FEFF 		bl	write_reg
 1333              	.LVL210:
 1334 0168 0028     		cmp	r0, #0
 1335 016a 7FF454AF 		bne	.L52
 1336              		.loc 1 532 0
 1337 016e 9822     		movs	r2, #152
 1338 0170 1521     		movs	r1, #21
 1339 0172 6E20     		movs	r0, #110
 1340              	.LVL211:
 1341 0174 FFF7FEFF 		bl	write_reg
 1342              	.LVL212:
 1343 0178 0028     		cmp	r0, #0
 1344 017a 7FF44CAF 		bne	.L52
 1345              		.loc 1 535 0
 1346 017e 0246     		mov	r2, r0
 1347 0180 1621     		movs	r1, #22
 1348 0182 6E20     		movs	r0, #110
 1349              	.LVL213:
 1350 0184 FFF7FEFF 		bl	write_reg
 1351              	.LVL214:
 1352 0188 0028     		cmp	r0, #0
 1353 018a 7FF444AF 		bne	.L52
 1354              		.loc 1 538 0
 1355 018e 6F22     		movs	r2, #111
 1356 0190 1721     		movs	r1, #23
 1357 0192 6E20     		movs	r0, #110
 1358              	.LVL215:
 1359 0194 FFF7FEFF 		bl	write_reg
 1360              	.LVL216:
 1361 0198 0028     		cmp	r0, #0
 1362 019a 7FF43CAF 		bne	.L52
 1363              		.loc 1 542 0
 1364 019e 0022     		movs	r2, #0
 1365 01a0 1821     		movs	r1, #24
 1366 01a2 6E20     		movs	r0, #110
 1367              	.LVL217:
 1368 01a4 FFF7FEFF 		bl	write_reg
ARM GAS  /tmp/cc5QaxCL.s 			page 25


 1369              	.LVL218:
 1370 01a8 0028     		cmp	r0, #0
 1371 01aa 7FF434AF 		bne	.L52
 1372              		.loc 1 545 0
 1373 01ae 3922     		movs	r2, #57
 1374 01b0 1921     		movs	r1, #25
 1375 01b2 6E20     		movs	r0, #110
 1376              	.LVL219:
 1377 01b4 FFF7FEFF 		bl	write_reg
 1378              	.LVL220:
 1379 01b8 0028     		cmp	r0, #0
 1380 01ba 7FF42CAF 		bne	.L52
 1381              		.loc 1 548 0
 1382 01be 0246     		mov	r2, r0
 1383 01c0 1A21     		movs	r1, #26
 1384 01c2 6E20     		movs	r0, #110
 1385              	.LVL221:
 1386 01c4 FFF7FEFF 		bl	write_reg
 1387              	.LVL222:
 1388 01c8 0028     		cmp	r0, #0
 1389 01ca 7FF424AF 		bne	.L52
 1390              		.loc 1 551 0
 1391 01ce 2122     		movs	r2, #33
 1392 01d0 1B21     		movs	r1, #27
 1393 01d2 6E20     		movs	r0, #110
 1394              	.LVL223:
 1395 01d4 FFF7FEFF 		bl	write_reg
 1396              	.LVL224:
 1397 01d8 0028     		cmp	r0, #0
 1398 01da 7FF41CAF 		bne	.L52
 1399              		.loc 1 554 0
 1400 01de 0246     		mov	r2, r0
 1401 01e0 1C21     		movs	r1, #28
 1402 01e2 6E20     		movs	r0, #110
 1403              	.LVL225:
 1404 01e4 FFF7FEFF 		bl	write_reg
 1405              	.LVL226:
 1406 01e8 0028     		cmp	r0, #0
 1407 01ea 7FF414AF 		bne	.L52
 1408              		.loc 1 557 0
 1409 01ee 2822     		movs	r2, #40
 1410 01f0 1D21     		movs	r1, #29
 1411 01f2 6E20     		movs	r0, #110
 1412              	.LVL227:
 1413 01f4 FFF7FEFF 		bl	write_reg
 1414              	.LVL228:
 1415 01f8 0028     		cmp	r0, #0
 1416 01fa 7FF40CAF 		bne	.L52
 1417              		.loc 1 560 0
 1418 01fe 0246     		mov	r2, r0
 1419 0200 1E21     		movs	r1, #30
 1420 0202 6E20     		movs	r0, #110
 1421              	.LVL229:
 1422 0204 FFF7FEFF 		bl	write_reg
 1423              	.LVL230:
 1424 0208 0028     		cmp	r0, #0
 1425 020a 7FF404AF 		bne	.L52
ARM GAS  /tmp/cc5QaxCL.s 			page 26


 1426              		.loc 1 563 0
 1427 020e 2822     		movs	r2, #40
 1428 0210 1F21     		movs	r1, #31
 1429 0212 6E20     		movs	r0, #110
 1430              	.LVL231:
 1431 0214 FFF7FEFF 		bl	write_reg
 1432              	.LVL232:
 1433 0218 0028     		cmp	r0, #0
 1434 021a 7FF4FCAE 		bne	.L52
 1435              		.loc 1 567 0
 1436 021e 0A4B     		ldr	r3, .L62+8
 1437 0220 2B60     		str	r3, [r5]
 1438              		.loc 1 569 0
 1439 0222 8023     		movs	r3, #128
 1440 0224 6B71     		strb	r3, [r5, #5]
 1441              		.loc 1 570 0
 1442 0226 AB71     		strb	r3, [r5, #6]
 1443 0228 F5E6     		b	.L52
 1444              	.LVL233:
 1445              	.L60:
 1446              	.LBE117:
 1447              	.LBE116:
 1448              		.loc 1 573 0
 1449 022a FFF7FEFF 		bl	__stack_chk_fail
 1450              	.LVL234:
 1451              	.L61:
 1452              	.LBB121:
 1453              	.LBB120:
 1454              		.loc 1 500 0
 1455 022e 0722     		movs	r2, #7
 1456 0230 6821     		movs	r1, #104
 1457 0232 6E20     		movs	r0, #110
 1458              	.LVL235:
 1459 0234 FFF7FEFF 		bl	write_reg
 1460              	.LVL236:
 1461 0238 0028     		cmp	r0, #0
 1462 023a 3FF461AF 		beq	.L55
 1463 023e EAE6     		b	.L52
 1464              	.L63:
 1465              		.align	2
 1466              	.L62:
 1467 0240 00000000 		.word	__stack_chk_guard
 1468 0244 00000000 		.word	.LANCHOR0
 1469 0248 A0007800 		.word	7864480
 1470              	.LBE120:
 1471              	.LBE121:
 1472              		.cfi_endproc
 1473              	.LFE262:
 1474              		.size	po6030_set_qqvga, .-po6030_set_qqvga
 1475              		.section	.text.po6030_set_size,"ax",%progbits
 1476              		.align	1
 1477              		.p2align 4,,15
 1478              		.global	po6030_set_size
 1479              		.syntax unified
 1480              		.thumb
 1481              		.thumb_func
 1482              		.fpu fpv4-sp-d16
ARM GAS  /tmp/cc5QaxCL.s 			page 27


 1483              		.type	po6030_set_size, %function
 1484              	po6030_set_size:
 1485              	.LFB263:
 1486              		.loc 1 585 0
 1487              		.cfi_startproc
 1488              		@ args = 0, pretend = 0, frame = 8
 1489              		@ frame_needed = 0, uses_anonymous_args = 0
 1490              	.LVL237:
 1491 0000 00B5     		push	{lr}
 1492              		.cfi_def_cfa_offset 4
 1493              		.cfi_offset 14, -4
 1494 0002 144B     		ldr	r3, .L77
 1495 0004 83B0     		sub	sp, sp, #12
 1496              		.cfi_def_cfa_offset 16
 1497              		.loc 1 585 0
 1498 0006 1A68     		ldr	r2, [r3]
 1499 0008 0192     		str	r2, [sp, #4]
 1500              		.loc 1 587 0
 1501 000a 019A     		ldr	r2, [sp, #4]
 1502 000c 1B68     		ldr	r3, [r3]
 1503              		.loc 1 586 0
 1504 000e 50B1     		cbz	r0, .L75
 1505              		.loc 1 588 0
 1506 0010 0128     		cmp	r0, #1
 1507 0012 0FD0     		beq	.L76
 1508              	.LVL238:
 1509              	.LBB124:
 1510              	.LBB125:
 1511              		.loc 1 590 0
 1512 0014 0228     		cmp	r0, #2
 1513 0016 14D1     		bne	.L69
 1514              		.loc 1 591 0
 1515 0018 9A42     		cmp	r2, r3
 1516 001a 19D1     		bne	.L74
 1517              	.LBE125:
 1518              	.LBE124:
 1519              		.loc 1 595 0
 1520 001c 03B0     		add	sp, sp, #12
 1521              		.cfi_remember_state
 1522              		.cfi_def_cfa_offset 4
 1523              		@ sp needed
 1524 001e 5DF804EB 		ldr	lr, [sp], #4
 1525              		.cfi_restore 14
 1526              		.cfi_def_cfa_offset 0
 1527              	.LBB127:
 1528              	.LBB126:
 1529              		.loc 1 591 0
 1530 0022 FFF7FEBF 		b	po6030_set_qqvga
 1531              	.LVL239:
 1532              	.L75:
 1533              		.cfi_restore_state
 1534              	.LBE126:
 1535              	.LBE127:
 1536              		.loc 1 587 0
 1537 0026 9A42     		cmp	r2, r3
 1538 0028 12D1     		bne	.L74
 1539              		.loc 1 595 0
ARM GAS  /tmp/cc5QaxCL.s 			page 28


 1540 002a 03B0     		add	sp, sp, #12
 1541              		.cfi_remember_state
 1542              		.cfi_def_cfa_offset 4
 1543              		@ sp needed
 1544 002c 5DF804EB 		ldr	lr, [sp], #4
 1545              		.cfi_restore 14
 1546              		.cfi_def_cfa_offset 0
 1547              		.loc 1 587 0
 1548 0030 FFF7FEBF 		b	po6030_set_vga
 1549              	.LVL240:
 1550              	.L76:
 1551              		.cfi_restore_state
 1552              		.loc 1 589 0
 1553 0034 9A42     		cmp	r2, r3
 1554 0036 0BD1     		bne	.L74
 1555              		.loc 1 595 0
 1556 0038 03B0     		add	sp, sp, #12
 1557              		.cfi_remember_state
 1558              		.cfi_def_cfa_offset 4
 1559              		@ sp needed
 1560 003a 5DF804EB 		ldr	lr, [sp], #4
 1561              		.cfi_restore 14
 1562              		.cfi_def_cfa_offset 0
 1563              		.loc 1 589 0
 1564 003e FFF7FEBF 		b	po6030_set_qvga
 1565              	.LVL241:
 1566              	.L69:
 1567              		.cfi_restore_state
 1568              		.loc 1 595 0
 1569 0042 9A42     		cmp	r2, r3
 1570 0044 4FF0FF30 		mov	r0, #-1
 1571              	.LVL242:
 1572 0048 02D1     		bne	.L74
 1573 004a 03B0     		add	sp, sp, #12
 1574              		.cfi_remember_state
 1575              		.cfi_def_cfa_offset 4
 1576              		@ sp needed
 1577 004c 5DF804FB 		ldr	pc, [sp], #4
 1578              	.LVL243:
 1579              	.L74:
 1580              		.cfi_restore_state
 1581 0050 FFF7FEFF 		bl	__stack_chk_fail
 1582              	.LVL244:
 1583              	.L78:
 1584              		.align	2
 1585              	.L77:
 1586 0054 00000000 		.word	__stack_chk_guard
 1587              		.cfi_endproc
 1588              	.LFE263:
 1589              		.size	po6030_set_size, .-po6030_set_size
 1590              		.section	.text.po6030_config,"ax",%progbits
 1591              		.align	1
 1592              		.p2align 4,,15
 1593              		.global	po6030_config
 1594              		.syntax unified
 1595              		.thumb
 1596              		.thumb_func
ARM GAS  /tmp/cc5QaxCL.s 			page 29


 1597              		.fpu fpv4-sp-d16
 1598              		.type	po6030_config, %function
 1599              	po6030_config:
 1600              	.LFB265:
 1601              		.loc 1 607 0
 1602              		.cfi_startproc
 1603              		@ args = 0, pretend = 0, frame = 8
 1604              		@ frame_needed = 0, uses_anonymous_args = 0
 1605              	.LVL245:
 1606 0000 30B5     		push	{r4, r5, lr}
 1607              		.cfi_def_cfa_offset 12
 1608              		.cfi_offset 4, -12
 1609              		.cfi_offset 5, -8
 1610              		.cfi_offset 14, -4
 1611 0002 0C4C     		ldr	r4, .L86
 1612 0004 83B0     		sub	sp, sp, #12
 1613              		.cfi_def_cfa_offset 24
 1614              		.loc 1 607 0
 1615 0006 2368     		ldr	r3, [r4]
 1616 0008 0193     		str	r3, [sp, #4]
 1617              	.LVL246:
 1618 000a 0D46     		mov	r5, r1
 1619              		.loc 1 611 0
 1620 000c FFF7FEFF 		bl	po6030_set_format
 1621              	.LVL247:
 1622              		.loc 1 620 0
 1623 0010 019A     		ldr	r2, [sp, #4]
 1624 0012 2368     		ldr	r3, [r4]
 1625              		.loc 1 611 0
 1626 0014 18B1     		cbz	r0, .L85
 1627              		.loc 1 620 0
 1628 0016 9A42     		cmp	r2, r3
 1629 0018 09D1     		bne	.L84
 1630 001a 03B0     		add	sp, sp, #12
 1631              		.cfi_remember_state
 1632              		.cfi_def_cfa_offset 12
 1633              		@ sp needed
 1634 001c 30BD     		pop	{r4, r5, pc}
 1635              	.L85:
 1636              		.cfi_restore_state
 1637              		.loc 1 615 0
 1638 001e 9A42     		cmp	r2, r3
 1639 0020 05D1     		bne	.L84
 1640 0022 2846     		mov	r0, r5
 1641              	.LVL248:
 1642              		.loc 1 620 0
 1643 0024 03B0     		add	sp, sp, #12
 1644              		.cfi_remember_state
 1645              		.cfi_def_cfa_offset 12
 1646              		@ sp needed
 1647 0026 BDE83040 		pop	{r4, r5, lr}
 1648              		.cfi_restore 14
 1649              		.cfi_restore 5
 1650              		.cfi_restore 4
 1651              		.cfi_def_cfa_offset 0
 1652              		.loc 1 615 0
 1653 002a FFF7FEBF 		b	po6030_set_size
ARM GAS  /tmp/cc5QaxCL.s 			page 30


 1654              	.LVL249:
 1655              	.L84:
 1656              		.cfi_restore_state
 1657              		.loc 1 620 0
 1658 002e FFF7FEFF 		bl	__stack_chk_fail
 1659              	.LVL250:
 1660              	.L87:
 1661 0032 00BF     		.align	2
 1662              	.L86:
 1663 0034 00000000 		.word	__stack_chk_guard
 1664              		.cfi_endproc
 1665              	.LFE265:
 1666              		.size	po6030_config, .-po6030_config
 1667              		.section	.text.po6030_advanced_config,"ax",%progbits
 1668              		.align	1
 1669              		.p2align 4,,15
 1670              		.global	po6030_advanced_config
 1671              		.syntax unified
 1672              		.thumb
 1673              		.thumb_func
 1674              		.fpu fpv4-sp-d16
 1675              		.type	po6030_advanced_config, %function
 1676              	po6030_advanced_config:
 1677              	.LFB266:
 1678              		.loc 1 624 0
 1679              		.cfi_startproc
 1680              		@ args = 12, pretend = 0, frame = 48
 1681              		@ frame_needed = 0, uses_anonymous_args = 0
 1682              	.LVL251:
 1683 0000 2DE9F04F 		push	{r4, r5, r6, r7, r8, r9, r10, fp, lr}
 1684              		.cfi_def_cfa_offset 36
 1685              		.cfi_offset 4, -36
 1686              		.cfi_offset 5, -32
 1687              		.cfi_offset 6, -28
 1688              		.cfi_offset 7, -24
 1689              		.cfi_offset 8, -20
 1690              		.cfi_offset 9, -16
 1691              		.cfi_offset 10, -12
 1692              		.cfi_offset 11, -8
 1693              		.cfi_offset 14, -4
 1694 0004 8DB0     		sub	sp, sp, #52
 1695              		.cfi_def_cfa_offset 88
 1696              		.loc 1 624 0
 1697 0006 DFF80494 		ldr	r9, .L133+8
 1698 000a DDF858C0 		ldr	ip, [sp, #88]
 1699 000e D9F80040 		ldr	r4, [r9]
 1700 0012 0B94     		str	r4, [sp, #44]
 1701              	.LVL252:
 1702              		.loc 1 626 0
 1703 0014 01F10806 		add	r6, r1, #8
 1704              	.LVL253:
 1705              		.loc 1 627 0
 1706 0018 171D     		adds	r7, r2, #4
 1707              	.LVL254:
 1708              		.loc 1 628 0
 1709 001a 5C1E     		subs	r4, r3, #1
 1710              		.loc 1 629 0
ARM GAS  /tmp/cc5QaxCL.s 			page 31


 1711 001c 0CF1FF35 		add	r5, ip, #-1
 1712              		.loc 1 633 0
 1713 0020 B3F5207F 		cmp	r3, #640
 1714              		.loc 1 624 0
 1715 0024 9DF85CA0 		ldrb	r10, [sp, #92]	@ zero_extendqisi2
 1716 0028 0090     		str	r0, [sp]
 1717              		.loc 1 628 0
 1718 002a 3444     		add	r4, r4, r6
 1719              	.LVL255:
 1720              		.loc 1 629 0
 1721 002c 3D44     		add	r5, r5, r7
 1722              	.LVL256:
 1723              		.loc 1 624 0
 1724 002e 9DF860B0 		ldrb	fp, [sp, #96]	@ zero_extendqisi2
 1725              		.loc 1 633 0
 1726 0032 00F21082 		bhi	.L109
 1727              		.loc 1 633 0 is_stmt 0 discriminator 1
 1728 0036 BCF5F07F 		cmp	ip, #480
 1729 003a 00F20C82 		bhi	.L109
 1730              		.loc 1 637 0 is_stmt 1
 1731 003e B6F5227F 		cmp	r6, #648
 1732 0042 00F21182 		bhi	.L110
 1733              		.loc 1 641 0
 1734 0046 B7F5F27F 		cmp	r7, #484
 1735 004a 00F21082 		bhi	.L111
 1736              		.loc 1 645 0
 1737 004e A642     		cmp	r6, r4
 1738 0050 80F00482 		bcs	.L113
 1739              		.loc 1 645 0 is_stmt 0 discriminator 1
 1740 0054 B4F5227F 		cmp	r4, #648
 1741 0058 00F20082 		bhi	.L113
 1742              		.loc 1 649 0 is_stmt 1
 1743 005c AF42     		cmp	r7, r5
 1744 005e 80F00082 		bcs	.L115
 1745              		.loc 1 649 0 is_stmt 0 discriminator 1
 1746 0062 B5F5F27F 		cmp	r5, #484
 1747 0066 00F2FC81 		bhi	.L115
 1748              		.loc 1 653 0 is_stmt 1
 1749 006a BAF1400F 		cmp	r10, #64
 1750 006e 00F0B581 		beq	.L91
 1751 0072 BAF1800F 		cmp	r10, #128
 1752 0076 23D0     		beq	.L92
 1753 0078 BAF1200F 		cmp	r10, #32
 1754 007c 00F0A181 		beq	.L126
 1755              		.loc 1 630 0
 1756 0080 4FF00008 		mov	r8, #0
 1757 0084 CDF80480 		str	r8, [sp, #4]
 1758              	.LVL257:
 1759              	.L90:
 1760              		.loc 1 684 0
 1761 0088 BBF1400F 		cmp	fp, #64
 1762 008c 2ED0     		beq	.L95
 1763              	.L130:
 1764 008e BBF1800F 		cmp	fp, #128
 1765 0092 00F0CB81 		beq	.L96
 1766 0096 BBF1200F 		cmp	fp, #32
 1767 009a 00F0B981 		beq	.L127
ARM GAS  /tmp/cc5QaxCL.s 			page 32


 1768              		.loc 1 631 0
 1769 009e 0023     		movs	r3, #0
 1770 00a0 CDE90233 		strd	r3, r3, [sp, #8]
 1771              	.LVL258:
 1772              	.L94:
 1773              		.loc 1 715 0
 1774 00a4 0098     		ldr	r0, [sp]
 1775              	.LVL259:
 1776 00a6 FFF7FEFF 		bl	po6030_set_format
 1777              	.LVL260:
 1778 00aa 0028     		cmp	r0, #0
 1779 00ac 38D0     		beq	.L128
 1780              	.LVL261:
 1781              	.L89:
 1782              		.loc 1 904 0
 1783 00ae 0B9A     		ldr	r2, [sp, #44]
 1784 00b0 D9F80030 		ldr	r3, [r9]
 1785 00b4 9A42     		cmp	r2, r3
 1786 00b6 40F0E381 		bne	.L129
 1787 00ba 0DB0     		add	sp, sp, #52
 1788              		.cfi_remember_state
 1789              		.cfi_def_cfa_offset 36
 1790              		@ sp needed
 1791 00bc BDE8F08F 		pop	{r4, r5, r6, r7, r8, r9, r10, fp, pc}
 1792              	.LVL262:
 1793              	.L92:
 1794              		.cfi_restore_state
 1795              		.loc 1 673 0
 1796 00c0 9A07     		lsls	r2, r3, #30
 1797 00c2 40F0D781 		bne	.L118
 1798              		.loc 1 678 0
 1799 00c6 CF4A     		ldr	r2, .L133
 1800              		.loc 1 676 0
 1801 00c8 B408     		lsrs	r4, r6, #2
 1802              	.LVL263:
 1803              		.loc 1 679 0
 1804 00ca 4FEA4308 		lsl	r8, r3, #1
 1805              		.loc 1 677 0
 1806 00ce 661C     		adds	r6, r4, #1
 1807              	.LVL264:
 1808              		.loc 1 679 0
 1809 00d0 A2FB0818 		umull	r1, r8, r2, r8
 1810              	.LVL265:
 1811              		.loc 1 678 0
 1812 00d4 A2FB0312 		umull	r1, r2, r2, r3
 1813              		.loc 1 677 0
 1814 00d8 04EB9304 		add	r4, r4, r3, lsr #2
 1815              	.LVL266:
 1816              		.loc 1 684 0
 1817 00dc BBF1400F 		cmp	fp, #64
 1818              		.loc 1 678 0
 1819 00e0 06EBD203 		add	r3, r6, r2, lsr #3
 1820              	.LVL267:
 1821 00e4 0193     		str	r3, [sp, #4]
 1822              	.LVL268:
 1823              		.loc 1 679 0
 1824 00e6 06EBD808 		add	r8, r6, r8, lsr #3
ARM GAS  /tmp/cc5QaxCL.s 			page 33


 1825              	.LVL269:
 1826              		.loc 1 684 0
 1827 00ea D0D1     		bne	.L130
 1828              	.LVL270:
 1829              	.L95:
 1830              		.loc 1 692 0
 1831 00ec 1CF0010F 		tst	ip, #1
 1832 00f0 40F0C381 		bne	.L121
 1833              		.loc 1 697 0
 1834 00f4 C34B     		ldr	r3, .L133
 1835              		.loc 1 715 0
 1836 00f6 0098     		ldr	r0, [sp]
 1837              	.LVL271:
 1838              		.loc 1 695 0
 1839 00f8 7D08     		lsrs	r5, r7, #1
 1840              	.LVL272:
 1841              		.loc 1 698 0
 1842 00fa 4FEA4C02 		lsl	r2, ip, #1
 1843              		.loc 1 696 0
 1844 00fe 6F1C     		adds	r7, r5, #1
 1845              	.LVL273:
 1846              		.loc 1 698 0
 1847 0100 A3FB0212 		umull	r1, r2, r3, r2
 1848              		.loc 1 697 0
 1849 0104 A3FB0C13 		umull	r1, r3, r3, ip
 1850 0108 07EB9303 		add	r3, r7, r3, lsr #2
 1851 010c 0293     		str	r3, [sp, #8]
 1852              		.loc 1 698 0
 1853 010e 07EB9203 		add	r3, r7, r2, lsr #2
 1854              		.loc 1 696 0
 1855 0112 05EB5C05 		add	r5, r5, ip, lsr #1
 1856              	.LVL274:
 1857              		.loc 1 698 0
 1858 0116 0393     		str	r3, [sp, #12]
 1859              	.LVL275:
 1860              		.loc 1 715 0
 1861 0118 FFF7FEFF 		bl	po6030_set_format
 1862              	.LVL276:
 1863 011c 0028     		cmp	r0, #0
 1864 011e C6D1     		bne	.L89
 1865              	.L128:
 1866              	.LVL277:
 1867              	.LBB128:
 1868              	.LBB129:
 1869              		.loc 1 130 0
 1870 0120 0122     		movs	r2, #1
 1871 0122 0321     		movs	r1, #3
 1872 0124 6E20     		movs	r0, #110
 1873              	.LVL278:
 1874 0126 FFF7FEFF 		bl	write_reg
 1875              	.LVL279:
 1876              	.LBE129:
 1877              	.LBE128:
 1878              		.loc 1 719 0
 1879 012a 0028     		cmp	r0, #0
 1880 012c BFD1     		bne	.L89
 1881              		.loc 1 726 0
ARM GAS  /tmp/cc5QaxCL.s 			page 34


 1882 012e C6F30723 		ubfx	r3, r6, #8, #8
 1883 0132 1A46     		mov	r2, r3
 1884 0134 5021     		movs	r1, #80
 1885 0136 6E20     		movs	r0, #110
 1886 0138 0493     		str	r3, [sp, #16]
 1887 013a FFF7FEFF 		bl	write_reg
 1888              	.LVL280:
 1889 013e 0028     		cmp	r0, #0
 1890 0140 B5D1     		bne	.L89
 1891              		.loc 1 729 0
 1892 0142 F3B2     		uxtb	r3, r6
 1893 0144 1A46     		mov	r2, r3
 1894 0146 5121     		movs	r1, #81
 1895 0148 6E20     		movs	r0, #110
 1896              	.LVL281:
 1897 014a 0593     		str	r3, [sp, #20]
 1898 014c FFF7FEFF 		bl	write_reg
 1899              	.LVL282:
 1900 0150 0028     		cmp	r0, #0
 1901 0152 ACD1     		bne	.L89
 1902              		.loc 1 732 0
 1903 0154 C7F30723 		ubfx	r3, r7, #8, #8
 1904 0158 1A46     		mov	r2, r3
 1905 015a 5221     		movs	r1, #82
 1906 015c 6E20     		movs	r0, #110
 1907              	.LVL283:
 1908 015e 0693     		str	r3, [sp, #24]
 1909 0160 FFF7FEFF 		bl	write_reg
 1910              	.LVL284:
 1911 0164 0028     		cmp	r0, #0
 1912 0166 A2D1     		bne	.L89
 1913              		.loc 1 735 0
 1914 0168 FBB2     		uxtb	r3, r7
 1915 016a 1A46     		mov	r2, r3
 1916 016c 5321     		movs	r1, #83
 1917 016e 6E20     		movs	r0, #110
 1918              	.LVL285:
 1919 0170 0793     		str	r3, [sp, #28]
 1920 0172 FFF7FEFF 		bl	write_reg
 1921              	.LVL286:
 1922 0176 0028     		cmp	r0, #0
 1923 0178 99D1     		bne	.L89
 1924              		.loc 1 738 0
 1925 017a C4F30722 		ubfx	r2, r4, #8, #8
 1926 017e 5421     		movs	r1, #84
 1927 0180 6E20     		movs	r0, #110
 1928              	.LVL287:
 1929 0182 FFF7FEFF 		bl	write_reg
 1930              	.LVL288:
 1931 0186 0028     		cmp	r0, #0
 1932 0188 91D1     		bne	.L89
 1933              		.loc 1 741 0
 1934 018a E3B2     		uxtb	r3, r4
 1935 018c 1A46     		mov	r2, r3
 1936 018e 5521     		movs	r1, #85
 1937 0190 6E20     		movs	r0, #110
 1938              	.LVL289:
ARM GAS  /tmp/cc5QaxCL.s 			page 35


 1939 0192 0893     		str	r3, [sp, #32]
 1940 0194 FFF7FEFF 		bl	write_reg
 1941              	.LVL290:
 1942 0198 0028     		cmp	r0, #0
 1943 019a 88D1     		bne	.L89
 1944              		.loc 1 744 0
 1945 019c C5F30722 		ubfx	r2, r5, #8, #8
 1946 01a0 5621     		movs	r1, #86
 1947 01a2 6E20     		movs	r0, #110
 1948              	.LVL291:
 1949 01a4 FFF7FEFF 		bl	write_reg
 1950              	.LVL292:
 1951 01a8 0028     		cmp	r0, #0
 1952 01aa 80D1     		bne	.L89
 1953              		.loc 1 747 0
 1954 01ac EBB2     		uxtb	r3, r5
 1955 01ae 1A46     		mov	r2, r3
 1956 01b0 5721     		movs	r1, #87
 1957 01b2 6E20     		movs	r0, #110
 1958              	.LVL293:
 1959 01b4 0993     		str	r3, [sp, #36]
 1960 01b6 FFF7FEFF 		bl	write_reg
 1961              	.LVL294:
 1962 01ba 0028     		cmp	r0, #0
 1963 01bc 7FF477AF 		bne	.L89
 1964              		.loc 1 751 0
 1965 01c0 5246     		mov	r2, r10
 1966 01c2 8021     		movs	r1, #128
 1967 01c4 6E20     		movs	r0, #110
 1968              	.LVL295:
 1969 01c6 FFF7FEFF 		bl	write_reg
 1970              	.LVL296:
 1971 01ca 0028     		cmp	r0, #0
 1972 01cc 7FF46FAF 		bne	.L89
 1973              		.loc 1 754 0
 1974 01d0 5A46     		mov	r2, fp
 1975 01d2 8121     		movs	r1, #129
 1976 01d4 6E20     		movs	r0, #110
 1977              	.LVL297:
 1978 01d6 FFF7FEFF 		bl	write_reg
 1979              	.LVL298:
 1980 01da 0028     		cmp	r0, #0
 1981 01dc 7FF467AF 		bne	.L89
 1982              		.loc 1 777 0
 1983 01e0 0246     		mov	r2, r0
 1984 01e2 6021     		movs	r1, #96
 1985 01e4 6E20     		movs	r0, #110
 1986              	.LVL299:
 1987 01e6 FFF7FEFF 		bl	write_reg
 1988              	.LVL300:
 1989 01ea 0028     		cmp	r0, #0
 1990 01ec 7FF45FAF 		bne	.L89
 1991              		.loc 1 780 0
 1992 01f0 0C22     		movs	r2, #12
 1993 01f2 6121     		movs	r1, #97
 1994 01f4 6E20     		movs	r0, #110
 1995              	.LVL301:
ARM GAS  /tmp/cc5QaxCL.s 			page 36


 1996 01f6 FFF7FEFF 		bl	write_reg
 1997              	.LVL302:
 1998 01fa 0028     		cmp	r0, #0
 1999 01fc 7FF457AF 		bne	.L89
 2000              		.loc 1 783 0
 2001 0200 0122     		movs	r2, #1
 2002 0202 6221     		movs	r1, #98
 2003 0204 6E20     		movs	r0, #110
 2004              	.LVL303:
 2005 0206 FFF7FEFF 		bl	write_reg
 2006              	.LVL304:
 2007 020a 0028     		cmp	r0, #0
 2008 020c 7FF44FAF 		bne	.L89
 2009              		.loc 1 786 0
 2010 0210 EC22     		movs	r2, #236
 2011 0212 6321     		movs	r1, #99
 2012 0214 6E20     		movs	r0, #110
 2013              	.LVL305:
 2014 0216 FFF7FEFF 		bl	write_reg
 2015              	.LVL306:
 2016 021a 0028     		cmp	r0, #0
 2017 021c 7FF447AF 		bne	.L89
 2018              		.loc 1 791 0
 2019 0220 009B     		ldr	r3, [sp]
 2020 0222 0D2B     		cmp	r3, #13
 2021 0224 00F04081 		beq	.L131
 2022              		.loc 1 812 0
 2023 0228 BAF1400F 		cmp	r10, #64
 2024 022c 00F04681 		beq	.L104
 2025 0230 BAF1800F 		cmp	r10, #128
 2026 0234 00F02F81 		beq	.L105
 2027 0238 BAF1200F 		cmp	r10, #32
 2028 023c 00F02281 		beq	.L132
 2029              	.L99:
 2030              		.loc 1 833 0
 2031 0240 0122     		movs	r2, #1
 2032 0242 8221     		movs	r1, #130
 2033 0244 6E20     		movs	r0, #110
 2034              	.LVL307:
 2035 0246 FFF7FEFF 		bl	write_reg
 2036              	.LVL308:
 2037 024a 0028     		cmp	r0, #0
 2038 024c 7FF42FAF 		bne	.L89
 2039              	.LVL309:
 2040              	.LBB130:
 2041              	.LBB131:
 2042              		.loc 1 130 0
 2043 0250 0222     		movs	r2, #2
 2044 0252 0321     		movs	r1, #3
 2045 0254 6E20     		movs	r0, #110
 2046              	.LVL310:
 2047 0256 FFF7FEFF 		bl	write_reg
 2048              	.LVL311:
 2049              	.LBE131:
 2050              	.LBE130:
 2051              		.loc 1 837 0
 2052 025a 0028     		cmp	r0, #0
ARM GAS  /tmp/cc5QaxCL.s 			page 37


 2053 025c 7FF427AF 		bne	.L89
 2054              		.loc 1 841 0
 2055 0260 049A     		ldr	r2, [sp, #16]
 2056 0262 1021     		movs	r1, #16
 2057 0264 6E20     		movs	r0, #110
 2058 0266 FFF7FEFF 		bl	write_reg
 2059              	.LVL312:
 2060 026a 0028     		cmp	r0, #0
 2061 026c 7FF41FAF 		bne	.L89
 2062              		.loc 1 844 0
 2063 0270 059A     		ldr	r2, [sp, #20]
 2064 0272 1121     		movs	r1, #17
 2065 0274 6E20     		movs	r0, #110
 2066              	.LVL313:
 2067 0276 FFF7FEFF 		bl	write_reg
 2068              	.LVL314:
 2069 027a 0028     		cmp	r0, #0
 2070 027c 7FF417AF 		bne	.L89
 2071              		.loc 1 847 0
 2072 0280 069A     		ldr	r2, [sp, #24]
 2073 0282 1221     		movs	r1, #18
 2074 0284 6E20     		movs	r0, #110
 2075              	.LVL315:
 2076 0286 FFF7FEFF 		bl	write_reg
 2077              	.LVL316:
 2078 028a 0028     		cmp	r0, #0
 2079 028c 7FF40FAF 		bne	.L89
 2080              		.loc 1 850 0
 2081 0290 079A     		ldr	r2, [sp, #28]
 2082 0292 1321     		movs	r1, #19
 2083 0294 6E20     		movs	r0, #110
 2084              	.LVL317:
 2085 0296 FFF7FEFF 		bl	write_reg
 2086              	.LVL318:
 2087 029a 0028     		cmp	r0, #0
 2088 029c 7FF407AF 		bne	.L89
 2089              		.loc 1 853 0
 2090 02a0 A21B     		subs	r2, r4, r6
 2091 02a2 C2F30722 		ubfx	r2, r2, #8, #8
 2092 02a6 1421     		movs	r1, #20
 2093 02a8 6E20     		movs	r0, #110
 2094              	.LVL319:
 2095 02aa FFF7FEFF 		bl	write_reg
 2096              	.LVL320:
 2097 02ae 0028     		cmp	r0, #0
 2098 02b0 7FF4FDAE 		bne	.L89
 2099              		.loc 1 856 0
 2100 02b4 089B     		ldr	r3, [sp, #32]
 2101 02b6 059A     		ldr	r2, [sp, #20]
 2102 02b8 9A1A     		subs	r2, r3, r2
 2103 02ba D2B2     		uxtb	r2, r2
 2104 02bc 1521     		movs	r1, #21
 2105 02be 6E20     		movs	r0, #110
 2106              	.LVL321:
 2107 02c0 FFF7FEFF 		bl	write_reg
 2108              	.LVL322:
 2109 02c4 0028     		cmp	r0, #0
ARM GAS  /tmp/cc5QaxCL.s 			page 38


 2110 02c6 7FF4F2AE 		bne	.L89
 2111              		.loc 1 859 0
 2112 02ca EA1B     		subs	r2, r5, r7
 2113 02cc C2F30722 		ubfx	r2, r2, #8, #8
 2114 02d0 1621     		movs	r1, #22
 2115 02d2 6E20     		movs	r0, #110
 2116              	.LVL323:
 2117 02d4 FFF7FEFF 		bl	write_reg
 2118              	.LVL324:
 2119 02d8 0028     		cmp	r0, #0
 2120 02da 7FF4E8AE 		bne	.L89
 2121              		.loc 1 862 0
 2122 02de 099B     		ldr	r3, [sp, #36]
 2123 02e0 079A     		ldr	r2, [sp, #28]
 2124 02e2 9A1A     		subs	r2, r3, r2
 2125 02e4 D2B2     		uxtb	r2, r2
 2126 02e6 1721     		movs	r1, #23
 2127 02e8 6E20     		movs	r0, #110
 2128              	.LVL325:
 2129 02ea FFF7FEFF 		bl	write_reg
 2130              	.LVL326:
 2131 02ee 0028     		cmp	r0, #0
 2132 02f0 7FF4DDAE 		bne	.L89
 2133              		.loc 1 866 0
 2134 02f4 019B     		ldr	r3, [sp, #4]
 2135 02f6 1821     		movs	r1, #24
 2136 02f8 C3F30722 		ubfx	r2, r3, #8, #8
 2137 02fc 6E20     		movs	r0, #110
 2138              	.LVL327:
 2139 02fe FFF7FEFF 		bl	write_reg
 2140              	.LVL328:
 2141 0302 0028     		cmp	r0, #0
 2142 0304 7FF4D3AE 		bne	.L89
 2143              		.loc 1 869 0
 2144 0308 9DF80430 		ldrb	r3, [sp, #4]	@ zero_extendqisi2
 2145 030c 0493     		str	r3, [sp, #16]
 2146 030e 1A46     		mov	r2, r3
 2147 0310 1921     		movs	r1, #25
 2148 0312 6E20     		movs	r0, #110
 2149              	.LVL329:
 2150 0314 FFF7FEFF 		bl	write_reg
 2151              	.LVL330:
 2152 0318 0028     		cmp	r0, #0
 2153 031a 7FF4C8AE 		bne	.L89
 2154              		.loc 1 872 0
 2155 031e 029B     		ldr	r3, [sp, #8]
 2156 0320 1A21     		movs	r1, #26
 2157 0322 C3F30722 		ubfx	r2, r3, #8, #8
 2158 0326 6E20     		movs	r0, #110
 2159              	.LVL331:
 2160 0328 FFF7FEFF 		bl	write_reg
 2161              	.LVL332:
 2162 032c 0028     		cmp	r0, #0
 2163 032e 7FF4BEAE 		bne	.L89
 2164              		.loc 1 875 0
 2165 0332 9DF80830 		ldrb	r3, [sp, #8]	@ zero_extendqisi2
 2166 0336 0593     		str	r3, [sp, #20]
ARM GAS  /tmp/cc5QaxCL.s 			page 39


 2167 0338 1A46     		mov	r2, r3
 2168 033a 1B21     		movs	r1, #27
 2169 033c 6E20     		movs	r0, #110
 2170              	.LVL333:
 2171 033e FFF7FEFF 		bl	write_reg
 2172              	.LVL334:
 2173 0342 0028     		cmp	r0, #0
 2174 0344 7FF4B3AE 		bne	.L89
 2175              		.loc 1 878 0
 2176 0348 019B     		ldr	r3, [sp, #4]
 2177 034a A8EB0302 		sub	r2, r8, r3
 2178 034e C2F30722 		ubfx	r2, r2, #8, #8
 2179 0352 1C21     		movs	r1, #28
 2180 0354 6E20     		movs	r0, #110
 2181              	.LVL335:
 2182 0356 FFF7FEFF 		bl	write_reg
 2183              	.LVL336:
 2184 035a 0028     		cmp	r0, #0
 2185 035c 7FF4A7AE 		bne	.L89
 2186              		.loc 1 881 0
 2187 0360 049B     		ldr	r3, [sp, #16]
 2188 0362 A8EB0302 		sub	r2, r8, r3
 2189 0366 D2B2     		uxtb	r2, r2
 2190 0368 1D21     		movs	r1, #29
 2191 036a 6E20     		movs	r0, #110
 2192              	.LVL337:
 2193 036c FFF7FEFF 		bl	write_reg
 2194              	.LVL338:
 2195 0370 0028     		cmp	r0, #0
 2196 0372 7FF49CAE 		bne	.L89
 2197              		.loc 1 884 0
 2198 0376 DDE90223 		ldrd	r2, r3, [sp, #8]
 2199 037a 9A1A     		subs	r2, r3, r2
 2200 037c C2F30722 		ubfx	r2, r2, #8, #8
 2201 0380 1E21     		movs	r1, #30
 2202 0382 6E20     		movs	r0, #110
 2203              	.LVL339:
 2204 0384 FFF7FEFF 		bl	write_reg
 2205              	.LVL340:
 2206 0388 0028     		cmp	r0, #0
 2207 038a 7FF490AE 		bne	.L89
 2208              		.loc 1 887 0
 2209 038e 039B     		ldr	r3, [sp, #12]
 2210 0390 059A     		ldr	r2, [sp, #20]
 2211 0392 9A1A     		subs	r2, r3, r2
 2212 0394 D2B2     		uxtb	r2, r2
 2213 0396 1F21     		movs	r1, #31
 2214 0398 6E20     		movs	r0, #110
 2215              	.LVL341:
 2216 039a FFF7FEFF 		bl	write_reg
 2217              	.LVL342:
 2218 039e 0028     		cmp	r0, #0
 2219 03a0 7FF485AE 		bne	.L89
 2220              		.loc 1 891 0
 2221 03a4 184B     		ldr	r3, .L133+4
 2222              		.loc 1 893 0
 2223 03a6 9DF80020 		ldrb	r2, [sp]	@ zero_extendqisi2
ARM GAS  /tmp/cc5QaxCL.s 			page 40


 2224 03aa 1A71     		strb	r2, [r3, #4]
 2225              		.loc 1 891 0
 2226 03ac 0134     		adds	r4, r4, #1
 2227              	.LVL343:
 2228              		.loc 1 892 0
 2229 03ae 0135     		adds	r5, r5, #1
 2230              	.LVL344:
 2231              		.loc 1 891 0
 2232 03b0 A61B     		subs	r6, r4, r6
 2233              	.LVL345:
 2234              		.loc 1 892 0
 2235 03b2 EF1B     		subs	r7, r5, r7
 2236              	.LVL346:
 2237              		.loc 1 891 0
 2238 03b4 1E80     		strh	r6, [r3]	@ movhi
 2239              		.loc 1 892 0
 2240 03b6 5F80     		strh	r7, [r3, #2]	@ movhi
 2241              		.loc 1 894 0
 2242 03b8 83F805A0 		strb	r10, [r3, #5]
 2243              		.loc 1 895 0
 2244 03bc 83F806B0 		strb	fp, [r3, #6]
 2245              		.loc 1 903 0
 2246 03c0 75E6     		b	.L89
 2247              	.LVL347:
 2248              	.L126:
 2249              		.loc 1 655 0
 2250 03c2 104A     		ldr	r2, .L133
 2251              		.loc 1 656 0
 2252 03c4 4FEA4308 		lsl	r8, r3, #1
 2253              		.loc 1 655 0
 2254 03c8 A2FB0313 		umull	r1, r3, r2, r3
 2255              	.LVL348:
 2256 03cc 06EB5303 		add	r3, r6, r3, lsr #1
 2257              		.loc 1 656 0
 2258 03d0 A2FB0828 		umull	r2, r8, r2, r8
 2259              		.loc 1 655 0
 2260 03d4 0193     		str	r3, [sp, #4]
 2261              	.LVL349:
 2262              		.loc 1 656 0
 2263 03d6 06EB5808 		add	r8, r6, r8, lsr #1
 2264              	.LVL350:
 2265              		.loc 1 657 0
 2266 03da 55E6     		b	.L90
 2267              	.LVL351:
 2268              	.L91:
 2269              		.loc 1 661 0
 2270 03dc D907     		lsls	r1, r3, #31
 2271 03de 49D4     		bmi	.L118
 2272              		.loc 1 666 0
 2273 03e0 084A     		ldr	r2, .L133
 2274              		.loc 1 664 0
 2275 03e2 7408     		lsrs	r4, r6, #1
 2276              	.LVL352:
 2277              		.loc 1 667 0
 2278 03e4 4FEA4308 		lsl	r8, r3, #1
 2279              		.loc 1 665 0
 2280 03e8 661C     		adds	r6, r4, #1
ARM GAS  /tmp/cc5QaxCL.s 			page 41


 2281              	.LVL353:
 2282              		.loc 1 667 0
 2283 03ea A2FB0818 		umull	r1, r8, r2, r8
 2284              		.loc 1 666 0
 2285 03ee A2FB0312 		umull	r1, r2, r2, r3
 2286              		.loc 1 665 0
 2287 03f2 04EB5304 		add	r4, r4, r3, lsr #1
 2288              	.LVL354:
 2289              		.loc 1 666 0
 2290 03f6 06EB9203 		add	r3, r6, r2, lsr #2
 2291              	.LVL355:
 2292 03fa 0193     		str	r3, [sp, #4]
 2293              	.LVL356:
 2294              		.loc 1 667 0
 2295 03fc 06EB9808 		add	r8, r6, r8, lsr #2
 2296              	.LVL357:
 2297              		.loc 1 669 0
 2298 0400 42E6     		b	.L90
 2299              	.L134:
 2300 0402 00BF     		.align	2
 2301              	.L133:
 2302 0404 ABAAAAAA 		.word	-1431655765
 2303 0408 00000000 		.word	.LANCHOR0
 2304 040c 00000000 		.word	__stack_chk_guard
 2305              	.LVL358:
 2306              	.L127:
 2307              		.loc 1 686 0
 2308 0410 334A     		ldr	r2, .L135
 2309              		.loc 1 687 0
 2310 0412 4FEA4C03 		lsl	r3, ip, #1
 2311              		.loc 1 686 0
 2312 0416 A2FB0C1C 		umull	r1, ip, r2, ip
 2313              		.loc 1 687 0
 2314 041a A2FB0323 		umull	r2, r3, r2, r3
 2315 041e 07EB5303 		add	r3, r7, r3, lsr #1
 2316              		.loc 1 686 0
 2317 0422 07EB5C02 		add	r2, r7, ip, lsr #1
 2318 0426 0292     		str	r2, [sp, #8]
 2319              	.LVL359:
 2320              		.loc 1 687 0
 2321 0428 0393     		str	r3, [sp, #12]
 2322              	.LVL360:
 2323              		.loc 1 688 0
 2324 042a 3BE6     		b	.L94
 2325              	.LVL361:
 2326              	.L96:
 2327              		.loc 1 704 0
 2328 042c 1CF0030F 		tst	ip, #3
 2329 0430 23D1     		bne	.L121
 2330              		.loc 1 709 0
 2331 0432 2B4B     		ldr	r3, .L135
 2332              		.loc 1 707 0
 2333 0434 BD08     		lsrs	r5, r7, #2
 2334              	.LVL362:
 2335              		.loc 1 710 0
 2336 0436 4FEA4C02 		lsl	r2, ip, #1
 2337              		.loc 1 708 0
ARM GAS  /tmp/cc5QaxCL.s 			page 42


 2338 043a 6F1C     		adds	r7, r5, #1
 2339              	.LVL363:
 2340              		.loc 1 710 0
 2341 043c A3FB0212 		umull	r1, r2, r3, r2
 2342              		.loc 1 709 0
 2343 0440 A3FB0C13 		umull	r1, r3, r3, ip
 2344 0444 07EBD303 		add	r3, r7, r3, lsr #3
 2345 0448 0293     		str	r3, [sp, #8]
 2346              		.loc 1 710 0
 2347 044a 07EBD203 		add	r3, r7, r2, lsr #3
 2348              		.loc 1 708 0
 2349 044e 05EB9C05 		add	r5, r5, ip, lsr #2
 2350              	.LVL364:
 2351              		.loc 1 710 0
 2352 0452 0393     		str	r3, [sp, #12]
 2353              	.LVL365:
 2354              		.loc 1 712 0
 2355 0454 26E6     		b	.L94
 2356              	.LVL366:
 2357              	.L109:
 2358              		.loc 1 634 0
 2359 0456 6FF00700 		mvn	r0, #7
 2360              	.LVL367:
 2361 045a 28E6     		b	.L89
 2362              	.LVL368:
 2363              	.L113:
 2364              		.loc 1 646 0
 2365 045c 6FF00300 		mvn	r0, #3
 2366              	.LVL369:
 2367 0460 25E6     		b	.L89
 2368              	.LVL370:
 2369              	.L115:
 2370              		.loc 1 650 0
 2371 0462 6FF00400 		mvn	r0, #4
 2372              	.LVL371:
 2373 0466 22E6     		b	.L89
 2374              	.LVL372:
 2375              	.L110:
 2376              		.loc 1 638 0
 2377 0468 6FF00100 		mvn	r0, #1
 2378              	.LVL373:
 2379 046c 1FE6     		b	.L89
 2380              	.LVL374:
 2381              	.L111:
 2382              		.loc 1 642 0
 2383 046e 6FF00200 		mvn	r0, #2
 2384              	.LVL375:
 2385 0472 1CE6     		b	.L89
 2386              	.LVL376:
 2387              	.L118:
 2388              		.loc 1 662 0
 2389 0474 6FF00500 		mvn	r0, #5
 2390              	.LVL377:
 2391 0478 19E6     		b	.L89
 2392              	.LVL378:
 2393              	.L121:
 2394              		.loc 1 693 0
ARM GAS  /tmp/cc5QaxCL.s 			page 43


 2395 047a 6FF00600 		mvn	r0, #6
 2396              	.LVL379:
 2397 047e 16E6     		b	.L89
 2398              	.LVL380:
 2399              	.L129:
 2400              		.loc 1 904 0
 2401 0480 FFF7FEFF 		bl	__stack_chk_fail
 2402              	.LVL381:
 2403              	.L132:
 2404              		.loc 1 814 0
 2405 0484 0022     		movs	r2, #0
 2406 0486 6821     		movs	r1, #104
 2407 0488 6E20     		movs	r0, #110
 2408              	.LVL382:
 2409 048a FFF7FEFF 		bl	write_reg
 2410              	.LVL383:
 2411 048e 0028     		cmp	r0, #0
 2412 0490 3FF4D6AE 		beq	.L99
 2413 0494 0BE6     		b	.L89
 2414              	.L105:
 2415              		.loc 1 826 0
 2416 0496 0322     		movs	r2, #3
 2417 0498 6821     		movs	r1, #104
 2418 049a 6E20     		movs	r0, #110
 2419              	.LVL384:
 2420 049c FFF7FEFF 		bl	write_reg
 2421              	.LVL385:
 2422 04a0 0028     		cmp	r0, #0
 2423 04a2 3FF4CDAE 		beq	.L99
 2424 04a6 02E6     		b	.L89
 2425              	.L131:
 2426              		.loc 1 792 0
 2427 04a8 BAF1400F 		cmp	r10, #64
 2428 04ac F3D0     		beq	.L105
 2429 04ae BAF1800F 		cmp	r10, #128
 2430 04b2 0CD0     		beq	.L101
 2431 04b4 BAF1200F 		cmp	r10, #32
 2432 04b8 7FF4C2AE 		bne	.L99
 2433              	.L104:
 2434              		.loc 1 820 0
 2435 04bc 0122     		movs	r2, #1
 2436 04be 6821     		movs	r1, #104
 2437 04c0 6E20     		movs	r0, #110
 2438              	.LVL386:
 2439 04c2 FFF7FEFF 		bl	write_reg
 2440              	.LVL387:
 2441 04c6 0028     		cmp	r0, #0
 2442 04c8 3FF4BAAE 		beq	.L99
 2443 04cc EFE5     		b	.L89
 2444              	.L101:
 2445              		.loc 1 806 0
 2446 04ce 0722     		movs	r2, #7
 2447 04d0 6821     		movs	r1, #104
 2448 04d2 6E20     		movs	r0, #110
 2449              	.LVL388:
 2450 04d4 FFF7FEFF 		bl	write_reg
 2451              	.LVL389:
ARM GAS  /tmp/cc5QaxCL.s 			page 44


 2452 04d8 0028     		cmp	r0, #0
 2453 04da 3FF4B1AE 		beq	.L99
 2454 04de E6E5     		b	.L89
 2455              	.L136:
 2456              		.align	2
 2457              	.L135:
 2458 04e0 ABAAAAAA 		.word	-1431655765
 2459              		.cfi_endproc
 2460              	.LFE266:
 2461              		.size	po6030_advanced_config, .-po6030_advanced_config
 2462              		.section	.text.po6030_start,"ax",%progbits
 2463              		.align	1
 2464              		.p2align 4,,15
 2465              		.global	po6030_start
 2466              		.syntax unified
 2467              		.thumb
 2468              		.thumb_func
 2469              		.fpu fpv4-sp-d16
 2470              		.type	po6030_start, %function
 2471              	po6030_start:
 2472              	.LFB264:
 2473              		.loc 1 602 0
 2474              		.cfi_startproc
 2475              		@ args = 0, pretend = 0, frame = 8
 2476              		@ frame_needed = 0, uses_anonymous_args = 0
 2477 0000 30B5     		push	{r4, r5, lr}
 2478              		.cfi_def_cfa_offset 12
 2479              		.cfi_offset 4, -12
 2480              		.cfi_offset 5, -8
 2481              		.cfi_offset 14, -4
 2482 0002 0B4C     		ldr	r4, .L141
 2483 0004 87B0     		sub	sp, sp, #28
 2484              		.cfi_def_cfa_offset 40
 2485              		.loc 1 604 0
 2486 0006 2023     		movs	r3, #32
 2487 0008 7822     		movs	r2, #120
 2488              		.loc 1 602 0
 2489 000a 2568     		ldr	r5, [r4]
 2490              		.loc 1 604 0
 2491 000c 0092     		str	r2, [sp]
 2492 000e CDE90133 		strd	r3, r3, [sp, #4]
 2493 0012 B422     		movs	r2, #180
 2494 0014 A023     		movs	r3, #160
 2495 0016 F021     		movs	r1, #240
 2496 0018 0220     		movs	r0, #2
 2497              		.loc 1 602 0
 2498 001a 0595     		str	r5, [sp, #20]
 2499              		.loc 1 604 0
 2500 001c FFF7FEFF 		bl	po6030_advanced_config
 2501              	.LVL390:
 2502              		.loc 1 605 0
 2503 0020 059A     		ldr	r2, [sp, #20]
 2504 0022 2368     		ldr	r3, [r4]
 2505 0024 9A42     		cmp	r2, r3
 2506 0026 01D1     		bne	.L140
 2507 0028 07B0     		add	sp, sp, #28
 2508              		.cfi_remember_state
ARM GAS  /tmp/cc5QaxCL.s 			page 45


 2509              		.cfi_def_cfa_offset 12
 2510              		@ sp needed
 2511 002a 30BD     		pop	{r4, r5, pc}
 2512              	.L140:
 2513              		.cfi_restore_state
 2514 002c FFF7FEFF 		bl	__stack_chk_fail
 2515              	.LVL391:
 2516              	.L142:
 2517              		.align	2
 2518              	.L141:
 2519 0030 00000000 		.word	__stack_chk_guard
 2520              		.cfi_endproc
 2521              	.LFE264:
 2522              		.size	po6030_start, .-po6030_start
 2523              		.section	.text.po6030_set_brightness,"ax",%progbits
 2524              		.align	1
 2525              		.p2align 4,,15
 2526              		.global	po6030_set_brightness
 2527              		.syntax unified
 2528              		.thumb
 2529              		.thumb_func
 2530              		.fpu fpv4-sp-d16
 2531              		.type	po6030_set_brightness, %function
 2532              	po6030_set_brightness:
 2533              	.LFB267:
 2534              		.loc 1 906 0
 2535              		.cfi_startproc
 2536              		@ args = 0, pretend = 0, frame = 8
 2537              		@ frame_needed = 0, uses_anonymous_args = 0
 2538              	.LVL392:
 2539 0000 30B5     		push	{r4, r5, lr}
 2540              		.cfi_def_cfa_offset 12
 2541              		.cfi_offset 4, -12
 2542              		.cfi_offset 5, -8
 2543              		.cfi_offset 14, -4
 2544 0002 0E4C     		ldr	r4, .L150
 2545 0004 83B0     		sub	sp, sp, #12
 2546              		.cfi_def_cfa_offset 24
 2547              		.loc 1 906 0
 2548 0006 2368     		ldr	r3, [r4]
 2549 0008 0193     		str	r3, [sp, #4]
 2550              	.LVL393:
 2551              	.LBB132:
 2552              	.LBB133:
 2553              		.loc 1 130 0
 2554 000a 0122     		movs	r2, #1
 2555              	.LBE133:
 2556              	.LBE132:
 2557              		.loc 1 906 0
 2558 000c 0546     		mov	r5, r0
 2559              	.LBB135:
 2560              	.LBB134:
 2561              		.loc 1 130 0
 2562 000e 0321     		movs	r1, #3
 2563 0010 6E20     		movs	r0, #110
 2564              	.LVL394:
 2565 0012 FFF7FEFF 		bl	write_reg
ARM GAS  /tmp/cc5QaxCL.s 			page 46


 2566              	.LVL395:
 2567              	.LBE134:
 2568              	.LBE135:
 2569              		.loc 1 912 0
 2570 0016 019A     		ldr	r2, [sp, #4]
 2571 0018 2368     		ldr	r3, [r4]
 2572              		.loc 1 908 0
 2573 001a 18B1     		cbz	r0, .L149
 2574              		.loc 1 912 0
 2575 001c 9A42     		cmp	r2, r3
 2576 001e 0BD1     		bne	.L148
 2577 0020 03B0     		add	sp, sp, #12
 2578              		.cfi_remember_state
 2579              		.cfi_def_cfa_offset 12
 2580              		@ sp needed
 2581 0022 30BD     		pop	{r4, r5, pc}
 2582              	.L149:
 2583              		.cfi_restore_state
 2584              		.loc 1 911 0
 2585 0024 9A42     		cmp	r2, r3
 2586 0026 07D1     		bne	.L148
 2587 0028 2A46     		mov	r2, r5
 2588 002a 9221     		movs	r1, #146
 2589 002c 6E20     		movs	r0, #110
 2590              		.loc 1 912 0
 2591 002e 03B0     		add	sp, sp, #12
 2592              		.cfi_remember_state
 2593              		.cfi_def_cfa_offset 12
 2594              		@ sp needed
 2595 0030 BDE83040 		pop	{r4, r5, lr}
 2596              		.cfi_restore 14
 2597              		.cfi_restore 5
 2598              		.cfi_restore 4
 2599              		.cfi_def_cfa_offset 0
 2600              		.loc 1 911 0
 2601 0034 FFF7FEBF 		b	write_reg
 2602              	.LVL396:
 2603              	.L148:
 2604              		.cfi_restore_state
 2605              		.loc 1 912 0
 2606 0038 FFF7FEFF 		bl	__stack_chk_fail
 2607              	.LVL397:
 2608              	.L151:
 2609              		.align	2
 2610              	.L150:
 2611 003c 00000000 		.word	__stack_chk_guard
 2612              		.cfi_endproc
 2613              	.LFE267:
 2614              		.size	po6030_set_brightness, .-po6030_set_brightness
 2615              		.section	.text.po6030_set_contrast,"ax",%progbits
 2616              		.align	1
 2617              		.p2align 4,,15
 2618              		.global	po6030_set_contrast
 2619              		.syntax unified
 2620              		.thumb
 2621              		.thumb_func
 2622              		.fpu fpv4-sp-d16
ARM GAS  /tmp/cc5QaxCL.s 			page 47


 2623              		.type	po6030_set_contrast, %function
 2624              	po6030_set_contrast:
 2625              	.LFB268:
 2626              		.loc 1 914 0
 2627              		.cfi_startproc
 2628              		@ args = 0, pretend = 0, frame = 8
 2629              		@ frame_needed = 0, uses_anonymous_args = 0
 2630              	.LVL398:
 2631 0000 30B5     		push	{r4, r5, lr}
 2632              		.cfi_def_cfa_offset 12
 2633              		.cfi_offset 4, -12
 2634              		.cfi_offset 5, -8
 2635              		.cfi_offset 14, -4
 2636 0002 0E4C     		ldr	r4, .L159
 2637 0004 83B0     		sub	sp, sp, #12
 2638              		.cfi_def_cfa_offset 24
 2639              		.loc 1 914 0
 2640 0006 2368     		ldr	r3, [r4]
 2641 0008 0193     		str	r3, [sp, #4]
 2642              	.LVL399:
 2643              	.LBB136:
 2644              	.LBB137:
 2645              		.loc 1 130 0
 2646 000a 0122     		movs	r2, #1
 2647              	.LBE137:
 2648              	.LBE136:
 2649              		.loc 1 914 0
 2650 000c 0546     		mov	r5, r0
 2651              	.LBB139:
 2652              	.LBB138:
 2653              		.loc 1 130 0
 2654 000e 0321     		movs	r1, #3
 2655 0010 6E20     		movs	r0, #110
 2656              	.LVL400:
 2657 0012 FFF7FEFF 		bl	write_reg
 2658              	.LVL401:
 2659              	.LBE138:
 2660              	.LBE139:
 2661              		.loc 1 920 0
 2662 0016 019A     		ldr	r2, [sp, #4]
 2663 0018 2368     		ldr	r3, [r4]
 2664              		.loc 1 916 0
 2665 001a 18B1     		cbz	r0, .L158
 2666              		.loc 1 920 0
 2667 001c 9A42     		cmp	r2, r3
 2668 001e 0BD1     		bne	.L157
 2669 0020 03B0     		add	sp, sp, #12
 2670              		.cfi_remember_state
 2671              		.cfi_def_cfa_offset 12
 2672              		@ sp needed
 2673 0022 30BD     		pop	{r4, r5, pc}
 2674              	.L158:
 2675              		.cfi_restore_state
 2676              		.loc 1 919 0
 2677 0024 9A42     		cmp	r2, r3
 2678 0026 07D1     		bne	.L157
 2679 0028 2A46     		mov	r2, r5
ARM GAS  /tmp/cc5QaxCL.s 			page 48


 2680 002a 9121     		movs	r1, #145
 2681 002c 6E20     		movs	r0, #110
 2682              		.loc 1 920 0
 2683 002e 03B0     		add	sp, sp, #12
 2684              		.cfi_remember_state
 2685              		.cfi_def_cfa_offset 12
 2686              		@ sp needed
 2687 0030 BDE83040 		pop	{r4, r5, lr}
 2688              		.cfi_restore 14
 2689              		.cfi_restore 5
 2690              		.cfi_restore 4
 2691              		.cfi_def_cfa_offset 0
 2692              		.loc 1 919 0
 2693 0034 FFF7FEBF 		b	write_reg
 2694              	.LVL402:
 2695              	.L157:
 2696              		.cfi_restore_state
 2697              		.loc 1 920 0
 2698 0038 FFF7FEFF 		bl	__stack_chk_fail
 2699              	.LVL403:
 2700              	.L160:
 2701              		.align	2
 2702              	.L159:
 2703 003c 00000000 		.word	__stack_chk_guard
 2704              		.cfi_endproc
 2705              	.LFE268:
 2706              		.size	po6030_set_contrast, .-po6030_set_contrast
 2707              		.section	.text.po6030_set_mirror,"ax",%progbits
 2708              		.align	1
 2709              		.p2align 4,,15
 2710              		.global	po6030_set_mirror
 2711              		.syntax unified
 2712              		.thumb
 2713              		.thumb_func
 2714              		.fpu fpv4-sp-d16
 2715              		.type	po6030_set_mirror, %function
 2716              	po6030_set_mirror:
 2717              	.LFB269:
 2718              		.loc 1 922 0
 2719              		.cfi_startproc
 2720              		@ args = 0, pretend = 0, frame = 8
 2721              		@ frame_needed = 0, uses_anonymous_args = 0
 2722              	.LVL404:
 2723 0000 70B5     		push	{r4, r5, r6, lr}
 2724              		.cfi_def_cfa_offset 16
 2725              		.cfi_offset 4, -16
 2726              		.cfi_offset 5, -12
 2727              		.cfi_offset 6, -8
 2728              		.cfi_offset 14, -4
 2729 0002 134C     		ldr	r4, .L170
 2730 0004 82B0     		sub	sp, sp, #8
 2731              		.cfi_def_cfa_offset 24
 2732              		.loc 1 922 0
 2733 0006 0646     		mov	r6, r0
 2734 0008 0D46     		mov	r5, r1
 2735 000a 2368     		ldr	r3, [r4]
 2736 000c 0193     		str	r3, [sp, #4]
ARM GAS  /tmp/cc5QaxCL.s 			page 49


 2737              	.LVL405:
 2738              	.LBB140:
 2739              	.LBB141:
 2740              		.loc 1 130 0
 2741 000e 0022     		movs	r2, #0
 2742 0010 0321     		movs	r1, #3
 2743              	.LVL406:
 2744 0012 6E20     		movs	r0, #110
 2745              	.LVL407:
 2746 0014 FFF7FEFF 		bl	write_reg
 2747              	.LVL408:
 2748              	.LBE141:
 2749              	.LBE140:
 2750              		.loc 1 926 0
 2751 0018 90B9     		cbnz	r0, .L162
 2752              		.loc 1 930 0
 2753 001a 012E     		cmp	r6, #1
 2754              		.loc 1 937 0
 2755 001c 0199     		ldr	r1, [sp, #4]
 2756 001e 2368     		ldr	r3, [r4]
 2757              		.loc 1 931 0
 2758 0020 0CBF     		ite	eq
 2759 0022 B522     		moveq	r2, #181
 2760 0024 3522     		movne	r2, #53
 2761              	.LVL409:
 2762              		.loc 1 933 0
 2763 0026 012D     		cmp	r5, #1
 2764              		.loc 1 934 0
 2765 0028 08BF     		it	eq
 2766 002a 42F04002 		orreq	r2, r2, #64
 2767              	.LVL410:
 2768              		.loc 1 937 0
 2769 002e 9942     		cmp	r1, r3
 2770 0030 0CD1     		bne	.L169
 2771 0032 9021     		movs	r1, #144
 2772 0034 6E20     		movs	r0, #110
 2773              		.loc 1 938 0
 2774 0036 02B0     		add	sp, sp, #8
 2775              		.cfi_remember_state
 2776              		.cfi_def_cfa_offset 16
 2777              		@ sp needed
 2778 0038 BDE87040 		pop	{r4, r5, r6, lr}
 2779              		.cfi_restore 14
 2780              		.cfi_restore 6
 2781              		.cfi_restore 5
 2782              		.cfi_restore 4
 2783              		.cfi_def_cfa_offset 0
 2784              		.loc 1 937 0
 2785 003c FFF7FEBF 		b	write_reg
 2786              	.LVL411:
 2787              	.L162:
 2788              		.cfi_restore_state
 2789              		.loc 1 938 0
 2790 0040 019A     		ldr	r2, [sp, #4]
 2791 0042 2368     		ldr	r3, [r4]
 2792 0044 9A42     		cmp	r2, r3
 2793 0046 01D1     		bne	.L169
ARM GAS  /tmp/cc5QaxCL.s 			page 50


 2794 0048 02B0     		add	sp, sp, #8
 2795              		.cfi_remember_state
 2796              		.cfi_def_cfa_offset 16
 2797              		@ sp needed
 2798 004a 70BD     		pop	{r4, r5, r6, pc}
 2799              	.LVL412:
 2800              	.L169:
 2801              		.cfi_restore_state
 2802 004c FFF7FEFF 		bl	__stack_chk_fail
 2803              	.LVL413:
 2804              	.L171:
 2805              		.align	2
 2806              	.L170:
 2807 0050 00000000 		.word	__stack_chk_guard
 2808              		.cfi_endproc
 2809              	.LFE269:
 2810              		.size	po6030_set_mirror, .-po6030_set_mirror
 2811              		.section	.text.po6030_set_awb,"ax",%progbits
 2812              		.align	1
 2813              		.p2align 4,,15
 2814              		.global	po6030_set_awb
 2815              		.syntax unified
 2816              		.thumb
 2817              		.thumb_func
 2818              		.fpu fpv4-sp-d16
 2819              		.type	po6030_set_awb, %function
 2820              	po6030_set_awb:
 2821              	.LFB270:
 2822              		.loc 1 940 0
 2823              		.cfi_startproc
 2824              		@ args = 0, pretend = 0, frame = 8
 2825              		@ frame_needed = 0, uses_anonymous_args = 0
 2826              	.LVL414:
 2827 0000 30B5     		push	{r4, r5, lr}
 2828              		.cfi_def_cfa_offset 12
 2829              		.cfi_offset 4, -12
 2830              		.cfi_offset 5, -8
 2831              		.cfi_offset 14, -4
 2832 0002 164C     		ldr	r4, .L180
 2833 0004 83B0     		sub	sp, sp, #12
 2834              		.cfi_def_cfa_offset 24
 2835              		.loc 1 940 0
 2836 0006 2368     		ldr	r3, [r4]
 2837 0008 0193     		str	r3, [sp, #4]
 2838              	.LVL415:
 2839 000a 0546     		mov	r5, r0
 2840              		.loc 1 942 0
 2841 000c 0023     		movs	r3, #0
 2842              	.LBB142:
 2843              	.LBB143:
 2844              		.loc 1 130 0
 2845 000e 0222     		movs	r2, #2
 2846 0010 0321     		movs	r1, #3
 2847 0012 6E20     		movs	r0, #110
 2848              	.LVL416:
 2849              	.LBE143:
 2850              	.LBE142:
ARM GAS  /tmp/cc5QaxCL.s 			page 51


 2851              		.loc 1 942 0
 2852 0014 8DF80330 		strb	r3, [sp, #3]
 2853              	.LVL417:
 2854              	.LBB145:
 2855              	.LBB144:
 2856              		.loc 1 130 0
 2857 0018 FFF7FEFF 		bl	write_reg
 2858              	.LVL418:
 2859              	.LBE144:
 2860              	.LBE145:
 2861              		.loc 1 944 0
 2862 001c 28B1     		cbz	r0, .L178
 2863              	.L173:
 2864              		.loc 1 959 0
 2865 001e 019A     		ldr	r2, [sp, #4]
 2866 0020 2368     		ldr	r3, [r4]
 2867 0022 9A42     		cmp	r2, r3
 2868 0024 18D1     		bne	.L179
 2869 0026 03B0     		add	sp, sp, #12
 2870              		.cfi_remember_state
 2871              		.cfi_def_cfa_offset 12
 2872              		@ sp needed
 2873 0028 30BD     		pop	{r4, r5, pc}
 2874              	.L178:
 2875              		.cfi_restore_state
 2876              		.loc 1 948 0
 2877 002a 0DF10302 		add	r2, sp, #3
 2878 002e 0421     		movs	r1, #4
 2879 0030 6E20     		movs	r0, #110
 2880 0032 FFF7FEFF 		bl	read_reg
 2881              	.LVL419:
 2882 0036 0028     		cmp	r0, #0
 2883 0038 F1D1     		bne	.L173
 2884 003a 9DF80320 		ldrb	r2, [sp, #3]	@ zero_extendqisi2
 2885              		.loc 1 952 0
 2886 003e 012D     		cmp	r5, #1
 2887              		.loc 1 953 0
 2888 0040 0CBF     		ite	eq
 2889 0042 02F0FB02 		andeq	r2, r2, #251
 2890              		.loc 1 955 0
 2891 0046 42F00402 		orrne	r2, r2, #4
 2892              		.loc 1 958 0
 2893 004a 0421     		movs	r1, #4
 2894 004c 6E20     		movs	r0, #110
 2895              	.LVL420:
 2896              		.loc 1 955 0
 2897 004e 8DF80320 		strb	r2, [sp, #3]
 2898              		.loc 1 958 0
 2899 0052 FFF7FEFF 		bl	write_reg
 2900              	.LVL421:
 2901 0056 E2E7     		b	.L173
 2902              	.L179:
 2903              		.loc 1 959 0
 2904 0058 FFF7FEFF 		bl	__stack_chk_fail
 2905              	.LVL422:
 2906              	.L181:
 2907              		.align	2
ARM GAS  /tmp/cc5QaxCL.s 			page 52


 2908              	.L180:
 2909 005c 00000000 		.word	__stack_chk_guard
 2910              		.cfi_endproc
 2911              	.LFE270:
 2912              		.size	po6030_set_awb, .-po6030_set_awb
 2913              		.section	.text.po6030_set_rgb_gain,"ax",%progbits
 2914              		.align	1
 2915              		.p2align 4,,15
 2916              		.global	po6030_set_rgb_gain
 2917              		.syntax unified
 2918              		.thumb
 2919              		.thumb_func
 2920              		.fpu fpv4-sp-d16
 2921              		.type	po6030_set_rgb_gain, %function
 2922              	po6030_set_rgb_gain:
 2923              	.LFB271:
 2924              		.loc 1 961 0
 2925              		.cfi_startproc
 2926              		@ args = 0, pretend = 0, frame = 8
 2927              		@ frame_needed = 0, uses_anonymous_args = 0
 2928              	.LVL423:
 2929 0000 F0B5     		push	{r4, r5, r6, r7, lr}
 2930              		.cfi_def_cfa_offset 20
 2931              		.cfi_offset 4, -20
 2932              		.cfi_offset 5, -16
 2933              		.cfi_offset 6, -12
 2934              		.cfi_offset 7, -8
 2935              		.cfi_offset 14, -4
 2936 0002 1A4C     		ldr	r4, .L189
 2937 0004 83B0     		sub	sp, sp, #12
 2938              		.cfi_def_cfa_offset 32
 2939              		.loc 1 961 0
 2940 0006 0546     		mov	r5, r0
 2941 0008 2368     		ldr	r3, [r4]
 2942 000a 0193     		str	r3, [sp, #4]
 2943              	.LVL424:
 2944              		.loc 1 964 0
 2945 000c 0020     		movs	r0, #0
 2946              	.LVL425:
 2947              		.loc 1 961 0
 2948 000e 0E46     		mov	r6, r1
 2949 0010 1746     		mov	r7, r2
 2950              		.loc 1 964 0
 2951 0012 FFF7FEFF 		bl	po6030_set_awb
 2952              	.LVL426:
 2953 0016 28B1     		cbz	r0, .L188
 2954              	.LVL427:
 2955              	.L183:
 2956              		.loc 1 983 0
 2957 0018 019A     		ldr	r2, [sp, #4]
 2958 001a 2368     		ldr	r3, [r4]
 2959 001c 9A42     		cmp	r2, r3
 2960 001e 22D1     		bne	.L187
 2961 0020 03B0     		add	sp, sp, #12
 2962              		.cfi_remember_state
 2963              		.cfi_def_cfa_offset 20
 2964              		@ sp needed
ARM GAS  /tmp/cc5QaxCL.s 			page 53


 2965 0022 F0BD     		pop	{r4, r5, r6, r7, pc}
 2966              	.LVL428:
 2967              	.L188:
 2968              		.cfi_restore_state
 2969              	.LBB146:
 2970              	.LBB147:
 2971              		.loc 1 130 0
 2972 0024 0222     		movs	r2, #2
 2973 0026 0321     		movs	r1, #3
 2974 0028 6E20     		movs	r0, #110
 2975              	.LVL429:
 2976 002a FFF7FEFF 		bl	write_reg
 2977              	.LVL430:
 2978              	.LBE147:
 2979              	.LBE146:
 2980              		.loc 1 968 0
 2981 002e 0028     		cmp	r0, #0
 2982 0030 F2D1     		bne	.L183
 2983              		.loc 1 972 0
 2984 0032 2A46     		mov	r2, r5
 2985 0034 A421     		movs	r1, #164
 2986 0036 6E20     		movs	r0, #110
 2987 0038 FFF7FEFF 		bl	write_reg
 2988              	.LVL431:
 2989 003c 0028     		cmp	r0, #0
 2990 003e EBD1     		bne	.L183
 2991              		.loc 1 975 0
 2992 0040 3246     		mov	r2, r6
 2993 0042 A521     		movs	r1, #165
 2994 0044 6E20     		movs	r0, #110
 2995              	.LVL432:
 2996 0046 FFF7FEFF 		bl	write_reg
 2997              	.LVL433:
 2998 004a 0028     		cmp	r0, #0
 2999 004c E4D1     		bne	.L183
 3000              		.loc 1 978 0
 3001 004e 019A     		ldr	r2, [sp, #4]
 3002 0050 2368     		ldr	r3, [r4]
 3003 0052 9A42     		cmp	r2, r3
 3004 0054 07D1     		bne	.L187
 3005 0056 3A46     		mov	r2, r7
 3006 0058 A621     		movs	r1, #166
 3007 005a 6E20     		movs	r0, #110
 3008              	.LVL434:
 3009              		.loc 1 983 0
 3010 005c 03B0     		add	sp, sp, #12
 3011              		.cfi_remember_state
 3012              		.cfi_def_cfa_offset 20
 3013              		@ sp needed
 3014 005e BDE8F040 		pop	{r4, r5, r6, r7, lr}
 3015              		.cfi_restore 14
 3016              		.cfi_restore 7
 3017              		.cfi_restore 6
 3018              		.cfi_restore 5
 3019              		.cfi_restore 4
 3020              		.cfi_def_cfa_offset 0
 3021              		.loc 1 978 0
ARM GAS  /tmp/cc5QaxCL.s 			page 54


 3022 0062 FFF7FEBF 		b	write_reg
 3023              	.LVL435:
 3024              	.L187:
 3025              		.cfi_restore_state
 3026              		.loc 1 983 0
 3027 0066 FFF7FEFF 		bl	__stack_chk_fail
 3028              	.LVL436:
 3029              	.L190:
 3030 006a 00BF     		.align	2
 3031              	.L189:
 3032 006c 00000000 		.word	__stack_chk_guard
 3033              		.cfi_endproc
 3034              	.LFE271:
 3035              		.size	po6030_set_rgb_gain, .-po6030_set_rgb_gain
 3036              		.section	.text.po6030_set_ae,"ax",%progbits
 3037              		.align	1
 3038              		.p2align 4,,15
 3039              		.global	po6030_set_ae
 3040              		.syntax unified
 3041              		.thumb
 3042              		.thumb_func
 3043              		.fpu fpv4-sp-d16
 3044              		.type	po6030_set_ae, %function
 3045              	po6030_set_ae:
 3046              	.LFB272:
 3047              		.loc 1 985 0
 3048              		.cfi_startproc
 3049              		@ args = 0, pretend = 0, frame = 8
 3050              		@ frame_needed = 0, uses_anonymous_args = 0
 3051              	.LVL437:
 3052 0000 30B5     		push	{r4, r5, lr}
 3053              		.cfi_def_cfa_offset 12
 3054              		.cfi_offset 4, -12
 3055              		.cfi_offset 5, -8
 3056              		.cfi_offset 14, -4
 3057 0002 164C     		ldr	r4, .L199
 3058 0004 83B0     		sub	sp, sp, #12
 3059              		.cfi_def_cfa_offset 24
 3060              		.loc 1 985 0
 3061 0006 2368     		ldr	r3, [r4]
 3062 0008 0193     		str	r3, [sp, #4]
 3063              	.LVL438:
 3064 000a 0546     		mov	r5, r0
 3065              		.loc 1 987 0
 3066 000c 0023     		movs	r3, #0
 3067              	.LBB148:
 3068              	.LBB149:
 3069              		.loc 1 130 0
 3070 000e 0222     		movs	r2, #2
 3071 0010 0321     		movs	r1, #3
 3072 0012 6E20     		movs	r0, #110
 3073              	.LVL439:
 3074              	.LBE149:
 3075              	.LBE148:
 3076              		.loc 1 987 0
 3077 0014 8DF80330 		strb	r3, [sp, #3]
 3078              	.LVL440:
ARM GAS  /tmp/cc5QaxCL.s 			page 55


 3079              	.LBB151:
 3080              	.LBB150:
 3081              		.loc 1 130 0
 3082 0018 FFF7FEFF 		bl	write_reg
 3083              	.LVL441:
 3084              	.LBE150:
 3085              	.LBE151:
 3086              		.loc 1 989 0
 3087 001c 28B1     		cbz	r0, .L197
 3088              	.L192:
 3089              		.loc 1 1004 0
 3090 001e 019A     		ldr	r2, [sp, #4]
 3091 0020 2368     		ldr	r3, [r4]
 3092 0022 9A42     		cmp	r2, r3
 3093 0024 18D1     		bne	.L198
 3094 0026 03B0     		add	sp, sp, #12
 3095              		.cfi_remember_state
 3096              		.cfi_def_cfa_offset 12
 3097              		@ sp needed
 3098 0028 30BD     		pop	{r4, r5, pc}
 3099              	.L197:
 3100              		.cfi_restore_state
 3101              		.loc 1 993 0
 3102 002a 0DF10302 		add	r2, sp, #3
 3103 002e 0421     		movs	r1, #4
 3104 0030 6E20     		movs	r0, #110
 3105 0032 FFF7FEFF 		bl	read_reg
 3106              	.LVL442:
 3107 0036 0028     		cmp	r0, #0
 3108 0038 F1D1     		bne	.L192
 3109 003a 9DF80320 		ldrb	r2, [sp, #3]	@ zero_extendqisi2
 3110              		.loc 1 997 0
 3111 003e 012D     		cmp	r5, #1
 3112              		.loc 1 998 0
 3113 0040 0CBF     		ite	eq
 3114 0042 02F0FC02 		andeq	r2, r2, #252
 3115              		.loc 1 1000 0
 3116 0046 42F00302 		orrne	r2, r2, #3
 3117              		.loc 1 1003 0
 3118 004a 0421     		movs	r1, #4
 3119 004c 6E20     		movs	r0, #110
 3120              	.LVL443:
 3121              		.loc 1 1000 0
 3122 004e 8DF80320 		strb	r2, [sp, #3]
 3123              		.loc 1 1003 0
 3124 0052 FFF7FEFF 		bl	write_reg
 3125              	.LVL444:
 3126 0056 E2E7     		b	.L192
 3127              	.L198:
 3128              		.loc 1 1004 0
 3129 0058 FFF7FEFF 		bl	__stack_chk_fail
 3130              	.LVL445:
 3131              	.L200:
 3132              		.align	2
 3133              	.L199:
 3134 005c 00000000 		.word	__stack_chk_guard
 3135              		.cfi_endproc
ARM GAS  /tmp/cc5QaxCL.s 			page 56


 3136              	.LFE272:
 3137              		.size	po6030_set_ae, .-po6030_set_ae
 3138              		.section	.text.po6030_set_exposure,"ax",%progbits
 3139              		.align	1
 3140              		.p2align 4,,15
 3141              		.global	po6030_set_exposure
 3142              		.syntax unified
 3143              		.thumb
 3144              		.thumb_func
 3145              		.fpu fpv4-sp-d16
 3146              		.type	po6030_set_exposure, %function
 3147              	po6030_set_exposure:
 3148              	.LFB273:
 3149              		.loc 1 1006 0
 3150              		.cfi_startproc
 3151              		@ args = 0, pretend = 0, frame = 8
 3152              		@ frame_needed = 0, uses_anonymous_args = 0
 3153              	.LVL446:
 3154 0000 70B5     		push	{r4, r5, r6, lr}
 3155              		.cfi_def_cfa_offset 16
 3156              		.cfi_offset 4, -16
 3157              		.cfi_offset 5, -12
 3158              		.cfi_offset 6, -8
 3159              		.cfi_offset 14, -4
 3160 0002 1D4C     		ldr	r4, .L208
 3161 0004 82B0     		sub	sp, sp, #8
 3162              		.cfi_def_cfa_offset 24
 3163              		.loc 1 1006 0
 3164 0006 0546     		mov	r5, r0
 3165 0008 2368     		ldr	r3, [r4]
 3166 000a 0193     		str	r3, [sp, #4]
 3167              	.LVL447:
 3168              		.loc 1 1009 0
 3169 000c 0020     		movs	r0, #0
 3170              	.LVL448:
 3171              		.loc 1 1006 0
 3172 000e 0E46     		mov	r6, r1
 3173              		.loc 1 1009 0
 3174 0010 FFF7FEFF 		bl	po6030_set_ae
 3175              	.LVL449:
 3176 0014 28B1     		cbz	r0, .L207
 3177              	.LVL450:
 3178              	.L202:
 3179              		.loc 1 1044 0
 3180 0016 019A     		ldr	r2, [sp, #4]
 3181 0018 2368     		ldr	r3, [r4]
 3182 001a 9A42     		cmp	r2, r3
 3183 001c 29D1     		bne	.L206
 3184 001e 02B0     		add	sp, sp, #8
 3185              		.cfi_remember_state
 3186              		.cfi_def_cfa_offset 16
 3187              		@ sp needed
 3188 0020 70BD     		pop	{r4, r5, r6, pc}
 3189              	.LVL451:
 3190              	.L207:
 3191              		.cfi_restore_state
 3192              	.LBB152:
ARM GAS  /tmp/cc5QaxCL.s 			page 57


 3193              	.LBB153:
 3194              		.loc 1 130 0
 3195 0022 0222     		movs	r2, #2
 3196 0024 0321     		movs	r1, #3
 3197 0026 6E20     		movs	r0, #110
 3198              	.LVL452:
 3199 0028 FFF7FEFF 		bl	write_reg
 3200              	.LVL453:
 3201              	.LBE153:
 3202              	.LBE152:
 3203              		.loc 1 1013 0
 3204 002c 0028     		cmp	r0, #0
 3205 002e F2D1     		bne	.L202
 3206              		.loc 1 1017 0
 3207 0030 2722     		movs	r2, #39
 3208 0032 5021     		movs	r1, #80
 3209 0034 6E20     		movs	r0, #110
 3210 0036 FFF7FEFF 		bl	write_reg
 3211              	.LVL454:
 3212 003a 0028     		cmp	r0, #0
 3213 003c EBD1     		bne	.L202
 3214              		.loc 1 1020 0
 3215 003e 2A0A     		lsrs	r2, r5, #8
 3216 0040 4C21     		movs	r1, #76
 3217 0042 6E20     		movs	r0, #110
 3218              	.LVL455:
 3219 0044 FFF7FEFF 		bl	write_reg
 3220              	.LVL456:
 3221 0048 0028     		cmp	r0, #0
 3222 004a E4D1     		bne	.L202
 3223              		.loc 1 1023 0
 3224 004c EAB2     		uxtb	r2, r5
 3225 004e 4D21     		movs	r1, #77
 3226 0050 6E20     		movs	r0, #110
 3227              	.LVL457:
 3228 0052 FFF7FEFF 		bl	write_reg
 3229              	.LVL458:
 3230 0056 0028     		cmp	r0, #0
 3231 0058 DDD1     		bne	.L202
 3232              		.loc 1 1026 0
 3233 005a 019A     		ldr	r2, [sp, #4]
 3234 005c 2368     		ldr	r3, [r4]
 3235 005e 9A42     		cmp	r2, r3
 3236 0060 07D1     		bne	.L206
 3237 0062 3246     		mov	r2, r6
 3238 0064 4E21     		movs	r1, #78
 3239 0066 6E20     		movs	r0, #110
 3240              	.LVL459:
 3241              		.loc 1 1044 0
 3242 0068 02B0     		add	sp, sp, #8
 3243              		.cfi_remember_state
 3244              		.cfi_def_cfa_offset 16
 3245              		@ sp needed
 3246 006a BDE87040 		pop	{r4, r5, r6, lr}
 3247              		.cfi_restore 14
 3248              		.cfi_restore 6
 3249              		.cfi_restore 5
ARM GAS  /tmp/cc5QaxCL.s 			page 58


 3250              		.cfi_restore 4
 3251              		.cfi_def_cfa_offset 0
 3252              		.loc 1 1026 0
 3253 006e FFF7FEBF 		b	write_reg
 3254              	.LVL460:
 3255              	.L206:
 3256              		.cfi_restore_state
 3257              		.loc 1 1044 0
 3258 0072 FFF7FEFF 		bl	__stack_chk_fail
 3259              	.LVL461:
 3260              	.L209:
 3261 0076 00BF     		.align	2
 3262              	.L208:
 3263 0078 00000000 		.word	__stack_chk_guard
 3264              		.cfi_endproc
 3265              	.LFE273:
 3266              		.size	po6030_set_exposure, .-po6030_set_exposure
 3267              		.section	.text.po6030_get_image_size,"ax",%progbits
 3268              		.align	1
 3269              		.p2align 4,,15
 3270              		.global	po6030_get_image_size
 3271              		.syntax unified
 3272              		.thumb
 3273              		.thumb_func
 3274              		.fpu fpv4-sp-d16
 3275              		.type	po6030_get_image_size, %function
 3276              	po6030_get_image_size:
 3277              	.LFB274:
 3278              		.loc 1 1046 0
 3279              		.cfi_startproc
 3280              		@ args = 0, pretend = 0, frame = 8
 3281              		@ frame_needed = 0, uses_anonymous_args = 0
 3282 0000 10B5     		push	{r4, lr}
 3283              		.cfi_def_cfa_offset 8
 3284              		.cfi_offset 4, -8
 3285              		.cfi_offset 14, -4
 3286 0002 0A4B     		ldr	r3, .L218
 3287 0004 0A4A     		ldr	r2, .L218+4
 3288 0006 1988     		ldrh	r1, [r3]
 3289 0008 1468     		ldr	r4, [r2]
 3290 000a 5888     		ldrh	r0, [r3, #2]
 3291              		.loc 1 1047 0
 3292 000c 1B79     		ldrb	r3, [r3, #4]	@ zero_extendqisi2
 3293              		.loc 1 1046 0
 3294 000e 82B0     		sub	sp, sp, #8
 3295              		.cfi_def_cfa_offset 16
 3296              		.loc 1 1047 0
 3297 0010 0D2B     		cmp	r3, #13
 3298              		.loc 1 1046 0
 3299 0012 0194     		str	r4, [sp, #4]
 3300 0014 00FB01F0 		mul	r0, r0, r1
 3301              		.loc 1 1052 0
 3302 0018 0199     		ldr	r1, [sp, #4]
 3303 001a 1368     		ldr	r3, [r2]
 3304              		.loc 1 1050 0
 3305 001c 18BF     		it	ne
 3306 001e 4000     		lslne	r0, r0, #1
ARM GAS  /tmp/cc5QaxCL.s 			page 59


 3307              		.loc 1 1052 0
 3308 0020 9942     		cmp	r1, r3
 3309 0022 01D1     		bne	.L217
 3310 0024 02B0     		add	sp, sp, #8
 3311              		.cfi_remember_state
 3312              		.cfi_def_cfa_offset 8
 3313              		@ sp needed
 3314 0026 10BD     		pop	{r4, pc}
 3315              	.L217:
 3316              		.cfi_restore_state
 3317 0028 FFF7FEFF 		bl	__stack_chk_fail
 3318              	.LVL462:
 3319              	.L219:
 3320              		.align	2
 3321              	.L218:
 3322 002c 00000000 		.word	.LANCHOR0
 3323 0030 00000000 		.word	__stack_chk_guard
 3324              		.cfi_endproc
 3325              	.LFE274:
 3326              		.size	po6030_get_image_size, .-po6030_get_image_size
 3327              		.section	.text.po6030_is_connected,"ax",%progbits
 3328              		.align	1
 3329              		.p2align 4,,15
 3330              		.global	po6030_is_connected
 3331              		.syntax unified
 3332              		.thumb
 3333              		.thumb_func
 3334              		.fpu fpv4-sp-d16
 3335              		.type	po6030_is_connected, %function
 3336              	po6030_is_connected:
 3337              	.LFB275:
 3338              		.loc 1 1054 0
 3339              		.cfi_startproc
 3340              		@ args = 0, pretend = 0, frame = 8
 3341              		@ frame_needed = 0, uses_anonymous_args = 0
 3342 0000 30B5     		push	{r4, r5, lr}
 3343              		.cfi_def_cfa_offset 12
 3344              		.cfi_offset 4, -12
 3345              		.cfi_offset 5, -8
 3346              		.cfi_offset 14, -4
 3347 0002 83B0     		sub	sp, sp, #12
 3348              		.cfi_def_cfa_offset 24
 3349              		.loc 1 1055 0
 3350 0004 02A8     		add	r0, sp, #8
 3351              		.loc 1 1054 0
 3352 0006 0D4D     		ldr	r5, .L226
 3353              		.loc 1 1055 0
 3354 0008 0024     		movs	r4, #0
 3355              		.loc 1 1054 0
 3356 000a 2B68     		ldr	r3, [r5]
 3357              		.loc 1 1055 0
 3358 000c 20F8064D 		strh	r4, [r0, #-6]!	@ movhi
 3359              		.loc 1 1054 0
 3360 0010 0193     		str	r3, [sp, #4]
 3361              		.loc 1 1056 0
 3362 0012 FFF7FEFF 		bl	po6030_read_id
 3363              	.LVL463:
ARM GAS  /tmp/cc5QaxCL.s 			page 60


 3364              		.loc 1 1057 0
 3365 0016 68B9     		cbnz	r0, .L223
 3366              		.loc 1 1057 0 is_stmt 0 discriminator 1
 3367 0018 BDF80200 		ldrh	r0, [sp, #2]
 3368              	.LVL464:
 3369 001c 46F23004 		movw	r4, #24624
 3370              		.loc 1 1058 0 is_stmt 1 discriminator 1
 3371 0020 001B     		subs	r0, r0, r4
 3372 0022 B0FA80F0 		clz	r0, r0
 3373 0026 4009     		lsrs	r0, r0, #5
 3374              	.L221:
 3375              		.loc 1 1062 0
 3376 0028 019A     		ldr	r2, [sp, #4]
 3377 002a 2B68     		ldr	r3, [r5]
 3378 002c 9A42     		cmp	r2, r3
 3379 002e 03D1     		bne	.L225
 3380 0030 03B0     		add	sp, sp, #12
 3381              		.cfi_remember_state
 3382              		.cfi_def_cfa_offset 12
 3383              		@ sp needed
 3384 0032 30BD     		pop	{r4, r5, pc}
 3385              	.LVL465:
 3386              	.L223:
 3387              		.cfi_restore_state
 3388              		.loc 1 1060 0
 3389 0034 2046     		mov	r0, r4
 3390              	.LVL466:
 3391 0036 F7E7     		b	.L221
 3392              	.L225:
 3393              		.loc 1 1062 0
 3394 0038 FFF7FEFF 		bl	__stack_chk_fail
 3395              	.LVL467:
 3396              	.L227:
 3397              		.align	2
 3398              	.L226:
 3399 003c 00000000 		.word	__stack_chk_guard
 3400              		.cfi_endproc
 3401              	.LFE275:
 3402              		.size	po6030_is_connected, .-po6030_is_connected
 3403              		.section	.bss.po6030_conf,"aw",%nobits
 3404              		.align	2
 3405              		.set	.LANCHOR0,. + 0
 3406              		.type	po6030_conf, %object
 3407              		.size	po6030_conf, 8
 3408              	po6030_conf:
 3409 0000 00000000 		.space	8
 3409      00000000 
 3410              		.text
 3411              	.Letext0:
 3412              		.file 2 "/home/leander/uos_codes/epuck2_lab/Eclipse_e-puck2/Tools/gcc-arm-none-eabi-7-2017-q4-majo
 3413              		.file 3 "/home/leander/uos_codes/epuck2_lab/Eclipse_e-puck2/Tools/gcc-arm-none-eabi-7-2017-q4-majo
 3414              		.file 4 "/home/leander/uos_codes/epuck2_lab/Eclipse_e-puck2/Tools/gcc-arm-none-eabi-7-2017-q4-majo
 3415              		.file 5 "../e-puck2_main-processor/ChibiOS//os/rt/ports/ARMCMx/compilers/GCC/chtypes.h"
 3416              		.file 6 "../e-puck2_main-processor/ChibiOS//os/rt/include/chsystypes.h"
 3417              		.file 7 "../e-puck2_main-processor/ChibiOS//os/rt/include/chschd.h"
 3418              		.file 8 "../e-puck2_main-processor/ChibiOS//os/ext/CMSIS/include/core_cm4.h"
 3419              		.file 9 "../e-puck2_main-processor/ChibiOS//os/ext/CMSIS/ST/system_stm32f4xx.h"
ARM GAS  /tmp/cc5QaxCL.s 			page 61


 3420              		.file 10 "../e-puck2_main-processor/ChibiOS//os/ext/CMSIS/ST/stm32f407xx.h"
 3421              		.file 11 "../e-puck2_main-processor/ChibiOS//os/rt/ports/ARMCMx/chcore.h"
 3422              		.file 12 "../e-puck2_main-processor/ChibiOS//os/rt/ports/ARMCMx/chcore_v7m.h"
 3423              		.file 13 "../e-puck2_main-processor/ChibiOS//os/rt/include/chdebug.h"
 3424              		.file 14 "../e-puck2_main-processor/ChibiOS//os/rt/include/chtm.h"
 3425              		.file 15 "../e-puck2_main-processor/ChibiOS//os/rt/include/chstats.h"
 3426              		.file 16 "../e-puck2_main-processor/ChibiOS//os/rt/include/chsem.h"
 3427              		.file 17 "../e-puck2_main-processor/ChibiOS//os/rt/include/chmtx.h"
 3428              		.file 18 "../e-puck2_main-processor/ChibiOS//os/rt/include/chregistry.h"
 3429              		.file 19 "../e-puck2_main-processor/ChibiOS//os/rt/include/chevents.h"
 3430              		.file 20 "../e-puck2_main-processor/ChibiOS//os/rt/include/chqueues.h"
 3431              		.file 21 "../e-puck2_main-processor/ChibiOS//os/hal/ports/STM32/STM32F4xx/stm32_dma.h"
 3432              		.file 22 "../e-puck2_main-processor/ChibiOS//os/hal/include/hal_ioblock.h"
 3433              		.file 23 "../e-puck2_main-processor/ChibiOS//os/hal/ports/STM32/LLD/GPIOv2/pal_lld.h"
 3434              		.file 24 "../e-puck2_main-processor/ChibiOS//os/hal/include/adc.h"
 3435              		.file 25 "../e-puck2_main-processor/ChibiOS//os/hal/ports/STM32/STM32F4xx/adc_lld.h"
 3436              		.file 26 "../e-puck2_main-processor/ChibiOS//os/hal/include/can.h"
 3437              		.file 27 "../e-puck2_main-processor/ChibiOS//os/hal/ports/STM32/LLD/can_lld.h"
 3438              		.file 28 "../e-puck2_main-processor/ChibiOS//os/hal/include/dac.h"
 3439              		.file 29 "../e-puck2_main-processor/ChibiOS//os/hal/ports/STM32/LLD/DACv1/dac_lld.h"
 3440              		.file 30 "../e-puck2_main-processor/ChibiOS//os/hal/include/ext.h"
 3441              		.file 31 "../e-puck2_main-processor/ChibiOS//os/hal/ports/STM32/LLD/ext_lld.h"
 3442              		.file 32 "../e-puck2_main-processor/ChibiOS//os/hal/include/gpt.h"
 3443              		.file 33 "../e-puck2_main-processor/ChibiOS//os/hal/ports/STM32/LLD/TIMv1/gpt_lld.h"
 3444              		.file 34 "../e-puck2_main-processor/ChibiOS//os/hal/ports/STM32/LLD/TIMv1/stm32_tim.h"
 3445              		.file 35 "../e-puck2_main-processor/ChibiOS//os/hal/include/i2c.h"
 3446              		.file 36 "../e-puck2_main-processor/ChibiOS//os/hal/ports/STM32/LLD/I2Cv1/i2c_lld.h"
 3447              		.file 37 "../e-puck2_main-processor/ChibiOS//os/hal/include/i2s.h"
 3448              		.file 38 "../e-puck2_main-processor/ChibiOS//os/hal/ports/STM32/LLD/SPIv1/i2s_lld.h"
 3449              		.file 39 "../e-puck2_main-processor/ChibiOS//os/hal/include/pwm.h"
 3450              		.file 40 "../e-puck2_main-processor/ChibiOS//os/hal/ports/STM32/LLD/TIMv1/pwm_lld.h"
 3451              		.file 41 "../e-puck2_main-processor/ChibiOS//os/hal/include/serial.h"
 3452              		.file 42 "../e-puck2_main-processor/ChibiOS//os/hal/ports/STM32/LLD/USARTv1/serial_lld.h"
 3453              		.file 43 "../e-puck2_main-processor/ChibiOS//os/hal/include/sdc.h"
 3454              		.file 44 "../e-puck2_main-processor/ChibiOS//os/hal/ports/STM32/LLD/sdc_lld.h"
 3455              		.file 45 "../e-puck2_main-processor/ChibiOS//os/hal/include/spi.h"
 3456              		.file 46 "../e-puck2_main-processor/ChibiOS//os/hal/ports/STM32/LLD/SPIv1/spi_lld.h"
 3457              		.file 47 "../e-puck2_main-processor/ChibiOS//os/hal/include/usb.h"
 3458              		.file 48 "../e-puck2_main-processor/ChibiOS//os/hal/ports/STM32/LLD/OTGv1/usb_lld.h"
 3459              		.file 49 "../e-puck2_main-processor/ChibiOS//os/hal/ports/STM32/LLD/OTGv1/stm32_otg.h"
 3460              		.file 50 "../e-puck2_main-processor/ChibiOS//os/hal/include/serial_usb.h"
 3461              		.file 51 "../e-puck2_main-processor/src/camera/camera.h"
 3462              		.file 52 "../e-puck2_main-processor/src/camera/po6030.h"
 3463              		.file 53 "../e-puck2_main-processor/src/usbcfg.h"
 3464              		.file 54 "../e-puck2_main-processor/src/camera/../i2c_bus.h"