ARM GAS  /tmp/cc5QaxCL.s 			page 1


   1              		.cpu cortex-m4
   2              		.eabi_attribute 27, 1
   3              		.eabi_attribute 28, 1
   4              		.eabi_attribute 20, 1
   5              		.eabi_attribute 21, 1
   6              		.eabi_attribute 23, 3
   7              		.eabi_attribute 24, 1
   8              		.eabi_attribute 25, 1
   9              		.eabi_attribute 26, 1
  10              		.eabi_attribute 30, 2
  11              		.eabi_attribute 34, 1
  12              		.eabi_attribute 18, 4
  13              		.file	"po6030.c"
  14              		.text
  15              	.Ltext0:
  16              		.cfi_sections	.debug_frame
  17              		.section	.text.po6030_read_id,"ax",%progbits
  18              		.align	1
  19              		.p2align 4,,15
  20              		.global	po6030_read_id
  21              		.syntax unified
  22              		.thumb
  23              		.thumb_func
  24              		.fpu fpv4-sp-d16
  25              		.type	po6030_read_id, %function
  26              	po6030_read_id:
  27              	.LFB257:
  28              		.file 1 "../e-puck2_main-processor/src/camera/po6030.c"
  29              		.loc 1 104 0
  30              		.cfi_startproc
  31              		@ args = 0, pretend = 0, frame = 8
  32              		@ frame_needed = 0, uses_anonymous_args = 0
  33              	.LVL0:
  34 0000 30B5     		push	{r4, r5, lr}
  35              		.cfi_def_cfa_offset 12
  36              		.cfi_offset 4, -12
  37              		.cfi_offset 5, -8
  38              		.cfi_offset 14, -4
  39 0002 83B0     		sub	sp, sp, #12
  40              		.cfi_def_cfa_offset 24
  41              		.loc 1 105 0
  42 0004 02AA     		add	r2, sp, #8
  43              		.loc 1 104 0
  44 0006 114C     		ldr	r4, .L8
  45              		.loc 1 105 0
  46 0008 0021     		movs	r1, #0
  47              		.loc 1 104 0
  48 000a 0546     		mov	r5, r0
  49 000c 2368     		ldr	r3, [r4]
  50              		.loc 1 105 0
  51 000e 22F8081D 		strh	r1, [r2, #-8]!	@ movhi
  52              	.LVL1:
  53              		.loc 1 108 0
  54 0012 6E20     		movs	r0, #110
  55              	.LVL2:
  56              		.loc 1 104 0
  57 0014 0193     		str	r3, [sp, #4]
ARM GAS  /tmp/cc5QaxCL.s 			page 2


  58              		.loc 1 108 0
  59 0016 FFF7FEFF 		bl	read_reg
  60              	.LVL3:
  61 001a 28B1     		cbz	r0, .L6
  62              	.L2:
  63              		.loc 1 117 0
  64 001c 019A     		ldr	r2, [sp, #4]
  65 001e 2368     		ldr	r3, [r4]
  66 0020 9A42     		cmp	r2, r3
  67 0022 11D1     		bne	.L7
  68 0024 03B0     		add	sp, sp, #12
  69              		.cfi_remember_state
  70              		.cfi_def_cfa_offset 12
  71              		@ sp needed
  72 0026 30BD     		pop	{r4, r5, pc}
  73              	.LVL4:
  74              	.L6:
  75              		.cfi_restore_state
  76              		.loc 1 111 0
  77 0028 0DF10102 		add	r2, sp, #1
  78 002c 0121     		movs	r1, #1
  79 002e 6E20     		movs	r0, #110
  80              	.LVL5:
  81 0030 FFF7FEFF 		bl	read_reg
  82              	.LVL6:
  83 0034 0028     		cmp	r0, #0
  84 0036 F1D1     		bne	.L2
  85              		.loc 1 114 0
  86 0038 9DF80020 		ldrb	r2, [sp]	@ zero_extendqisi2
  87 003c 9DF80130 		ldrb	r3, [sp, #1]	@ zero_extendqisi2
  88 0040 43EA0223 		orr	r3, r3, r2, lsl #8
  89 0044 2B80     		strh	r3, [r5]	@ movhi
  90              		.loc 1 116 0
  91 0046 E9E7     		b	.L2
  92              	.L7:
  93              		.loc 1 117 0
  94 0048 FFF7FEFF 		bl	__stack_chk_fail
  95              	.LVL7:
  96              	.L9:
  97              		.align	2
  98              	.L8:
  99 004c 00000000 		.word	__stack_chk_guard
 100              		.cfi_endproc
 101              	.LFE257:
 102              		.size	po6030_read_id, .-po6030_read_id
 103              		.section	.text.po6030_set_bank,"ax",%progbits
 104              		.align	1
 105              		.p2align 4,,15
 106              		.global	po6030_set_bank
 107              		.syntax unified
 108              		.thumb
 109              		.thumb_func
 110              		.fpu fpv4-sp-d16
 111              		.type	po6030_set_bank, %function
 112              	po6030_set_bank:
 113              	.LFB258:
 114              		.loc 1 129 0
ARM GAS  /tmp/cc5QaxCL.s 			page 3


 115              		.cfi_startproc
 116              		@ args = 0, pretend = 0, frame = 8
 117              		@ frame_needed = 0, uses_anonymous_args = 0
 118              	.LVL8:
 119 0000 00B5     		push	{lr}
 120              		.cfi_def_cfa_offset 4
 121              		.cfi_offset 14, -4
 122 0002 094B     		ldr	r3, .L15
 123 0004 83B0     		sub	sp, sp, #12
 124              		.cfi_def_cfa_offset 16
 125              		.loc 1 129 0
 126 0006 1A68     		ldr	r2, [r3]
 127 0008 0192     		str	r2, [sp, #4]
 128              		.loc 1 130 0
 129 000a 0199     		ldr	r1, [sp, #4]
 130 000c 1B68     		ldr	r3, [r3]
 131 000e 9942     		cmp	r1, r3
 132 0010 07D1     		bne	.L14
 133 0012 0246     		mov	r2, r0
 134 0014 0321     		movs	r1, #3
 135 0016 6E20     		movs	r0, #110
 136              	.LVL9:
 137              		.loc 1 131 0
 138 0018 03B0     		add	sp, sp, #12
 139              		.cfi_remember_state
 140              		.cfi_def_cfa_offset 4
 141              		@ sp needed
 142 001a 5DF804EB 		ldr	lr, [sp], #4
 143              		.cfi_restore 14
 144              		.cfi_def_cfa_offset 0
 145              		.loc 1 130 0
 146 001e FFF7FEBF 		b	write_reg
 147              	.LVL10:
 148              	.L14:
 149              		.cfi_restore_state
 150 0022 FFF7FEFF 		bl	__stack_chk_fail
 151              	.LVL11:
 152              	.L16:
 153 0026 00BF     		.align	2
 154              	.L15:
 155 0028 00000000 		.word	__stack_chk_guard
 156              		.cfi_endproc
 157              	.LFE258:
 158              		.size	po6030_set_bank, .-po6030_set_bank
 159              		.section	.text.po6030_set_format,"ax",%progbits
 160              		.align	1
 161              		.p2align 4,,15
 162              		.global	po6030_set_format
 163              		.syntax unified
 164              		.thumb
 165              		.thumb_func
 166              		.fpu fpv4-sp-d16
 167              		.type	po6030_set_format, %function
 168              	po6030_set_format:
 169              	.LFB259:
 170              		.loc 1 143 0
 171              		.cfi_startproc
ARM GAS  /tmp/cc5QaxCL.s 			page 4


 172              		@ args = 0, pretend = 0, frame = 8
 173              		@ frame_needed = 0, uses_anonymous_args = 0
 174              	.LVL12:
 175 0000 30B5     		push	{r4, r5, lr}
 176              		.cfi_def_cfa_offset 12
 177              		.cfi_offset 4, -12
 178              		.cfi_offset 5, -8
 179              		.cfi_offset 14, -4
 180 0002 0E4C     		ldr	r4, .L23
 181 0004 83B0     		sub	sp, sp, #12
 182              		.cfi_def_cfa_offset 24
 183              		.loc 1 143 0
 184 0006 0546     		mov	r5, r0
 185 0008 2368     		ldr	r3, [r4]
 186 000a 0193     		str	r3, [sp, #4]
 187              	.LVL13:
 188              	.LBB62:
 189              	.LBB63:
 190              		.loc 1 130 0
 191 000c 0122     		movs	r2, #1
 192 000e 0321     		movs	r1, #3
 193 0010 6E20     		movs	r0, #110
 194              	.LVL14:
 195 0012 FFF7FEFF 		bl	write_reg
 196              	.LVL15:
 197              	.LBE63:
 198              	.LBE62:
 199              		.loc 1 146 0
 200 0016 28B1     		cbz	r0, .L21
 201              	.L18:
 202              		.loc 1 157 0
 203 0018 019A     		ldr	r2, [sp, #4]
 204 001a 2368     		ldr	r3, [r4]
 205 001c 9A42     		cmp	r2, r3
 206 001e 0BD1     		bne	.L22
 207 0020 03B0     		add	sp, sp, #12
 208              		.cfi_remember_state
 209              		.cfi_def_cfa_offset 12
 210              		@ sp needed
 211 0022 30BD     		pop	{r4, r5, pc}
 212              	.L21:
 213              		.cfi_restore_state
 214              	.LVL16:
 215              	.LBB64:
 216              	.LBB65:
 217              		.loc 1 150 0
 218 0024 2A46     		mov	r2, r5
 219 0026 3821     		movs	r1, #56
 220 0028 6E20     		movs	r0, #110
 221 002a FFF7FEFF 		bl	write_reg
 222              	.LVL17:
 223 002e 0028     		cmp	r0, #0
 224 0030 F2D1     		bne	.L18
 225              		.loc 1 154 0
 226 0032 034B     		ldr	r3, .L23+4
 227 0034 1D71     		strb	r5, [r3, #4]
 228 0036 EFE7     		b	.L18
ARM GAS  /tmp/cc5QaxCL.s 			page 5


 229              	.LVL18:
 230              	.L22:
 231              	.LBE65:
 232              	.LBE64:
 233              		.loc 1 157 0
 234 0038 FFF7FEFF 		bl	__stack_chk_fail
 235              	.LVL19:
 236              	.L24:
 237              		.align	2
 238              	.L23:
 239 003c 00000000 		.word	__stack_chk_guard
 240 0040 00000000 		.word	.LANCHOR0
 241              		.cfi_endproc
 242              	.LFE259:
 243              		.size	po6030_set_format, .-po6030_set_format
 244              		.section	.text.po6030_set_vga,"ax",%progbits
 245              		.align	1
 246              		.p2align 4,,15
 247              		.global	po6030_set_vga
 248              		.syntax unified
 249              		.thumb
 250              		.thumb_func
 251              		.fpu fpv4-sp-d16
 252              		.type	po6030_set_vga, %function
 253              	po6030_set_vga:
 254              	.LFB260:
 255              		.loc 1 167 0
 256              		.cfi_startproc
 257              		@ args = 0, pretend = 0, frame = 8
 258              		@ frame_needed = 0, uses_anonymous_args = 0
 259 0000 30B5     		push	{r4, r5, lr}
 260              		.cfi_def_cfa_offset 12
 261              		.cfi_offset 4, -12
 262              		.cfi_offset 5, -8
 263              		.cfi_offset 14, -4
 264 0002 934C     		ldr	r4, .L36
 265 0004 83B0     		sub	sp, sp, #12
 266              		.cfi_def_cfa_offset 24
 267              		.loc 1 167 0
 268 0006 2368     		ldr	r3, [r4]
 269 0008 0193     		str	r3, [sp, #4]
 270              	.LVL20:
 271              	.LBB76:
 272              	.LBB77:
 273              		.loc 1 130 0
 274 000a 0122     		movs	r2, #1
 275 000c 0321     		movs	r1, #3
 276 000e 6E20     		movs	r0, #110
 277 0010 FFF7FEFF 		bl	write_reg
 278              	.LVL21:
 279              	.LBE77:
 280              	.LBE76:
 281              		.loc 1 170 0
 282 0014 30B1     		cbz	r0, .L33
 283              	.L26:
 284              		.loc 1 297 0
 285 0016 019A     		ldr	r2, [sp, #4]
ARM GAS  /tmp/cc5QaxCL.s 			page 6


 286 0018 2368     		ldr	r3, [r4]
 287 001a 9A42     		cmp	r2, r3
 288 001c 40F00D81 		bne	.L34
 289 0020 03B0     		add	sp, sp, #12
 290              		.cfi_remember_state
 291              		.cfi_def_cfa_offset 12
 292              		@ sp needed
 293 0022 30BD     		pop	{r4, r5, pc}
 294              	.L33:
 295              		.cfi_restore_state
 296              		.loc 1 174 0
 297 0024 0246     		mov	r2, r0
 298 0026 5021     		movs	r1, #80
 299 0028 6E20     		movs	r0, #110
 300 002a FFF7FEFF 		bl	write_reg
 301              	.LVL22:
 302 002e 0028     		cmp	r0, #0
 303 0030 F1D1     		bne	.L26
 304              		.loc 1 177 0
 305 0032 0722     		movs	r2, #7
 306 0034 5121     		movs	r1, #81
 307 0036 6E20     		movs	r0, #110
 308              	.LVL23:
 309 0038 FFF7FEFF 		bl	write_reg
 310              	.LVL24:
 311 003c 0028     		cmp	r0, #0
 312 003e EAD1     		bne	.L26
 313              		.loc 1 180 0
 314 0040 0246     		mov	r2, r0
 315 0042 5221     		movs	r1, #82
 316 0044 6E20     		movs	r0, #110
 317              	.LVL25:
 318 0046 FFF7FEFF 		bl	write_reg
 319              	.LVL26:
 320 004a 0028     		cmp	r0, #0
 321 004c E3D1     		bne	.L26
 322              		.loc 1 183 0
 323 004e 0722     		movs	r2, #7
 324 0050 5321     		movs	r1, #83
 325 0052 6E20     		movs	r0, #110
 326              	.LVL27:
 327 0054 FFF7FEFF 		bl	write_reg
 328              	.LVL28:
 329 0058 0028     		cmp	r0, #0
 330 005a DCD1     		bne	.L26
 331              	.LBB78:
 332              	.LBB79:
 333              		.loc 1 186 0
 334 005c 0222     		movs	r2, #2
 335 005e 5421     		movs	r1, #84
 336 0060 6E20     		movs	r0, #110
 337              	.LVL29:
 338 0062 FFF7FEFF 		bl	write_reg
 339              	.LVL30:
 340 0066 0028     		cmp	r0, #0
 341 0068 D5D1     		bne	.L26
 342              		.loc 1 189 0
ARM GAS  /tmp/cc5QaxCL.s 			page 7


 343 006a 8622     		movs	r2, #134
 344 006c 5521     		movs	r1, #85
 345 006e 6E20     		movs	r0, #110
 346              	.LVL31:
 347 0070 FFF7FEFF 		bl	write_reg
 348              	.LVL32:
 349 0074 0028     		cmp	r0, #0
 350 0076 CED1     		bne	.L26
 351              		.loc 1 192 0
 352 0078 0122     		movs	r2, #1
 353 007a 5621     		movs	r1, #86
 354 007c 6E20     		movs	r0, #110
 355              	.LVL33:
 356 007e FFF7FEFF 		bl	write_reg
 357              	.LVL34:
 358 0082 0028     		cmp	r0, #0
 359 0084 C7D1     		bne	.L26
 360              		.loc 1 195 0
 361 0086 E622     		movs	r2, #230
 362 0088 5721     		movs	r1, #87
 363 008a 6E20     		movs	r0, #110
 364              	.LVL35:
 365 008c FFF7FEFF 		bl	write_reg
 366              	.LVL36:
 367 0090 0028     		cmp	r0, #0
 368 0092 C0D1     		bne	.L26
 369              		.loc 1 199 0
 370 0094 2022     		movs	r2, #32
 371 0096 8021     		movs	r1, #128
 372 0098 6E20     		movs	r0, #110
 373              	.LVL37:
 374 009a FFF7FEFF 		bl	write_reg
 375              	.LVL38:
 376 009e 0028     		cmp	r0, #0
 377 00a0 B9D1     		bne	.L26
 378              		.loc 1 202 0
 379 00a2 2022     		movs	r2, #32
 380 00a4 8121     		movs	r1, #129
 381 00a6 6E20     		movs	r0, #110
 382              	.LVL39:
 383 00a8 FFF7FEFF 		bl	write_reg
 384              	.LVL40:
 385 00ac 0028     		cmp	r0, #0
 386 00ae B2D1     		bne	.L26
 387              		.loc 1 206 0
 388 00b0 0246     		mov	r2, r0
 389 00b2 6021     		movs	r1, #96
 390 00b4 6E20     		movs	r0, #110
 391              	.LVL41:
 392 00b6 FFF7FEFF 		bl	write_reg
 393              	.LVL42:
 394 00ba 0028     		cmp	r0, #0
 395 00bc ABD1     		bne	.L26
 396              		.loc 1 209 0
 397 00be 0C22     		movs	r2, #12
 398 00c0 6121     		movs	r1, #97
 399 00c2 6E20     		movs	r0, #110
ARM GAS  /tmp/cc5QaxCL.s 			page 8


 400              	.LVL43:
 401 00c4 FFF7FEFF 		bl	write_reg
 402              	.LVL44:
 403 00c8 0028     		cmp	r0, #0
 404 00ca A4D1     		bne	.L26
 405              		.loc 1 212 0
 406 00cc 0122     		movs	r2, #1
 407 00ce 6221     		movs	r1, #98
 408 00d0 6E20     		movs	r0, #110
 409              	.LVL45:
 410 00d2 FFF7FEFF 		bl	write_reg
 411              	.LVL46:
 412 00d6 0028     		cmp	r0, #0
 413 00d8 9DD1     		bne	.L26
 414              		.loc 1 215 0
 415 00da EC22     		movs	r2, #236
 416 00dc 6321     		movs	r1, #99
 417 00de 6E20     		movs	r0, #110
 418              	.LVL47:
 419 00e0 FFF7FEFF 		bl	write_reg
 420              	.LVL48:
 421 00e4 0028     		cmp	r0, #0
 422 00e6 96D1     		bne	.L26
 423              		.loc 1 219 0
 424 00e8 5A4D     		ldr	r5, .L36+4
 425 00ea 2B79     		ldrb	r3, [r5, #4]	@ zero_extendqisi2
 426 00ec 0D2B     		cmp	r3, #13
 427 00ee 00F0A680 		beq	.L35
 428              		.loc 1 224 0
 429 00f2 0246     		mov	r2, r0
 430 00f4 6821     		movs	r1, #104
 431 00f6 6E20     		movs	r0, #110
 432              	.LVL49:
 433 00f8 FFF7FEFF 		bl	write_reg
 434              	.LVL50:
 435 00fc 0028     		cmp	r0, #0
 436 00fe 8AD1     		bne	.L26
 437              	.L29:
 438              		.loc 1 229 0
 439 0100 0122     		movs	r2, #1
 440 0102 8221     		movs	r1, #130
 441 0104 6E20     		movs	r0, #110
 442              	.LVL51:
 443 0106 FFF7FEFF 		bl	write_reg
 444              	.LVL52:
 445 010a 0028     		cmp	r0, #0
 446 010c 83D1     		bne	.L26
 447              	.LVL53:
 448              	.LBB80:
 449              	.LBB81:
 450              		.loc 1 130 0
 451 010e 0222     		movs	r2, #2
 452 0110 0321     		movs	r1, #3
 453 0112 6E20     		movs	r0, #110
 454              	.LVL54:
 455 0114 FFF7FEFF 		bl	write_reg
 456              	.LVL55:
ARM GAS  /tmp/cc5QaxCL.s 			page 9


 457              	.LBE81:
 458              	.LBE80:
 459              		.loc 1 233 0
 460 0118 0028     		cmp	r0, #0
 461 011a 7FF47CAF 		bne	.L26
 462              		.loc 1 237 0
 463 011e 0246     		mov	r2, r0
 464 0120 1021     		movs	r1, #16
 465 0122 6E20     		movs	r0, #110
 466 0124 FFF7FEFF 		bl	write_reg
 467              	.LVL56:
 468 0128 0028     		cmp	r0, #0
 469 012a 7FF474AF 		bne	.L26
 470              		.loc 1 240 0
 471 012e 2522     		movs	r2, #37
 472 0130 1121     		movs	r1, #17
 473 0132 6E20     		movs	r0, #110
 474              	.LVL57:
 475 0134 FFF7FEFF 		bl	write_reg
 476              	.LVL58:
 477 0138 0028     		cmp	r0, #0
 478 013a 7FF46CAF 		bne	.L26
 479              		.loc 1 243 0
 480 013e 0246     		mov	r2, r0
 481 0140 1221     		movs	r1, #18
 482 0142 6E20     		movs	r0, #110
 483              	.LVL59:
 484 0144 FFF7FEFF 		bl	write_reg
 485              	.LVL60:
 486 0148 0028     		cmp	r0, #0
 487 014a 7FF464AF 		bne	.L26
 488              		.loc 1 246 0
 489 014e 1C22     		movs	r2, #28
 490 0150 1321     		movs	r1, #19
 491 0152 6E20     		movs	r0, #110
 492              	.LVL61:
 493 0154 FFF7FEFF 		bl	write_reg
 494              	.LVL62:
 495 0158 0028     		cmp	r0, #0
 496 015a 7FF45CAF 		bne	.L26
 497              		.loc 1 249 0
 498 015e 0222     		movs	r2, #2
 499 0160 1421     		movs	r1, #20
 500 0162 6E20     		movs	r0, #110
 501              	.LVL63:
 502 0164 FFF7FEFF 		bl	write_reg
 503              	.LVL64:
 504 0168 0028     		cmp	r0, #0
 505 016a 7FF454AF 		bne	.L26
 506              		.loc 1 252 0
 507 016e 6022     		movs	r2, #96
 508 0170 1521     		movs	r1, #21
 509 0172 6E20     		movs	r0, #110
 510              	.LVL65:
 511 0174 FFF7FEFF 		bl	write_reg
 512              	.LVL66:
 513 0178 0028     		cmp	r0, #0
ARM GAS  /tmp/cc5QaxCL.s 			page 10


 514 017a 7FF44CAF 		bne	.L26
 515              		.loc 1 255 0
 516 017e 0122     		movs	r2, #1
 517 0180 1621     		movs	r1, #22
 518 0182 6E20     		movs	r0, #110
 519              	.LVL67:
 520 0184 FFF7FEFF 		bl	write_reg
 521              	.LVL68:
 522 0188 0028     		cmp	r0, #0
 523 018a 7FF444AF 		bne	.L26
 524              		.loc 1 258 0
 525 018e BE22     		movs	r2, #190
 526 0190 1721     		movs	r1, #23
 527 0192 6E20     		movs	r0, #110
 528              	.LVL69:
 529 0194 FFF7FEFF 		bl	write_reg
 530              	.LVL70:
 531 0198 0028     		cmp	r0, #0
 532 019a 7FF43CAF 		bne	.L26
 533              		.loc 1 262 0
 534 019e 0022     		movs	r2, #0
 535 01a0 1821     		movs	r1, #24
 536 01a2 6E20     		movs	r0, #110
 537              	.LVL71:
 538 01a4 FFF7FEFF 		bl	write_reg
 539              	.LVL72:
 540 01a8 0028     		cmp	r0, #0
 541 01aa 7FF434AF 		bne	.L26
 542              		.loc 1 265 0
 543 01ae E522     		movs	r2, #229
 544 01b0 1921     		movs	r1, #25
 545 01b2 6E20     		movs	r0, #110
 546              	.LVL73:
 547 01b4 FFF7FEFF 		bl	write_reg
 548              	.LVL74:
 549 01b8 0028     		cmp	r0, #0
 550 01ba 7FF42CAF 		bne	.L26
 551              		.loc 1 268 0
 552 01be 0246     		mov	r2, r0
 553 01c0 1A21     		movs	r1, #26
 554 01c2 6E20     		movs	r0, #110
 555              	.LVL75:
 556 01c4 FFF7FEFF 		bl	write_reg
 557              	.LVL76:
 558 01c8 0028     		cmp	r0, #0
 559 01ca 7FF424AF 		bne	.L26
 560              		.loc 1 271 0
 561 01ce 8722     		movs	r2, #135
 562 01d0 1B21     		movs	r1, #27
 563 01d2 6E20     		movs	r0, #110
 564              	.LVL77:
 565 01d4 FFF7FEFF 		bl	write_reg
 566              	.LVL78:
 567 01d8 0028     		cmp	r0, #0
 568 01da 7FF41CAF 		bne	.L26
 569              		.loc 1 274 0
 570 01de 0246     		mov	r2, r0
ARM GAS  /tmp/cc5QaxCL.s 			page 11


 571 01e0 1C21     		movs	r1, #28
 572 01e2 6E20     		movs	r0, #110
 573              	.LVL79:
 574 01e4 FFF7FEFF 		bl	write_reg
 575              	.LVL80:
 576 01e8 0028     		cmp	r0, #0
 577 01ea 7FF414AF 		bne	.L26
 578              		.loc 1 277 0
 579 01ee A022     		movs	r2, #160
 580 01f0 1D21     		movs	r1, #29
 581 01f2 6E20     		movs	r0, #110
 582              	.LVL81:
 583 01f4 FFF7FEFF 		bl	write_reg
 584              	.LVL82:
 585 01f8 0028     		cmp	r0, #0
 586 01fa 7FF40CAF 		bne	.L26
 587              		.loc 1 280 0
 588 01fe 0246     		mov	r2, r0
 589 0200 1E21     		movs	r1, #30
 590 0202 6E20     		movs	r0, #110
 591              	.LVL83:
 592 0204 FFF7FEFF 		bl	write_reg
 593              	.LVL84:
 594 0208 0028     		cmp	r0, #0
 595 020a 7FF404AF 		bne	.L26
 596              		.loc 1 283 0
 597 020e A022     		movs	r2, #160
 598 0210 1F21     		movs	r1, #31
 599 0212 6E20     		movs	r0, #110
 600              	.LVL85:
 601 0214 FFF7FEFF 		bl	write_reg
 602              	.LVL86:
 603 0218 0028     		cmp	r0, #0
 604 021a 7FF4FCAE 		bne	.L26
 605              	.LVL87:
 606              	.LBB82:
 607              	.LBB83:
 608              		.loc 1 130 0
 609 021e 0246     		mov	r2, r0
 610 0220 0321     		movs	r1, #3
 611 0222 6E20     		movs	r0, #110
 612              	.LVL88:
 613 0224 FFF7FEFF 		bl	write_reg
 614              	.LVL89:
 615              	.LBE83:
 616              	.LBE82:
 617              		.loc 1 287 0
 618 0228 0028     		cmp	r0, #0
 619 022a 7FF4F4AE 		bne	.L26
 620              		.loc 1 291 0
 621 022e 0A4B     		ldr	r3, .L36+8
 622 0230 2B60     		str	r3, [r5]
 623              		.loc 1 293 0
 624 0232 2023     		movs	r3, #32
 625 0234 6B71     		strb	r3, [r5, #5]
 626              		.loc 1 294 0
 627 0236 AB71     		strb	r3, [r5, #6]
ARM GAS  /tmp/cc5QaxCL.s 			page 12


 628 0238 EDE6     		b	.L26
 629              	.L34:
 630              	.LBE79:
 631              	.LBE78:
 632              		.loc 1 297 0
 633 023a FFF7FEFF 		bl	__stack_chk_fail
 634              	.LVL90:
 635              	.L35:
 636              	.LBB85:
 637              	.LBB84:
 638              		.loc 1 220 0
 639 023e 0122     		movs	r2, #1
 640 0240 6821     		movs	r1, #104
 641 0242 6E20     		movs	r0, #110
 642              	.LVL91:
 643 0244 FFF7FEFF 		bl	write_reg
 644              	.LVL92:
 645 0248 0028     		cmp	r0, #0
 646 024a 3FF459AF 		beq	.L29
 647 024e E2E6     		b	.L26
 648              	.L37:
 649              		.align	2
 650              	.L36:
 651 0250 00000000 		.word	__stack_chk_guard
 652 0254 00000000 		.word	.LANCHOR0
 653 0258 8002E001 		.word	31457920
 654              	.LBE84:
 655              	.LBE85:
 656              		.cfi_endproc
 657              	.LFE260:
 658              		.size	po6030_set_vga, .-po6030_set_vga
 659              		.section	.text.po6030_set_qvga,"ax",%progbits
 660              		.align	1
 661              		.p2align 4,,15
 662              		.global	po6030_set_qvga
 663              		.syntax unified
 664              		.thumb
 665              		.thumb_func
 666              		.fpu fpv4-sp-d16
 667              		.type	po6030_set_qvga, %function
 668              	po6030_set_qvga:
 669              	.LFB261:
 670              		.loc 1 307 0
 671              		.cfi_startproc
 672              		@ args = 0, pretend = 0, frame = 8
 673              		@ frame_needed = 0, uses_anonymous_args = 0
 674 0000 30B5     		push	{r4, r5, lr}
 675              		.cfi_def_cfa_offset 12
 676              		.cfi_offset 4, -12
 677              		.cfi_offset 5, -8
 678              		.cfi_offset 14, -4
 679 0002 934C     		ldr	r4, .L49
 680 0004 83B0     		sub	sp, sp, #12
 681              		.cfi_def_cfa_offset 24
 682              		.loc 1 307 0
 683 0006 2368     		ldr	r3, [r4]
 684 0008 0193     		str	r3, [sp, #4]
ARM GAS  /tmp/cc5QaxCL.s 			page 13


 685              	.LVL93:
 686              	.LBB96:
 687              	.LBB97:
 688              		.loc 1 130 0
 689 000a 0122     		movs	r2, #1
 690 000c 0321     		movs	r1, #3
 691 000e 6E20     		movs	r0, #110
 692 0010 FFF7FEFF 		bl	write_reg
 693              	.LVL94:
 694              	.LBE97:
 695              	.LBE96:
 696              		.loc 1 310 0
 697 0014 30B1     		cbz	r0, .L46
 698              	.L39:
 699              		.loc 1 437 0
 700 0016 019A     		ldr	r2, [sp, #4]
 701 0018 2368     		ldr	r3, [r4]
 702 001a 9A42     		cmp	r2, r3
 703 001c 40F00D81 		bne	.L47
 704 0020 03B0     		add	sp, sp, #12
 705              		.cfi_remember_state
 706              		.cfi_def_cfa_offset 12
 707              		@ sp needed
 708 0022 30BD     		pop	{r4, r5, pc}
 709              	.L46:
 710              		.cfi_restore_state
 711              		.loc 1 314 0
 712 0024 0246     		mov	r2, r0
 713 0026 5021     		movs	r1, #80
 714 0028 6E20     		movs	r0, #110
 715 002a FFF7FEFF 		bl	write_reg
 716              	.LVL95:
 717 002e 0028     		cmp	r0, #0
 718 0030 F1D1     		bne	.L39
 719              		.loc 1 317 0
 720 0032 0422     		movs	r2, #4
 721 0034 5121     		movs	r1, #81
 722 0036 6E20     		movs	r0, #110
 723              	.LVL96:
 724 0038 FFF7FEFF 		bl	write_reg
 725              	.LVL97:
 726 003c 0028     		cmp	r0, #0
 727 003e EAD1     		bne	.L39
 728              		.loc 1 320 0
 729 0040 0246     		mov	r2, r0
 730 0042 5221     		movs	r1, #82
 731 0044 6E20     		movs	r0, #110
 732              	.LVL98:
 733 0046 FFF7FEFF 		bl	write_reg
 734              	.LVL99:
 735 004a 0028     		cmp	r0, #0
 736 004c E3D1     		bne	.L39
 737              		.loc 1 323 0
 738 004e 0422     		movs	r2, #4
 739 0050 5321     		movs	r1, #83
 740 0052 6E20     		movs	r0, #110
 741              	.LVL100:
ARM GAS  /tmp/cc5QaxCL.s 			page 14


 742 0054 FFF7FEFF 		bl	write_reg
 743              	.LVL101:
 744 0058 0028     		cmp	r0, #0
 745 005a DCD1     		bne	.L39
 746              	.LBB98:
 747              	.LBB99:
 748              		.loc 1 326 0
 749 005c 0122     		movs	r2, #1
 750 005e 5421     		movs	r1, #84
 751 0060 6E20     		movs	r0, #110
 752              	.LVL102:
 753 0062 FFF7FEFF 		bl	write_reg
 754              	.LVL103:
 755 0066 0028     		cmp	r0, #0
 756 0068 D5D1     		bne	.L39
 757              		.loc 1 329 0
 758 006a 4322     		movs	r2, #67
 759 006c 5521     		movs	r1, #85
 760 006e 6E20     		movs	r0, #110
 761              	.LVL104:
 762 0070 FFF7FEFF 		bl	write_reg
 763              	.LVL105:
 764 0074 0028     		cmp	r0, #0
 765 0076 CED1     		bne	.L39
 766              		.loc 1 332 0
 767 0078 0246     		mov	r2, r0
 768 007a 5621     		movs	r1, #86
 769 007c 6E20     		movs	r0, #110
 770              	.LVL106:
 771 007e FFF7FEFF 		bl	write_reg
 772              	.LVL107:
 773 0082 0028     		cmp	r0, #0
 774 0084 C7D1     		bne	.L39
 775              		.loc 1 335 0
 776 0086 F322     		movs	r2, #243
 777 0088 5721     		movs	r1, #87
 778 008a 6E20     		movs	r0, #110
 779              	.LVL108:
 780 008c FFF7FEFF 		bl	write_reg
 781              	.LVL109:
 782 0090 0028     		cmp	r0, #0
 783 0092 C0D1     		bne	.L39
 784              		.loc 1 339 0
 785 0094 4022     		movs	r2, #64
 786 0096 8021     		movs	r1, #128
 787 0098 6E20     		movs	r0, #110
 788              	.LVL110:
 789 009a FFF7FEFF 		bl	write_reg
 790              	.LVL111:
 791 009e 0028     		cmp	r0, #0
 792 00a0 B9D1     		bne	.L39
 793              		.loc 1 342 0
 794 00a2 4022     		movs	r2, #64
 795 00a4 8121     		movs	r1, #129
 796 00a6 6E20     		movs	r0, #110
 797              	.LVL112:
 798 00a8 FFF7FEFF 		bl	write_reg
ARM GAS  /tmp/cc5QaxCL.s 			page 15


 799              	.LVL113:
 800 00ac 0028     		cmp	r0, #0
 801 00ae B2D1     		bne	.L39
 802              		.loc 1 346 0
 803 00b0 0246     		mov	r2, r0
 804 00b2 6021     		movs	r1, #96
 805 00b4 6E20     		movs	r0, #110
 806              	.LVL114:
 807 00b6 FFF7FEFF 		bl	write_reg
 808              	.LVL115:
 809 00ba 0028     		cmp	r0, #0
 810 00bc ABD1     		bne	.L39
 811              		.loc 1 349 0
 812 00be 0C22     		movs	r2, #12
 813 00c0 6121     		movs	r1, #97
 814 00c2 6E20     		movs	r0, #110
 815              	.LVL116:
 816 00c4 FFF7FEFF 		bl	write_reg
 817              	.LVL117:
 818 00c8 0028     		cmp	r0, #0
 819 00ca A4D1     		bne	.L39
 820              		.loc 1 352 0
 821 00cc 0122     		movs	r2, #1
 822 00ce 6221     		movs	r1, #98
 823 00d0 6E20     		movs	r0, #110
 824              	.LVL118:
 825 00d2 FFF7FEFF 		bl	write_reg
 826              	.LVL119:
 827 00d6 0028     		cmp	r0, #0
 828 00d8 9DD1     		bne	.L39
 829              		.loc 1 355 0
 830 00da EC22     		movs	r2, #236
 831 00dc 6321     		movs	r1, #99
 832 00de 6E20     		movs	r0, #110
 833              	.LVL120:
 834 00e0 FFF7FEFF 		bl	write_reg
 835              	.LVL121:
 836 00e4 0028     		cmp	r0, #0
 837 00e6 96D1     		bne	.L39
 838              		.loc 1 359 0
 839 00e8 5A4D     		ldr	r5, .L49+4
 840 00ea 2B79     		ldrb	r3, [r5, #4]	@ zero_extendqisi2
 841 00ec 0D2B     		cmp	r3, #13
 842 00ee 00F0A680 		beq	.L48
 843              		.loc 1 364 0
 844 00f2 0122     		movs	r2, #1
 845 00f4 6821     		movs	r1, #104
 846 00f6 6E20     		movs	r0, #110
 847              	.LVL122:
 848 00f8 FFF7FEFF 		bl	write_reg
 849              	.LVL123:
 850 00fc 0028     		cmp	r0, #0
 851 00fe 8AD1     		bne	.L39
 852              	.L42:
 853              		.loc 1 369 0
 854 0100 0122     		movs	r2, #1
 855 0102 8221     		movs	r1, #130
ARM GAS  /tmp/cc5QaxCL.s 			page 16


 856 0104 6E20     		movs	r0, #110
 857              	.LVL124:
 858 0106 FFF7FEFF 		bl	write_reg
 859              	.LVL125:
 860 010a 0028     		cmp	r0, #0
 861 010c 83D1     		bne	.L39
 862              	.LVL126:
 863              	.LBB100:
 864              	.LBB101:
 865              		.loc 1 130 0
 866 010e 0222     		movs	r2, #2
 867 0110 0321     		movs	r1, #3
 868 0112 6E20     		movs	r0, #110
 869              	.LVL127:
 870 0114 FFF7FEFF 		bl	write_reg
 871              	.LVL128:
 872              	.LBE101:
 873              	.LBE100:
 874              		.loc 1 373 0
 875 0118 0028     		cmp	r0, #0
 876 011a 7FF47CAF 		bne	.L39
 877              		.loc 1 377 0
 878 011e 0246     		mov	r2, r0
 879 0120 1021     		movs	r1, #16
 880 0122 6E20     		movs	r0, #110
 881 0124 FFF7FEFF 		bl	write_reg
 882              	.LVL129:
 883 0128 0028     		cmp	r0, #0
 884 012a 7FF474AF 		bne	.L39
 885              		.loc 1 380 0
 886 012e 1222     		movs	r2, #18
 887 0130 1121     		movs	r1, #17
 888 0132 6E20     		movs	r0, #110
 889              	.LVL130:
 890 0134 FFF7FEFF 		bl	write_reg
 891              	.LVL131:
 892 0138 0028     		cmp	r0, #0
 893 013a 7FF46CAF 		bne	.L39
 894              		.loc 1 383 0
 895 013e 0246     		mov	r2, r0
 896 0140 1221     		movs	r1, #18
 897 0142 6E20     		movs	r0, #110
 898              	.LVL132:
 899 0144 FFF7FEFF 		bl	write_reg
 900              	.LVL133:
 901 0148 0028     		cmp	r0, #0
 902 014a 7FF464AF 		bne	.L39
 903              		.loc 1 386 0
 904 014e 0E22     		movs	r2, #14
 905 0150 1321     		movs	r1, #19
 906 0152 6E20     		movs	r0, #110
 907              	.LVL134:
 908 0154 FFF7FEFF 		bl	write_reg
 909              	.LVL135:
 910 0158 0028     		cmp	r0, #0
 911 015a 7FF45CAF 		bne	.L39
 912              		.loc 1 389 0
ARM GAS  /tmp/cc5QaxCL.s 			page 17


 913 015e 0122     		movs	r2, #1
 914 0160 1421     		movs	r1, #20
 915 0162 6E20     		movs	r0, #110
 916              	.LVL136:
 917 0164 FFF7FEFF 		bl	write_reg
 918              	.LVL137:
 919 0168 0028     		cmp	r0, #0
 920 016a 7FF454AF 		bne	.L39
 921              		.loc 1 392 0
 922 016e 3022     		movs	r2, #48
 923 0170 1521     		movs	r1, #21
 924 0172 6E20     		movs	r0, #110
 925              	.LVL138:
 926 0174 FFF7FEFF 		bl	write_reg
 927              	.LVL139:
 928 0178 0028     		cmp	r0, #0
 929 017a 7FF44CAF 		bne	.L39
 930              		.loc 1 395 0
 931 017e 0246     		mov	r2, r0
 932 0180 1621     		movs	r1, #22
 933 0182 6E20     		movs	r0, #110
 934              	.LVL140:
 935 0184 FFF7FEFF 		bl	write_reg
 936              	.LVL141:
 937 0188 0028     		cmp	r0, #0
 938 018a 7FF444AF 		bne	.L39
 939              		.loc 1 398 0
 940 018e DF22     		movs	r2, #223
 941 0190 1721     		movs	r1, #23
 942 0192 6E20     		movs	r0, #110
 943              	.LVL142:
 944 0194 FFF7FEFF 		bl	write_reg
 945              	.LVL143:
 946 0198 0028     		cmp	r0, #0
 947 019a 7FF43CAF 		bne	.L39
 948              		.loc 1 402 0
 949 019e 0022     		movs	r2, #0
 950 01a0 1821     		movs	r1, #24
 951 01a2 6E20     		movs	r0, #110
 952              	.LVL144:
 953 01a4 FFF7FEFF 		bl	write_reg
 954              	.LVL145:
 955 01a8 0028     		cmp	r0, #0
 956 01aa 7FF434AF 		bne	.L39
 957              		.loc 1 405 0
 958 01ae 7222     		movs	r2, #114
 959 01b0 1921     		movs	r1, #25
 960 01b2 6E20     		movs	r0, #110
 961              	.LVL146:
 962 01b4 FFF7FEFF 		bl	write_reg
 963              	.LVL147:
 964 01b8 0028     		cmp	r0, #0
 965 01ba 7FF42CAF 		bne	.L39
 966              		.loc 1 408 0
 967 01be 0246     		mov	r2, r0
 968 01c0 1A21     		movs	r1, #26
 969 01c2 6E20     		movs	r0, #110
ARM GAS  /tmp/cc5QaxCL.s 			page 18


 970              	.LVL148:
 971 01c4 FFF7FEFF 		bl	write_reg
 972              	.LVL149:
 973 01c8 0028     		cmp	r0, #0
 974 01ca 7FF424AF 		bne	.L39
 975              		.loc 1 411 0
 976 01ce 4322     		movs	r2, #67
 977 01d0 1B21     		movs	r1, #27
 978 01d2 6E20     		movs	r0, #110
 979              	.LVL150:
 980 01d4 FFF7FEFF 		bl	write_reg
 981              	.LVL151:
 982 01d8 0028     		cmp	r0, #0
 983 01da 7FF41CAF 		bne	.L39
 984              		.loc 1 414 0
 985 01de 0246     		mov	r2, r0
 986 01e0 1C21     		movs	r1, #28
 987 01e2 6E20     		movs	r0, #110
 988              	.LVL152:
 989 01e4 FFF7FEFF 		bl	write_reg
 990              	.LVL153:
 991 01e8 0028     		cmp	r0, #0
 992 01ea 7FF414AF 		bne	.L39
 993              		.loc 1 417 0
 994 01ee 5022     		movs	r2, #80
 995 01f0 1D21     		movs	r1, #29
 996 01f2 6E20     		movs	r0, #110
 997              	.LVL154:
 998 01f4 FFF7FEFF 		bl	write_reg
 999              	.LVL155:
 1000 01f8 0028     		cmp	r0, #0
 1001 01fa 7FF40CAF 		bne	.L39
 1002              		.loc 1 420 0
 1003 01fe 0246     		mov	r2, r0
 1004 0200 1E21     		movs	r1, #30
 1005 0202 6E20     		movs	r0, #110
 1006              	.LVL156:
 1007 0204 FFF7FEFF 		bl	write_reg
 1008              	.LVL157:
 1009 0208 0028     		cmp	r0, #0
 1010 020a 7FF404AF 		bne	.L39
 1011              		.loc 1 423 0
 1012 020e 5022     		movs	r2, #80
 1013 0210 1F21     		movs	r1, #31
 1014 0212 6E20     		movs	r0, #110
 1015              	.LVL158:
 1016 0214 FFF7FEFF 		bl	write_reg
 1017              	.LVL159:
 1018 0218 0028     		cmp	r0, #0
 1019 021a 7FF4FCAE 		bne	.L39
 1020              	.LVL160:
 1021              	.LBB102:
 1022              	.LBB103:
 1023              		.loc 1 130 0
 1024 021e 0246     		mov	r2, r0
 1025 0220 0321     		movs	r1, #3
 1026 0222 6E20     		movs	r0, #110
ARM GAS  /tmp/cc5QaxCL.s 			page 19


 1027              	.LVL161:
 1028 0224 FFF7FEFF 		bl	write_reg
 1029              	.LVL162:
 1030              	.LBE103:
 1031              	.LBE102:
 1032              		.loc 1 427 0
 1033 0228 0028     		cmp	r0, #0
 1034 022a 7FF4F4AE 		bne	.L39
 1035              		.loc 1 431 0
 1036 022e 0A4B     		ldr	r3, .L49+8
 1037 0230 2B60     		str	r3, [r5]
 1038              		.loc 1 433 0
 1039 0232 4023     		movs	r3, #64
 1040 0234 6B71     		strb	r3, [r5, #5]
 1041              		.loc 1 434 0
 1042 0236 AB71     		strb	r3, [r5, #6]
 1043 0238 EDE6     		b	.L39
 1044              	.L47:
 1045              	.LBE99:
 1046              	.LBE98:
 1047              		.loc 1 437 0
 1048 023a FFF7FEFF 		bl	__stack_chk_fail
 1049              	.LVL163:
 1050              	.L48:
 1051              	.LBB105:
 1052              	.LBB104:
 1053              		.loc 1 360 0
 1054 023e 0322     		movs	r2, #3
 1055 0240 6821     		movs	r1, #104
 1056 0242 6E20     		movs	r0, #110
 1057              	.LVL164:
 1058 0244 FFF7FEFF 		bl	write_reg
 1059              	.LVL165:
 1060 0248 0028     		cmp	r0, #0
 1061 024a 3FF459AF 		beq	.L42
 1062 024e E2E6     		b	.L39
 1063              	.L50:
 1064              		.align	2
 1065              	.L49:
 1066 0250 00000000 		.word	__stack_chk_guard
 1067 0254 00000000 		.word	.LANCHOR0
 1068 0258 4001F000 		.word	15728960
 1069              	.LBE104:
 1070              	.LBE105:
 1071              		.cfi_endproc
 1072              	.LFE261:
 1073              		.size	po6030_set_qvga, .-po6030_set_qvga
 1074              		.section	.text.po6030_set_qqvga,"ax",%progbits
 1075              		.align	1
 1076              		.p2align 4,,15
 1077              		.global	po6030_set_qqvga
 1078              		.syntax unified
 1079              		.thumb
 1080              		.thumb_func
 1081              		.fpu fpv4-sp-d16
 1082              		.type	po6030_set_qqvga, %function
 1083              	po6030_set_qqvga:
ARM GAS  /tmp/cc5QaxCL.s 			page 20


 1084              	.LFB262:
 1085              		.loc 1 447 0
 1086              		.cfi_startproc
 1087              		@ args = 0, pretend = 0, frame = 8
 1088              		@ frame_needed = 0, uses_anonymous_args = 0
 1089 0000 30B5     		push	{r4, r5, lr}
 1090              		.cfi_def_cfa_offset 12
 1091              		.cfi_offset 4, -12
 1092              		.cfi_offset 5, -8
 1093              		.cfi_offset 14, -4
 1094 0002 8F4C     		ldr	r4, .L62
 1095 0004 83B0     		sub	sp, sp, #12
 1096              		.cfi_def_cfa_offset 24
 1097              		.loc 1 447 0
 1098 0006 2368     		ldr	r3, [r4]
 1099 0008 0193     		str	r3, [sp, #4]
 1100              	.LVL166:
 1101              	.LBB114:
 1102              	.LBB115:
 1103              		.loc 1 130 0
 1104 000a 0122     		movs	r2, #1
 1105 000c 0321     		movs	r1, #3
 1106 000e 6E20     		movs	r0, #110
 1107 0010 FFF7FEFF 		bl	write_reg
 1108              	.LVL167:
 1109              	.LBE115:
 1110              	.LBE114:
 1111              		.loc 1 450 0
 1112 0014 30B1     		cbz	r0, .L59
 1113              	.L52:
 1114              		.loc 1 573 0
 1115 0016 019A     		ldr	r2, [sp, #4]
 1116 0018 2368     		ldr	r3, [r4]
 1117 001a 9A42     		cmp	r2, r3
 1118 001c 40F00581 		bne	.L60
 1119 0020 03B0     		add	sp, sp, #12
 1120              		.cfi_remember_state
 1121              		.cfi_def_cfa_offset 12
 1122              		@ sp needed
 1123 0022 30BD     		pop	{r4, r5, pc}
 1124              	.L59:
 1125              		.cfi_restore_state
 1126              		.loc 1 454 0
 1127 0024 0246     		mov	r2, r0
 1128 0026 5021     		movs	r1, #80
 1129 0028 6E20     		movs	r0, #110
 1130 002a FFF7FEFF 		bl	write_reg
 1131              	.LVL168:
 1132 002e 0028     		cmp	r0, #0
 1133 0030 F1D1     		bne	.L52
 1134              		.loc 1 457 0
 1135 0032 0322     		movs	r2, #3
 1136 0034 5121     		movs	r1, #81
 1137 0036 6E20     		movs	r0, #110
 1138              	.LVL169:
 1139 0038 FFF7FEFF 		bl	write_reg
 1140              	.LVL170:
ARM GAS  /tmp/cc5QaxCL.s 			page 21


 1141 003c 0028     		cmp	r0, #0
 1142 003e EAD1     		bne	.L52
 1143              		.loc 1 460 0
 1144 0040 0246     		mov	r2, r0
 1145 0042 5221     		movs	r1, #82
 1146 0044 6E20     		movs	r0, #110
 1147              	.LVL171:
 1148 0046 FFF7FEFF 		bl	write_reg
 1149              	.LVL172:
 1150 004a 0028     		cmp	r0, #0
 1151 004c E3D1     		bne	.L52
 1152              		.loc 1 463 0
 1153 004e 0222     		movs	r2, #2
 1154 0050 5321     		movs	r1, #83
 1155 0052 6E20     		movs	r0, #110
 1156              	.LVL173:
 1157 0054 FFF7FEFF 		bl	write_reg
 1158              	.LVL174:
 1159 0058 0028     		cmp	r0, #0
 1160 005a DCD1     		bne	.L52
 1161              	.LBB116:
 1162              	.LBB117:
 1163              		.loc 1 466 0
 1164 005c 0246     		mov	r2, r0
 1165 005e 5421     		movs	r1, #84
 1166 0060 6E20     		movs	r0, #110
 1167              	.LVL175:
 1168 0062 FFF7FEFF 		bl	write_reg
 1169              	.LVL176:
 1170 0066 0028     		cmp	r0, #0
 1171 0068 D5D1     		bne	.L52
 1172              		.loc 1 469 0
 1173 006a A222     		movs	r2, #162
 1174 006c 5521     		movs	r1, #85
 1175 006e 6E20     		movs	r0, #110
 1176              	.LVL177:
 1177 0070 FFF7FEFF 		bl	write_reg
 1178              	.LVL178:
 1179 0074 0028     		cmp	r0, #0
 1180 0076 CED1     		bne	.L52
 1181              		.loc 1 472 0
 1182 0078 0246     		mov	r2, r0
 1183 007a 5621     		movs	r1, #86
 1184 007c 6E20     		movs	r0, #110
 1185              	.LVL179:
 1186 007e FFF7FEFF 		bl	write_reg
 1187              	.LVL180:
 1188 0082 0028     		cmp	r0, #0
 1189 0084 C7D1     		bne	.L52
 1190              		.loc 1 475 0
 1191 0086 7922     		movs	r2, #121
 1192 0088 5721     		movs	r1, #87
 1193 008a 6E20     		movs	r0, #110
 1194              	.LVL181:
 1195 008c FFF7FEFF 		bl	write_reg
 1196              	.LVL182:
 1197 0090 0028     		cmp	r0, #0
ARM GAS  /tmp/cc5QaxCL.s 			page 22


 1198 0092 C0D1     		bne	.L52
 1199              		.loc 1 479 0
 1200 0094 8022     		movs	r2, #128
 1201 0096 1146     		mov	r1, r2
 1202 0098 6E20     		movs	r0, #110
 1203              	.LVL183:
 1204 009a FFF7FEFF 		bl	write_reg
 1205              	.LVL184:
 1206 009e 0028     		cmp	r0, #0
 1207 00a0 B9D1     		bne	.L52
 1208              		.loc 1 482 0
 1209 00a2 8022     		movs	r2, #128
 1210 00a4 8121     		movs	r1, #129
 1211 00a6 6E20     		movs	r0, #110
 1212              	.LVL185:
 1213 00a8 FFF7FEFF 		bl	write_reg
 1214              	.LVL186:
 1215 00ac 0028     		cmp	r0, #0
 1216 00ae B2D1     		bne	.L52
 1217              		.loc 1 486 0
 1218 00b0 0246     		mov	r2, r0
 1219 00b2 6021     		movs	r1, #96
 1220 00b4 6E20     		movs	r0, #110
 1221              	.LVL187:
 1222 00b6 FFF7FEFF 		bl	write_reg
 1223              	.LVL188:
 1224 00ba 0028     		cmp	r0, #0
 1225 00bc ABD1     		bne	.L52
 1226              		.loc 1 489 0
 1227 00be 0C22     		movs	r2, #12
 1228 00c0 6121     		movs	r1, #97
 1229 00c2 6E20     		movs	r0, #110
 1230              	.LVL189:
 1231 00c4 FFF7FEFF 		bl	write_reg
 1232              	.LVL190:
 1233 00c8 0028     		cmp	r0, #0
 1234 00ca A4D1     		bne	.L52
 1235              		.loc 1 492 0
 1236 00cc 0122     		movs	r2, #1
 1237 00ce 6221     		movs	r1, #98
 1238 00d0 6E20     		movs	r0, #110
 1239              	.LVL191:
 1240 00d2 FFF7FEFF 		bl	write_reg
 1241              	.LVL192:
 1242 00d6 0028     		cmp	r0, #0
 1243 00d8 9DD1     		bne	.L52
 1244              		.loc 1 495 0
 1245 00da EC22     		movs	r2, #236
 1246 00dc 6321     		movs	r1, #99
 1247 00de 6E20     		movs	r0, #110
 1248              	.LVL193:
 1249 00e0 FFF7FEFF 		bl	write_reg
 1250              	.LVL194:
 1251 00e4 0028     		cmp	r0, #0
 1252 00e6 96D1     		bne	.L52
 1253              		.loc 1 499 0
 1254 00e8 564D     		ldr	r5, .L62+4
ARM GAS  /tmp/cc5QaxCL.s 			page 23


 1255 00ea 2B79     		ldrb	r3, [r5, #4]	@ zero_extendqisi2
 1256 00ec 0D2B     		cmp	r3, #13
 1257 00ee 00F09E80 		beq	.L61
 1258              		.loc 1 504 0
 1259 00f2 0322     		movs	r2, #3
 1260 00f4 6821     		movs	r1, #104
 1261 00f6 6E20     		movs	r0, #110
 1262              	.LVL195:
 1263 00f8 FFF7FEFF 		bl	write_reg
 1264              	.LVL196:
 1265 00fc 0028     		cmp	r0, #0
 1266 00fe 8AD1     		bne	.L52
 1267              	.L55:
 1268              		.loc 1 509 0
 1269 0100 0122     		movs	r2, #1
 1270 0102 8221     		movs	r1, #130
 1271 0104 6E20     		movs	r0, #110
 1272              	.LVL197:
 1273 0106 FFF7FEFF 		bl	write_reg
 1274              	.LVL198:
 1275 010a 0028     		cmp	r0, #0
 1276 010c 83D1     		bne	.L52
 1277              	.LVL199:
 1278              	.LBB118:
 1279              	.LBB119:
 1280              		.loc 1 130 0
 1281 010e 0222     		movs	r2, #2
 1282 0110 0321     		movs	r1, #3
 1283 0112 6E20     		movs	r0, #110
 1284              	.LVL200:
 1285 0114 FFF7FEFF 		bl	write_reg
 1286              	.LVL201:
 1287              	.LBE119:
 1288              	.LBE118:
 1289              		.loc 1 513 0
 1290 0118 0028     		cmp	r0, #0
 1291 011a 7FF47CAF 		bne	.L52
 1292              		.loc 1 517 0
 1293 011e 0246     		mov	r2, r0
 1294 0120 1021     		movs	r1, #16
 1295 0122 6E20     		movs	r0, #110
 1296 0124 FFF7FEFF 		bl	write_reg
 1297              	.LVL202:
 1298 0128 0028     		cmp	r0, #0
 1299 012a 7FF474AF 		bne	.L52
 1300              		.loc 1 520 0
 1301 012e 0922     		movs	r2, #9
 1302 0130 1121     		movs	r1, #17
 1303 0132 6E20     		movs	r0, #110
 1304              	.LVL203:
 1305 0134 FFF7FEFF 		bl	write_reg
 1306              	.LVL204:
 1307 0138 0028     		cmp	r0, #0
 1308 013a 7FF46CAF 		bne	.L52
 1309              		.loc 1 523 0
 1310 013e 0246     		mov	r2, r0
 1311 0140 1221     		movs	r1, #18
ARM GAS  /tmp/cc5QaxCL.s 			page 24


 1312 0142 6E20     		movs	r0, #110
 1313              	.LVL205:
 1314 0144 FFF7FEFF 		bl	write_reg
 1315              	.LVL206:
 1316 0148 0028     		cmp	r0, #0
 1317 014a 7FF464AF 		bne	.L52
 1318              		.loc 1 526 0
 1319 014e 0722     		movs	r2, #7
 1320 0150 1321     		movs	r1, #19
 1321 0152 6E20     		movs	r0, #110
 1322              	.LVL207:
 1323 0154 FFF7FEFF 		bl	write_reg
 1324              	.LVL208:
 1325 0158 0028     		cmp	r0, #0
 1326 015a 7FF45CAF 		bne	.L52
 1327              		.loc 1 529 0
 1328 015e 0246     		mov	r2, r0
 1329 0160 1421     		movs	r1, #20
 1330 0162 6E20     		movs	r0, #110
 1331              	.LVL209:
 1332 0164 FFF7FEFF 		bl	write_reg
 1333              	.LVL210:
 1334 0168 0028     		cmp	r0, #0
 1335 016a 7FF454AF 		bne	.L52
 1336              		.loc 1 532 0
 1337 016e 9822     		movs	r2, #152
 1338 0170 1521     		movs	r1, #21
 1339 0172 6E20     		movs	r0, #110
 1340              	.LVL211:
 1341 0174 FFF7FEFF 		bl	write_reg
 1342              	.LVL212:
 1343 0178 0028     		cmp	r0, #0
 1344 017a 7FF44CAF 		bne	.L52
 1345              		.loc 1 535 0
 1346 017e 0246     		mov	r2, r0
 1347 0180 1621     		movs	r1, #22
 1348 0182 6E20     		movs	r0, #110
 1349              	.LVL213:
 1350 0184 FFF7FEFF 		bl	write_reg
 1351              	.LVL214:
 1352 0188 0028     		cmp	r0, #0
 1353 018a 7FF444AF 		bne	.L52
 1354              		.loc 1 538 0
 1355 018e 6F22     		movs	r2, #111
 1356 0190 1721     		movs	r1, #23
 1357 0192 6E20     		movs	r0, #110
 1358              	.LVL215:
 1359 0194 FFF7FEFF 		bl	write_reg
 1360              	.LVL216:
 1361 0198 0028     		cmp	r0, #0
 1362 019a 7FF43CAF 		bne	.L52
 1363              		.loc 1 542 0
 1364 019e 0022     		movs	r2, #0
 1365 01a0 1821     		movs	r1, #24
 1366 01a2 6E20     		movs	r0, #110
 1367              	.LVL217:
 1368 01a4 FFF7FEFF 		bl	write_reg
ARM GAS  /tmp/cc5QaxCL.s 			page 25


 1369              	.LVL218:
 1370 01a8 0028     		cmp	r0, #0
 1371 01aa 7FF434AF 		bne	.L52
 1372              		.loc 1 545 0
 1373 01ae 3922     		movs	r2, #57
 1374 01b0 1921     		movs	r1, #25
 1375 01b2 6E20     		movs	r0, #110
 1376              	.LVL219:
 1377 01b4 FFF7FEFF 		bl	write_reg
 1378              	.LVL220:
 1379 01b8 0028     		cmp	r0, #0
 1380 01ba 7FF42CAF 		bne	.L52
 1381              		.loc 1 548 0
 1382 01be 0246     		mov	r2, r0
 1383 01c0 1A21     		movs	r1, #26
 1384 01c2 6E20     		movs	r0, #110
 1385              	.LVL221:
 1386 01c4 FFF7FEFF 		bl	write_reg
 1387              	.LVL222:
 1388 01c8 0028     		cmp	r0, #0
 1389 01ca 7FF424AF 		bne	.L52
 1390              		.loc 1 551 0
 1391 01ce 2122     		movs	r2, #33
 1392 01d0 1B21     		movs	r1, #27
 1393 01d2 6E20     		movs	r0, #110
 1394              	.LVL223:
 1395 01d4 FFF7FEFF 		bl	write_reg
 1396              	.LVL224:
 1397 01d8 0028     		cmp	r0, #0
 1398 01da 7FF41CAF 		bne	.L52
 1399              		.loc 1 554 0
 1400 01de 0246     		mov	r2, r0
 1401 01e0 1C21     		movs	r1, #28
 1402 01e2 6E20     		movs	r0, #110
 1403              	.LVL225:
 1404 01e4 FFF7FEFF 		bl	write_reg
 1405              	.LVL226:
 1406 01e8 0028     		cmp	r0, #0
 1407 01ea 7FF414AF 		bne	.L52
 1408              		.loc 1 557 0
 1409 01ee 2822     		movs	r2, #40
 1410 01f0 1D21     		movs	r1, #29
 1411 01f2 6E20     		movs	r0, #110
 1412              	.LVL227:
 1413 01f4 FFF7FEFF 		bl	write_reg
 1414              	.LVL228:
 1415 01f8 0028     		cmp	r0, #0
 1416 01fa 7FF40CAF 		bne	.L52
 1417              		.loc 1 560 0
 1418 01fe 0246     		mov	r2, r0
 1419 0200 1E21     		movs	r1, #30
 1420 0202 6E20     		movs	r0, #110
 1421              	.LVL229:
 1422 0204 FFF7FEFF 		bl	write_reg
 1423              	.LVL230:
 1424 0208 0028     		cmp	r0, #0
 1425 020a 7FF404AF 		bne	.L52
ARM GAS  /tmp/cc5QaxCL.s 			page 26


 1426              		.loc 1 563 0
 1427 020e 2822     		movs	r2, #40
 1428 0210 1F21     		movs	r1, #31
 1429 0212 6E20     		movs	r0, #110
 1430              	.LVL231:
 1431 0214 FFF7FEFF 		bl	write_reg
 1432              	.LVL232:
 1433 0218 0028     		cmp	r0, #0
 1434 021a 7FF4FCAE 		bne	.L52
 1435              		.loc 1 567 0
 1436 021e 0A4B     		ldr	r3, .L62+8
 1437 0220 2B60     		str	r3, [r5]
 1438              		.loc 1 569 0
 1439 0222 8023     		movs	r3, #128
 1440 0224 6B71     		strb	r3, [r5, #5]
 1441              		.loc 1 570 0
 1442 0226 AB71     		strb	r3, [r5, #6]
 1443 0228 F5E6     		b	.L52
 1444              	.LVL233:
 1445              	.L60:
 1446              	.LBE117:
 1447              	.LBE116:
 1448              		.loc 1 573 0
 1449 022a FFF7FEFF 		bl	__stack_chk_fail
 1450              	.LVL234:
 1451              	.L61:
 1452              	.LBB121:
 1453              	.LBB120:
 1454              		.loc 1 500 0
 1455 022e 0722     		movs	r2, #7
 1456 0230 6821     		movs	r1, #104
 1457 0232 6E20     		movs	r0, #110
 1458              	.LVL235:
 1459 0234 FFF7FEFF 		bl	write_reg
 1460              	.LVL236:
 1461 0238 0028     		cmp	r0, #0
 1462 023a 3FF461AF 		beq	.L55
 1463 023e EAE6     		b	.L52
 1464              	.L63:
 1465              		.align	2
 1466              	.L62:
 1467 0240 00000000 		.word	__stack_chk_guard
 1468 0244 00000000 		.word	.LANCHOR0
 1469 0248 A0007800 		.word	7864480
 1470              	.LBE120:
 1471              	.LBE121:
 1472              		.cfi_endproc
 1473              	.LFE262:
 1474              		.size	po6030_set_qqvga, .-po6030_set_qqvga
 1475              		.section	.text.po6030_set_size,"ax",%progbits
 1476              		.align	1
 1477              		.p2align 4,,15
 1478              		.global	po6030_set_size
 1479              		.syntax unified
 1480              		.thumb
 1481              		.thumb_func
 1482              		.fpu fpv4-sp-d16
ARM GAS  /tmp/cc5QaxCL.s 			page 27


 1483              		.type	po6030_set_size, %function
 1484              	po6030_set_size:
 1485              	.LFB263:
 1486              		.loc 1 585 0
 1487              		.cfi_startproc
 1488              		@ args = 0, pretend = 0, frame = 8
 1489              		@ frame_needed = 0, uses_anonymous_args = 0
 1490              	.LVL237:
 1491 0000 00B5     		push	{lr}
 1492              		.cfi_def_cfa_offset 4
 1493              		.cfi_offset 14, -4
 1494 0002 144B     		ldr	r3, .L77
 1495 0004 83B0     		sub	sp, sp, #12
 1496              		.cfi_def_cfa_offset 16
 1497              		.loc 1 585 0
 1498 0006 1A68     		ldr	r2, [r3]
 1499 0008 0192     		str	r2, [sp, #4]
 1500              		.loc 1 587 0
 1501 000a 019A     		ldr	r2, [sp, #4]
 1502 000c 1B68     		ldr	r3, [r3]
 1503              		.loc 1 586 0
 1504 000e 50B1     		cbz	r0, .L75
 1505              		.loc 1 588 0
 1506 0010 0128     		cmp	r0, #1
 1507 0012 0FD0     		beq	.L76
 1508              	.LVL238:
 1509              	.LBB124:
 1510              	.LBB125:
 1511              		.loc 1 590 0
 1512 0014 0228     		cmp	r0, #2
 1513 0016 14D1     		bne	.L69
 1514              		.loc 1 591 0
 1515 0018 9A42     		cmp	r2, r3
 1516 001a 19D1     		bne	.L74
 1517              	.LBE125:
 1518              	.LBE124:
 1519              		.loc 1 595 0
 1520 001c 03B0     		add	sp, sp, #12
 1521              		.cfi_remember_state
 1522              		.cfi_def_cfa_offset 4
 1523              		@ sp needed
 1524 001e 5DF804EB 		ldr	lr, [sp], #4
 1525              		.cfi_restore 14
 1526              		.cfi_def_cfa_offset 0
 1527              	.LBB127:
 1528              	.LBB126:
 1529              		.loc 1 591 0
 1530 0022 FFF7FEBF 		b	po6030_set_qqvga
 1531              	.LVL239:
 1532              	.L75:
 1533              		.cfi_restore_state
 1534              	.LBE126:
 1535              	.LBE127:
 1536              		.loc 1 587 0
 1537 0026 9A42     		cmp	r2, r3
 1538 0028 12D1     		bne	.L74
 1539              		.loc 1 595 0
ARM GAS  /tmp/cc5QaxCL.s 			page 28


 1540 002a 03B0     		add	sp, sp, #12
 1541              		.cfi_remember_state
 1542              		.cfi_def_cfa_offset 4
 1543              		@ sp needed
 1544 002c 5DF804EB 		ldr	lr, [sp], #4
 1545              		.cfi_restore 14
 1546              		.cfi_def_cfa_offset 0
 1547              		.loc 1 587 0
 1548 0030 FFF7FEBF 		b	po6030_set_vga
 1549              	.LVL240:
 1550              	.L76:
 1551              		.cfi_restore_state
 1552              		.loc 1 589 0
 1553 0034 9A42     		cmp	r2, r3
 1554 0036 0BD1     		bne	.L74
 1555              		.loc 1 595 0
 1556 0038 03B0     		add	sp, sp, #12
 1557              		.cfi_remember_state
 1558              		.cfi_def_cfa_offset 4
 1559              		@ sp needed
 1560 003a 5DF804EB 		ldr	lr, [sp], #4
 1561              		.cfi_restore 14
 1562              		.cfi_def_cfa_offset 0
 1563              		.loc 1 589 0
 1564 003e FFF7FEBF 		b	po6030_set_qvga
 1565              	.LVL241:
 1566              	.L69:
 1567              		.cfi_restore_state
 1568              		.loc 1 595 0
 1569 0042 9A42     		cmp	r2, r3
 1570 0044 4FF0FF30 		mov	r0, #-1
 1571              	.LVL242:
 1572 0048 02D1     		bne	.L74
 1573 004a 03B0     		add	sp, sp, #12
 1574              		.cfi_remember_state
 1575              		.cfi_def_cfa_offset 4
 1576              		@ sp needed
 1577 004c 5DF804FB 		ldr	pc, [sp], #4
 1578              	.LVL243:
 1579              	.L74:
 1580              		.cfi_restore_state
 1581 0050 FFF7FEFF 		bl	__stack_chk_fail
 1582              	.LVL244:
 1583              	.L78:
 1584              		.align	2
 1585              	.L77:
 1586 0054 00000000 		.word	__stack_chk_guard
 1587              		.cfi_endproc
 1588              	.LFE263:
 1589              		.size	po6030_set_size, .-po6030_set_size
 1590              		.section	.text.po6030_config,"ax",%progbits
 1591              		.align	1
 1592              		.p2align 4,,15
 1593              		.global	po6030_config
 1594              		.syntax unified
 1595              		.thumb
 1596              		.thumb_func
ARM GAS  /tmp/cc5QaxCL.s 			page 29


 1597              		.fpu fpv4-sp-d16
 1598              		.type	po6030_config, %function
 1599              	po6030_config:
 1600              	.LFB265:
 1601              		.loc 1 607 0
 1602              		.cfi_startproc
 1603              		@ args = 0, pretend = 0, frame = 8
 1604              		@ frame_needed = 0, uses_anonymous_args = 0
 1605              	.LVL245:
 1606 0000 30B5     		push	{r4, r5, lr}
 1607              		.cfi_def_cfa_offset 12
 1608              		.cfi_offset 4, -12
 1609              		.cfi_offset 5, -8
 1610              		.cfi_offset 14, -4
 1611 0002 0C4C     		ldr	r4, .L86
 1612 0004 83B0     		sub	sp, sp, #12
 1613              		.cfi_def_cfa_offset 24
 1614              		.loc 1 607 0
 1615 0006 2368     		ldr	r3, [r4]
 1616 0008 0193     		str	r3, [sp, #4]
 1617              	.LVL246:
 1618 000a 0D46     		mov	r5, r1
 1619              		.loc 1 611 0
 1620 000c FFF7FEFF 		bl	po6030_set_format
 1621              	.LVL247:
 1622              		.loc 1 620 0
 1623 0010 019A     		ldr	r2, [sp, #4]
 1624 0012 2368     		ldr	r3, [r4]
 1625              		.loc 1 611 0
 1626 0014 18B1     		cbz	r0, .L85
 1627              		.loc 1 620 0
 1628 0016 9A42     		cmp	r2, r3
 1629 0018 09D1     		bne	.L84
 1630 001a 03B0     		add	sp, sp, #12
 1631              		.cfi_remember_state
 1632              		.cfi_def_cfa_offset 12
 1633              		@ sp needed
 1634 001c 30BD     		pop	{r4, r5, pc}
 1635              	.L85:
 1636              		.cfi_restore_state
 1637              		.loc 1 615 0
 1638 001e 9A42     		cmp	r2, r3
 1639 0020 05D1     		bne	.L84
 1640 0022 2846     		mov	r0, r5
 1641              	.LVL248:
 1642              		.loc 1 620 0
 1643 0024 03B0     		add	sp, sp, #12
 1644              		.cfi_remember_state
 1645              		.cfi_def_cfa_offset 12
 1646              		@ sp needed
 1647 0026 BDE83040 		pop	{r4, r5, lr}
 1648              		.cfi_restore 14
 1649              		.cfi_restore 5
 1650              		.cfi_restore 4
 1651              		.cfi_def_cfa_offset 0
 1652              		.loc 1 615 0
 1653 002a FFF7FEBF 		b	po6030_set_size
ARM GAS  /tmp/cc5QaxCL.s 			page 30


 1654              	.LVL249:
 1655              	.L84:
 1656              		.cfi_restore_state
 1657              		.loc 1 620 0
 1658 002e FFF7FEFF 		bl	__stack_chk_fail
 1659              	.LVL250:
 1660              	.L87:
 1661 0032 00BF     		.align	2
 1662              	.L86:
 1663 0034 00000000 		.word	__stack_chk_guard
 1664              		.cfi_endproc
 1665              	.LFE265:
 1666              		.size	po6030_config, .-po6030_config
 1667              		.section	.text.po6030_advanced_config,"ax",%progbits
 1668              		.align	1
 1669              		.p2align 4,,15
 1670              		.global	po6030_advanced_config
 1671              		.syntax unified
 1672              		.thumb
 1673              		.thumb_func
 1674              		.fpu fpv4-sp-d16
 1675              		.type	po6030_advanced_config, %function
 1676              	po6030_advanced_config:
 1677              	.LFB266:
 1678              		.loc 1 624 0
 1679              		.cfi_startproc
 1680              		@ args = 12, pretend = 0, frame = 48
 1681              		@ frame_needed = 0, uses_anonymous_args = 0
 1682              	.LVL251:
 1683 0000 2DE9F04F 		push	{r4, r5, r6, r7, r8, r9, r10, fp, lr}
 1684              		.cfi_def_cfa_offset 36
 1685              		.cfi_offset 4, -36
 1686              		.cfi_offset 5, -32
 1687              		.cfi_offset 6, -28
 1688              		.cfi_offset 7, -24
 1689              		.cfi_offset 8, -20
 1690              		.cfi_offset 9, -16
 1691              		.cfi_offset 10, -12
 1692              		.cfi_offset 11, -8
 1693              		.cfi_offset 14, -4
 1694 0004 8DB0     		sub	sp, sp, #52
 1695              		.cfi_def_cfa_offset 88
 1696              		.loc 1 624 0
 1697 0006 DFF80494 		ldr	r9, .L133+8
 1698 000a DDF858C0 		ldr	ip, [sp, #88]
 1699 000e D9F80040 		ldr	r4, [r9]
 1700 0012 0B94     		str	r4, [sp, #44]
 1701              	.LVL252:
 1702              		.loc 1 626 0
 1703 0014 01F10806 		add	r6, r1, #8
 1704              	.LVL253:
 1705              		.loc 1 627 0
 1706 0018 171D     		adds	r7, r2, #4
 1707              	.LVL254:
 1708              		.loc 1 628 0
 1709 001a 5C1E     		subs	r4, r3, #1
 1710              		.loc 1 629 0
ARM GAS  /tmp/cc5QaxCL.s 			page 31


 1711 001c 0CF1FF35 		add	r5, ip, #-1
 1712              		.loc 1 633 0
 1713 0020 B3F5207F 		cmp	r3, #640
 1714              		.loc 1 624 0
 1715 0024 9DF85CA0 		ldrb	r10, [sp, #92]	@ zero_extendqisi2
 1716 0028 0090     		str	r0, [sp]
 1717              		.loc 1 628 0
 1718 002a 3444     		add	r4, r4, r6
 1719              	.LVL255:
 1720              		.loc 1 629 0
 1721 002c 3D44     		add	r5, r5, r7
 1722              	.LVL256:
 1723              		.loc 1 624 0
 1724 002e 9DF860B0 		ldrb	fp, [sp, #96]	@ zero_extendqisi2
 1725              		.loc 1 633 0
 1726 0032 00F21082 		bhi	.L109
 1727              		.loc 1 633 0 is_stmt 0 discriminator 1
 1728 0036 BCF5F07F 		cmp	ip, #480
 1729 003a 00F20C82 		bhi	.L109
 1730              		.loc 1 637 0 is_stmt 1
 1731 003e B6F5227F 		cmp	r6, #648
 1732 0042 00F21182 		bhi	.L110
 1733              		.loc 1 641 0
 1734 0046 B7F5F27F 		cmp	r7, #484
 1735 004a 00F21082 		bhi	.L111
 1736              		.loc 1 645 0
 1737 004e A642     		cmp	r6, r4
 1738 0050 80F00482 		bcs	.L113
 1739              		.loc 1 645 0 is_stmt 0 discriminator 1
 1740 0054 B4F5227F 		cmp	r4, #648
 1741 0058 00F20082 		bhi	.L113
 1742              		.loc 1 649 0 is_stmt 1
 1743 005c AF42     		cmp	r7, r5
 1744 005e 80F00082 		bcs	.L115
 1745              		.loc 1 649 0 is_stmt 0 discriminator 1
 1746 0062 B5F5F27F 		cmp	r5, #484
 1747 0066 00F2FC81 		bhi	.L115
 1748              		.loc 1 653 0 is_stmt 1
 1749 006a BAF1400F 		cmp	r10, #64
 1750 006e 00F0B581 		beq	.L91
 1751 0072 BAF1800F 		cmp	r10, #128
 1752 0076 23D0     		beq	.L92
 1753 0078 BAF1200F 		cmp	r10, #32
 1754 007c 00F0A181 		beq	.L126
 1755              		.loc 1 630 0
 1756 0080 4FF00008 		mov	r8, #0
 1757 0084 CDF80480 		str	r8, [sp, #4]
 1758              	.LVL257:
 1759              	.L90:
 1760              		.loc 1 684 0
 1761 0088 BBF1400F 		cmp	fp, #64
 1762 008c 2ED0     		beq	.L95
 1763              	.L130:
 1764 008e BBF1800F 		cmp	fp, #128
 1765 0092 00F0CB81 		beq	.L96
 1766 0096 BBF1200F 		cmp	fp, #32
 1767 009a 00F0B981 		beq	.L127
ARM GAS  /tmp/cc5QaxCL.s 			page 32


 1768              		.loc 1 631 0
 1769 009e 0023     		movs	r3, #0
 1770 00a0 CDE90233 		strd	r3, r3, [sp, #8]
 1771              	.LVL258:
 1772              	.L94:
 1773              		.loc 1 715 0
 1774 00a4 0098     		ldr	r0, [sp]
 1775              	.LVL259:
 1776 00a6 FFF7FEFF 		bl	po6030_set_format
 1777              	.LVL260:
 1778 00aa 0028     		cmp	r0, #0
 1779 00ac 38D0     		beq	.L128
 1780              	.LVL261:
 1781              	.L89:
 1782              		.loc 1 904 0
 1783 00ae 0B9A     		ldr	r2, [sp, #44]
 1784 00b0 D9F80030 		ldr	r3, [r9]
 1785 00b4 9A42     		cmp	r2, r3
 1786 00b6 40F0E381 		bne	.L129
 1787 00ba 0DB0     		add	sp, sp, #52
 1788              		.cfi_remember_state
 1789              		.cfi_def_cfa_offset 36
 1790              		@ sp needed
 1791 00bc BDE8F08F 		pop	{r4, r5, r6, r7, r8, r9, r10, fp, pc}
 1792              	.LVL262:
 1793              	.L92:
 1794              		.cfi_restore_state
 1795              		.loc 1 673 0
 1796 00c0 9A07     		lsls	r2, r3, #30
 1797 00c2 40F0D781 		bne	.L118
 1798              		.loc 1 678 0
 1799 00c6 CF4A     		ldr	r2, .L133
 1800              		.loc 1 676 0
 1801 00c8 B408     		lsrs	r4, r6, #2
 1802              	.LVL263:
 1803              		.loc 1 679 0
 1804 00ca 4FEA4308 		lsl	r8, r3, #1
 1805              		.loc 1 677 0
 1806 00ce 661C     		adds	r6, r4, #1
 1807              	.LVL264:
 1808              		.loc 1 679 0
 1809 00d0 A2FB0818 		umull	r1, r8, r2, r8
 1810              	.LVL265:
 1811              		.loc 1 678 0
 1812 00d4 A2FB0312 		umull	r1, r2, r2, r3
 1813              		.loc 1 677 0
 1814 00d8 04EB9304 		add	r4, r4, r3, lsr #2
 1815              	.LVL266:
 1816              		.loc 1 684 0
 1817 00dc BBF1400F 		cmp	fp, #64
 1818              		.loc 1 678 0
 1819 00e0 06EBD203 		add	r3, r6, r2, lsr #3
 1820              	.LVL267:
 1821 00e4 0193     		str	r3, [sp, #4]
 1822              	.LVL268:
 1823              		.loc 1 679 0
 1824 00e6 06EBD808 		add	r8, r6, r8, lsr #3
ARM GAS  /tmp/cc5QaxCL.s 			page 33


 1825              	.LVL269:
 1826              		.loc 1 684 0
 1827 00ea D0D1     		bne	.L130
 1828              	.LVL270:
 1829              	.L95:
 1830              		.loc 1 692 0
 1831 00ec 1CF0010F 		tst	ip, #1
 1832 00f0 40F0C381 		bne	.L121
 1833              		.loc 1 697 0
 1834 00f4 C34B     		ldr	r3, .L133
 1835              		.loc 1 715 0
 1836 00f6 0098     		ldr	r0, [sp]
 1837              	.LVL271:
 1838              		.loc 1 695 0
 1839 00f8 7D08     		lsrs	r5, r7, #1
 1840              	.LVL272:
 1841              		.loc 1 698 0
 1842 00fa 4FEA4C02 		lsl	r2, ip, #1
 1843              		.loc 1 696 0
 1844 00fe 6F1C     		adds	r7, r5, #1
 1845              	.LVL273:
 1846              		.loc 1 698 0
 1847 0100 A3FB0212 		umull	r1, r2, r3, r2
 1848              		.loc 1 697 0
 1849 0104 A3FB0C13 		umull	r1, r3, r3, ip
 1850 0108 07EB9303 		add	r3, r7, r3, lsr #2
 1851 010c 0293     		str	r3, [sp, #8]
 1852              		.loc 1 698 0
 1853 010e 07EB9203 		add	r3, r7, r2, lsr #2
 1854              		.loc 1 696 0
 1855 0112 05EB5C05 		add	r5, r5, ip, lsr #1
 1856              	.LVL274:
 1857              		.loc 1 698 0
 1858 0116 0393     		str	r3, [sp, #12]
 1859              	.LVL275:
 1860              		.loc 1 715 0
 1861 0118 FFF7FEFF 		bl	po6030_set_format
 1862              	.LVL276:
 1863 011c 0028     		cmp	r0, #0
 1864 011e C6D1     		bne	.L89
 1865              	.L128:
 1866              	.LVL277:
 1867              	.LBB128:
 1868              	.LBB129:
 1869              		.loc 1 130 0
 1870 0120 0122     		movs	r2, #1
 1871 0122 0321     		movs	r1, #3
 1872 0124 6E20     		movs	r0, #110
 1873              	.LVL278:
 1874 0126 FFF7FEFF 		bl	write_reg
 1875              	.LVL279:
 1876              	.LBE129:
 1877              	.LBE128:
 1878              		.loc 1 719 0
 1879 012a 0028     		cmp	r0, #0
 1880 012c BFD1     		bne	.L89
 1881              		.loc 1 726 0
ARM GAS  /tmp/cc5QaxCL.s 			page 34


 1882 012e C6F30723 		ubfx	r3, r6, #8, #8
 1883 0132 1A46     		mov	r2, r3
 1884 0134 5021     		movs	r1, #80
 1885 0136 6E20     		movs	r0, #110
 1886 0138 0493     		str	r3, [sp, #16]
 1887 013a FFF7FEFF 		bl	write_reg
 1888              	.LVL280:
 1889 013e 0028     		cmp	r0, #0
 1890 0140 B5D1     		bne	.L89
 1891              		.loc 1 729 0
 1892 0142 F3B2     		uxtb	r3, r6
 1893 0144 1A46     		mov	r2, r3
 1894 0146 5121     		movs	r1, #81
 1895 0148 6E20     		movs	r0, #110
 1896              	.LVL281:
 1897 014a 0593     		str	r3, [sp, #20]
 1898 014c FFF7FEFF 		bl	write_reg
 1899              	.LVL282:
 1900 0150 0028     		cmp	r0, #0
 1901 0152 ACD1     		bne	.L89
 1902              		.loc 1 732 0
 1903 0154 C7F30723 		ubfx	r3, r7, #8, #8
 1904 0158 1A46     		mov	r2, r3
 1905 015a 5221     		movs	r1, #82
 1906 015c 6E20     		movs	r0, #110
 1907              	.LVL283:
 1908 015e 0693     		str	r3, [sp, #24]
 1909 0160 FFF7FEFF 		bl	write_reg
 1910              	.LVL284:
 1911 0164 0028     		cmp	r0, #0
 1912 0166 A2D1     		bne	.L89
 1913              		.loc 1 735 0
 1914 0168 FBB2     		uxtb	r3, r7
 1915 016a 1A46     		mov	r2, r3
 1916 016c 5321     		movs	r1, #83
 1917 016e 6E20     		movs	r0, #110
 1918              	.LVL285:
 1919 0170 0793     		str	r3, [sp, #28]
 1920 0172 FFF7FEFF 		bl	write_reg
 1921              	.LVL286:
 1922 0176 0028     		cmp	r0, #0
 1923 0178 99D1     		bne	.L89
 1924              		.loc 1 738 0
 1925 017a C4F30722 		ubfx	r2, r4, #8, #8
 1926 017e 5421     		movs	r1, #84
 1927 0180 6E20     		movs	r0, #110
 1928              	.LVL287:
 1929 0182 FFF7FEFF 		bl	write_reg
 1930              	.LVL288:
 1931 0186 0028     		cmp	r0, #0
 1932 0188 91D1     		bne	.L89
 1933              		.loc 1 741 0
 1934 018a E3B2     		uxtb	r3, r4
 1935 018c 1A46     		mov	r2, r3
 1936 018e 5521     		movs	r1, #85
 1937 0190 6E20     		movs	r0, #110
 1938              	.LVL289:
ARM GAS  /tmp/cc5QaxCL.s 			page 35


 1939 0192 0893     		str	r3, [sp, #32]
 1940 0194 FFF7FEFF 		bl	write_reg
 1941              	.LVL290:
 1942 0198 0028     		cmp	r0, #0
 1943 019a 88D1     		bne	.L89
 1944              		.loc 1 744 0
 1945 019c C5F30722 		ubfx	r2, r5, #8, #8
 1946 01a0 5621     		movs	r1, #86
 1947 01a2 6E20     		movs	r0, #110
 1948              	.LVL291:
 1949 01a4 FFF7FEFF 		bl	write_reg
 1950              	.LVL292:
 1951 01a8 0028     		cmp	r0, #0
 1952 01aa 80D1     		bne	.L89
 1953              		.loc 1 747 0
 1954 01ac EBB2     		uxtb	r3, r5
 1955 01ae 1A46     		mov	r2, r3
 1956 01b0 5721     		movs	r1, #87
 1957 01b2 6E20     		movs	r0, #110
 1958              	.LVL293:
 1959 01b4 0993     		str	r3, [sp, #36]
 1960 01b6 FFF7FEFF 		bl	write_reg
 1961              	.LVL294:
 1962 01ba 0028     		cmp	r0, #0
 1963 01bc 7FF477AF 		bne	.L89
 1964              		.loc 1 751 0
 1965 01c0 5246     		mov	r2, r10
 1966 01c2 8021     		movs	r1, #128
 1967 01c4 6E20     		movs	r0, #110
 1968              	.LVL295:
 1969 01c6 FFF7FEFF 		bl	write_reg
 1970              	.LVL296:
 1971 01ca 0028     		cmp	r0, #0
 1972 01cc 7FF46FAF 		bne	.L89
 1973              		.loc 1 754 0
 1974 01d0 5A46     		mov	r2, fp
 1975 01d2 8121     		movs	r1, #129
 1976 01d4 6E20     		movs	r0, #110
 1977              	.LVL297:
 1978 01d6 FFF7FEFF 		bl	write_reg
 1979              	.LVL298:
 1980 01da 0028     		cmp	r0, #0
 1981 01dc 7FF467AF 		bne	.L89
 1982              		.loc 1 777 0
 1983 01e0 0246     		mov	r2, r0
 1984 01e2 6021     		movs	r1, #96
 1985 01e4 6E20     		movs	r0, #110
 1986              	.LVL299:
 1987 01e6 FFF7FEFF 		bl	write_reg
 1988              	.LVL300:
 1989 01ea 0028     		cmp	r0, #0
 1990 01ec 7FF45FAF 		bne	.L89
 1991              		.loc 1 780 0
 1992 01f0 0C22     		movs	r2, #12
 1993 01f2 6121     		movs	r1, #97
 1994 01f4 6E20     		movs	r0, #110
 1995              	.LVL301:
ARM GAS  /tmp/cc5QaxCL.s 			page 36


 1996 01f6 FFF7FEFF 		bl	write_reg
 1997              	.LVL302:
 1998 01fa 0028     		cmp	r0, #0
 1999 01fc 7FF457AF 		bne	.L89
 2000              		.loc 1 783 0
 2001 0200 0122     		movs	r2, #1
 2002 0202 6221     		movs	r1, #98
 2003 0204 6E20     		movs	r0, #110
 2004              	.LVL303:
 2005 0206 FFF7FEFF 		bl	write_reg
 2006              	.LVL304:
 2007 020a 0028     		cmp	r0, #0
 2008 020c 7FF44FAF 		bne	.L89
 2009              		.loc 1 786 0
 2010 0210 EC22     		movs	r2, #236
 2011 0212 6321     		movs	r1, #99
 2012 0214 6E20     		movs	r0, #110
 2013              	.LVL305:
 2014 0216 FFF7FEFF 		bl	write_reg
 2015              	.LVL306:
 2016 021a 0028     		cmp	r0, #0
 2017 021c 7FF447AF 		bne	.L89
 2018              		.loc 1 791 0
 2019 0220 009B     		ldr	r3, [sp]
 2020 0222 0D2B     		cmp	r3, #13
 2021 0224 00F04081 		beq	.L131
 2022              		.loc 1 812 0
 2023 0228 BAF1400F 		cmp	r10, #64
 2024 022c 00F04681 		beq	.L104
 2025 0230 BAF1800F 		cmp	r10, #128
 2026 0234 00F02F81 		beq	.L105
 2027 0238 BAF1200F 		cmp	r10, #32
 2028 023c 00F02281 		beq	.L132
 2029              	.L99:
 2030              		.loc 1 833 0
 2031 0240 0122     		movs	r2, #1
 2032 0242 8221     		movs	r1, #130
 2033 0244 6E20     		movs	r0, #110
 2034              	.LVL307:
 2035 0246 FFF7FEFF 		bl	write_reg
 2036              	.LVL308:
 2037 024a 0028     		cmp	r0, #0
 2038 024c 7FF42FAF 		bne	.L89
 2039              	.LVL309:
 2040              	.LBB130:
 2041              	.LBB131:
 2042              		.loc 1 130 0
 2043 0250 0222     		movs	r2, #2
 2044 0252 0321     		movs	r1, #3
 2045 0254 6E20     		movs	r0, #110
 2046              	.LVL310:
 2047 0256 FFF7FEFF 		bl	write_reg
 2048              	.LVL311:
 2049              	.LBE131:
 2050              	.LBE130:
 2051              		.loc 1 837 0
 2052 025a 0028     		cmp	r0, #0
ARM GAS  /tmp/cc5QaxCL.s 			page 37


 2053 025c 7FF427AF 		bne	.L89
 2054              		.loc 1 841 0
 2055 0260 049A     		ldr	r2, [sp, #16]
 2056 0262 1021     		movs	r1, #16
 2057 0264 6E20     		movs	r0, #110
 2058 0266 FFF7FEFF 		bl	write_reg
 2059              	.LVL312:
 2060 026a 0028     		cmp	r0, #0
 2061 026c 7FF41FAF 		bne	.L89
 2062              		.loc 1 844 0
 2063 0270 059A     		ldr	r2, [sp, #20]
 2064 0272 1121     		movs	r1, #17
 2065 0274 6E20     		movs	r0, #110
 2066              	.LVL313:
 2067 0276 FFF7FEFF 		bl	write_reg
 2068              	.LVL314:
 2069 027a 0028     		cmp	r0, #0
 2070 027c 7FF417AF 		bne	.L89
 2071              		.loc 1 847 0
 2072 0280 069A     		ldr	r2, [sp, #24]
 2073 0282 1221     		movs	r1, #18
 2074 0284 6E20     		movs	r0, #110
 2075              	.LVL315:
 2076 0286 FFF7FEFF 		bl	write_reg
 2077              	.LVL316:
 2078 028a 0028     		cmp	r0, #0
 2079 028c 7FF40FAF 		bne	.L89
 2080              		.loc 1 850 0
 2081 0290 079A     		ldr	r2, [sp, #28]
 2082 0292 1321     		movs	r1, #19
 2083 0294 6E20     		movs	r0, #110
 2084              	.LVL317:
 2085 0296 FFF7FEFF 		bl	write_reg
 2086              	.LVL318:
 2087 029a 0028     		cmp	r0, #0
 2088 029c 7FF407AF 		bne	.L89
 2089              		.loc 1 853 0
 2090 02a0 A21B     		subs	r2, r4, r6
 2091 02a2 C2F30722 		ubfx	r2, r2, #8, #8
 2092 02a6 1421     		movs	r1, #20
 2093 02a8 6E20     		movs	r0, #110
 2094              	.LVL319:
 2095 02aa FFF7FEFF 		bl	write_reg
 2096              	.LVL320:
 2097 02ae 0028     		cmp	r0, #0
 2098 02b0 7FF4FDAE 		bne	.L89
 2099              		.loc 1 856 0
 2100 02b4 089B     		ldr	r3, [sp, #32]
 2101 02b6 059A     		ldr	r2, [sp, #20]
 2102 02b8 9A1A     		subs	r2, r3, r2
 2103 02ba D2B2     		uxtb	r2, r2
 2104 02bc 1521     		movs	r1, #21
 2105 02be 6E20     		movs	r0, #110
 2106              	.LVL321:
 2107 02c0 FFF7FEFF 		bl	write_reg
 2108              	.LVL322:
 2109 02c4 0028     		cmp	r0, #0
ARM GAS  /tmp/cc5QaxCL.s 			page 38


 2110 02c6 7FF4F2AE 		bne	.L89
 2111              		.loc 1 859 0
 2112 02ca EA1B     		subs	r2, r5, r7
 2113 02cc C2F30722 		ubfx	r2, r2, #8, #8
 2114 02d0 1621     		movs	r1, #22
 2115 02d2 6E20     		movs	r0, #110
 2116              	.LVL323:
 2117 02d4 FFF7FEFF 		bl	write_reg
 2118              	.LVL324:
 2119 02d8 0028     		cmp	r0, #0
 2120 02da 7FF4E8AE 		bne	.L89
 2121              		.loc 1 862 0
 2122 02de 099B     		ldr	r3, [sp, #36]
 2123 02e0 079A     		ldr	r2, [sp, #28]
 2124 02e2 9A1A     		subs	r2, r3, r2
 2125 02e4 D2B2     		uxtb	r2, r2
 2126 02e6 1721     		movs	r1, #23
 2127 02e8 6E20     		movs	r0, #110
 2128              	.LVL325:
 2129 02ea FFF7FEFF 		bl	write_reg
 2130              	.LVL326:
 2131 02ee 0028     		cmp	r0, #0
 2132 02f0 7FF4DDAE 		bne	.L89
 2133              		.loc 1 866 0
 2134 02f4 019B     		ldr	r3, [sp, #4]
 2135 02f6 1821     		movs	r1, #24
 2136 02f8 C3F30722 		ubfx	r2, r3, #8, #8
 2137 02fc 6E20     		movs	r0, #110
 2138              	.LVL327:
 2139 02fe FFF7FEFF 		bl	write_reg
 2140              	.LVL328:
 2141 0302 0028     		cmp	r0, #0
 2142 0304 7FF4D3AE 		bne	.L89
 2143              		.loc 1 869 0
 2144 0308 9DF80430 		ldrb	r3, [sp, #4]	@ zero_extendqisi2
 2145 030c 0493     		str	r3, [sp, #16]
 2146 030e 1A46     		mov	r2, r3
 2147 0310 1921     		movs	r1, #25
 2148 0312 6E20     		movs	r0, #110
 2149              	.LVL329:
 2150 0314 FFF7FEFF 		bl	write_reg
 2151              	.LVL330:
 2152 0318 0028     		cmp	r0, #0
 2153 031a 7FF4C8AE 		bne	.L89
 2154              		.loc 1 872 0
 2155 031e 029B     		ldr	r3, [sp, #8]
 2156 0320 1A21     		movs	r1, #26
 2157 0322 C3F30722 		ubfx	r2, r3, #8, #8
 2158 0326 6E20     		movs	r0, #110
 2159              	.LVL331:
 2160 0328 FFF7FEFF 		bl	write_reg
 2161              	.LVL332:
 2162 032c 0028     		cmp	r0, #0
 2163 032e 7FF4BEAE 		bne	.L89
 2164              		.loc 1 875 0
 2165 0332 9DF80830 		ldrb	r3, [sp, #8]	@ zero_extendqisi2
 2166 0336 0593     		str	r3, [sp, #20]
ARM GAS  /tmp/cc5QaxCL.s 			page 39


 2167 0338 1A46     		mov	r2, r3
 2168 033a 1B21     		movs	r1, #27
 2169 033c 6E20     		movs	r0, #110
 2170              	.LVL333:
 2171 033e FFF7FEFF 		bl	write_reg
 2172              	.LVL334:
 2173 0342 0028     		cmp	r0, #0
 2174 0344 7FF4B3AE 		bne	.L89
 2175              		.loc 1 878 0
 2176 0348 019B     		ldr	r3, [sp, #4]
 2177 034a A8EB0302 		sub	r2, r8, r3
 2178 034e C2F30722 		ubfx	r2, r2, #8, #8
 2179 0352 1C21     		movs	r1, #28
 2180 0354 6E20     		movs	r0, #110
 2181              	.LVL335:
 2182 0356 FFF7FEFF 		bl	write_reg
 2183              	.LVL336:
 2184 035a 0028     		cmp	r0, #0
 2185 035c 7FF4A7AE 		bne	.L89
 2186              		.loc 1 881 0
 2187 0360 049B     		ldr	r3, [sp, #16]
 2188 0362 A8EB0302 		sub	r2, r8, r3
 2189 0366 D2B2     		uxtb	r2, r2
 2190 0368 1D21     		movs	r1, #29
 2191 036a 6E20     		movs	r0, #110
 2192              	.LVL337:
 2193 036c FFF7FEFF 		bl	write_reg
 2194              	.LVL338:
 2195 0370 0028     		cmp	r0, #0
 2196 0372 7FF49CAE 		bne	.L89
 2197              		.loc 1 884 0
 2198 0376 DDE90223 		ldrd	r2, r3, [sp, #8]
 2199 037a 9A1A     		subs	r2, r3, r2
 2200 037c C2F30722 		ubfx	r2, r2, #8, #8
 2201 0380 1E21     		movs	r1, #30
 2202 0382 6E20     		movs	r0, #110
 2203              	.LVL339:
 2204 0384 FFF7FEFF 		bl	write_reg
 2205              	.LVL340:
 2206 0388 0028     		cmp	r0, #0
 2207 038a 7FF490AE 		bne	.L89
 2208              		.loc 1 887 0
 2209 038e 039B     		ldr	r3, [sp, #12]
 2210 0390 059A     		ldr	r2, [sp, #20]
 2211 0392 9A1A     		subs	r2, r3, r2
 2212 0394 D2B2     		uxtb	r2, r2
 2213 0396 1F21     		movs	r1, #31
 2214 0398 6E20     		movs	r0, #110
 2215              	.LVL341:
 2216 039a FFF7FEFF 		bl	write_reg
 2217              	.LVL342:
 2218 039e 0028     		cmp	r0, #0
 2219 03a0 7FF485AE 		bne	.L89
 2220              		.loc 1 891 0
 2221 03a4 184B     		ldr	r3, .L133+4
 2222              		.loc 1 893 0
 2223 03a6 9DF80020 		ldrb	r2, [sp]	@ zero_extendqisi2
ARM GAS  /tmp/cc5QaxCL.s 			page 40


 2224 03aa 1A71     		strb	r2, [r3, #4]
 2225              		.loc 1 891 0
 2226 03ac 0134     		adds	r4, r4, #1
 2227              	.LVL343:
 2228              		.loc 1 892 0
 2229 03ae 0135     		adds	r5, r5, #1
 2230              	.LVL344:
 2231              		.loc 1 891 0
 2232 03b0 A61B     		subs	r6, r4, r6
 2233              	.LVL345:
 2234              		.loc 1 892 0
 2235 03b2 EF1B     		subs	r7, r5, r7
 2236              	.LVL346:
 2237              		.loc 1 891 0
 2238 03b4 1E80     		strh	r6, [r3]	@ movhi
 2239              		.loc 1 892 0
 2240 03b6 5F80     		strh	r7, [r3, #2]	@ movhi
 2241              		.loc 1 894 0
 2242 03b8 83F805A0 		strb	r10, [r3, #5]
 2243              		.loc 1 895 0
 2244 03bc 83F806B0 		strb	fp, [r3, #6]
 2245              		.loc 1 903 0
 2246 03c0 75E6     		b	.L89
 2247              	.LVL347:
 2248              	.L126:
 2249              		.loc 1 655 0
 2250 03c2 104A     		ldr	r2, .L133
 2251              		.loc 1 656 0
 2252 03c4 4FEA4308 		lsl	r8, r3, #1
 2253              		.loc 1 655 0
 2254 03c8 A2FB0313 		umull	r1, r3, r2, r3
 2255              	.LVL348:
 2256 03cc 06EB5303 		add	r3, r6, r3, lsr #1
 2257              		.loc 1 656 0
 2258 03d0 A2FB0828 		umull	r2, r8, r2, r8
 2259              		.loc 1 655 0
 2260 03d4 0193     		str	r3, [sp, #4]
 2261              	.LVL349:
 2262              		.loc 1 656 0
 2263 03d6 06EB5808 		add	r8, r6, r8, lsr #1
 2264              	.LVL350:
 2265              		.loc 1 657 0
 2266 03da 55E6     		b	.L90
 2267              	.LVL351:
 2268              	.L91:
 2269              		.loc 1 661 0
 2270 03dc D907     		lsls	r1, r3, #31
 2271 03de 49D4     		bmi	.L118
 2272              		.loc 1 666 0
 2273 03e0 084A     		ldr	r2, .L133
 2274              		.loc 1 664 0
 2275 03e2 7408     		lsrs	r4, r6, #1
 2276              	.LVL352:
 2277              		.loc 1 667 0
 2278 03e4 4FEA4308 		lsl	r8, r3, #1
 2279              		.loc 1 665 0
 2280 03e8 661C     		adds	r6, r4, #1
ARM GAS  /tmp/cc5QaxCL.s 			page 41


 2281              	.LVL353:
 2282              		.loc 1 667 0
 2283 03ea A2FB0818 		umull	r1, r8, r2, r8
 2284              		.loc 1 666 0
 2285 03ee A2FB0312 		umull	r1, r2, r2, r3
 2286              		.loc 1 665 0
 2287 03f2 04EB5304 		add	r4, r4, r3, lsr #1
 2288              	.LVL354:
 2289              		.loc 1 666 0
 2290 03f6 06EB9203 		add	r3, r6, r2, lsr #2
 2291              	.LVL355:
 2292 03fa 0193     		str	r3, [sp, #4]
 2293              	.LVL356:
 2294              		.loc 1 667 0
 2295 03fc 06EB9808 		add	r8, r6, r8, lsr #2
 2296              	.LVL357:
 2297              		.loc 1 669 0
 2298 0400 42E6     		b	.L90
 2299              	.L134:
 2300 0402 00BF     		.align	2
 2301              	.L133:
 2302 0404 ABAAAAAA 		.word	-1431655765
 2303 0408 00000000 		.word	.LANCHOR0
 2304 040c 00000000 		.word	__stack_chk_guard
 2305              	.LVL358:
 2306              	.L127:
 2307              		.loc 1 686 0
 2308 0410 334A     		ldr	r2, .L135
 2309              		.loc 1 687 0
 2310 0412 4FEA4C03 		lsl	r3, ip, #1
 2311              		.loc 1 686 0
 2312 0416 A2FB0C1C 		umull	r1, ip, r2, ip
 2313              		.loc 1 687 0
 2314 041a A2FB0323 		umull	r2, r3, r2, r3
 2315 041e 07EB5303 		add	r3, r7, r3, lsr #1
 2316              		.loc 1 686 0
 2317 0422 07EB5C02 		add	r2, r7, ip, lsr #1
 2318 0426 0292     		str	r2, [sp, #8]
 2319              	.LVL359:
 2320              		.loc 1 687 0
 2321 0428 0393     		str	r3, [sp, #12]
 2322              	.LVL360:
 2323              		.loc 1 688 0
 2324 042a 3BE6     		b	.L94
 2325              	.LVL361:
 2326              	.L96:
 2327              		.loc 1 704 0
 2328 042c 1CF0030F 		tst	ip, #3
 2329 0430 23D1     		bne	.L121
 2330              		.loc 1 709 0
 2331 0432 2B4B     		ldr	r3, .L135
 2332              		.loc 1 707 0
 2333 0434 BD08     		lsrs	r5, r7, #2
 2334              	.LVL362:
 2335              		.loc 1 710 0
 2336 0436 4FEA4C02 		lsl	r2, ip, #1
 2337              		.loc 1 708 0
ARM GAS  /tmp/cc5QaxCL.s 			page 42


 2338 043a 6F1C     		adds	r7, r5, #1
 2339              	.LVL363:
 2340              		.loc 1 710 0
 2341 043c A3FB0212 		umull	r1, r2, r3, r2
 2342              		.loc 1 709 0
 2343 0440 A3FB0C13 		umull	r1, r3, r3, ip
 2344 0444 07EBD303 		add	r3, r7, r3, lsr #3
 2345 0448 0293     		str	r3, [sp, #8]
 2346              		.loc 1 710 0
 2347 044a 07EBD203 		add	r3, r7, r2, lsr #3
 2348              		.loc 1 708 0
 2349 044e 05EB9C05 		add	r5, r5, ip, lsr #2
 2350              	.LVL364:
 2351              		.loc 1 710 0
 2352 0452 0393     		str	r3, [sp, #12]
 2353              	.LVL365:
 2354              		.loc 1 712 0
 2355 0454 26E6     		b	.L94
 2356              	.LVL366:
 2357              	.L109:
 2358              		.loc 1 634 0
 2359 0456 6FF00700 		mvn	r0, #7
 2360              	.LVL367:
 2361 045a 28E6     		b	.L89
 2362              	.LVL368:
 2363              	.L113:
 2364              		.loc 1 646 0
 2365 045c 6FF00300 		mvn	r0, #3
 2366              	.LVL369:
 2367 0460 25E6     		b	.L89
 2368              	.LVL370:
 2369              	.L115:
 2370              		.loc 1 650 0
 2371 0462 6FF00400 		mvn	r0, #4
 2372              	.LVL371:
 2373 0466 22E6     		b	.L89
 2374              	.LVL372:
 2375              	.L110:
 2376              		.loc 1 638 0
 2377 0468 6FF00100 		mvn	r0, #1
 2378              	.LVL373:
 2379 046c 1FE6     		b	.L89
 2380              	.LVL374:
 2381              	.L111:
 2382              		.loc 1 642 0
 2383 046e 6FF00200 		mvn	r0, #2
 2384              	.LVL375:
 2385 0472 1CE6     		b	.L89
 2386              	.LVL376:
 2387              	.L118:
 2388              		.loc 1 662 0
 2389 0474 6FF00500 		mvn	r0, #5
 2390              	.LVL377:
 2391 0478 19E6     		b	.L89
 2392              	.LVL378:
 2393              	.L121:
 2394              		.loc 1 693 0
ARM GAS  /tmp/cc5QaxCL.s 			page 43


 2395 047a 6FF00600 		mvn	r0, #6
 2396              	.LVL379:
 2397 047e 16E6     		b	.L89
 2398              	.LVL380:
 2399              	.L129:
 2400              		.loc 1 904 0
 2401 0480 FFF7FEFF 		bl	__stack_chk_fail
 2402              	.LVL381:
 2403              	.L132:
 2404              		.loc 1 814 0
 2405 0484 0022     		movs	r2, #0
 2406 0486 6821     		movs	r1, #104
 2407 0488 6E20     		movs	r0, #110
 2408              	.LVL382:
 2409 048a FFF7FEFF 		bl	write_reg
 2410              	.LVL383:
 2411 048e 0028     		cmp	r0, #0
 2412 0490 3FF4D6AE 		beq	.L99
 2413 0494 0BE6     		b	.L89
 2414              	.L105:
 2415              		.loc 1 826 0
 2416 0496 0322     		movs	r2, #3
 2417 0498 6821     		movs	r1, #104
 2418 049a 6E20     		movs	r0, #110
 2419              	.LVL384:
 2420 049c FFF7FEFF 		bl	write_reg
 2421              	.LVL385:
 2422 04a0 0028     		cmp	r0, #0
 2423 04a2 3FF4CDAE 		beq	.L99
 2424 04a6 02E6     		b	.L89
 2425              	.L131:
 2426              		.loc 1 792 0
 2427 04a8 BAF1400F 		cmp	r10, #64
 2428 04ac F3D0     		beq	.L105
 2429 04ae BAF1800F 		cmp	r10, #128
 2430 04b2 0CD0     		beq	.L101
 2431 04b4 BAF1200F 		cmp	r10, #32
 2432 04b8 7FF4C2AE 		bne	.L99
 2433              	.L104:
 2434              		.loc 1 820 0
 2435 04bc 0122     		movs	r2, #1
 2436 04be 6821     		movs	r1, #104
 2437 04c0 6E20     		movs	r0, #110
 2438              	.LVL386:
 2439 04c2 FFF7FEFF 		bl	write_reg
 2440              	.LVL387:
 2441 04c6 0028     		cmp	r0, #0
 2442 04c8 3FF4BAAE 		beq	.L99
 2443 04cc EFE5     		b	.L89
 2444              	.L101:
 2445              		.loc 1 806 0
 2446 04ce 0722     		movs	r2, #7
 2447 04d0 6821     		movs	r1, #104
 2448 04d2 6E20     		movs	r0, #110
 2449              	.LVL388:
 2450 04d4 FFF7FEFF 		bl	write_reg
 2451              	.LVL389:
ARM GAS  /tmp/cc5QaxCL.s 			page 44


 2452 04d8 0028     		cmp	r0, #0
 2453 04da 3FF4B1AE 		beq	.L99
 2454 04de E6E5     		b	.L89
 2455              	.L136:
 2456              		.align	2
 2457              	.L135:
 2458 04e0 ABAAAAAA 		.word	-1431655765
 2459              		.cfi_endproc
 2460              	.LFE266:
 2461              		.size	po6030_advanced_config, .-po6030_advanced_config
 2462              		.section	.text.po6030_start,"ax",%progbits
 2463              		.align	1
 2464              		.p2align 4,,15
 2465              		.global	po6030_start
 2466              		.syntax unified
 2467              		.thumb
 2468              		.thumb_func
 2469              		.fpu fpv4-sp-d16
 2470              		.type	po6030_start, %function
 2471              	po6030_start:
 2472              	.LFB264:
 2473              		.loc 1 602 0
 2474              		.cfi_startproc
 2475              		@ args = 0, pretend = 0, frame = 8
 2476              		@ frame_needed = 0, uses_anonymous_args = 0
 2477 0000 30B5     		push	{r4, r5, lr}
 2478              		.cfi_def_cfa_offset 12
 2479              		.cfi_offset 4, -12
 2480              		.cfi_offset 5, -8
 2481              		.cfi_offset 14, -4
 2482 0002 0B4C     		ldr	r4, .L141
 2483 0004 87B0     		sub	sp, sp, #28
 2484              		.cfi_def_cfa_offset 40
 2485              		.loc 1 604 0
 2486 0006 2023     		movs	r3, #32
 2487 0008 7822     		movs	r2, #120
 2488              		.loc 1 602 0
 2489 000a 2568     		ldr	r5, [r4]
 2490              		.loc 1 604 0
 2491 000c 0092     		str	r2, [sp]
 2492 000e CDE90133 		strd	r3, r3, [sp, #4]
 2493 0012 B422     		movs	r2, #180
 2494 0014 A023     		movs	r3, #160
 2495 0016 F021     		movs	r1, #240
 2496 0018 0220     		movs	r0, #2
 2497              		.loc 1 602 0
 2498 001a 0595     		str	r5, [sp, #20]
 2499              		.loc 1 604 0
 2500 001c FFF7FEFF 		bl	po6030_advanced_config
 2501              	.LVL390:
 2502              		.loc 1 605 0
 2503 0020 059A     		ldr	r2, [sp, #20]
 2504 0022 2368     		ldr	r3, [r4]
 2505 0024 9A42     		cmp	r2, r3
 2506 0026 01D1     		bne	.L140
 2507 0028 07B0     		add	sp, sp, #28
 2508              		.cfi_remember_state
ARM GAS  /tmp/cc5QaxCL.s 			page 45


 2509              		.cfi_def_cfa_offset 12
 2510              		@ sp needed
 2511 002a 30BD     		pop	{r4, r5, pc}
 2512              	.L140:
 2513              		.cfi_restore_state
 2514 002c FFF7FEFF 		bl	__stack_chk_fail
 2515              	.LVL391:
 2516              	.L142:
 2517              		.align	2
 2518              	.L141:
 2519 0030 00000000 		.word	__stack_chk_guard
 2520              		.cfi_endproc
 2521              	.LFE264:
 2522              		.size	po6030_start, .-po6030_start
 2523              		.section	.text.po6030_set_brightness,"ax",%progbits
 2524              		.align	1
 2525              		.p2align 4,,15
 2526              		.global	po6030_set_brightness
 2527              		.syntax unified
 2528              		.thumb
 2529              		.thumb_func
 2530              		.fpu fpv4-sp-d16
 2531              		.type	po6030_set_brightness, %function
 2532              	po6030_set_brightness:
 2533              	.LFB267:
 2534              		.loc 1 906 0
 2535              		.cfi_startproc
 2536              		@ args = 0, pretend = 0, frame = 8
 2537              		@ frame_needed = 0, uses_anonymous_args = 0
 2538              	.LVL392:
 2539 0000 30B5     		push	{r4, r5, lr}
 2540              		.cfi_def_cfa_offset 12
 2541              		.cfi_offset 4, -12
 2542              		.cfi_offset 5, -8
 2543              		.cfi_offset 14, -4
 2544 0002 0E4C     		ldr	r4, .L150
 2545 0004 83B0     		sub	sp, sp, #12
 2546              		.cfi_def_cfa_offset 24
 2547              		.loc 1 906 0
 2548 0006 2368     		ldr	r3, [r4]
 2549 0008 0193     		str	r3, [sp, #4]
 2550              	.LVL393:
 2551              	.LBB132:
 2552              	.LBB133:
 2553              		.loc 1 130 0
 2554 000a 0122     		movs	r2, #1
 2555              	.LBE133:
 2556              	.LBE132:
 2557              		.loc 1 906 0
 2558 000c 0546     		mov	r5, r0
 2559              	.LBB135:
 2560              	.LBB134:
 2561              		.loc 1 130 0
 2562 000e 0321     		movs	r1, #3
 2563 0010 6E20     		movs	r0, #110
 2564              	.LVL394:
 2565 0012 FFF7FEFF 		bl	write_reg
ARM GAS  /tmp/cc5QaxCL.s 			page 46


 2566              	.LVL395:
 2567              	.LBE134:
 2568              	.LBE135:
 2569              		.loc 1 912 0
 2570 0016 019A     		ldr	r2, [sp, #4]
 2571 0018 2368     		ldr	r3, [r4]
 2572              		.loc 1 908 0
 2573 001a 18B1     		cbz	r0, .L149
 2574              		.loc 1 912 0
 2575 001c 9A42     		cmp	r2, r3
 2576 001e 0BD1     		bne	.L148
 2577 0020 03B0     		add	sp, sp, #12
 2578              		.cfi_remember_state
 2579              		.cfi_def_cfa_offset 12
 2580              		@ sp needed
 2581 0022 30BD     		pop	{r4, r5, pc}
 2582              	.L149:
 2583              		.cfi_restore_state
 2584              		.loc 1 911 0
 2585 0024 9A42     		cmp	r2, r3
 2586 0026 07D1     		bne	.L148
 2587 0028 2A46     		mov	r2, r5
 2588 002a 9221     		movs	r1, #146
 2589 002c 6E20     		movs	r0, #110
 2590              		.loc 1 912 0
 2591 002e 03B0     		add	sp, sp, #12
 2592              		.cfi_remember_state
 2593              		.cfi_def_cfa_offset 12
 2594              		@ sp needed
 2595 0030 BDE83040 		pop	{r4, r5, lr}
 2596              		.cfi_restore 14
 2597              		.cfi_restore 5
 2598              		.cfi_restore 4
 2599              		.cfi_def_cfa_offset 0
 2600              		.loc 1 911 0
 2601 0034 FFF7FEBF 		b	write_reg
 2602              	.LVL396:
 2603              	.L148:
 2604              		.cfi_restore_state
 2605              		.loc 1 912 0
 2606 0038 FFF7FEFF 		bl	__stack_chk_fail
 2607              	.LVL397:
 2608              	.L151:
 2609              		.align	2
 2610              	.L150:
 2611 003c 00000000 		.word	__stack_chk_guard
 2612              		.cfi_endproc
 2613              	.LFE267:
 2614              		.size	po6030_set_brightness, .-po6030_set_brightness
 2615              		.section	.text.po6030_set_contrast,"ax",%progbits
 2616              		.align	1
 2617              		.p2align 4,,15
 2618              		.global	po6030_set_contrast
 2619              		.syntax unified
 2620              		.thumb
 2621              		.thumb_func
 2622              		.fpu fpv4-sp-d16
ARM GAS  /tmp/cc5QaxCL.s 			page 47


 2623              		.type	po6030_set_contrast, %function
 2624              	po6030_set_contrast:
 2625              	.LFB268:
 2626              		.loc 1 914 0
 2627              		.cfi_startproc
 2628              		@ args = 0, pretend = 0, frame = 8
 2629              		@ frame_needed = 0, uses_anonymous_args = 0
 2630              	.LVL398:
 2631 0000 30B5     		push	{r4, r5, lr}
 2632              		.cfi_def_cfa_offset 12
 2633              		.cfi_offset 4, -12
 2634              		.cfi_offset 5, -8
 2635              		.cfi_offset 14, -4
 2636 0002 0E4C     		ldr	r4, .L159
 2637 0004 83B0     		sub	sp, sp, #12
 2638              		.cfi_def_cfa_offset 24
 2639              		.loc 1 914 0
 2640 0006 2368     		ldr	r3, [r4]
 2641 0008 0193     		str	r3, [sp, #4]
 2642              	.LVL399:
 2643              	.LBB136:
 2644              	.LBB137:
 2645              		.loc 1 130 0
 2646 000a 0122     		movs	r2, #1
 2647              	.LBE137:
 2648              	.LBE136:
 2649              		.loc 1 914 0
 2650 000c 0546     		mov	r5, r0
 2651              	.LBB139:
 2652              	.LBB138:
 2653              		.loc 1 130 0
 2654 000e 0321     		movs	r1, #3
 2655 0010 6E20     		movs	r0, #110
 2656              	.LVL400:
 2657 0012 FFF7FEFF 		bl	write_reg
 2658              	.LVL401:
 2659              	.LBE138:
 2660              	.LBE139:
 2661              		.loc 1 920 0
 2662 0016 019A     		ldr	r2, [sp, #4]
 2663 0018 2368     		ldr	r3, [r4]
 2664              		.loc 1 916 0
 2665 001a 18B1     		cbz	r0, .L158
 2666              		.loc 1 920 0
 2667 001c 9A42     		cmp	r2, r3
 2668 001e 0BD1     		bne	.L157
 2669 0020 03B0     		add	sp, sp, #12
 2670              		.cfi_remember_state
 2671              		.cfi_def_cfa_offset 12
 2672              		@ sp needed
 2673 0022 30BD     		pop	{r4, r5, pc}
 2674              	.L158:
 2675              		.cfi_restore_state
 2676              		.loc 1 919 0
 2677 0024 9A42     		cmp	r2, r3
 2678 0026 07D1     		bne	.L157
 2679 0028 2A46     		mov	r2, r5
ARM GAS  /tmp/cc5QaxCL.s 			page 48


 2680 002a 9121     		movs	r1, #145
 2681 002c 6E20     		movs	r0, #110
 2682              		.loc 1 920 0
 2683 002e 03B0     		add	sp, sp, #12
 2684              		.cfi_remember_state
 2685              		.cfi_def_cfa_offset 12
 2686              		@ sp needed
 2687 0030 BDE83040 		pop	{r4, r5, lr}
 2688              		.cfi_restore 14
 2689              		.cfi_restore 5
 2690              		.cfi_restore 4
 2691              		.cfi_def_cfa_offset 0
 2692              		.loc 1 919 0
 2693 0034 FFF7FEBF 		b	write_reg
 2694              	.LVL402:
 2695              	.L157:
 2696              		.cfi_restore_state
 2697              		.loc 1 920 0
 2698 0038 FFF7FEFF 		bl	__stack_chk_fail
 2699              	.LVL403:
 2700              	.L160:
 2701              		.align	2
 2702              	.L159:
 2703 003c 00000000 		.word	__stack_chk_guard
 2704              		.cfi_endproc
 2705              	.LFE268:
 2706              		.size	po6030_set_contrast, .-po6030_set_contrast
 2707              		.section	.text.po6030_set_mirror,"ax",%progbits
 2708              		.align	1
 2709              		.p2align 4,,15
 2710              		.global	po6030_set_mirror
 2711              		.syntax unified
 2712              		.thumb
 2713              		.thumb_func
 2714              		.fpu fpv4-sp-d16
 2715              		.type	po6030_set_mirror, %function
 2716              	po6030_set_mirror:
 2717              	.LFB269:
 2718              		.loc 1 922 0
 2719              		.cfi_startproc
 2720              		@ args = 0, pretend = 0, frame = 8
 2721              		@ frame_needed = 0, uses_anonymous_args = 0
 2722              	.LVL404:
 2723 0000 70B5     		push	{r4, r5, r6, lr}
 2724              		.cfi_def_cfa_offset 16
 2725              		.cfi_offset 4, -16
 2726              		.cfi_offset 5, -12
 2727              		.cfi_offset 6, -8
 2728              		.cfi_offset 14, -4
 2729 0002 134C     		ldr	r4, .L170
 2730 0004 82B0     		sub	sp, sp, #8
 2731              		.cfi_def_cfa_offset 24
 2732              		.loc 1 922 0
 2733 0006 0646     		mov	r6, r0
 2734 0008 0D46     		mov	r5, r1
 2735 000a 2368     		ldr	r3, [r4]
 2736 000c 0193     		str	r3, [sp, #4]
ARM GAS  /tmp/cc5QaxCL.s 			page 49


 2737              	.LVL405:
 2738              	.LBB140:
 2739              	.LBB141:
 2740              		.loc 1 130 0
 2741 000e 0022     		movs	r2, #0
 2742 0010 0321     		movs	r1, #3
 2743              	.LVL406:
 2744 0012 6E20     		movs	r0, #110
 2745              	.LVL407:
 2746 0014 FFF7FEFF 		bl	write_reg
 2747              	.LVL408:
 2748              	.LBE141:
 2749              	.LBE140:
 2750              		.loc 1 926 0
 2751 0018 90B9     		cbnz	r0, .L162
 2752              		.loc 1 930 0
 2753 001a 012E     		cmp	r6, #1
 2754              		.loc 1 937 0
 2755 001c 0199     		ldr	r1, [sp, #4]
 2756 001e 2368     		ldr	r3, [r4]
 2757              		.loc 1 931 0
 2758 0020 0CBF     		ite	eq
 2759 0022 B522     		moveq	r2, #181
 2760 0024 3522     		movne	r2, #53
 2761              	.LVL409:
 2762              		.loc 1 933 0
 2763 0026 012D     		cmp	r5, #1
 2764              		.loc 1 934 0
 2765 0028 08BF     		it	eq
 2766 002a 42F04002 		orreq	r2, r2, #64
 2767              	.LVL410:
 2768              		.loc 1 937 0
 2769 002e 9942     		cmp	r1, r3
 2770 0030 0CD1     		bne	.L169
 2771 0032 9021     		movs	r1, #144
 2772 0034 6E20     		movs	r0, #110
 2773              		.loc 1 938 0
 2774 0036 02B0     		add	sp, sp, #8
 2775              		.cfi_remember_state
 2776              		.cfi_def_cfa_offset 16
 2777              		@ sp needed
 2778 0038 BDE87040 		pop	{r4, r5, r6, lr}
 2779              		.cfi_restore 14
 2780              		.cfi_restore 6
 2781              		.cfi_restore 5
 2782              		.cfi_restore 4
 2783              		.cfi_def_cfa_offset 0
 2784              		.loc 1 937 0
 2785 003c FFF7FEBF 		b	write_reg
 2786              	.LVL411:
 2787              	.L162:
 2788              		.cfi_restore_state
 2789              		.loc 1 938 0
 2790 0040 019A     		ldr	r2, [sp, #4]
 2791 0042 2368     		ldr	r3, [r4]
 2792 0044 9A42     		cmp	r2, r3
 2793 0046 01D1     		bne	.L169
ARM GAS  /tmp/cc5QaxCL.s 			page 50


 2794 0048 02B0     		add	sp, sp, #8
 2795              		.cfi_remember_state
 2796              		.cfi_def_cfa_offset 16
 2797              		@ sp needed
 2798 004a 70BD     		pop	{r4, r5, r6, pc}
 2799              	.LVL412:
 2800              	.L169:
 2801              		.cfi_restore_state
 2802 004c FFF7FEFF 		bl	__stack_chk_fail
 2803              	.LVL413:
 2804              	.L171:
 2805              		.align	2
 2806              	.L170:
 2807 0050 00000000 		.word	__stack_chk_guard
 2808              		.cfi_endproc
 2809              	.LFE269:
 2810              		.size	po6030_set_mirror, .-po6030_set_mirror
 2811              		.section	.text.po6030_set_awb,"ax",%progbits
 2812              		.align	1
 2813              		.p2align 4,,15
 2814              		.global	po6030_set_awb
 2815              		.syntax unified
 2816              		.thumb
 2817              		.thumb_func
 2818              		.fpu fpv4-sp-d16
 2819              		.type	po6030_set_awb, %function
 2820              	po6030_set_awb:
 2821              	.LFB270:
 2822              		.loc 1 940 0
 2823              		.cfi_startproc
 2824              		@ args = 0, pretend = 0, frame = 8
 2825              		@ frame_needed = 0, uses_anonymous_args = 0
 2826              	.LVL414:
 2827 0000 30B5     		push	{r4, r5, lr}
 2828              		.cfi_def_cfa_offset 12
 2829              		.cfi_offset 4, -12
 2830              		.cfi_offset 5, -8
 2831              		.cfi_offset 14, -4
 2832 0002 164C     		ldr	r4, .L180
 2833 0004 83B0     		sub	sp, sp, #12
 2834              		.cfi_def_cfa_offset 24
 2835              		.loc 1 940 0
 2836 0006 2368     		ldr	r3, [r4]
 2837 0008 0193     		str	r3, [sp, #4]
 2838              	.LVL415:
 2839 000a 0546     		mov	r5, r0
 2840              		.loc 1 942 0
 2841 000c 0023     		movs	r3, #0
 2842              	.LBB142:
 2843              	.LBB143:
 2844              		.loc 1 130 0
 2845 000e 0222     		movs	r2, #2
 2846 0010 0321     		movs	r1, #3
 2847 0012 6E20     		movs	r0, #110
 2848              	.LVL416:
 2849              	.LBE143:
 2850              	.LBE142:
ARM GAS  /tmp/cc5QaxCL.s 			page 51


 2851              		.loc 1 942 0
 2852 0014 8DF80330 		strb	r3, [sp, #3]
 2853              	.LVL417:
 2854              	.LBB145:
 2855              	.LBB144:
 2856              		.loc 1 130 0
 2857 0018 FFF7FEFF 		bl	write_reg
 2858              	.LVL418:
 2859              	.LBE144:
 2860              	.LBE145:
 2861              		.loc 1 944 0
 2862 001c 28B1     		cbz	r0, .L178
 2863              	.L173:
 2864              		.loc 1 959 0
 2865 001e 019A     		ldr	r2, [sp, #4]
 2866 0020 2368     		ldr	r3, [r4]
 2867 0022 9A42     		cmp	r2, r3
 2868 0024 18D1     		bne	.L179
 2869 0026 03B0     		add	sp, sp, #12
 2870              		.cfi_remember_state
 2871              		.cfi_def_cfa_offset 12
 2872              		@ sp needed
 2873 0028 30BD     		pop	{r4, r5, pc}
 2874              	.L178:
 2875              		.cfi_restore_state
 2876              		.loc 1 948 0
 2877 002a 0DF10302 		add	r2, sp, #3
 2878 002e 0421     		movs	r1, #4
 2879 0030 6E20     		movs	r0, #110
 2880 0032 FFF7FEFF 		bl	read_reg
 2881              	.LVL419:
 2882 0036 0028     		cmp	r0, #0
 2883 0038 F1D1     		bne	.L173
 2884 003a 9DF80320 		ldrb	r2, [sp, #3]	@ zero_extendqisi2
 2885              		.loc 1 952 0
 2886 003e 012D     		cmp	r5, #1
 2887              		.loc 1 953 0
 2888 0040 0CBF     		ite	eq
 2889 0042 02F0FB02 		andeq	r2, r2, #251
 2890              		.loc 1 955 0
 2891 0046 42F00402 		orrne	r2, r2, #4
 2892              		.loc 1 958 0
 2893 004a 0421     		movs	r1, #4
 2894 004c 6E20     		movs	r0, #110
 2895              	.LVL420:
 2896              		.loc 1 955 0
 2897 004e 8DF80320 		strb	r2, [sp, #3]
 2898              		.loc 1 958 0
 2899 0052 FFF7FEFF 		bl	write_reg
 2900              	.LVL421:
 2901 0056 E2E7     		b	.L173
 2902              	.L179:
 2903              		.loc 1 959 0
 2904 0058 FFF7FEFF 		bl	__stack_chk_fail
 2905              	.LVL422:
 2906              	.L181:
 2907              		.align	2
ARM GAS  /tmp/cc5QaxCL.s 			page 52


 2908              	.L180:
 2909 005c 00000000 		.word	__stack_chk_guard
 2910              		.cfi_endproc
 2911              	.LFE270:
 2912              		.size	po6030_set_awb, .-po6030_set_awb
 2913              		.section	.text.po6030_set_rgb_gain,"ax",%progbits
 2914              		.align	1
 2915              		.p2align 4,,15
 2916              		.global	po6030_set_rgb_gain
 2917              		.syntax unified
 2918              		.thumb
 2919              		.thumb_func
 2920              		.fpu fpv4-sp-d16
 2921              		.type	po6030_set_rgb_gain, %function
 2922              	po6030_set_rgb_gain:
 2923              	.LFB271:
 2924              		.loc 1 961 0
 2925              		.cfi_startproc
 2926              		@ args = 0, pretend = 0, frame = 8
 2927              		@ frame_needed = 0, uses_anonymous_args = 0
 2928              	.LVL423:
 2929 0000 F0B5     		push	{r4, r5, r6, r7, lr}
 2930              		.cfi_def_cfa_offset 20
 2931              		.cfi_offset 4, -20
 2932              		.cfi_offset 5, -16
 2933              		.cfi_offset 6, -12
 2934              		.cfi_offset 7, -8
 2935              		.cfi_offset 14, -4
 2936 0002 1A4C     		ldr	r4, .L189
 2937 0004 83B0     		sub	sp, sp, #12
 2938              		.cfi_def_cfa_offset 32
 2939              		.loc 1 961 0
 2940 0006 0546     		mov	r5, r0
 2941 0008 2368     		ldr	r3, [r4]
 2942 000a 0193     		str	r3, [sp, #4]
 2943              	.LVL424:
 2944              		.loc 1 964 0
 2945 000c 0020     		movs	r0, #0
 2946              	.LVL425:
 2947              		.loc 1 961 0
 2948 000e 0E46     		mov	r6, r1
 2949 0010 1746     		mov	r7, r2
 2950              		.loc 1 964 0
 2951 0012 FFF7FEFF 		bl	po6030_set_awb
 2952              	.LVL426:
 2953 0016 28B1     		cbz	r0, .L188
 2954              	.LVL427:
 2955              	.L183:
 2956              		.loc 1 983 0
 2957 0018 019A     		ldr	r2, [sp, #4]
 2958 001a 2368     		ldr	r3, [r4]
 2959 001c 9A42     		cmp	r2, r3
 2960 001e 22D1     		bne	.L187
 2961 0020 03B0     		add	sp, sp, #12
 2962              		.cfi_remember_state
 2963              		.cfi_def_cfa_offset 20
 2964              		@ sp needed
ARM GAS  /tmp/cc5QaxCL.s 			page 53


 2965 0022 F0BD     		pop	{r4, r5, r6, r7, pc}
 2966              	.LVL428:
 2967              	.L188:
 2968              		.cfi_restore_state
 2969              	.LBB146:
 2970              	.LBB147:
 2971              		.loc 1 130 0
 2972 0024 0222     		movs	r2, #2
 2973 0026 0321     		movs	r1, #3
 2974 0028 6E20     		movs	r0, #110
 2975              	.LVL429:
 2976 002a FFF7FEFF 		bl	write_reg
 2977              	.LVL430:
 2978              	.LBE147:
 2979              	.LBE146:
 2980              		.loc 1 968 0
 2981 002e 0028     		cmp	r0, #0
 2982 0030 F2D1     		bne	.L183
 2983              		.loc 1 972 0
 2984 0032 2A46     		mov	r2, r5
 2985 0034 A421     		movs	r1, #164
 2986 0036 6E20     		movs	r0, #110
 2987 0038 FFF7FEFF 		bl	write_reg
 2988              	.LVL431:
 2989 003c 0028     		cmp	r0, #0
 2990 003e EBD1     		bne	.L183
 2991              		.loc 1 975 0
 2992 0040 3246     		mov	r2, r6
 2993 0042 A521     		movs	r1, #165
 2994 0044 6E20     		movs	r0, #110
 2995              	.LVL432:
 2996 0046 FFF7FEFF 		bl	write_reg
 2997              	.LVL433:
 2998 004a 0028     		cmp	r0, #0
 2999 004c E4D1     		bne	.L183
 3000              		.loc 1 978 0
 3001 004e 019A     		ldr	r2, [sp, #4]
 3002 0050 2368     		ldr	r3, [r4]
 3003 0052 9A42     		cmp	r2, r3
 3004 0054 07D1     		bne	.L187
 3005 0056 3A46     		mov	r2, r7
 3006 0058 A621     		movs	r1, #166
 3007 005a 6E20     		movs	r0, #110
 3008              	.LVL434:
 3009              		.loc 1 983 0
 3010 005c 03B0     		add	sp, sp, #12
 3011              		.cfi_remember_state
 3012              		.cfi_def_cfa_offset 20
 3013              		@ sp needed
 3014 005e BDE8F040 		pop	{r4, r5, r6, r7, lr}
 3015              		.cfi_restore 14
 3016              		.cfi_restore 7
 3017              		.cfi_restore 6
 3018              		.cfi_restore 5
 3019              		.cfi_restore 4
 3020              		.cfi_def_cfa_offset 0
 3021              		.loc 1 978 0
ARM GAS  /tmp/cc5QaxCL.s 			page 54


 3022 0062 FFF7FEBF 		b	write_reg
 3023              	.LVL435:
 3024              	.L187:
 3025              		.cfi_restore_state
 3026              		.loc 1 983 0
 3027 0066 FFF7FEFF 		bl	__stack_chk_fail
 3028              	.LVL436:
 3029              	.L190:
 3030 006a 00BF     		.align	2
 3031              	.L189:
 3032 006c 00000000 		.word	__stack_chk_guard
 3033              		.cfi_endproc
 3034              	.LFE271:
 3035              		.size	po6030_set_rgb_gain, .-po6030_set_rgb_gain
 3036              		.section	.text.po6030_set_ae,"ax",%progbits
 3037              		.align	1
 3038              		.p2align 4,,15
 3039              		.global	po6030_set_ae
 3040              		.syntax unified
 3041              		.thumb
 3042              		.thumb_func
 3043              		.fpu fpv4-sp-d16
 3044              		.type	po6030_set_ae, %function
 3045              	po6030_set_ae:
 3046              	.LFB272:
 3047              		.loc 1 985 0
 3048              		.cfi_startproc
 3049              		@ args = 0, pretend = 0, frame = 8
 3050              		@ frame_needed = 0, uses_anonymous_args = 0
 3051              	.LVL437:
 3052 0000 30B5     		push	{r4, r5, lr}
 3053              		.cfi_def_cfa_offset 12
 3054              		.cfi_offset 4, -12
 3055              		.cfi_offset 5, -8
 3056              		.cfi_offset 14, -4
 3057 0002 164C     		ldr	r4, .L199
 3058 0004 83B0     		sub	sp, sp, #12
 3059              		.cfi_def_cfa_offset 24
 3060              		.loc 1 985 0
 3061 0006 2368     		ldr	r3, [r4]
 3062 0008 0193     		str	r3, [sp, #4]
 3063              	.LVL438:
 3064 000a 0546     		mov	r5, r0
 3065              		.loc 1 987 0
 3066 000c 0023     		movs	r3, #0
 3067              	.LBB148:
 3068              	.LBB149:
 3069              		.loc 1 130 0
 3070 000e 0222     		movs	r2, #2
 3071 0010 0321     		movs	r1, #3
 3072 0012 6E20     		movs	r0, #110
 3073              	.LVL439:
 3074              	.LBE149:
 3075              	.LBE148:
 3076              		.loc 1 987 0
 3077 0014 8DF80330 		strb	r3, [sp, #3]
 3078              	.LVL440:
ARM GAS  /tmp/cc5QaxCL.s 			page 55


 3079              	.LBB151:
 3080              	.LBB150:
 3081              		.loc 1 130 0
 3082 0018 FFF7FEFF 		bl	write_reg
 3083              	.LVL441:
 3084              	.LBE150:
 3085              	.LBE151:
 3086              		.loc 1 989 0
 3087 001c 28B1     		cbz	r0, .L197
 3088              	.L192:
 3089              		.loc 1 1004 0
 3090 001e 019A     		ldr	r2, [sp, #4]
 3091 0020 2368     		ldr	r3, [r4]
 3092 0022 9A42     		cmp	r2, r3
 3093 0024 18D1     		bne	.L198
 3094 0026 03B0     		add	sp, sp, #12
 3095              		.cfi_remember_state
 3096              		.cfi_def_cfa_offset 12
 3097              		@ sp needed
 3098 0028 30BD     		pop	{r4, r5, pc}
 3099              	.L197:
 3100              		.cfi_restore_state
 3101              		.loc 1 993 0
 3102 002a 0DF10302 		add	r2, sp, #3
 3103 002e 0421     		movs	r1, #4
 3104 0030 6E20     		movs	r0, #110
 3105 0032 FFF7FEFF 		bl	read_reg
 3106              	.LVL442:
 3107 0036 0028     		cmp	r0, #0
 3108 0038 F1D1     		bne	.L192
 3109 003a 9DF80320 		ldrb	r2, [sp, #3]	@ zero_extendqisi2
 3110              		.loc 1 997 0
 3111 003e 012D     		cmp	r5, #1
 3112              		.loc 1 998 0
 3113 0040 0CBF     		ite	eq
 3114 0042 02F0FC02 		andeq	r2, r2, #252
 3115              		.loc 1 1000 0
 3116 0046 42F00302 		orrne	r2, r2, #3
 3117              		.loc 1 1003 0
 3118 004a 0421     		movs	r1, #4
 3119 004c 6E20     		movs	r0, #110
 3120              	.LVL443:
 3121              		.loc 1 1000 0
 3122 004e 8DF80320 		strb	r2, [sp, #3]
 3123              		.loc 1 1003 0
 3124 0052 FFF7FEFF 		bl	write_reg
 3125              	.LVL444:
 3126 0056 E2E7     		b	.L192
 3127              	.L198:
 3128              		.loc 1 1004 0
 3129 0058 FFF7FEFF 		bl	__stack_chk_fail
 3130              	.LVL445:
 3131              	.L200:
 3132              		.align	2
 3133              	.L199:
 3134 005c 00000000 		.word	__stack_chk_guard
 3135              		.cfi_endproc
ARM GAS  /tmp/cc5QaxCL.s 			page 56


 3136              	.LFE272:
 3137              		.size	po6030_set_ae, .-po6030_set_ae
 3138              		.section	.text.po6030_set_exposure,"ax",%progbits
 3139              		.align	1
 3140              		.p2align 4,,15
 3141              		.global	po6030_set_exposure
 3142              		.syntax unified
 3143              		.thumb
 3144              		.thumb_func
 3145              		.fpu fpv4-sp-d16
 3146              		.type	po6030_set_exposure, %function
 3147              	po6030_set_exposure:
 3148              	.LFB273:
 3149              		.loc 1 1006 0
 3150              		.cfi_startproc
 3151              		@ args = 0, pretend = 0, frame = 8
 3152              		@ frame_needed = 0, uses_anonymous_args = 0
 3153              	.LVL446:
 3154 0000 70B5     		push	{r4, r5, r6, lr}
 3155              		.cfi_def_cfa_offset 16
 3156              		.cfi_offset 4, -16
 3157              		.cfi_offset 5, -12
 3158              		.cfi_offset 6, -8
 3159              		.cfi_offset 14, -4
 3160 0002 1D4C     		ldr	r4, .L208
 3161 0004 82B0     		sub	sp, sp, #8
 3162              		.cfi_def_cfa_offset 24
 3163              		.loc 1 1006 0
 3164 0006 0546     		mov	r5, r0
 3165 0008 2368     		ldr	r3, [r4]
 3166 000a 0193     		str	r3, [sp, #4]
 3167              	.LVL447:
 3168              		.loc 1 1009 0
 3169 000c 0020     		movs	r0, #0
 3170              	.LVL448:
 3171              		.loc 1 1006 0
 3172 000e 0E46     		mov	r6, r1
 3173              		.loc 1 1009 0
 3174 0010 FFF7FEFF 		bl	po6030_set_ae
 3175              	.LVL449:
 3176 0014 28B1     		cbz	r0, .L207
 3177              	.LVL450:
 3178              	.L202:
 3179              		.loc 1 1044 0
 3180 0016 019A     		ldr	r2, [sp, #4]
 3181 0018 2368     		ldr	r3, [r4]
 3182 001a 9A42     		cmp	r2, r3
 3183 001c 29D1     		bne	.L206
 3184 001e 02B0     		add	sp, sp, #8
 3185              		.cfi_remember_state
 3186              		.cfi_def_cfa_offset 16
 3187              		@ sp needed
 3188 0020 70BD     		pop	{r4, r5, r6, pc}
 3189              	.LVL451:
 3190              	.L207:
 3191              		.cfi_restore_state
 3192              	.LBB152:
ARM GAS  /tmp/cc5QaxCL.s 			page 57


 3193              	.LBB153:
 3194              		.loc 1 130 0
 3195 0022 0222     		movs	r2, #2
 3196 0024 0321     		movs	r1, #3
 3197 0026 6E20     		movs	r0, #110
 3198              	.LVL452:
 3199 0028 FFF7FEFF 		bl	write_reg
 3200              	.LVL453:
 3201              	.LBE153:
 3202              	.LBE152:
 3203              		.loc 1 1013 0
 3204 002c 0028     		cmp	r0, #0
 3205 002e F2D1     		bne	.L202
 3206              		.loc 1 1017 0
 3207 0030 2722     		movs	r2, #39
 3208 0032 5021     		movs	r1, #80
 3209 0034 6E20     		movs	r0, #110
 3210 0036 FFF7FEFF 		bl	write_reg
 3211              	.LVL454:
 3212 003a 0028     		cmp	r0, #0
 3213 003c EBD1     		bne	.L202
 3214              		.loc 1 1020 0
 3215 003e 2A0A     		lsrs	r2, r5, #8
 3216 0040 4C21     		movs	r1, #76
 3217 0042 6E20     		movs	r0, #110
 3218              	.LVL455:
 3219 0044 FFF7FEFF 		bl	write_reg
 3220              	.LVL456:
 3221 0048 0028     		cmp	r0, #0
 3222 004a E4D1     		bne	.L202
 3223              		.loc 1 1023 0
 3224 004c EAB2     		uxtb	r2, r5
 3225 004e 4D21     		movs	r1, #77
 3226 0050 6E20     		movs	r0, #110
 3227              	.LVL457:
 3228 0052 FFF7FEFF 		bl	write_reg
 3229              	.LVL458:
 3230 0056 0028     		cmp	r0, #0
 3231 0058 DDD1     		bne	.L202
 3232              		.loc 1 1026 0
 3233 005a 019A     		ldr	r2, [sp, #4]
 3234 005c 2368     		ldr	r3, [r4]
 3235 005e 9A42     		cmp	r2, r3
 3236 0060 07D1     		bne	.L206
 3237 0062 3246     		mov	r2, r6
 3238 0064 4E21     		movs	r1, #78
 3239 0066 6E20     		movs	r0, #110
 3240              	.LVL459:
 3241              		.loc 1 1044 0
 3242 0068 02B0     		add	sp, sp, #8
 3243              		.cfi_remember_state
 3244              		.cfi_def_cfa_offset 16
 3245              		@ sp needed
 3246 006a BDE87040 		pop	{r4, r5, r6, lr}
 3247              		.cfi_restore 14
 3248              		.cfi_restore 6
 3249              		.cfi_restore 5
ARM GAS  /tmp/cc5QaxCL.s 			page 58


 3250              		.cfi_restore 4
 3251              		.cfi_def_cfa_offset 0
 3252              		.loc 1 1026 0
 3253 006e FFF7FEBF 		b	write_reg
 3254              	.LVL460:
 3255              	.L206:
 3256              		.cfi_restore_state
 3257              		.loc 1 1044 0
 3258 0072 FFF7FEFF 		bl	__stack_chk_fail
 3259              	.LVL461:
 3260              	.L209:
 3261 0076 00BF     		.align	2
 3262              	.L208:
 3263 0078 00000000 		.word	__stack_chk_guard
 3264              		.cfi_endproc
 3265              	.LFE273:
 3266              		.size	po6030_set_exposure, .-po6030_set_exposure
 3267              		.section	.text.po6030_get_image_size,"ax",%progbits
 3268              		.align	1
 3269              		.p2align 4,,15
 3270              		.global	po6030_get_image_size
 3271              		.syntax unified
 3272              		.thumb
 3273              		.thumb_func
 3274              		.fpu fpv4-sp-d16
 3275              		.type	po6030_get_image_size, %function
 3276              	po6030_get_image_size:
 3277              	.LFB274:
 3278              		.loc 1 1046 0
 3279              		.cfi_startproc
 3280              		@ args = 0, pretend = 0, frame = 8
 3281              		@ frame_needed = 0, uses_anonymous_args = 0
 3282 0000 10B5     		push	{r4, lr}
 3283              		.cfi_def_cfa_offset 8
 3284              		.cfi_offset 4, -8
 3285              		.cfi_offset 14, -4
 3286 0002 0A4B     		ldr	r3, .L218
 3287 0004 0A4A     		ldr	r2, .L218+4
 3288 0006 1988     		ldrh	r1, [r3]
 3289 0008 1468     		ldr	r4, [r2]
 3290 000a 5888     		ldrh	r0, [r3, #2]
 3291              		.loc 1 1047 0
 3292 000c 1B79     		ldrb	r3, [r3, #4]	@ zero_extendqisi2
 3293              		.loc 1 1046 0
 3294 000e 82B0     		sub	sp, sp, #8
 3295              		.cfi_def_cfa_offset 16
 3296              		.loc 1 1047 0
 3297 0010 0D2B     		cmp	r3, #13
 3298              		.loc 1 1046 0
 3299 0012 0194     		str	r4, [sp, #4]
 3300 0014 00FB01F0 		mul	r0, r0, r1
 3301              		.loc 1 1052 0
 3302 0018 0199     		ldr	r1, [sp, #4]
 3303 001a 1368     		ldr	r3, [r2]
 3304              		.loc 1 1050 0
 3305 001c 18BF     		it	ne
 3306 001e 4000     		lslne	r0, r0, #1
ARM GAS  /tmp/cc5QaxCL.s 			page 59


 3307              		.loc 1 1052 0
 3308 0020 9942     		cmp	r1, r3
 3309 0022 01D1     		bne	.L217
 3310 0024 02B0     		add	sp, sp, #8
 3311              		.cfi_remember_state
 3312              		.cfi_def_cfa_offset 8
 3313              		@ sp needed
 3314 0026 10BD     		pop	{r4, pc}
 3315              	.L217:
 3316              		.cfi_restore_state
 3317 0028 FFF7FEFF 		bl	__stack_chk_fail
 3318              	.LVL462:
 3319              	.L219:
 3320              		.align	2
 3321              	.L218:
 3322 002c 00000000 		.word	.LANCHOR0
 3323 0030 00000000 		.word	__stack_chk_guard
 3324              		.cfi_endproc
 3325              	.LFE274:
 3326              		.size	po6030_get_image_size, .-po6030_get_image_size
 3327              		.section	.text.po6030_is_connected,"ax",%progbits
 3328              		.align	1
 3329              		.p2align 4,,15
 3330              		.global	po6030_is_connected
 3331              		.syntax unified
 3332              		.thumb
 3333              		.thumb_func
 3334              		.fpu fpv4-sp-d16
 3335              		.type	po6030_is_connected, %function
 3336              	po6030_is_connected:
 3337              	.LFB275:
 3338              		.loc 1 1054 0
 3339              		.cfi_startproc
 3340              		@ args = 0, pretend = 0, frame = 8
 3341              		@ frame_needed = 0, uses_anonymous_args = 0
 3342 0000 30B5     		push	{r4, r5, lr}
 3343              		.cfi_def_cfa_offset 12
 3344              		.cfi_offset 4, -12
 3345              		.cfi_offset 5, -8
 3346              		.cfi_offset 14, -4
 3347 0002 83B0     		sub	sp, sp, #12
 3348              		.cfi_def_cfa_offset 24
 3349              		.loc 1 1055 0
 3350 0004 02A8     		add	r0, sp, #8
 3351              		.loc 1 1054 0
 3352 0006 0D4D     		ldr	r5, .L226
 3353              		.loc 1 1055 0
 3354 0008 0024     		movs	r4, #0
 3355              		.loc 1 1054 0
 3356 000a 2B68     		ldr	r3, [r5]
 3357              		.loc 1 1055 0
 3358 000c 20F8064D 		strh	r4, [r0, #-6]!	@ movhi
 3359              		.loc 1 1054 0
 3360 0010 0193     		str	r3, [sp, #4]
 3361              		.loc 1 1056 0
 3362 0012 FFF7FEFF 		bl	po6030_read_id
 3363              	.LVL463:
ARM GAS  /tmp/cc5QaxCL.s 			page 60


 3364              		.loc 1 1057 0
 3365 0016 68B9     		cbnz	r0, .L223
 3366              		.loc 1 1057 0 is_stmt 0 discriminator 1
 3367 0018 BDF80200 		ldrh	r0, [sp, #2]
 3368              	.LVL464:
 3369 001c 46F23004 		movw	r4, #24624
 3370              		.loc 1 1058 0 is_stmt 1 discriminator 1
 3371 0020 001B     		subs	r0, r0, r4
 3372 0022 B0FA80F0 		clz	r0, r0
 3373 0026 4009     		lsrs	r0, r0, #5
 3374              	.L221:
 3375              		.loc 1 1062 0
 3376 0028 019A     		ldr	r2, [sp, #4]
 3377 002a 2B68     		ldr	r3, [r5]
 3378 002c 9A42     		cmp	r2, r3
 3379 002e 03D1     		bne	.L225
 3380 0030 03B0     		add	sp, sp, #12
 3381              		.cfi_remember_state
 3382              		.cfi_def_cfa_offset 12
 3383              		@ sp needed
 3384 0032 30BD     		pop	{r4, r5, pc}
 3385              	.LVL465:
 3386              	.L223:
 3387              		.cfi_restore_state
 3388              		.loc 1 1060 0
 3389 0034 2046     		mov	r0, r4
 3390              	.LVL466:
 3391 0036 F7E7     		b	.L221
 3392              	.L225:
 3393              		.loc 1 1062 0
 3394 0038 FFF7FEFF 		bl	__stack_chk_fail
 3395              	.LVL467:
 3396              	.L227:
 3397              		.align	2
 3398              	.L226:
 3399 003c 00000000 		.word	__stack_chk_guard
 3400              		.cfi_endproc
 3401              	.LFE275:
 3402              		.size	po6030_is_connected, .-po6030_is_connected
 3403              		.section	.bss.po6030_conf,"aw",%nobits
 3404              		.align	2
 3405              		.set	.LANCHOR0,. + 0
 3406              		.type	po6030_conf, %object
 3407              		.size	po6030_conf, 8
 3408              	po6030_conf:
 3409 0000 00000000 		.space	8
 3409      00000000 
 3410              		.text
 3411              	.Letext0:
 3412              		.file 2 "/home/leander/uos_codes/epuck2_lab/Eclipse_e-puck2/Tools/gcc-arm-none-eabi-7-2017-q4-majo
 3413              		.file 3 "/home/leander/uos_codes/epuck2_lab/Eclipse_e-puck2/Tools/gcc-arm-none-eabi-7-2017-q4-majo
 3414              		.file 4 "/home/leander/uos_codes/epuck2_lab/Eclipse_e-puck2/Tools/gcc-arm-none-eabi-7-2017-q4-majo
 3415              		.file 5 "../e-puck2_main-processor/ChibiOS//os/rt/ports/ARMCMx/compilers/GCC/chtypes.h"
 3416              		.file 6 "../e-puck2_main-processor/ChibiOS//os/rt/include/chsystypes.h"
 3417              		.file 7 "../e-puck2_main-processor/ChibiOS//os/rt/include/chschd.h"
 3418              		.file 8 "../e-puck2_main-processor/ChibiOS//os/ext/CMSIS/include/core_cm4.h"
 3419              		.file 9 "../e-puck2_main-processor/ChibiOS//os/ext/CMSIS/ST/system_stm32f4xx.h"
ARM GAS  /tmp/cc5QaxCL.s 			page 61


 3420              		.file 10 "../e-puck2_main-processor/ChibiOS//os/ext/CMSIS/ST/stm32f407xx.h"
 3421              		.file 11 "../e-puck2_main-processor/ChibiOS//os/rt/ports/ARMCMx/chcore.h"
 3422              		.file 12 "../e-puck2_main-processor/ChibiOS//os/rt/ports/ARMCMx/chcore_v7m.h"
 3423              		.file 13 "../e-puck2_main-processor/ChibiOS//os/rt/include/chdebug.h"
 3424              		.file 14 "../e-puck2_main-processor/ChibiOS//os/rt/include/chtm.h"
 3425              		.file 15 "../e-puck2_main-processor/ChibiOS//os/rt/include/chstats.h"
 3426              		.file 16 "../e-puck2_main-processor/ChibiOS//os/rt/include/chsem.h"
 3427              		.file 17 "../e-puck2_main-processor/ChibiOS//os/rt/include/chmtx.h"
 3428              		.file 18 "../e-puck2_main-processor/ChibiOS//os/rt/include/chregistry.h"
 3429              		.file 19 "../e-puck2_main-processor/ChibiOS//os/rt/include/chevents.h"
 3430              		.file 20 "../e-puck2_main-processor/ChibiOS//os/rt/include/chqueues.h"
 3431              		.file 21 "../e-puck2_main-processor/ChibiOS//os/hal/ports/STM32/STM32F4xx/stm32_dma.h"
 3432              		.file 22 "../e-puck2_main-processor/ChibiOS//os/hal/include/hal_ioblock.h"
 3433              		.file 23 "../e-puck2_main-processor/ChibiOS//os/hal/ports/STM32/LLD/GPIOv2/pal_lld.h"
 3434              		.file 24 "../e-puck2_main-processor/ChibiOS//os/hal/include/adc.h"
 3435              		.file 25 "../e-puck2_main-processor/ChibiOS//os/hal/ports/STM32/STM32F4xx/adc_lld.h"
 3436              		.file 26 "../e-puck2_main-processor/ChibiOS//os/hal/include/can.h"
 3437              		.file 27 "../e-puck2_main-processor/ChibiOS//os/hal/ports/STM32/LLD/can_lld.h"
 3438              		.file 28 "../e-puck2_main-processor/ChibiOS//os/hal/include/dac.h"
 3439              		.file 29 "../e-puck2_main-processor/ChibiOS//os/hal/ports/STM32/LLD/DACv1/dac_lld.h"
 3440              		.file 30 "../e-puck2_main-processor/ChibiOS//os/hal/include/ext.h"
 3441              		.file 31 "../e-puck2_main-processor/ChibiOS//os/hal/ports/STM32/LLD/ext_lld.h"
 3442              		.file 32 "../e-puck2_main-processor/ChibiOS//os/hal/include/gpt.h"
 3443              		.file 33 "../e-puck2_main-processor/ChibiOS//os/hal/ports/STM32/LLD/TIMv1/gpt_lld.h"
 3444              		.file 34 "../e-puck2_main-processor/ChibiOS//os/hal/ports/STM32/LLD/TIMv1/stm32_tim.h"
 3445              		.file 35 "../e-puck2_main-processor/ChibiOS//os/hal/include/i2c.h"
 3446              		.file 36 "../e-puck2_main-processor/ChibiOS//os/hal/ports/STM32/LLD/I2Cv1/i2c_lld.h"
 3447              		.file 37 "../e-puck2_main-processor/ChibiOS//os/hal/include/i2s.h"
 3448              		.file 38 "../e-puck2_main-processor/ChibiOS//os/hal/ports/STM32/LLD/SPIv1/i2s_lld.h"
 3449              		.file 39 "../e-puck2_main-processor/ChibiOS//os/hal/include/pwm.h"
 3450              		.file 40 "../e-puck2_main-processor/ChibiOS//os/hal/ports/STM32/LLD/TIMv1/pwm_lld.h"
 3451              		.file 41 "../e-puck2_main-processor/ChibiOS//os/hal/include/serial.h"
 3452              		.file 42 "../e-puck2_main-processor/ChibiOS//os/hal/ports/STM32/LLD/USARTv1/serial_lld.h"
 3453              		.file 43 "../e-puck2_main-processor/ChibiOS//os/hal/include/sdc.h"
 3454              		.file 44 "../e-puck2_main-processor/ChibiOS//os/hal/ports/STM32/LLD/sdc_lld.h"
 3455              		.file 45 "../e-puck2_main-processor/ChibiOS//os/hal/include/spi.h"
 3456              		.file 46 "../e-puck2_main-processor/ChibiOS//os/hal/ports/STM32/LLD/SPIv1/spi_lld.h"
 3457              		.file 47 "../e-puck2_main-processor/ChibiOS//os/hal/include/usb.h"
 3458              		.file 48 "../e-puck2_main-processor/ChibiOS//os/hal/ports/STM32/LLD/OTGv1/usb_lld.h"
 3459              		.file 49 "../e-puck2_main-processor/ChibiOS//os/hal/ports/STM32/LLD/OTGv1/stm32_otg.h"
 3460              		.file 50 "../e-puck2_main-processor/ChibiOS//os/hal/include/serial_usb.h"
 3461              		.file 51 "../e-puck2_main-processor/src/camera/camera.h"
 3462              		.file 52 "../e-puck2_main-processor/src/camera/po6030.h"
 3463              		.file 53 "../e-puck2_main-processor/src/usbcfg.h"
 3464              		.file 54 "../e-puck2_main-processor/src/camera/../i2c_bus.h"
 3465              		.section	.debug_info,"",%progbits
 3466              	.Ldebug_info0:
 3467 0000 27550000 		.4byte	0x5527
 3468 0004 0400     		.2byte	0x4
 3469 0006 00000000 		.4byte	.Ldebug_abbrev0
 3470 000a 04       		.byte	0x4
 3471 000b 01       		.uleb128 0x1
 3472 000c 510D0000 		.4byte	.LASF789
 3473 0010 0C       		.byte	0xc
 3474 0011 C3160000 		.4byte	.LASF790
 3475 0015 FC170000 		.4byte	.LASF791
 3476 0019 C0000000 		.4byte	.Ldebug_ranges0+0xc0
ARM GAS  /tmp/cc5QaxCL.s 			page 62


 3477 001d 00000000 		.4byte	0
 3478 0021 00000000 		.4byte	.Ldebug_line0
 3479 0025 02       		.uleb128 0x2
 3480 0026 04       		.byte	0x4
 3481 0027 05       		.byte	0x5
 3482 0028 696E7400 		.ascii	"int\000"
 3483 002c 03       		.uleb128 0x3
 3484 002d 770B0000 		.4byte	.LASF3
 3485 0031 02       		.byte	0x2
 3486 0032 D8       		.byte	0xd8
 3487 0033 37000000 		.4byte	0x37
 3488 0037 04       		.uleb128 0x4
 3489 0038 04       		.byte	0x4
 3490 0039 07       		.byte	0x7
 3491 003a 36200000 		.4byte	.LASF0
 3492 003e 04       		.uleb128 0x4
 3493 003f 08       		.byte	0x8
 3494 0040 05       		.byte	0x5
 3495 0041 331E0000 		.4byte	.LASF1
 3496 0045 04       		.uleb128 0x4
 3497 0046 08       		.byte	0x8
 3498 0047 04       		.byte	0x4
 3499 0048 05160000 		.4byte	.LASF2
 3500 004c 03       		.uleb128 0x3
 3501 004d D11F0000 		.4byte	.LASF4
 3502 0051 03       		.byte	0x3
 3503 0052 29       		.byte	0x29
 3504 0053 57000000 		.4byte	0x57
 3505 0057 04       		.uleb128 0x4
 3506 0058 01       		.byte	0x1
 3507 0059 06       		.byte	0x6
 3508 005a 13130000 		.4byte	.LASF5
 3509 005e 03       		.uleb128 0x3
 3510 005f 9F000000 		.4byte	.LASF6
 3511 0063 03       		.byte	0x3
 3512 0064 2B       		.byte	0x2b
 3513 0065 69000000 		.4byte	0x69
 3514 0069 04       		.uleb128 0x4
 3515 006a 01       		.byte	0x1
 3516 006b 08       		.byte	0x8
 3517 006c 18080000 		.4byte	.LASF7
 3518 0070 03       		.uleb128 0x3
 3519 0071 83060000 		.4byte	.LASF8
 3520 0075 03       		.byte	0x3
 3521 0076 37       		.byte	0x37
 3522 0077 7B000000 		.4byte	0x7b
 3523 007b 04       		.uleb128 0x4
 3524 007c 02       		.byte	0x2
 3525 007d 05       		.byte	0x5
 3526 007e 85200000 		.4byte	.LASF9
 3527 0082 03       		.uleb128 0x3
 3528 0083 8D060000 		.4byte	.LASF10
 3529 0087 03       		.byte	0x3
 3530 0088 39       		.byte	0x39
 3531 0089 8D000000 		.4byte	0x8d
 3532 008d 04       		.uleb128 0x4
 3533 008e 02       		.byte	0x2
ARM GAS  /tmp/cc5QaxCL.s 			page 63


 3534 008f 07       		.byte	0x7
 3535 0090 F8120000 		.4byte	.LASF11
 3536 0094 03       		.uleb128 0x3
 3537 0095 221A0000 		.4byte	.LASF12
 3538 0099 03       		.byte	0x3
 3539 009a 4D       		.byte	0x4d
 3540 009b 9F000000 		.4byte	0x9f
 3541 009f 04       		.uleb128 0x4
 3542 00a0 04       		.byte	0x4
 3543 00a1 05       		.byte	0x5
 3544 00a2 0A150000 		.4byte	.LASF13
 3545 00a6 03       		.uleb128 0x3
 3546 00a7 421A0000 		.4byte	.LASF14
 3547 00ab 03       		.byte	0x3
 3548 00ac 4F       		.byte	0x4f
 3549 00ad B1000000 		.4byte	0xb1
 3550 00b1 04       		.uleb128 0x4
 3551 00b2 04       		.byte	0x4
 3552 00b3 07       		.byte	0x7
 3553 00b4 3F160000 		.4byte	.LASF15
 3554 00b8 03       		.uleb128 0x3
 3555 00b9 A00F0000 		.4byte	.LASF16
 3556 00bd 03       		.byte	0x3
 3557 00be 69       		.byte	0x69
 3558 00bf C3000000 		.4byte	0xc3
 3559 00c3 04       		.uleb128 0x4
 3560 00c4 08       		.byte	0x8
 3561 00c5 07       		.byte	0x7
 3562 00c6 101C0000 		.4byte	.LASF17
 3563 00ca 03       		.uleb128 0x3
 3564 00cb F7110000 		.4byte	.LASF18
 3565 00cf 04       		.byte	0x4
 3566 00d0 14       		.byte	0x14
 3567 00d1 4C000000 		.4byte	0x4c
 3568 00d5 03       		.uleb128 0x3
 3569 00d6 940B0000 		.4byte	.LASF19
 3570 00da 04       		.byte	0x4
 3571 00db 18       		.byte	0x18
 3572 00dc 5E000000 		.4byte	0x5e
 3573 00e0 05       		.uleb128 0x5
 3574 00e1 D5000000 		.4byte	0xd5
 3575 00e5 03       		.uleb128 0x3
 3576 00e6 DB120000 		.4byte	.LASF20
 3577 00ea 04       		.byte	0x4
 3578 00eb 20       		.byte	0x20
 3579 00ec 70000000 		.4byte	0x70
 3580 00f0 03       		.uleb128 0x3
 3581 00f1 4D010000 		.4byte	.LASF21
 3582 00f5 04       		.byte	0x4
 3583 00f6 24       		.byte	0x24
 3584 00f7 82000000 		.4byte	0x82
 3585 00fb 03       		.uleb128 0x3
 3586 00fc F5020000 		.4byte	.LASF22
 3587 0100 04       		.byte	0x4
 3588 0101 2C       		.byte	0x2c
 3589 0102 94000000 		.4byte	0x94
 3590 0106 06       		.uleb128 0x6
ARM GAS  /tmp/cc5QaxCL.s 			page 64


 3591 0107 FB000000 		.4byte	0xfb
 3592 010b 03       		.uleb128 0x3
 3593 010c E0150000 		.4byte	.LASF23
 3594 0110 04       		.byte	0x4
 3595 0111 30       		.byte	0x30
 3596 0112 A6000000 		.4byte	0xa6
 3597 0116 06       		.uleb128 0x6
 3598 0117 0B010000 		.4byte	0x10b
 3599 011b 05       		.uleb128 0x5
 3600 011c 16010000 		.4byte	0x116
 3601 0120 03       		.uleb128 0x3
 3602 0121 63090000 		.4byte	.LASF24
 3603 0125 04       		.byte	0x4
 3604 0126 3C       		.byte	0x3c
 3605 0127 B8000000 		.4byte	0xb8
 3606 012b 03       		.uleb128 0x3
 3607 012c F70A0000 		.4byte	.LASF25
 3608 0130 05       		.byte	0x5
 3609 0131 45       		.byte	0x45
 3610 0132 0B010000 		.4byte	0x10b
 3611 0136 03       		.uleb128 0x3
 3612 0137 C6040000 		.4byte	.LASF26
 3613 013b 05       		.byte	0x5
 3614 013c 46       		.byte	0x46
 3615 013d 20010000 		.4byte	0x120
 3616 0141 03       		.uleb128 0x3
 3617 0142 0A110000 		.4byte	.LASF27
 3618 0146 05       		.byte	0x5
 3619 0147 48       		.byte	0x48
 3620 0148 D5000000 		.4byte	0xd5
 3621 014c 03       		.uleb128 0x3
 3622 014d 011D0000 		.4byte	.LASF28
 3623 0151 05       		.byte	0x5
 3624 0152 49       		.byte	0x49
 3625 0153 D5000000 		.4byte	0xd5
 3626 0157 03       		.uleb128 0x3
 3627 0158 CF100000 		.4byte	.LASF29
 3628 015c 05       		.byte	0x5
 3629 015d 4A       		.byte	0x4a
 3630 015e D5000000 		.4byte	0xd5
 3631 0162 03       		.uleb128 0x3
 3632 0163 73120000 		.4byte	.LASF30
 3633 0167 05       		.byte	0x5
 3634 0168 4B       		.byte	0x4b
 3635 0169 D5000000 		.4byte	0xd5
 3636 016d 03       		.uleb128 0x3
 3637 016e 86050000 		.4byte	.LASF31
 3638 0172 05       		.byte	0x5
 3639 0173 4C       		.byte	0x4c
 3640 0174 0B010000 		.4byte	0x10b
 3641 0178 03       		.uleb128 0x3
 3642 0179 45000000 		.4byte	.LASF32
 3643 017d 05       		.byte	0x5
 3644 017e 4D       		.byte	0x4d
 3645 017f FB000000 		.4byte	0xfb
 3646 0183 03       		.uleb128 0x3
 3647 0184 1A160000 		.4byte	.LASF33
ARM GAS  /tmp/cc5QaxCL.s 			page 65


 3648 0188 05       		.byte	0x5
 3649 0189 4F       		.byte	0x4f
 3650 018a 0B010000 		.4byte	0x10b
 3651 018e 03       		.uleb128 0x3
 3652 018f 9D1E0000 		.4byte	.LASF34
 3653 0193 05       		.byte	0x5
 3654 0194 50       		.byte	0x50
 3655 0195 0B010000 		.4byte	0x10b
 3656 0199 03       		.uleb128 0x3
 3657 019a 53180000 		.4byte	.LASF35
 3658 019e 05       		.byte	0x5
 3659 019f 51       		.byte	0x51
 3660 01a0 FB000000 		.4byte	0xfb
 3661 01a4 03       		.uleb128 0x3
 3662 01a5 32130000 		.4byte	.LASF36
 3663 01a9 05       		.byte	0x5
 3664 01aa 52       		.byte	0x52
 3665 01ab 0B010000 		.4byte	0x10b
 3666 01af 03       		.uleb128 0x3
 3667 01b0 09030000 		.4byte	.LASF37
 3668 01b4 06       		.byte	0x6
 3669 01b5 33       		.byte	0x33
 3670 01b6 0B010000 		.4byte	0x10b
 3671 01ba 06       		.uleb128 0x6
 3672 01bb AF010000 		.4byte	0x1af
 3673 01bf 03       		.uleb128 0x3
 3674 01c0 AD020000 		.4byte	.LASF38
 3675 01c4 06       		.byte	0x6
 3676 01c5 3F       		.byte	0x3f
 3677 01c6 CA010000 		.4byte	0x1ca
 3678 01ca 07       		.uleb128 0x7
 3679 01cb 59080000 		.4byte	.LASF62
 3680 01cf 68       		.byte	0x68
 3681 01d0 07       		.byte	0x7
 3682 01d1 C2       		.byte	0xc2
 3683 01d2 E8020000 		.4byte	0x2e8
 3684 01d6 08       		.uleb128 0x8
 3685 01d7 63100000 		.4byte	.LASF39
 3686 01db 07       		.byte	0x7
 3687 01dc C3       		.byte	0xc3
 3688 01dd F3020000 		.4byte	0x2f3
 3689 01e1 00       		.byte	0
 3690 01e2 08       		.uleb128 0x8
 3691 01e3 B40B0000 		.4byte	.LASF40
 3692 01e7 07       		.byte	0x7
 3693 01e8 C5       		.byte	0xc5
 3694 01e9 F3020000 		.4byte	0x2f3
 3695 01ed 04       		.byte	0x4
 3696 01ee 08       		.uleb128 0x8
 3697 01ef 4A0F0000 		.4byte	.LASF41
 3698 01f3 07       		.byte	0x7
 3699 01f4 C7       		.byte	0xc7
 3700 01f5 6D010000 		.4byte	0x16d
 3701 01f9 08       		.byte	0x8
 3702 01fa 08       		.uleb128 0x8
 3703 01fb 04090000 		.4byte	.LASF42
 3704 01ff 07       		.byte	0x7
ARM GAS  /tmp/cc5QaxCL.s 			page 66


 3705 0200 C8       		.byte	0xc8
 3706 0201 FD0C0000 		.4byte	0xcfd
 3707 0205 0C       		.byte	0xc
 3708 0206 08       		.uleb128 0x8
 3709 0207 D1010000 		.4byte	.LASF43
 3710 020b 07       		.byte	0x7
 3711 020c CA       		.byte	0xca
 3712 020d F3020000 		.4byte	0x2f3
 3713 0211 10       		.byte	0x10
 3714 0212 08       		.uleb128 0x8
 3715 0213 321F0000 		.4byte	.LASF44
 3716 0217 07       		.byte	0x7
 3717 0218 CB       		.byte	0xcb
 3718 0219 F3020000 		.4byte	0x2f3
 3719 021d 14       		.byte	0x14
 3720 021e 08       		.uleb128 0x8
 3721 021f 781D0000 		.4byte	.LASF45
 3722 0223 07       		.byte	0x7
 3723 0224 D2       		.byte	0xd2
 3724 0225 73100000 		.4byte	0x1073
 3725 0229 18       		.byte	0x18
 3726 022a 08       		.uleb128 0x8
 3727 022b 48180000 		.4byte	.LASF46
 3728 022f 07       		.byte	0x7
 3729 0230 D8       		.byte	0xd8
 3730 0231 8A100000 		.4byte	0x108a
 3731 0235 1C       		.byte	0x1c
 3732 0236 08       		.uleb128 0x8
 3733 0237 1F210000 		.4byte	.LASF47
 3734 023b 07       		.byte	0x7
 3735 023c DD       		.byte	0xdd
 3736 023d 4C010000 		.4byte	0x14c
 3737 0241 20       		.byte	0x20
 3738 0242 08       		.uleb128 0x8
 3739 0243 C71C0000 		.4byte	.LASF48
 3740 0247 07       		.byte	0x7
 3741 0248 E1       		.byte	0xe1
 3742 0249 41010000 		.4byte	0x141
 3743 024d 21       		.byte	0x21
 3744 024e 08       		.uleb128 0x8
 3745 024f E9140000 		.4byte	.LASF49
 3746 0253 07       		.byte	0x7
 3747 0254 E6       		.byte	0xe6
 3748 0255 57010000 		.4byte	0x157
 3749 0259 22       		.byte	0x22
 3750 025a 08       		.uleb128 0x8
 3751 025b 28130000 		.4byte	.LASF50
 3752 025f 07       		.byte	0x7
 3753 0260 EC       		.byte	0xec
 3754 0261 62010000 		.4byte	0x162
 3755 0265 23       		.byte	0x23
 3756 0266 08       		.uleb128 0x8
 3757 0267 E2140000 		.4byte	.LASF51
 3758 026b 07       		.byte	0x7
 3759 026c F3       		.byte	0xf3
 3760 026d BA010000 		.4byte	0x1ba
 3761 0271 24       		.byte	0x24
ARM GAS  /tmp/cc5QaxCL.s 			page 67


 3762 0272 09       		.uleb128 0x9
 3763 0273 705F7500 		.ascii	"p_u\000"
 3764 0277 07       		.byte	0x7
 3765 0278 3101     		.2byte	0x131
 3766 027a A20F0000 		.4byte	0xfa2
 3767 027e 28       		.byte	0x28
 3768 027f 0A       		.uleb128 0xa
 3769 0280 21040000 		.4byte	.LASF52
 3770 0284 07       		.byte	0x7
 3771 0285 3601     		.2byte	0x136
 3772 0287 F9020000 		.4byte	0x2f9
 3773 028b 2C       		.byte	0x2c
 3774 028c 0A       		.uleb128 0xa
 3775 028d 9A130000 		.4byte	.LASF53
 3776 0291 07       		.byte	0x7
 3777 0292 3C01     		.2byte	0x13c
 3778 0294 1D030000 		.4byte	0x31d
 3779 0298 30       		.byte	0x30
 3780 0299 0A       		.uleb128 0xa
 3781 029a B0060000 		.4byte	.LASF54
 3782 029e 07       		.byte	0x7
 3783 029f 4001     		.2byte	0x140
 3784 02a1 78010000 		.4byte	0x178
 3785 02a5 38       		.byte	0x38
 3786 02a6 0A       		.uleb128 0xa
 3787 02a7 D51A0000 		.4byte	.LASF55
 3788 02ab 07       		.byte	0x7
 3789 02ac 4601     		.2byte	0x146
 3790 02ae 83010000 		.4byte	0x183
 3791 02b2 3C       		.byte	0x3c
 3792 02b3 0A       		.uleb128 0xa
 3793 02b4 EC1C0000 		.4byte	.LASF56
 3794 02b8 07       		.byte	0x7
 3795 02b9 4D01     		.2byte	0x14d
 3796 02bb 6D100000 		.4byte	0x106d
 3797 02bf 40       		.byte	0x40
 3798 02c0 0A       		.uleb128 0xa
 3799 02c1 91190000 		.4byte	.LASF57
 3800 02c5 07       		.byte	0x7
 3801 02c6 5101     		.2byte	0x151
 3802 02c8 6D010000 		.4byte	0x16d
 3803 02cc 44       		.byte	0x44
 3804 02cd 0A       		.uleb128 0xa
 3805 02ce D7100000 		.4byte	.LASF58
 3806 02d2 07       		.byte	0x7
 3807 02d3 5801     		.2byte	0x158
 3808 02d5 D0030000 		.4byte	0x3d0
 3809 02d9 48       		.byte	0x48
 3810 02da 0A       		.uleb128 0xa
 3811 02db 5A210000 		.4byte	.LASF59
 3812 02df 07       		.byte	0x7
 3813 02e0 5E01     		.2byte	0x15e
 3814 02e2 530F0000 		.4byte	0xf53
 3815 02e6 50       		.byte	0x50
 3816 02e7 00       		.byte	0
 3817 02e8 03       		.uleb128 0x3
 3818 02e9 8C1F0000 		.4byte	.LASF60
ARM GAS  /tmp/cc5QaxCL.s 			page 68


 3819 02ed 06       		.byte	0x6
 3820 02ee 44       		.byte	0x44
 3821 02ef F3020000 		.4byte	0x2f3
 3822 02f3 0B       		.uleb128 0xb
 3823 02f4 04       		.byte	0x4
 3824 02f5 BF010000 		.4byte	0x1bf
 3825 02f9 03       		.uleb128 0x3
 3826 02fa 60040000 		.4byte	.LASF61
 3827 02fe 06       		.byte	0x6
 3828 02ff 49       		.byte	0x49
 3829 0300 04030000 		.4byte	0x304
 3830 0304 07       		.uleb128 0x7
 3831 0305 39210000 		.4byte	.LASF63
 3832 0309 04       		.byte	0x4
 3833 030a 07       		.byte	0x7
 3834 030b B0       		.byte	0xb0
 3835 030c 1D030000 		.4byte	0x31d
 3836 0310 08       		.uleb128 0x8
 3837 0311 63100000 		.4byte	.LASF39
 3838 0315 07       		.byte	0x7
 3839 0316 B1       		.byte	0xb1
 3840 0317 F3020000 		.4byte	0x2f3
 3841 031b 00       		.byte	0
 3842 031c 00       		.byte	0
 3843 031d 03       		.uleb128 0x3
 3844 031e C7140000 		.4byte	.LASF64
 3845 0322 06       		.byte	0x6
 3846 0323 50       		.byte	0x50
 3847 0324 28030000 		.4byte	0x328
 3848 0328 07       		.uleb128 0x7
 3849 0329 C0010000 		.4byte	.LASF65
 3850 032d 08       		.byte	0x8
 3851 032e 07       		.byte	0x7
 3852 032f B7       		.byte	0xb7
 3853 0330 4D030000 		.4byte	0x34d
 3854 0334 08       		.uleb128 0x8
 3855 0335 63100000 		.4byte	.LASF39
 3856 0339 07       		.byte	0x7
 3857 033a B8       		.byte	0xb8
 3858 033b F3020000 		.4byte	0x2f3
 3859 033f 00       		.byte	0
 3860 0340 08       		.uleb128 0x8
 3861 0341 B40B0000 		.4byte	.LASF40
 3862 0345 07       		.byte	0x7
 3863 0346 B9       		.byte	0xb9
 3864 0347 F3020000 		.4byte	0x2f3
 3865 034b 04       		.byte	0x4
 3866 034c 00       		.byte	0
 3867 034d 03       		.uleb128 0x3
 3868 034e 4C080000 		.4byte	.LASF66
 3869 0352 06       		.byte	0x6
 3870 0353 57       		.byte	0x57
 3871 0354 58030000 		.4byte	0x358
 3872 0358 0C       		.uleb128 0xc
 3873 0359 0E1A0000 		.4byte	.LASF67
 3874 035d 1C       		.byte	0x1c
 3875 035e 07       		.byte	0x7
ARM GAS  /tmp/cc5QaxCL.s 			page 69


 3876 035f 9001     		.2byte	0x190
 3877 0361 B4030000 		.4byte	0x3b4
 3878 0365 0A       		.uleb128 0xa
 3879 0366 12170000 		.4byte	.LASF68
 3880 036a 07       		.byte	0x7
 3881 036b 9101     		.2byte	0x191
 3882 036d 1D030000 		.4byte	0x31d
 3883 0371 00       		.byte	0
 3884 0372 0A       		.uleb128 0xa
 3885 0373 D71B0000 		.4byte	.LASF69
 3886 0377 07       		.byte	0x7
 3887 0378 9201     		.2byte	0x192
 3888 037a 6D010000 		.4byte	0x16d
 3889 037e 08       		.byte	0x8
 3890 037f 0A       		.uleb128 0xa
 3891 0380 D70A0000 		.4byte	.LASF70
 3892 0384 07       		.byte	0x7
 3893 0385 9401     		.2byte	0x194
 3894 0387 FD0C0000 		.4byte	0xcfd
 3895 038b 0C       		.byte	0xc
 3896 038c 0A       		.uleb128 0xa
 3897 038d 1C120000 		.4byte	.LASF71
 3898 0391 07       		.byte	0x7
 3899 0392 9701     		.2byte	0x197
 3900 0394 F3020000 		.4byte	0x2f3
 3901 0398 10       		.byte	0x10
 3902 0399 0A       		.uleb128 0xa
 3903 039a AC0B0000 		.4byte	.LASF72
 3904 039e 07       		.byte	0x7
 3905 039f 9801     		.2byte	0x198
 3906 03a1 F3020000 		.4byte	0x2f3
 3907 03a5 14       		.byte	0x14
 3908 03a6 0A       		.uleb128 0xa
 3909 03a7 29090000 		.4byte	.LASF73
 3910 03ab 07       		.byte	0x7
 3911 03ac 9B01     		.2byte	0x19b
 3912 03ae F3020000 		.4byte	0x2f3
 3913 03b2 18       		.byte	0x18
 3914 03b3 00       		.byte	0
 3915 03b4 03       		.uleb128 0x3
 3916 03b5 48190000 		.4byte	.LASF74
 3917 03b9 06       		.byte	0x6
 3918 03ba 5C       		.byte	0x5c
 3919 03bb BF030000 		.4byte	0x3bf
 3920 03bf 0B       		.uleb128 0xb
 3921 03c0 04       		.byte	0x4
 3922 03c1 C5030000 		.4byte	0x3c5
 3923 03c5 0D       		.uleb128 0xd
 3924 03c6 D0030000 		.4byte	0x3d0
 3925 03ca 0E       		.uleb128 0xe
 3926 03cb D0030000 		.4byte	0x3d0
 3927 03cf 00       		.byte	0
 3928 03d0 0F       		.uleb128 0xf
 3929 03d1 04       		.byte	0x4
 3930 03d2 03       		.uleb128 0x3
 3931 03d3 BB0A0000 		.4byte	.LASF75
 3932 03d7 06       		.byte	0x6
ARM GAS  /tmp/cc5QaxCL.s 			page 70


 3933 03d8 61       		.byte	0x61
 3934 03d9 DD030000 		.4byte	0x3dd
 3935 03dd 0C       		.uleb128 0xc
 3936 03de B61C0000 		.4byte	.LASF76
 3937 03e2 14       		.byte	0x14
 3938 03e3 07       		.byte	0x7
 3939 03e4 6B01     		.2byte	0x16b
 3940 03e6 2C040000 		.4byte	0x42c
 3941 03ea 0A       		.uleb128 0xa
 3942 03eb DD0A0000 		.4byte	.LASF77
 3943 03ef 07       		.byte	0x7
 3944 03f0 6C01     		.2byte	0x16c
 3945 03f2 90100000 		.4byte	0x1090
 3946 03f6 00       		.byte	0
 3947 03f7 0A       		.uleb128 0xa
 3948 03f8 00080000 		.4byte	.LASF78
 3949 03fc 07       		.byte	0x7
 3950 03fd 6D01     		.2byte	0x16d
 3951 03ff 90100000 		.4byte	0x1090
 3952 0403 04       		.byte	0x4
 3953 0404 0A       		.uleb128 0xa
 3954 0405 B1120000 		.4byte	.LASF79
 3955 0409 07       		.byte	0x7
 3956 040a 6E01     		.2byte	0x16e
 3957 040c AF010000 		.4byte	0x1af
 3958 0410 08       		.byte	0x8
 3959 0411 0A       		.uleb128 0xa
 3960 0412 731C0000 		.4byte	.LASF80
 3961 0416 07       		.byte	0x7
 3962 0417 6F01     		.2byte	0x16f
 3963 0419 B4030000 		.4byte	0x3b4
 3964 041d 0C       		.byte	0xc
 3965 041e 0A       		.uleb128 0xa
 3966 041f 0A090000 		.4byte	.LASF81
 3967 0423 07       		.byte	0x7
 3968 0424 7101     		.2byte	0x171
 3969 0426 D0030000 		.4byte	0x3d0
 3970 042a 10       		.byte	0x10
 3971 042b 00       		.byte	0
 3972 042c 03       		.uleb128 0x3
 3973 042d B31D0000 		.4byte	.LASF82
 3974 0431 06       		.byte	0x6
 3975 0432 66       		.byte	0x66
 3976 0433 37040000 		.4byte	0x437
 3977 0437 0C       		.uleb128 0xc
 3978 0438 D7020000 		.4byte	.LASF83
 3979 043c 10       		.byte	0x10
 3980 043d 07       		.byte	0x7
 3981 043e 7B01     		.2byte	0x17b
 3982 0440 79040000 		.4byte	0x479
 3983 0444 0A       		.uleb128 0xa
 3984 0445 DD0A0000 		.4byte	.LASF77
 3985 0449 07       		.byte	0x7
 3986 044a 7C01     		.2byte	0x17c
 3987 044c 90100000 		.4byte	0x1090
 3988 0450 00       		.byte	0
 3989 0451 0A       		.uleb128 0xa
ARM GAS  /tmp/cc5QaxCL.s 			page 71


 3990 0452 00080000 		.4byte	.LASF78
 3991 0456 07       		.byte	0x7
 3992 0457 7E01     		.2byte	0x17e
 3993 0459 90100000 		.4byte	0x1090
 3994 045d 04       		.byte	0x4
 3995 045e 0A       		.uleb128 0xa
 3996 045f B1120000 		.4byte	.LASF79
 3997 0463 07       		.byte	0x7
 3998 0464 8001     		.2byte	0x180
 3999 0466 AF010000 		.4byte	0x1af
 4000 046a 08       		.byte	0x8
 4001 046b 0A       		.uleb128 0xa
 4002 046c F6000000 		.4byte	.LASF84
 4003 0470 07       		.byte	0x7
 4004 0471 8201     		.2byte	0x182
 4005 0473 BA010000 		.4byte	0x1ba
 4006 0477 0C       		.byte	0xc
 4007 0478 00       		.byte	0
 4008 0479 03       		.uleb128 0x3
 4009 047a E2080000 		.4byte	.LASF85
 4010 047e 06       		.byte	0x6
 4011 047f 6B       		.byte	0x6b
 4012 0480 84040000 		.4byte	0x484
 4013 0484 10       		.uleb128 0x10
 4014 0485 4D1A0000 		.4byte	.LASF86
 4015 0489 1404     		.2byte	0x414
 4016 048b 07       		.byte	0x7
 4017 048c A201     		.2byte	0x1a2
 4018 048e C7040000 		.4byte	0x4c7
 4019 0492 0A       		.uleb128 0xa
 4020 0493 FE110000 		.4byte	.LASF87
 4021 0497 07       		.byte	0x7
 4022 0498 AA01     		.2byte	0x1aa
 4023 049a 79100000 		.4byte	0x1079
 4024 049e 00       		.byte	0
 4025 049f 0A       		.uleb128 0xa
 4026 04a0 CC110000 		.4byte	.LASF88
 4027 04a4 07       		.byte	0x7
 4028 04a5 AF01     		.2byte	0x1af
 4029 04a7 99010000 		.4byte	0x199
 4030 04ab 04       		.byte	0x4
 4031 04ac 0A       		.uleb128 0xa
 4032 04ad B7010000 		.4byte	.LASF89
 4033 04b1 07       		.byte	0x7
 4034 04b2 B301     		.2byte	0x1b3
 4035 04b4 99010000 		.4byte	0x199
 4036 04b8 08       		.byte	0x8
 4037 04b9 0A       		.uleb128 0xa
 4038 04ba 52140000 		.4byte	.LASF90
 4039 04be 07       		.byte	0x7
 4040 04bf B901     		.2byte	0x1b9
 4041 04c1 E50E0000 		.4byte	0xee5
 4042 04c5 0C       		.byte	0xc
 4043 04c6 00       		.byte	0
 4044 04c7 03       		.uleb128 0x3
 4045 04c8 93000000 		.4byte	.LASF91
 4046 04cc 06       		.byte	0x6
ARM GAS  /tmp/cc5QaxCL.s 			page 72


 4047 04cd 70       		.byte	0x70
 4048 04ce D2040000 		.4byte	0x4d2
 4049 04d2 10       		.uleb128 0x10
 4050 04d3 42140000 		.4byte	.LASF92
 4051 04d7 7006     		.2byte	0x670
 4052 04d9 07       		.byte	0x7
 4053 04da C201     		.2byte	0x1c2
 4054 04dc 3F050000 		.4byte	0x53f
 4055 04e0 0A       		.uleb128 0xa
 4056 04e1 5A040000 		.4byte	.LASF93
 4057 04e5 07       		.byte	0x7
 4058 04e6 C601     		.2byte	0x1c6
 4059 04e8 4D030000 		.4byte	0x34d
 4060 04ec 00       		.byte	0
 4061 04ed 0A       		.uleb128 0xa
 4062 04ee 0B040000 		.4byte	.LASF94
 4063 04f2 07       		.byte	0x7
 4064 04f3 CA01     		.2byte	0x1ca
 4065 04f5 2C040000 		.4byte	0x42c
 4066 04f9 1C       		.byte	0x1c
 4067 04fa 09       		.uleb128 0x9
 4068 04fb 64626700 		.ascii	"dbg\000"
 4069 04ff 07       		.byte	0x7
 4070 0500 CE01     		.2byte	0x1ce
 4071 0502 79040000 		.4byte	0x479
 4072 0506 2C       		.byte	0x2c
 4073 0507 11       		.uleb128 0x11
 4074 0508 13150000 		.4byte	.LASF95
 4075 050c 07       		.byte	0x7
 4076 050d D201     		.2byte	0x1d2
 4077 050f BF010000 		.4byte	0x1bf
 4078 0513 4004     		.2byte	0x440
 4079 0515 12       		.uleb128 0x12
 4080 0516 746D00   		.ascii	"tm\000"
 4081 0519 07       		.byte	0x7
 4082 051a D701     		.2byte	0x1d7
 4083 051c 050F0000 		.4byte	0xf05
 4084 0520 A804     		.2byte	0x4a8
 4085 0522 11       		.uleb128 0x11
 4086 0523 7E0B0000 		.4byte	.LASF96
 4087 0527 07       		.byte	0x7
 4088 0528 DD01     		.2byte	0x1dd
 4089 052a 970F0000 		.4byte	0xf97
 4090 052e B004     		.2byte	0x4b0
 4091 0530 11       		.uleb128 0x11
 4092 0531 501C0000 		.4byte	.LASF97
 4093 0535 07       		.byte	0x7
 4094 0536 E301     		.2byte	0x1e3
 4095 0538 96100000 		.4byte	0x1096
 4096 053c E804     		.2byte	0x4e8
 4097 053e 00       		.byte	0
 4098 053f 13       		.uleb128 0x13
 4099 0540 0B010000 		.4byte	0x10b
 4100 0544 4F050000 		.4byte	0x54f
 4101 0548 14       		.uleb128 0x14
 4102 0549 37000000 		.4byte	0x37
 4103 054d 01       		.byte	0x1
ARM GAS  /tmp/cc5QaxCL.s 			page 73


 4104 054e 00       		.byte	0
 4105 054f 13       		.uleb128 0x13
 4106 0550 0B010000 		.4byte	0x10b
 4107 0554 5F050000 		.4byte	0x55f
 4108 0558 14       		.uleb128 0x14
 4109 0559 37000000 		.4byte	0x37
 4110 055d 07       		.byte	0x7
 4111 055e 00       		.byte	0
 4112 055f 15       		.uleb128 0x15
 4113 0560 F31B0000 		.4byte	.LASF98
 4114 0564 08       		.byte	0x8
 4115 0565 A706     		.2byte	0x6a7
 4116 0567 06010000 		.4byte	0x106
 4117 056b 16       		.uleb128 0x16
 4118 056c C3130000 		.4byte	.LASF99
 4119 0570 09       		.byte	0x9
 4120 0571 4C       		.byte	0x4c
 4121 0572 0B010000 		.4byte	0x10b
 4122 0576 17       		.uleb128 0x17
 4123 0577 50       		.byte	0x50
 4124 0578 0A       		.byte	0xa
 4125 0579 C4       		.byte	0xc4
 4126 057a 6D060000 		.4byte	0x66d
 4127 057e 18       		.uleb128 0x18
 4128 057f 535200   		.ascii	"SR\000"
 4129 0582 0A       		.byte	0xa
 4130 0583 C6       		.byte	0xc6
 4131 0584 16010000 		.4byte	0x116
 4132 0588 00       		.byte	0
 4133 0589 18       		.uleb128 0x18
 4134 058a 43523100 		.ascii	"CR1\000"
 4135 058e 0A       		.byte	0xa
 4136 058f C7       		.byte	0xc7
 4137 0590 16010000 		.4byte	0x116
 4138 0594 04       		.byte	0x4
 4139 0595 18       		.uleb128 0x18
 4140 0596 43523200 		.ascii	"CR2\000"
 4141 059a 0A       		.byte	0xa
 4142 059b C8       		.byte	0xc8
 4143 059c 16010000 		.4byte	0x116
 4144 05a0 08       		.byte	0x8
 4145 05a1 08       		.uleb128 0x8
 4146 05a2 0D020000 		.4byte	.LASF100
 4147 05a6 0A       		.byte	0xa
 4148 05a7 C9       		.byte	0xc9
 4149 05a8 16010000 		.4byte	0x116
 4150 05ac 0C       		.byte	0xc
 4151 05ad 08       		.uleb128 0x8
 4152 05ae 13020000 		.4byte	.LASF101
 4153 05b2 0A       		.byte	0xa
 4154 05b3 CA       		.byte	0xca
 4155 05b4 16010000 		.4byte	0x116
 4156 05b8 10       		.byte	0x10
 4157 05b9 08       		.uleb128 0x8
 4158 05ba 11090000 		.4byte	.LASF102
 4159 05be 0A       		.byte	0xa
 4160 05bf CB       		.byte	0xcb
ARM GAS  /tmp/cc5QaxCL.s 			page 74


 4161 05c0 16010000 		.4byte	0x116
 4162 05c4 14       		.byte	0x14
 4163 05c5 08       		.uleb128 0x8
 4164 05c6 17090000 		.4byte	.LASF103
 4165 05ca 0A       		.byte	0xa
 4166 05cb CC       		.byte	0xcc
 4167 05cc 16010000 		.4byte	0x116
 4168 05d0 18       		.byte	0x18
 4169 05d1 08       		.uleb128 0x8
 4170 05d2 1D090000 		.4byte	.LASF104
 4171 05d6 0A       		.byte	0xa
 4172 05d7 CD       		.byte	0xcd
 4173 05d8 16010000 		.4byte	0x116
 4174 05dc 1C       		.byte	0x1c
 4175 05dd 08       		.uleb128 0x8
 4176 05de 23090000 		.4byte	.LASF105
 4177 05e2 0A       		.byte	0xa
 4178 05e3 CE       		.byte	0xce
 4179 05e4 16010000 		.4byte	0x116
 4180 05e8 20       		.byte	0x20
 4181 05e9 18       		.uleb128 0x18
 4182 05ea 48545200 		.ascii	"HTR\000"
 4183 05ee 0A       		.byte	0xa
 4184 05ef CF       		.byte	0xcf
 4185 05f0 16010000 		.4byte	0x116
 4186 05f4 24       		.byte	0x24
 4187 05f5 18       		.uleb128 0x18
 4188 05f6 4C545200 		.ascii	"LTR\000"
 4189 05fa 0A       		.byte	0xa
 4190 05fb D0       		.byte	0xd0
 4191 05fc 16010000 		.4byte	0x116
 4192 0600 28       		.byte	0x28
 4193 0601 08       		.uleb128 0x8
 4194 0602 1D110000 		.4byte	.LASF106
 4195 0606 0A       		.byte	0xa
 4196 0607 D1       		.byte	0xd1
 4197 0608 16010000 		.4byte	0x116
 4198 060c 2C       		.byte	0x2c
 4199 060d 08       		.uleb128 0x8
 4200 060e 22110000 		.4byte	.LASF107
 4201 0612 0A       		.byte	0xa
 4202 0613 D2       		.byte	0xd2
 4203 0614 16010000 		.4byte	0x116
 4204 0618 30       		.byte	0x30
 4205 0619 08       		.uleb128 0x8
 4206 061a 27110000 		.4byte	.LASF108
 4207 061e 0A       		.byte	0xa
 4208 061f D3       		.byte	0xd3
 4209 0620 16010000 		.4byte	0x116
 4210 0624 34       		.byte	0x34
 4211 0625 08       		.uleb128 0x8
 4212 0626 990A0000 		.4byte	.LASF109
 4213 062a 0A       		.byte	0xa
 4214 062b D4       		.byte	0xd4
 4215 062c 16010000 		.4byte	0x116
 4216 0630 38       		.byte	0x38
 4217 0631 08       		.uleb128 0x8
ARM GAS  /tmp/cc5QaxCL.s 			page 75


 4218 0632 8C1D0000 		.4byte	.LASF110
 4219 0636 0A       		.byte	0xa
 4220 0637 D5       		.byte	0xd5
 4221 0638 16010000 		.4byte	0x116
 4222 063c 3C       		.byte	0x3c
 4223 063d 08       		.uleb128 0x8
 4224 063e 911D0000 		.4byte	.LASF111
 4225 0642 0A       		.byte	0xa
 4226 0643 D6       		.byte	0xd6
 4227 0644 16010000 		.4byte	0x116
 4228 0648 40       		.byte	0x40
 4229 0649 08       		.uleb128 0x8
 4230 064a 961D0000 		.4byte	.LASF112
 4231 064e 0A       		.byte	0xa
 4232 064f D7       		.byte	0xd7
 4233 0650 16010000 		.4byte	0x116
 4234 0654 44       		.byte	0x44
 4235 0655 08       		.uleb128 0x8
 4236 0656 9B1D0000 		.4byte	.LASF113
 4237 065a 0A       		.byte	0xa
 4238 065b D8       		.byte	0xd8
 4239 065c 16010000 		.4byte	0x116
 4240 0660 48       		.byte	0x48
 4241 0661 18       		.uleb128 0x18
 4242 0662 445200   		.ascii	"DR\000"
 4243 0665 0A       		.byte	0xa
 4244 0666 D9       		.byte	0xd9
 4245 0667 16010000 		.4byte	0x116
 4246 066b 4C       		.byte	0x4c
 4247 066c 00       		.byte	0
 4248 066d 03       		.uleb128 0x3
 4249 066e EC120000 		.4byte	.LASF114
 4250 0672 0A       		.byte	0xa
 4251 0673 DA       		.byte	0xda
 4252 0674 76050000 		.4byte	0x576
 4253 0678 17       		.uleb128 0x17
 4254 0679 10       		.byte	0x10
 4255 067a 0A       		.byte	0xa
 4256 067b E9       		.byte	0xe9
 4257 067c B1060000 		.4byte	0x6b1
 4258 0680 18       		.uleb128 0x18
 4259 0681 54495200 		.ascii	"TIR\000"
 4260 0685 0A       		.byte	0xa
 4261 0686 EB       		.byte	0xeb
 4262 0687 16010000 		.4byte	0x116
 4263 068b 00       		.byte	0
 4264 068c 08       		.uleb128 0x8
 4265 068d E90E0000 		.4byte	.LASF115
 4266 0691 0A       		.byte	0xa
 4267 0692 EC       		.byte	0xec
 4268 0693 16010000 		.4byte	0x116
 4269 0697 04       		.byte	0x4
 4270 0698 08       		.uleb128 0x8
 4271 0699 05150000 		.4byte	.LASF116
 4272 069d 0A       		.byte	0xa
 4273 069e ED       		.byte	0xed
 4274 069f 16010000 		.4byte	0x116
ARM GAS  /tmp/cc5QaxCL.s 			page 76


 4275 06a3 08       		.byte	0x8
 4276 06a4 08       		.uleb128 0x8
 4277 06a5 39130000 		.4byte	.LASF117
 4278 06a9 0A       		.byte	0xa
 4279 06aa EE       		.byte	0xee
 4280 06ab 16010000 		.4byte	0x116
 4281 06af 0C       		.byte	0xc
 4282 06b0 00       		.byte	0
 4283 06b1 03       		.uleb128 0x3
 4284 06b2 44040000 		.4byte	.LASF118
 4285 06b6 0A       		.byte	0xa
 4286 06b7 EF       		.byte	0xef
 4287 06b8 78060000 		.4byte	0x678
 4288 06bc 17       		.uleb128 0x17
 4289 06bd 10       		.byte	0x10
 4290 06be 0A       		.byte	0xa
 4291 06bf F5       		.byte	0xf5
 4292 06c0 F5060000 		.4byte	0x6f5
 4293 06c4 18       		.uleb128 0x18
 4294 06c5 52495200 		.ascii	"RIR\000"
 4295 06c9 0A       		.byte	0xa
 4296 06ca F7       		.byte	0xf7
 4297 06cb 16010000 		.4byte	0x116
 4298 06cf 00       		.byte	0
 4299 06d0 08       		.uleb128 0x8
 4300 06d1 F1190000 		.4byte	.LASF119
 4301 06d5 0A       		.byte	0xa
 4302 06d6 F8       		.byte	0xf8
 4303 06d7 16010000 		.4byte	0x116
 4304 06db 04       		.byte	0x4
 4305 06dc 08       		.uleb128 0x8
 4306 06dd 00160000 		.4byte	.LASF120
 4307 06e1 0A       		.byte	0xa
 4308 06e2 F9       		.byte	0xf9
 4309 06e3 16010000 		.4byte	0x116
 4310 06e7 08       		.byte	0x8
 4311 06e8 08       		.uleb128 0x8
 4312 06e9 2F140000 		.4byte	.LASF121
 4313 06ed 0A       		.byte	0xa
 4314 06ee FA       		.byte	0xfa
 4315 06ef 16010000 		.4byte	0x116
 4316 06f3 0C       		.byte	0xc
 4317 06f4 00       		.byte	0
 4318 06f5 03       		.uleb128 0x3
 4319 06f6 51190000 		.4byte	.LASF122
 4320 06fa 0A       		.byte	0xa
 4321 06fb FB       		.byte	0xfb
 4322 06fc BC060000 		.4byte	0x6bc
 4323 0700 19       		.uleb128 0x19
 4324 0701 08       		.byte	0x8
 4325 0702 0A       		.byte	0xa
 4326 0703 0101     		.2byte	0x101
 4327 0705 24070000 		.4byte	0x724
 4328 0709 09       		.uleb128 0x9
 4329 070a 46523100 		.ascii	"FR1\000"
 4330 070e 0A       		.byte	0xa
 4331 070f 0301     		.2byte	0x103
ARM GAS  /tmp/cc5QaxCL.s 			page 77


 4332 0711 16010000 		.4byte	0x116
 4333 0715 00       		.byte	0
 4334 0716 09       		.uleb128 0x9
 4335 0717 46523200 		.ascii	"FR2\000"
 4336 071b 0A       		.byte	0xa
 4337 071c 0401     		.2byte	0x104
 4338 071e 16010000 		.4byte	0x116
 4339 0722 04       		.byte	0x4
 4340 0723 00       		.byte	0
 4341 0724 1A       		.uleb128 0x1a
 4342 0725 EE0E0000 		.4byte	.LASF123
 4343 0729 0A       		.byte	0xa
 4344 072a 0501     		.2byte	0x105
 4345 072c 00070000 		.4byte	0x700
 4346 0730 1B       		.uleb128 0x1b
 4347 0731 2003     		.2byte	0x320
 4348 0733 0A       		.byte	0xa
 4349 0734 0B01     		.2byte	0x10b
 4350 0736 66080000 		.4byte	0x866
 4351 073a 09       		.uleb128 0x9
 4352 073b 4D435200 		.ascii	"MCR\000"
 4353 073f 0A       		.byte	0xa
 4354 0740 0D01     		.2byte	0x10d
 4355 0742 16010000 		.4byte	0x116
 4356 0746 00       		.byte	0
 4357 0747 09       		.uleb128 0x9
 4358 0748 4D535200 		.ascii	"MSR\000"
 4359 074c 0A       		.byte	0xa
 4360 074d 0E01     		.2byte	0x10e
 4361 074f 16010000 		.4byte	0x116
 4362 0753 04       		.byte	0x4
 4363 0754 09       		.uleb128 0x9
 4364 0755 54535200 		.ascii	"TSR\000"
 4365 0759 0A       		.byte	0xa
 4366 075a 0F01     		.2byte	0x10f
 4367 075c 16010000 		.4byte	0x116
 4368 0760 08       		.byte	0x8
 4369 0761 0A       		.uleb128 0xa
 4370 0762 760C0000 		.4byte	.LASF124
 4371 0766 0A       		.byte	0xa
 4372 0767 1001     		.2byte	0x110
 4373 0769 16010000 		.4byte	0x116
 4374 076d 0C       		.byte	0xc
 4375 076e 0A       		.uleb128 0xa
 4376 076f 060D0000 		.4byte	.LASF125
 4377 0773 0A       		.byte	0xa
 4378 0774 1101     		.2byte	0x111
 4379 0776 16010000 		.4byte	0x116
 4380 077a 10       		.byte	0x10
 4381 077b 09       		.uleb128 0x9
 4382 077c 49455200 		.ascii	"IER\000"
 4383 0780 0A       		.byte	0xa
 4384 0781 1201     		.2byte	0x112
 4385 0783 16010000 		.4byte	0x116
 4386 0787 14       		.byte	0x14
 4387 0788 09       		.uleb128 0x9
 4388 0789 45535200 		.ascii	"ESR\000"
ARM GAS  /tmp/cc5QaxCL.s 			page 78


 4389 078d 0A       		.byte	0xa
 4390 078e 1301     		.2byte	0x113
 4391 0790 16010000 		.4byte	0x116
 4392 0794 18       		.byte	0x18
 4393 0795 09       		.uleb128 0x9
 4394 0796 42545200 		.ascii	"BTR\000"
 4395 079a 0A       		.byte	0xa
 4396 079b 1401     		.2byte	0x114
 4397 079d 16010000 		.4byte	0x116
 4398 07a1 1C       		.byte	0x1c
 4399 07a2 0A       		.uleb128 0xa
 4400 07a3 F91A0000 		.4byte	.LASF126
 4401 07a7 0A       		.byte	0xa
 4402 07a8 1501     		.2byte	0x115
 4403 07aa 66080000 		.4byte	0x866
 4404 07ae 20       		.byte	0x20
 4405 07af 11       		.uleb128 0x11
 4406 07b0 35100000 		.4byte	.LASF127
 4407 07b4 0A       		.byte	0xa
 4408 07b5 1601     		.2byte	0x116
 4409 07b7 76080000 		.4byte	0x876
 4410 07bb 8001     		.2byte	0x180
 4411 07bd 11       		.uleb128 0x11
 4412 07be B41E0000 		.4byte	.LASF128
 4413 07c2 0A       		.byte	0xa
 4414 07c3 1701     		.2byte	0x117
 4415 07c5 86080000 		.4byte	0x886
 4416 07c9 B001     		.2byte	0x1b0
 4417 07cb 11       		.uleb128 0x11
 4418 07cc 031B0000 		.4byte	.LASF129
 4419 07d0 0A       		.byte	0xa
 4420 07d1 1801     		.2byte	0x118
 4421 07d3 96080000 		.4byte	0x896
 4422 07d7 D001     		.2byte	0x1d0
 4423 07d9 12       		.uleb128 0x12
 4424 07da 464D5200 		.ascii	"FMR\000"
 4425 07de 0A       		.byte	0xa
 4426 07df 1901     		.2byte	0x119
 4427 07e1 16010000 		.4byte	0x116
 4428 07e5 0002     		.2byte	0x200
 4429 07e7 11       		.uleb128 0x11
 4430 07e8 83090000 		.4byte	.LASF130
 4431 07ec 0A       		.byte	0xa
 4432 07ed 1A01     		.2byte	0x11a
 4433 07ef 16010000 		.4byte	0x116
 4434 07f3 0402     		.2byte	0x204
 4435 07f5 11       		.uleb128 0x11
 4436 07f6 0D1B0000 		.4byte	.LASF131
 4437 07fa 0A       		.byte	0xa
 4438 07fb 1B01     		.2byte	0x11b
 4439 07fd 0B010000 		.4byte	0x10b
 4440 0801 0802     		.2byte	0x208
 4441 0803 11       		.uleb128 0x11
 4442 0804 FC1C0000 		.4byte	.LASF132
 4443 0808 0A       		.byte	0xa
 4444 0809 1C01     		.2byte	0x11c
 4445 080b 16010000 		.4byte	0x116
ARM GAS  /tmp/cc5QaxCL.s 			page 79


 4446 080f 0C02     		.2byte	0x20c
 4447 0811 11       		.uleb128 0x11
 4448 0812 171B0000 		.4byte	.LASF133
 4449 0816 0A       		.byte	0xa
 4450 0817 1D01     		.2byte	0x11d
 4451 0819 0B010000 		.4byte	0x10b
 4452 081d 1002     		.2byte	0x210
 4453 081f 11       		.uleb128 0x11
 4454 0820 2C160000 		.4byte	.LASF134
 4455 0824 0A       		.byte	0xa
 4456 0825 1E01     		.2byte	0x11e
 4457 0827 16010000 		.4byte	0x116
 4458 082b 1402     		.2byte	0x214
 4459 082d 11       		.uleb128 0x11
 4460 082e 211B0000 		.4byte	.LASF135
 4461 0832 0A       		.byte	0xa
 4462 0833 1F01     		.2byte	0x11f
 4463 0835 0B010000 		.4byte	0x10b
 4464 0839 1802     		.2byte	0x218
 4465 083b 11       		.uleb128 0x11
 4466 083c 51030000 		.4byte	.LASF136
 4467 0840 0A       		.byte	0xa
 4468 0841 2001     		.2byte	0x120
 4469 0843 16010000 		.4byte	0x116
 4470 0847 1C02     		.2byte	0x21c
 4471 0849 11       		.uleb128 0x11
 4472 084a 2B1B0000 		.4byte	.LASF137
 4473 084e 0A       		.byte	0xa
 4474 084f 2101     		.2byte	0x121
 4475 0851 4F050000 		.4byte	0x54f
 4476 0855 2002     		.2byte	0x220
 4477 0857 11       		.uleb128 0x11
 4478 0858 FD040000 		.4byte	.LASF138
 4479 085c 0A       		.byte	0xa
 4480 085d 2201     		.2byte	0x122
 4481 085f A6080000 		.4byte	0x8a6
 4482 0863 4002     		.2byte	0x240
 4483 0865 00       		.byte	0
 4484 0866 13       		.uleb128 0x13
 4485 0867 0B010000 		.4byte	0x10b
 4486 086b 76080000 		.4byte	0x876
 4487 086f 14       		.uleb128 0x14
 4488 0870 37000000 		.4byte	0x37
 4489 0874 57       		.byte	0x57
 4490 0875 00       		.byte	0
 4491 0876 13       		.uleb128 0x13
 4492 0877 B1060000 		.4byte	0x6b1
 4493 087b 86080000 		.4byte	0x886
 4494 087f 14       		.uleb128 0x14
 4495 0880 37000000 		.4byte	0x37
 4496 0884 02       		.byte	0x2
 4497 0885 00       		.byte	0
 4498 0886 13       		.uleb128 0x13
 4499 0887 F5060000 		.4byte	0x6f5
 4500 088b 96080000 		.4byte	0x896
 4501 088f 14       		.uleb128 0x14
 4502 0890 37000000 		.4byte	0x37
ARM GAS  /tmp/cc5QaxCL.s 			page 80


 4503 0894 01       		.byte	0x1
 4504 0895 00       		.byte	0
 4505 0896 13       		.uleb128 0x13
 4506 0897 0B010000 		.4byte	0x10b
 4507 089b A6080000 		.4byte	0x8a6
 4508 089f 14       		.uleb128 0x14
 4509 08a0 37000000 		.4byte	0x37
 4510 08a4 0B       		.byte	0xb
 4511 08a5 00       		.byte	0
 4512 08a6 13       		.uleb128 0x13
 4513 08a7 24070000 		.4byte	0x724
 4514 08ab B6080000 		.4byte	0x8b6
 4515 08af 14       		.uleb128 0x14
 4516 08b0 37000000 		.4byte	0x37
 4517 08b4 1B       		.byte	0x1b
 4518 08b5 00       		.byte	0
 4519 08b6 1A       		.uleb128 0x1a
 4520 08b7 390B0000 		.4byte	.LASF139
 4521 08bb 0A       		.byte	0xa
 4522 08bc 2301     		.2byte	0x123
 4523 08be 30070000 		.4byte	0x730
 4524 08c2 19       		.uleb128 0x19
 4525 08c3 38       		.byte	0x38
 4526 08c4 0A       		.byte	0xa
 4527 08c5 3601     		.2byte	0x136
 4528 08c7 80090000 		.4byte	0x980
 4529 08cb 09       		.uleb128 0x9
 4530 08cc 435200   		.ascii	"CR\000"
 4531 08cf 0A       		.byte	0xa
 4532 08d0 3801     		.2byte	0x138
 4533 08d2 16010000 		.4byte	0x116
 4534 08d6 00       		.byte	0
 4535 08d7 0A       		.uleb128 0xa
 4536 08d8 07140000 		.4byte	.LASF140
 4537 08dc 0A       		.byte	0xa
 4538 08dd 3901     		.2byte	0x139
 4539 08df 16010000 		.4byte	0x116
 4540 08e3 04       		.byte	0x4
 4541 08e4 0A       		.uleb128 0xa
 4542 08e5 471B0000 		.4byte	.LASF141
 4543 08e9 0A       		.byte	0xa
 4544 08ea 3A01     		.2byte	0x13a
 4545 08ec 16010000 		.4byte	0x116
 4546 08f0 08       		.byte	0x8
 4547 08f1 0A       		.uleb128 0xa
 4548 08f2 DF170000 		.4byte	.LASF142
 4549 08f6 0A       		.byte	0xa
 4550 08f7 3B01     		.2byte	0x13b
 4551 08f9 16010000 		.4byte	0x116
 4552 08fd 0C       		.byte	0xc
 4553 08fe 0A       		.uleb128 0xa
 4554 08ff F1080000 		.4byte	.LASF143
 4555 0903 0A       		.byte	0xa
 4556 0904 3C01     		.2byte	0x13c
 4557 0906 16010000 		.4byte	0x116
 4558 090a 10       		.byte	0x10
 4559 090b 0A       		.uleb128 0xa
ARM GAS  /tmp/cc5QaxCL.s 			page 81


 4560 090c 4F1B0000 		.4byte	.LASF144
 4561 0910 0A       		.byte	0xa
 4562 0911 3D01     		.2byte	0x13d
 4563 0913 16010000 		.4byte	0x116
 4564 0917 14       		.byte	0x14
 4565 0918 0A       		.uleb128 0xa
 4566 0919 E7170000 		.4byte	.LASF145
 4567 091d 0A       		.byte	0xa
 4568 091e 3E01     		.2byte	0x13e
 4569 0920 16010000 		.4byte	0x116
 4570 0924 18       		.byte	0x18
 4571 0925 0A       		.uleb128 0xa
 4572 0926 F8080000 		.4byte	.LASF146
 4573 092a 0A       		.byte	0xa
 4574 092b 3F01     		.2byte	0x13f
 4575 092d 16010000 		.4byte	0x116
 4576 0931 1C       		.byte	0x1c
 4577 0932 0A       		.uleb128 0xa
 4578 0933 A51B0000 		.4byte	.LASF147
 4579 0937 0A       		.byte	0xa
 4580 0938 4001     		.2byte	0x140
 4581 093a 16010000 		.4byte	0x116
 4582 093e 20       		.byte	0x20
 4583 093f 0A       		.uleb128 0xa
 4584 0940 32180000 		.4byte	.LASF148
 4585 0944 0A       		.byte	0xa
 4586 0945 4101     		.2byte	0x141
 4587 0947 16010000 		.4byte	0x116
 4588 094b 24       		.byte	0x24
 4589 094c 0A       		.uleb128 0xa
 4590 094d CB1E0000 		.4byte	.LASF149
 4591 0951 0A       		.byte	0xa
 4592 0952 4201     		.2byte	0x142
 4593 0954 16010000 		.4byte	0x116
 4594 0958 28       		.byte	0x28
 4595 0959 0A       		.uleb128 0xa
 4596 095a 01010000 		.4byte	.LASF150
 4597 095e 0A       		.byte	0xa
 4598 095f 4301     		.2byte	0x143
 4599 0961 16010000 		.4byte	0x116
 4600 0965 2C       		.byte	0x2c
 4601 0966 0A       		.uleb128 0xa
 4602 0967 06010000 		.4byte	.LASF151
 4603 096b 0A       		.byte	0xa
 4604 096c 4401     		.2byte	0x144
 4605 096e 16010000 		.4byte	0x116
 4606 0972 30       		.byte	0x30
 4607 0973 09       		.uleb128 0x9
 4608 0974 535200   		.ascii	"SR\000"
 4609 0977 0A       		.byte	0xa
 4610 0978 4501     		.2byte	0x145
 4611 097a 16010000 		.4byte	0x116
 4612 097e 34       		.byte	0x34
 4613 097f 00       		.byte	0
 4614 0980 1A       		.uleb128 0x1a
 4615 0981 69190000 		.4byte	.LASF152
 4616 0985 0A       		.byte	0xa
ARM GAS  /tmp/cc5QaxCL.s 			page 82


 4617 0986 4601     		.2byte	0x146
 4618 0988 C2080000 		.4byte	0x8c2
 4619 098c 19       		.uleb128 0x19
 4620 098d 18       		.byte	0x18
 4621 098e 0A       		.byte	0xa
 4622 098f 6B01     		.2byte	0x16b
 4623 0991 E3090000 		.4byte	0x9e3
 4624 0995 09       		.uleb128 0x9
 4625 0996 435200   		.ascii	"CR\000"
 4626 0999 0A       		.byte	0xa
 4627 099a 6D01     		.2byte	0x16d
 4628 099c 16010000 		.4byte	0x116
 4629 09a0 00       		.byte	0
 4630 09a1 0A       		.uleb128 0xa
 4631 09a2 3B1C0000 		.4byte	.LASF153
 4632 09a6 0A       		.byte	0xa
 4633 09a7 6E01     		.2byte	0x16e
 4634 09a9 16010000 		.4byte	0x116
 4635 09ad 04       		.byte	0x4
 4636 09ae 09       		.uleb128 0x9
 4637 09af 50415200 		.ascii	"PAR\000"
 4638 09b3 0A       		.byte	0xa
 4639 09b4 6F01     		.2byte	0x16f
 4640 09b6 16010000 		.4byte	0x116
 4641 09ba 08       		.byte	0x8
 4642 09bb 0A       		.uleb128 0xa
 4643 09bc 33030000 		.4byte	.LASF154
 4644 09c0 0A       		.byte	0xa
 4645 09c1 7001     		.2byte	0x170
 4646 09c3 16010000 		.4byte	0x116
 4647 09c7 0C       		.byte	0xc
 4648 09c8 0A       		.uleb128 0xa
 4649 09c9 E2060000 		.4byte	.LASF155
 4650 09cd 0A       		.byte	0xa
 4651 09ce 7101     		.2byte	0x171
 4652 09d0 16010000 		.4byte	0x116
 4653 09d4 10       		.byte	0x10
 4654 09d5 09       		.uleb128 0x9
 4655 09d6 46435200 		.ascii	"FCR\000"
 4656 09da 0A       		.byte	0xa
 4657 09db 7201     		.2byte	0x172
 4658 09dd 16010000 		.4byte	0x116
 4659 09e1 14       		.byte	0x14
 4660 09e2 00       		.byte	0
 4661 09e3 1A       		.uleb128 0x1a
 4662 09e4 FF060000 		.4byte	.LASF156
 4663 09e8 0A       		.byte	0xa
 4664 09e9 7301     		.2byte	0x173
 4665 09eb 8C090000 		.4byte	0x98c
 4666 09ef 13       		.uleb128 0x13
 4667 09f0 16010000 		.4byte	0x116
 4668 09f4 FF090000 		.4byte	0x9ff
 4669 09f8 14       		.uleb128 0x14
 4670 09f9 37000000 		.4byte	0x37
 4671 09fd 01       		.byte	0x1
 4672 09fe 00       		.byte	0
 4673 09ff 06       		.uleb128 0x6
ARM GAS  /tmp/cc5QaxCL.s 			page 83


 4674 0a00 EF090000 		.4byte	0x9ef
 4675 0a04 13       		.uleb128 0x13
 4676 0a05 16010000 		.4byte	0x116
 4677 0a09 140A0000 		.4byte	0xa14
 4678 0a0d 14       		.uleb128 0x14
 4679 0a0e 37000000 		.4byte	0x37
 4680 0a12 03       		.byte	0x3
 4681 0a13 00       		.byte	0
 4682 0a14 06       		.uleb128 0x6
 4683 0a15 040A0000 		.4byte	0xa04
 4684 0a19 19       		.uleb128 0x19
 4685 0a1a 28       		.byte	0x28
 4686 0a1b 0A       		.byte	0xa
 4687 0a1c 3F02     		.2byte	0x23f
 4688 0a1e A40A0000 		.4byte	0xaa4
 4689 0a22 09       		.uleb128 0x9
 4690 0a23 43523100 		.ascii	"CR1\000"
 4691 0a27 0A       		.byte	0xa
 4692 0a28 4102     		.2byte	0x241
 4693 0a2a 16010000 		.4byte	0x116
 4694 0a2e 00       		.byte	0
 4695 0a2f 09       		.uleb128 0x9
 4696 0a30 43523200 		.ascii	"CR2\000"
 4697 0a34 0A       		.byte	0xa
 4698 0a35 4202     		.2byte	0x242
 4699 0a37 16010000 		.4byte	0x116
 4700 0a3b 04       		.byte	0x4
 4701 0a3c 0A       		.uleb128 0xa
 4702 0a3d 50210000 		.4byte	.LASF157
 4703 0a41 0A       		.byte	0xa
 4704 0a42 4302     		.2byte	0x243
 4705 0a44 16010000 		.4byte	0x116
 4706 0a48 08       		.byte	0x8
 4707 0a49 0A       		.uleb128 0xa
 4708 0a4a 55210000 		.4byte	.LASF158
 4709 0a4e 0A       		.byte	0xa
 4710 0a4f 4402     		.2byte	0x244
 4711 0a51 16010000 		.4byte	0x116
 4712 0a55 0C       		.byte	0xc
 4713 0a56 09       		.uleb128 0x9
 4714 0a57 445200   		.ascii	"DR\000"
 4715 0a5a 0A       		.byte	0xa
 4716 0a5b 4502     		.2byte	0x245
 4717 0a5d 16010000 		.4byte	0x116
 4718 0a61 10       		.byte	0x10
 4719 0a62 09       		.uleb128 0x9
 4720 0a63 53523100 		.ascii	"SR1\000"
 4721 0a67 0A       		.byte	0xa
 4722 0a68 4602     		.2byte	0x246
 4723 0a6a 16010000 		.4byte	0x116
 4724 0a6e 14       		.byte	0x14
 4725 0a6f 09       		.uleb128 0x9
 4726 0a70 53523200 		.ascii	"SR2\000"
 4727 0a74 0A       		.byte	0xa
 4728 0a75 4702     		.2byte	0x247
 4729 0a77 16010000 		.4byte	0x116
 4730 0a7b 18       		.byte	0x18
ARM GAS  /tmp/cc5QaxCL.s 			page 84


 4731 0a7c 09       		.uleb128 0x9
 4732 0a7d 43435200 		.ascii	"CCR\000"
 4733 0a81 0A       		.byte	0xa
 4734 0a82 4802     		.2byte	0x248
 4735 0a84 16010000 		.4byte	0x116
 4736 0a88 1C       		.byte	0x1c
 4737 0a89 0A       		.uleb128 0xa
 4738 0a8a 12040000 		.4byte	.LASF159
 4739 0a8e 0A       		.byte	0xa
 4740 0a8f 4902     		.2byte	0x249
 4741 0a91 16010000 		.4byte	0x116
 4742 0a95 20       		.byte	0x20
 4743 0a96 0A       		.uleb128 0xa
 4744 0a97 1F200000 		.4byte	.LASF160
 4745 0a9b 0A       		.byte	0xa
 4746 0a9c 4A02     		.2byte	0x24a
 4747 0a9e 16010000 		.4byte	0x116
 4748 0aa2 24       		.byte	0x24
 4749 0aa3 00       		.byte	0
 4750 0aa4 1A       		.uleb128 0x1a
 4751 0aa5 23140000 		.4byte	.LASF161
 4752 0aa9 0A       		.byte	0xa
 4753 0aaa 4B02     		.2byte	0x24b
 4754 0aac 190A0000 		.4byte	0xa19
 4755 0ab0 19       		.uleb128 0x19
 4756 0ab1 84       		.byte	0x84
 4757 0ab2 0A       		.byte	0xa
 4758 0ab3 BF02     		.2byte	0x2bf
 4759 0ab5 BE0B0000 		.4byte	0xbbe
 4760 0ab9 0A       		.uleb128 0xa
 4761 0aba 4C140000 		.4byte	.LASF162
 4762 0abe 0A       		.byte	0xa
 4763 0abf C102     		.2byte	0x2c1
 4764 0ac1 16010000 		.4byte	0x116
 4765 0ac5 00       		.byte	0
 4766 0ac6 0A       		.uleb128 0xa
 4767 0ac7 681D0000 		.4byte	.LASF163
 4768 0acb 0A       		.byte	0xa
 4769 0acc C202     		.2byte	0x2c2
 4770 0ace 16010000 		.4byte	0x116
 4771 0ad2 04       		.byte	0x4
 4772 0ad3 09       		.uleb128 0x9
 4773 0ad4 41524700 		.ascii	"ARG\000"
 4774 0ad8 0A       		.byte	0xa
 4775 0ad9 C302     		.2byte	0x2c3
 4776 0adb 16010000 		.4byte	0x116
 4777 0adf 08       		.byte	0x8
 4778 0ae0 09       		.uleb128 0x9
 4779 0ae1 434D4400 		.ascii	"CMD\000"
 4780 0ae5 0A       		.byte	0xa
 4781 0ae6 C402     		.2byte	0x2c4
 4782 0ae8 16010000 		.4byte	0x116
 4783 0aec 0C       		.byte	0xc
 4784 0aed 0A       		.uleb128 0xa
 4785 0aee AE160000 		.4byte	.LASF164
 4786 0af2 0A       		.byte	0xa
 4787 0af3 C502     		.2byte	0x2c5
ARM GAS  /tmp/cc5QaxCL.s 			page 85


 4788 0af5 1B010000 		.4byte	0x11b
 4789 0af9 10       		.byte	0x10
 4790 0afa 0A       		.uleb128 0xa
 4791 0afb 27050000 		.4byte	.LASF165
 4792 0aff 0A       		.byte	0xa
 4793 0b00 C602     		.2byte	0x2c6
 4794 0b02 1B010000 		.4byte	0x11b
 4795 0b06 14       		.byte	0x14
 4796 0b07 0A       		.uleb128 0xa
 4797 0b08 2D050000 		.4byte	.LASF166
 4798 0b0c 0A       		.byte	0xa
 4799 0b0d C702     		.2byte	0x2c7
 4800 0b0f 1B010000 		.4byte	0x11b
 4801 0b13 18       		.byte	0x18
 4802 0b14 0A       		.uleb128 0xa
 4803 0b15 33050000 		.4byte	.LASF167
 4804 0b19 0A       		.byte	0xa
 4805 0b1a C802     		.2byte	0x2c8
 4806 0b1c 1B010000 		.4byte	0x11b
 4807 0b20 1C       		.byte	0x1c
 4808 0b21 0A       		.uleb128 0xa
 4809 0b22 39050000 		.4byte	.LASF168
 4810 0b26 0A       		.byte	0xa
 4811 0b27 C902     		.2byte	0x2c9
 4812 0b29 1B010000 		.4byte	0x11b
 4813 0b2d 20       		.byte	0x20
 4814 0b2e 0A       		.uleb128 0xa
 4815 0b2f 15120000 		.4byte	.LASF169
 4816 0b33 0A       		.byte	0xa
 4817 0b34 CA02     		.2byte	0x2ca
 4818 0b36 16010000 		.4byte	0x116
 4819 0b3a 24       		.byte	0x24
 4820 0b3b 0A       		.uleb128 0xa
 4821 0b3c 63130000 		.4byte	.LASF170
 4822 0b40 0A       		.byte	0xa
 4823 0b41 CB02     		.2byte	0x2cb
 4824 0b43 16010000 		.4byte	0x116
 4825 0b47 28       		.byte	0x28
 4826 0b48 0A       		.uleb128 0xa
 4827 0b49 0B200000 		.4byte	.LASF171
 4828 0b4d 0A       		.byte	0xa
 4829 0b4e CC02     		.2byte	0x2cc
 4830 0b50 16010000 		.4byte	0x116
 4831 0b54 2C       		.byte	0x2c
 4832 0b55 0A       		.uleb128 0xa
 4833 0b56 49210000 		.4byte	.LASF172
 4834 0b5a 0A       		.byte	0xa
 4835 0b5b CD02     		.2byte	0x2cd
 4836 0b5d 1B010000 		.4byte	0x11b
 4837 0b61 30       		.byte	0x30
 4838 0b62 09       		.uleb128 0x9
 4839 0b63 53544100 		.ascii	"STA\000"
 4840 0b67 0A       		.byte	0xa
 4841 0b68 CE02     		.2byte	0x2ce
 4842 0b6a 1B010000 		.4byte	0x11b
 4843 0b6e 34       		.byte	0x34
 4844 0b6f 09       		.uleb128 0x9
ARM GAS  /tmp/cc5QaxCL.s 			page 86


 4845 0b70 49435200 		.ascii	"ICR\000"
 4846 0b74 0A       		.byte	0xa
 4847 0b75 CF02     		.2byte	0x2cf
 4848 0b77 16010000 		.4byte	0x116
 4849 0b7b 38       		.byte	0x38
 4850 0b7c 0A       		.uleb128 0xa
 4851 0b7d 23010000 		.4byte	.LASF173
 4852 0b81 0A       		.byte	0xa
 4853 0b82 D002     		.2byte	0x2d0
 4854 0b84 16010000 		.4byte	0x116
 4855 0b88 3C       		.byte	0x3c
 4856 0b89 0A       		.uleb128 0xa
 4857 0b8a F91A0000 		.4byte	.LASF126
 4858 0b8e 0A       		.byte	0xa
 4859 0b8f D102     		.2byte	0x2d1
 4860 0b91 3F050000 		.4byte	0x53f
 4861 0b95 40       		.byte	0x40
 4862 0b96 0A       		.uleb128 0xa
 4863 0b97 91120000 		.4byte	.LASF174
 4864 0b9b 0A       		.byte	0xa
 4865 0b9c D202     		.2byte	0x2d2
 4866 0b9e 1B010000 		.4byte	0x11b
 4867 0ba2 48       		.byte	0x48
 4868 0ba3 0A       		.uleb128 0xa
 4869 0ba4 031B0000 		.4byte	.LASF129
 4870 0ba8 0A       		.byte	0xa
 4871 0ba9 D302     		.2byte	0x2d3
 4872 0bab BE0B0000 		.4byte	0xbbe
 4873 0baf 4C       		.byte	0x4c
 4874 0bb0 0A       		.uleb128 0xa
 4875 0bb1 2F080000 		.4byte	.LASF175
 4876 0bb5 0A       		.byte	0xa
 4877 0bb6 D402     		.2byte	0x2d4
 4878 0bb8 16010000 		.4byte	0x116
 4879 0bbc 80       		.byte	0x80
 4880 0bbd 00       		.byte	0
 4881 0bbe 13       		.uleb128 0x13
 4882 0bbf 0B010000 		.4byte	0x10b
 4883 0bc3 CE0B0000 		.4byte	0xbce
 4884 0bc7 14       		.uleb128 0x14
 4885 0bc8 37000000 		.4byte	0x37
 4886 0bcc 0C       		.byte	0xc
 4887 0bcd 00       		.byte	0
 4888 0bce 1A       		.uleb128 0x1a
 4889 0bcf 271C0000 		.4byte	.LASF176
 4890 0bd3 0A       		.byte	0xa
 4891 0bd4 D502     		.2byte	0x2d5
 4892 0bd6 B00A0000 		.4byte	0xab0
 4893 0bda 19       		.uleb128 0x19
 4894 0bdb 24       		.byte	0x24
 4895 0bdc 0A       		.byte	0xa
 4896 0bdd DB02     		.2byte	0x2db
 4897 0bdf 570C0000 		.4byte	0xc57
 4898 0be3 09       		.uleb128 0x9
 4899 0be4 43523100 		.ascii	"CR1\000"
 4900 0be8 0A       		.byte	0xa
 4901 0be9 DD02     		.2byte	0x2dd
ARM GAS  /tmp/cc5QaxCL.s 			page 87


 4902 0beb 16010000 		.4byte	0x116
 4903 0bef 00       		.byte	0
 4904 0bf0 09       		.uleb128 0x9
 4905 0bf1 43523200 		.ascii	"CR2\000"
 4906 0bf5 0A       		.byte	0xa
 4907 0bf6 DE02     		.2byte	0x2de
 4908 0bf8 16010000 		.4byte	0x116
 4909 0bfc 04       		.byte	0x4
 4910 0bfd 09       		.uleb128 0x9
 4911 0bfe 535200   		.ascii	"SR\000"
 4912 0c01 0A       		.byte	0xa
 4913 0c02 DF02     		.2byte	0x2df
 4914 0c04 16010000 		.4byte	0x116
 4915 0c08 08       		.byte	0x8
 4916 0c09 09       		.uleb128 0x9
 4917 0c0a 445200   		.ascii	"DR\000"
 4918 0c0d 0A       		.byte	0xa
 4919 0c0e E002     		.2byte	0x2e0
 4920 0c10 16010000 		.4byte	0x116
 4921 0c14 0C       		.byte	0xc
 4922 0c15 0A       		.uleb128 0xa
 4923 0c16 73060000 		.4byte	.LASF177
 4924 0c1a 0A       		.byte	0xa
 4925 0c1b E102     		.2byte	0x2e1
 4926 0c1d 16010000 		.4byte	0x116
 4927 0c21 10       		.byte	0x10
 4928 0c22 0A       		.uleb128 0xa
 4929 0c23 F5090000 		.4byte	.LASF178
 4930 0c27 0A       		.byte	0xa
 4931 0c28 E202     		.2byte	0x2e2
 4932 0c2a 16010000 		.4byte	0x116
 4933 0c2e 14       		.byte	0x14
 4934 0c2f 0A       		.uleb128 0xa
 4935 0c30 33090000 		.4byte	.LASF179
 4936 0c34 0A       		.byte	0xa
 4937 0c35 E302     		.2byte	0x2e3
 4938 0c37 16010000 		.4byte	0x116
 4939 0c3b 18       		.byte	0x18
 4940 0c3c 0A       		.uleb128 0xa
 4941 0c3d 111E0000 		.4byte	.LASF180
 4942 0c41 0A       		.byte	0xa
 4943 0c42 E402     		.2byte	0x2e4
 4944 0c44 16010000 		.4byte	0x116
 4945 0c48 1C       		.byte	0x1c
 4946 0c49 0A       		.uleb128 0xa
 4947 0c4a 34060000 		.4byte	.LASF181
 4948 0c4e 0A       		.byte	0xa
 4949 0c4f E502     		.2byte	0x2e5
 4950 0c51 16010000 		.4byte	0x116
 4951 0c55 20       		.byte	0x20
 4952 0c56 00       		.byte	0
 4953 0c57 1A       		.uleb128 0x1a
 4954 0c58 671C0000 		.4byte	.LASF182
 4955 0c5c 0A       		.byte	0xa
 4956 0c5d E602     		.2byte	0x2e6
 4957 0c5f DA0B0000 		.4byte	0xbda
 4958 0c63 19       		.uleb128 0x19
ARM GAS  /tmp/cc5QaxCL.s 			page 88


 4959 0c64 1C       		.byte	0x1c
 4960 0c65 0A       		.byte	0xa
 4961 0c66 0903     		.2byte	0x309
 4962 0c68 C60C0000 		.4byte	0xcc6
 4963 0c6c 09       		.uleb128 0x9
 4964 0c6d 535200   		.ascii	"SR\000"
 4965 0c70 0A       		.byte	0xa
 4966 0c71 0B03     		.2byte	0x30b
 4967 0c73 16010000 		.4byte	0x116
 4968 0c77 00       		.byte	0
 4969 0c78 09       		.uleb128 0x9
 4970 0c79 445200   		.ascii	"DR\000"
 4971 0c7c 0A       		.byte	0xa
 4972 0c7d 0C03     		.2byte	0x30c
 4973 0c7f 16010000 		.4byte	0x116
 4974 0c83 04       		.byte	0x4
 4975 0c84 09       		.uleb128 0x9
 4976 0c85 42525200 		.ascii	"BRR\000"
 4977 0c89 0A       		.byte	0xa
 4978 0c8a 0D03     		.2byte	0x30d
 4979 0c8c 16010000 		.4byte	0x116
 4980 0c90 08       		.byte	0x8
 4981 0c91 09       		.uleb128 0x9
 4982 0c92 43523100 		.ascii	"CR1\000"
 4983 0c96 0A       		.byte	0xa
 4984 0c97 0E03     		.2byte	0x30e
 4985 0c99 16010000 		.4byte	0x116
 4986 0c9d 0C       		.byte	0xc
 4987 0c9e 09       		.uleb128 0x9
 4988 0c9f 43523200 		.ascii	"CR2\000"
 4989 0ca3 0A       		.byte	0xa
 4990 0ca4 0F03     		.2byte	0x30f
 4991 0ca6 16010000 		.4byte	0x116
 4992 0caa 10       		.byte	0x10
 4993 0cab 09       		.uleb128 0x9
 4994 0cac 43523300 		.ascii	"CR3\000"
 4995 0cb0 0A       		.byte	0xa
 4996 0cb1 1003     		.2byte	0x310
 4997 0cb3 16010000 		.4byte	0x116
 4998 0cb7 14       		.byte	0x14
 4999 0cb8 0A       		.uleb128 0xa
 5000 0cb9 EC1F0000 		.4byte	.LASF183
 5001 0cbd 0A       		.byte	0xa
 5002 0cbe 1103     		.2byte	0x311
 5003 0cc0 16010000 		.4byte	0x116
 5004 0cc4 18       		.byte	0x18
 5005 0cc5 00       		.byte	0
 5006 0cc6 1A       		.uleb128 0x1a
 5007 0cc7 A5200000 		.4byte	.LASF184
 5008 0ccb 0A       		.byte	0xa
 5009 0ccc 1203     		.2byte	0x312
 5010 0cce 630C0000 		.4byte	0xc63
 5011 0cd2 13       		.uleb128 0x13
 5012 0cd3 16010000 		.4byte	0x116
 5013 0cd7 E20C0000 		.4byte	0xce2
 5014 0cdb 14       		.uleb128 0x14
 5015 0cdc 37000000 		.4byte	0x37
ARM GAS  /tmp/cc5QaxCL.s 			page 89


 5016 0ce0 0E       		.byte	0xe
 5017 0ce1 00       		.byte	0
 5018 0ce2 06       		.uleb128 0x6
 5019 0ce3 D20C0000 		.4byte	0xcd2
 5020 0ce7 03       		.uleb128 0x3
 5021 0ce8 11160000 		.4byte	.LASF185
 5022 0cec 0B       		.byte	0xb
 5023 0ced 65       		.byte	0x65
 5024 0cee D0030000 		.4byte	0x3d0
 5025 0cf2 03       		.uleb128 0x3
 5026 0cf3 D6070000 		.4byte	.LASF186
 5027 0cf7 0B       		.byte	0xb
 5028 0cf8 6D       		.byte	0x6d
 5029 0cf9 20010000 		.4byte	0x120
 5030 0cfd 07       		.uleb128 0x7
 5031 0cfe A9150000 		.4byte	.LASF187
 5032 0d02 04       		.byte	0x4
 5033 0d03 0B       		.byte	0xb
 5034 0d04 89       		.byte	0x89
 5035 0d05 160D0000 		.4byte	0xd16
 5036 0d09 18       		.uleb128 0x18
 5037 0d0a 72313300 		.ascii	"r13\000"
 5038 0d0e 0B       		.byte	0xb
 5039 0d0f 8A       		.byte	0x8a
 5040 0d10 570E0000 		.4byte	0xe57
 5041 0d14 00       		.byte	0
 5042 0d15 00       		.byte	0
 5043 0d16 07       		.uleb128 0x7
 5044 0d17 09000000 		.4byte	.LASF188
 5045 0d1b 64       		.byte	0x64
 5046 0d1c 0C       		.byte	0xc
 5047 0d1d F4       		.byte	0xf4
 5048 0d1e 570E0000 		.4byte	0xe57
 5049 0d22 18       		.uleb128 0x18
 5050 0d23 73313600 		.ascii	"s16\000"
 5051 0d27 0C       		.byte	0xc
 5052 0d28 F6       		.byte	0xf6
 5053 0d29 E70C0000 		.4byte	0xce7
 5054 0d2d 00       		.byte	0
 5055 0d2e 18       		.uleb128 0x18
 5056 0d2f 73313700 		.ascii	"s17\000"
 5057 0d33 0C       		.byte	0xc
 5058 0d34 F7       		.byte	0xf7
 5059 0d35 E70C0000 		.4byte	0xce7
 5060 0d39 04       		.byte	0x4
 5061 0d3a 18       		.uleb128 0x18
 5062 0d3b 73313800 		.ascii	"s18\000"
 5063 0d3f 0C       		.byte	0xc
 5064 0d40 F8       		.byte	0xf8
 5065 0d41 E70C0000 		.4byte	0xce7
 5066 0d45 08       		.byte	0x8
 5067 0d46 18       		.uleb128 0x18
 5068 0d47 73313900 		.ascii	"s19\000"
 5069 0d4b 0C       		.byte	0xc
 5070 0d4c F9       		.byte	0xf9
 5071 0d4d E70C0000 		.4byte	0xce7
 5072 0d51 0C       		.byte	0xc
ARM GAS  /tmp/cc5QaxCL.s 			page 90


 5073 0d52 18       		.uleb128 0x18
 5074 0d53 73323000 		.ascii	"s20\000"
 5075 0d57 0C       		.byte	0xc
 5076 0d58 FA       		.byte	0xfa
 5077 0d59 E70C0000 		.4byte	0xce7
 5078 0d5d 10       		.byte	0x10
 5079 0d5e 18       		.uleb128 0x18
 5080 0d5f 73323100 		.ascii	"s21\000"
 5081 0d63 0C       		.byte	0xc
 5082 0d64 FB       		.byte	0xfb
 5083 0d65 E70C0000 		.4byte	0xce7
 5084 0d69 14       		.byte	0x14
 5085 0d6a 18       		.uleb128 0x18
 5086 0d6b 73323200 		.ascii	"s22\000"
 5087 0d6f 0C       		.byte	0xc
 5088 0d70 FC       		.byte	0xfc
 5089 0d71 E70C0000 		.4byte	0xce7
 5090 0d75 18       		.byte	0x18
 5091 0d76 18       		.uleb128 0x18
 5092 0d77 73323300 		.ascii	"s23\000"
 5093 0d7b 0C       		.byte	0xc
 5094 0d7c FD       		.byte	0xfd
 5095 0d7d E70C0000 		.4byte	0xce7
 5096 0d81 1C       		.byte	0x1c
 5097 0d82 18       		.uleb128 0x18
 5098 0d83 73323400 		.ascii	"s24\000"
 5099 0d87 0C       		.byte	0xc
 5100 0d88 FE       		.byte	0xfe
 5101 0d89 E70C0000 		.4byte	0xce7
 5102 0d8d 20       		.byte	0x20
 5103 0d8e 18       		.uleb128 0x18
 5104 0d8f 73323500 		.ascii	"s25\000"
 5105 0d93 0C       		.byte	0xc
 5106 0d94 FF       		.byte	0xff
 5107 0d95 E70C0000 		.4byte	0xce7
 5108 0d99 24       		.byte	0x24
 5109 0d9a 09       		.uleb128 0x9
 5110 0d9b 73323600 		.ascii	"s26\000"
 5111 0d9f 0C       		.byte	0xc
 5112 0da0 0001     		.2byte	0x100
 5113 0da2 E70C0000 		.4byte	0xce7
 5114 0da6 28       		.byte	0x28
 5115 0da7 09       		.uleb128 0x9
 5116 0da8 73323700 		.ascii	"s27\000"
 5117 0dac 0C       		.byte	0xc
 5118 0dad 0101     		.2byte	0x101
 5119 0daf E70C0000 		.4byte	0xce7
 5120 0db3 2C       		.byte	0x2c
 5121 0db4 09       		.uleb128 0x9
 5122 0db5 73323800 		.ascii	"s28\000"
 5123 0db9 0C       		.byte	0xc
 5124 0dba 0201     		.2byte	0x102
 5125 0dbc E70C0000 		.4byte	0xce7
 5126 0dc0 30       		.byte	0x30
 5127 0dc1 09       		.uleb128 0x9
 5128 0dc2 73323900 		.ascii	"s29\000"
 5129 0dc6 0C       		.byte	0xc
ARM GAS  /tmp/cc5QaxCL.s 			page 91


 5130 0dc7 0301     		.2byte	0x103
 5131 0dc9 E70C0000 		.4byte	0xce7
 5132 0dcd 34       		.byte	0x34
 5133 0dce 09       		.uleb128 0x9
 5134 0dcf 73333000 		.ascii	"s30\000"
 5135 0dd3 0C       		.byte	0xc
 5136 0dd4 0401     		.2byte	0x104
 5137 0dd6 E70C0000 		.4byte	0xce7
 5138 0dda 38       		.byte	0x38
 5139 0ddb 09       		.uleb128 0x9
 5140 0ddc 73333100 		.ascii	"s31\000"
 5141 0de0 0C       		.byte	0xc
 5142 0de1 0501     		.2byte	0x105
 5143 0de3 E70C0000 		.4byte	0xce7
 5144 0de7 3C       		.byte	0x3c
 5145 0de8 09       		.uleb128 0x9
 5146 0de9 723400   		.ascii	"r4\000"
 5147 0dec 0C       		.byte	0xc
 5148 0ded 0701     		.2byte	0x107
 5149 0def E70C0000 		.4byte	0xce7
 5150 0df3 40       		.byte	0x40
 5151 0df4 09       		.uleb128 0x9
 5152 0df5 723500   		.ascii	"r5\000"
 5153 0df8 0C       		.byte	0xc
 5154 0df9 0801     		.2byte	0x108
 5155 0dfb E70C0000 		.4byte	0xce7
 5156 0dff 44       		.byte	0x44
 5157 0e00 09       		.uleb128 0x9
 5158 0e01 723600   		.ascii	"r6\000"
 5159 0e04 0C       		.byte	0xc
 5160 0e05 0901     		.2byte	0x109
 5161 0e07 E70C0000 		.4byte	0xce7
 5162 0e0b 48       		.byte	0x48
 5163 0e0c 09       		.uleb128 0x9
 5164 0e0d 723700   		.ascii	"r7\000"
 5165 0e10 0C       		.byte	0xc
 5166 0e11 0A01     		.2byte	0x10a
 5167 0e13 E70C0000 		.4byte	0xce7
 5168 0e17 4C       		.byte	0x4c
 5169 0e18 09       		.uleb128 0x9
 5170 0e19 723800   		.ascii	"r8\000"
 5171 0e1c 0C       		.byte	0xc
 5172 0e1d 0B01     		.2byte	0x10b
 5173 0e1f E70C0000 		.4byte	0xce7
 5174 0e23 50       		.byte	0x50
 5175 0e24 09       		.uleb128 0x9
 5176 0e25 723900   		.ascii	"r9\000"
 5177 0e28 0C       		.byte	0xc
 5178 0e29 0C01     		.2byte	0x10c
 5179 0e2b E70C0000 		.4byte	0xce7
 5180 0e2f 54       		.byte	0x54
 5181 0e30 09       		.uleb128 0x9
 5182 0e31 72313000 		.ascii	"r10\000"
 5183 0e35 0C       		.byte	0xc
 5184 0e36 0D01     		.2byte	0x10d
 5185 0e38 E70C0000 		.4byte	0xce7
 5186 0e3c 58       		.byte	0x58
ARM GAS  /tmp/cc5QaxCL.s 			page 92


 5187 0e3d 09       		.uleb128 0x9
 5188 0e3e 72313100 		.ascii	"r11\000"
 5189 0e42 0C       		.byte	0xc
 5190 0e43 0E01     		.2byte	0x10e
 5191 0e45 E70C0000 		.4byte	0xce7
 5192 0e49 5C       		.byte	0x5c
 5193 0e4a 09       		.uleb128 0x9
 5194 0e4b 6C7200   		.ascii	"lr\000"
 5195 0e4e 0C       		.byte	0xc
 5196 0e4f 0F01     		.2byte	0x10f
 5197 0e51 E70C0000 		.4byte	0xce7
 5198 0e55 60       		.byte	0x60
 5199 0e56 00       		.byte	0
 5200 0e57 0B       		.uleb128 0xb
 5201 0e58 04       		.byte	0x4
 5202 0e59 160D0000 		.4byte	0xd16
 5203 0e5d 17       		.uleb128 0x17
 5204 0e5e 10       		.byte	0x10
 5205 0e5f 0D       		.byte	0xd
 5206 0e60 51       		.byte	0x51
 5207 0e61 960E0000 		.4byte	0xe96
 5208 0e65 08       		.uleb128 0x8
 5209 0e66 6D1B0000 		.4byte	.LASF189
 5210 0e6a 0D       		.byte	0xd
 5211 0e6b 55       		.byte	0x55
 5212 0e6c AF010000 		.4byte	0x1af
 5213 0e70 00       		.byte	0
 5214 0e71 08       		.uleb128 0x8
 5215 0e72 71160000 		.4byte	.LASF190
 5216 0e76 0D       		.byte	0xd
 5217 0e77 59       		.byte	0x59
 5218 0e78 F3020000 		.4byte	0x2f3
 5219 0e7c 04       		.byte	0x4
 5220 0e7d 08       		.uleb128 0x8
 5221 0e7e 8F0A0000 		.4byte	.LASF191
 5222 0e82 0D       		.byte	0xd
 5223 0e83 5D       		.byte	0x5d
 5224 0e84 D0030000 		.4byte	0x3d0
 5225 0e88 08       		.byte	0x8
 5226 0e89 08       		.uleb128 0x8
 5227 0e8a C8080000 		.4byte	.LASF192
 5228 0e8e 0D       		.byte	0xd
 5229 0e8f 61       		.byte	0x61
 5230 0e90 D5000000 		.4byte	0xd5
 5231 0e94 0C       		.byte	0xc
 5232 0e95 00       		.byte	0
 5233 0e96 03       		.uleb128 0x3
 5234 0e97 590B0000 		.4byte	.LASF193
 5235 0e9b 0D       		.byte	0xd
 5236 0e9c 62       		.byte	0x62
 5237 0e9d 5D0E0000 		.4byte	0xe5d
 5238 0ea1 1C       		.uleb128 0x1c
 5239 0ea2 0804     		.2byte	0x408
 5240 0ea4 0D       		.byte	0xd
 5241 0ea5 67       		.byte	0x67
 5242 0ea6 CF0E0000 		.4byte	0xecf
 5243 0eaa 08       		.uleb128 0x8
ARM GAS  /tmp/cc5QaxCL.s 			page 93


 5244 0eab 1D0C0000 		.4byte	.LASF194
 5245 0eaf 0D       		.byte	0xd
 5246 0eb0 6B       		.byte	0x6b
 5247 0eb1 37000000 		.4byte	0x37
 5248 0eb5 00       		.byte	0
 5249 0eb6 08       		.uleb128 0x8
 5250 0eb7 BA120000 		.4byte	.LASF195
 5251 0ebb 0D       		.byte	0xd
 5252 0ebc 6F       		.byte	0x6f
 5253 0ebd CF0E0000 		.4byte	0xecf
 5254 0ec1 04       		.byte	0x4
 5255 0ec2 08       		.uleb128 0x8
 5256 0ec3 34080000 		.4byte	.LASF196
 5257 0ec7 0D       		.byte	0xd
 5258 0ec8 73       		.byte	0x73
 5259 0ec9 D50E0000 		.4byte	0xed5
 5260 0ecd 08       		.byte	0x8
 5261 0ece 00       		.byte	0
 5262 0ecf 0B       		.uleb128 0xb
 5263 0ed0 04       		.byte	0x4
 5264 0ed1 960E0000 		.4byte	0xe96
 5265 0ed5 13       		.uleb128 0x13
 5266 0ed6 960E0000 		.4byte	0xe96
 5267 0eda E50E0000 		.4byte	0xee5
 5268 0ede 14       		.uleb128 0x14
 5269 0edf 37000000 		.4byte	0x37
 5270 0ee3 3F       		.byte	0x3f
 5271 0ee4 00       		.byte	0
 5272 0ee5 03       		.uleb128 0x3
 5273 0ee6 15000000 		.4byte	.LASF197
 5274 0eea 0D       		.byte	0xd
 5275 0eeb 74       		.byte	0x74
 5276 0eec A10E0000 		.4byte	0xea1
 5277 0ef0 17       		.uleb128 0x17
 5278 0ef1 04       		.byte	0x4
 5279 0ef2 0E       		.byte	0xe
 5280 0ef3 38       		.byte	0x38
 5281 0ef4 050F0000 		.4byte	0xf05
 5282 0ef8 08       		.uleb128 0x8
 5283 0ef9 341C0000 		.4byte	.LASF198
 5284 0efd 0E       		.byte	0xe
 5285 0efe 3C       		.byte	0x3c
 5286 0eff 2B010000 		.4byte	0x12b
 5287 0f03 00       		.byte	0
 5288 0f04 00       		.byte	0
 5289 0f05 03       		.uleb128 0x3
 5290 0f06 C01F0000 		.4byte	.LASF199
 5291 0f0a 0E       		.byte	0xe
 5292 0f0b 3D       		.byte	0x3d
 5293 0f0c F00E0000 		.4byte	0xef0
 5294 0f10 17       		.uleb128 0x17
 5295 0f11 18       		.byte	0x18
 5296 0f12 0E       		.byte	0xe
 5297 0f13 48       		.byte	0x48
 5298 0f14 530F0000 		.4byte	0xf53
 5299 0f18 08       		.uleb128 0x8
 5300 0f19 45060000 		.4byte	.LASF200
ARM GAS  /tmp/cc5QaxCL.s 			page 94


 5301 0f1d 0E       		.byte	0xe
 5302 0f1e 49       		.byte	0x49
 5303 0f1f 2B010000 		.4byte	0x12b
 5304 0f23 00       		.byte	0
 5305 0f24 08       		.uleb128 0x8
 5306 0f25 F0000000 		.4byte	.LASF201
 5307 0f29 0E       		.byte	0xe
 5308 0f2a 4A       		.byte	0x4a
 5309 0f2b 2B010000 		.4byte	0x12b
 5310 0f2f 04       		.byte	0x4
 5311 0f30 08       		.uleb128 0x8
 5312 0f31 CC150000 		.4byte	.LASF202
 5313 0f35 0E       		.byte	0xe
 5314 0f36 4B       		.byte	0x4b
 5315 0f37 2B010000 		.4byte	0x12b
 5316 0f3b 08       		.byte	0x8
 5317 0f3c 18       		.uleb128 0x18
 5318 0f3d 6E00     		.ascii	"n\000"
 5319 0f3f 0E       		.byte	0xe
 5320 0f40 4C       		.byte	0x4c
 5321 0f41 A4010000 		.4byte	0x1a4
 5322 0f45 0C       		.byte	0xc
 5323 0f46 08       		.uleb128 0x8
 5324 0f47 85150000 		.4byte	.LASF203
 5325 0f4b 0E       		.byte	0xe
 5326 0f4c 4D       		.byte	0x4d
 5327 0f4d 36010000 		.4byte	0x136
 5328 0f51 10       		.byte	0x10
 5329 0f52 00       		.byte	0
 5330 0f53 03       		.uleb128 0x3
 5331 0f54 641E0000 		.4byte	.LASF204
 5332 0f58 0E       		.byte	0xe
 5333 0f59 4E       		.byte	0x4e
 5334 0f5a 100F0000 		.4byte	0xf10
 5335 0f5e 17       		.uleb128 0x17
 5336 0f5f 38       		.byte	0x38
 5337 0f60 0F       		.byte	0xf
 5338 0f61 38       		.byte	0x38
 5339 0f62 970F0000 		.4byte	0xf97
 5340 0f66 08       		.uleb128 0x8
 5341 0f67 8E050000 		.4byte	.LASF205
 5342 0f6b 0F       		.byte	0xf
 5343 0f6c 39       		.byte	0x39
 5344 0f6d A4010000 		.4byte	0x1a4
 5345 0f71 00       		.byte	0
 5346 0f72 08       		.uleb128 0x8
 5347 0f73 6C090000 		.4byte	.LASF206
 5348 0f77 0F       		.byte	0xf
 5349 0f78 3A       		.byte	0x3a
 5350 0f79 A4010000 		.4byte	0x1a4
 5351 0f7d 04       		.byte	0x4
 5352 0f7e 08       		.uleb128 0x8
 5353 0f7f F41D0000 		.4byte	.LASF207
 5354 0f83 0F       		.byte	0xf
 5355 0f84 3B       		.byte	0x3b
 5356 0f85 530F0000 		.4byte	0xf53
 5357 0f89 08       		.byte	0x8
ARM GAS  /tmp/cc5QaxCL.s 			page 95


 5358 0f8a 08       		.uleb128 0x8
 5359 0f8b 64000000 		.4byte	.LASF208
 5360 0f8f 0F       		.byte	0xf
 5361 0f90 3D       		.byte	0x3d
 5362 0f91 530F0000 		.4byte	0xf53
 5363 0f95 20       		.byte	0x20
 5364 0f96 00       		.byte	0
 5365 0f97 03       		.uleb128 0x3
 5366 0f98 2B040000 		.4byte	.LASF209
 5367 0f9c 0F       		.byte	0xf
 5368 0f9d 3F       		.byte	0x3f
 5369 0f9e 5E0F0000 		.4byte	0xf5e
 5370 0fa2 1D       		.uleb128 0x1d
 5371 0fa3 04       		.byte	0x4
 5372 0fa4 07       		.byte	0x7
 5373 0fa5 FA       		.byte	0xfa
 5374 0fa6 FF0F0000 		.4byte	0xfff
 5375 0faa 1E       		.uleb128 0x1e
 5376 0fab D80E0000 		.4byte	.LASF210
 5377 0faf 07       		.byte	0x7
 5378 0fb0 0101     		.2byte	0x101
 5379 0fb2 78010000 		.4byte	0x178
 5380 0fb6 1E       		.uleb128 0x1e
 5381 0fb7 D9060000 		.4byte	.LASF211
 5382 0fbb 07       		.byte	0x7
 5383 0fbc 0801     		.2byte	0x108
 5384 0fbe 78010000 		.4byte	0x178
 5385 0fc2 1E       		.uleb128 0x1e
 5386 0fc3 75190000 		.4byte	.LASF212
 5387 0fc7 07       		.byte	0x7
 5388 0fc8 0F01     		.2byte	0x10f
 5389 0fca D0030000 		.4byte	0x3d0
 5390 0fce 1E       		.uleb128 0x1e
 5391 0fcf 9B150000 		.4byte	.LASF213
 5392 0fd3 07       		.byte	0x7
 5393 0fd4 1601     		.2byte	0x116
 5394 0fd6 FF0F0000 		.4byte	0xfff
 5395 0fda 1E       		.uleb128 0x1e
 5396 0fdb A9000000 		.4byte	.LASF214
 5397 0fdf 07       		.byte	0x7
 5398 0fe0 1E01     		.2byte	0x11e
 5399 0fe2 2A100000 		.4byte	0x102a
 5400 0fe6 1E       		.uleb128 0x1e
 5401 0fe7 CD190000 		.4byte	.LASF215
 5402 0feb 07       		.byte	0x7
 5403 0fec 2701     		.2byte	0x127
 5404 0fee 6D100000 		.4byte	0x106d
 5405 0ff2 1E       		.uleb128 0x1e
 5406 0ff3 CF1C0000 		.4byte	.LASF216
 5407 0ff7 07       		.byte	0x7
 5408 0ff8 2F01     		.2byte	0x12f
 5409 0ffa 83010000 		.4byte	0x183
 5410 0ffe 00       		.byte	0
 5411 0fff 0B       		.uleb128 0xb
 5412 1000 04       		.byte	0x4
 5413 1001 E8020000 		.4byte	0x2e8
 5414 1005 07       		.uleb128 0x7
ARM GAS  /tmp/cc5QaxCL.s 			page 96


 5415 1006 92140000 		.4byte	.LASF217
 5416 100a 0C       		.byte	0xc
 5417 100b 10       		.byte	0x10
 5418 100c 34       		.byte	0x34
 5419 100d 2A100000 		.4byte	0x102a
 5420 1011 08       		.uleb128 0x8
 5421 1012 EC1D0000 		.4byte	.LASF218
 5422 1016 10       		.byte	0x10
 5423 1017 35       		.byte	0x35
 5424 1018 1D030000 		.4byte	0x31d
 5425 101c 00       		.byte	0
 5426 101d 08       		.uleb128 0x8
 5427 101e 46080000 		.4byte	.LASF219
 5428 1022 10       		.byte	0x10
 5429 1023 37       		.byte	0x37
 5430 1024 99010000 		.4byte	0x199
 5431 1028 08       		.byte	0x8
 5432 1029 00       		.byte	0
 5433 102a 0B       		.uleb128 0xb
 5434 102b 04       		.byte	0x4
 5435 102c 05100000 		.4byte	0x1005
 5436 1030 07       		.uleb128 0x7
 5437 1031 0A0A0000 		.4byte	.LASF220
 5438 1035 14       		.byte	0x14
 5439 1036 11       		.byte	0x11
 5440 1037 39       		.byte	0x39
 5441 1038 6D100000 		.4byte	0x106d
 5442 103c 08       		.uleb128 0x8
 5443 103d 2C150000 		.4byte	.LASF221
 5444 1041 11       		.byte	0x11
 5445 1042 3A       		.byte	0x3a
 5446 1043 1D030000 		.4byte	0x31d
 5447 1047 00       		.byte	0
 5448 1048 08       		.uleb128 0x8
 5449 1049 BB130000 		.4byte	.LASF222
 5450 104d 11       		.byte	0x11
 5451 104e 3C       		.byte	0x3c
 5452 104f F3020000 		.4byte	0x2f3
 5453 1053 08       		.byte	0x8
 5454 1054 08       		.uleb128 0x8
 5455 1055 15010000 		.4byte	.LASF223
 5456 1059 11       		.byte	0x11
 5457 105a 3E       		.byte	0x3e
 5458 105b C8110000 		.4byte	0x11c8
 5459 105f 0C       		.byte	0xc
 5460 1060 08       		.uleb128 0x8
 5461 1061 6E070000 		.4byte	.LASF224
 5462 1065 11       		.byte	0x11
 5463 1066 41       		.byte	0x41
 5464 1067 99010000 		.4byte	0x199
 5465 106b 10       		.byte	0x10
 5466 106c 00       		.byte	0
 5467 106d 0B       		.uleb128 0xb
 5468 106e 04       		.byte	0x4
 5469 106f 30100000 		.4byte	0x1030
 5470 1073 0B       		.uleb128 0xb
 5471 1074 04       		.byte	0x4
ARM GAS  /tmp/cc5QaxCL.s 			page 97


 5472 1075 85100000 		.4byte	0x1085
 5473 1079 06       		.uleb128 0x6
 5474 107a 73100000 		.4byte	0x1073
 5475 107e 04       		.uleb128 0x4
 5476 107f 01       		.byte	0x1
 5477 1080 08       		.byte	0x8
 5478 1081 FC160000 		.4byte	.LASF225
 5479 1085 05       		.uleb128 0x5
 5480 1086 7E100000 		.4byte	0x107e
 5481 108a 0B       		.uleb128 0xb
 5482 108b 04       		.byte	0x4
 5483 108c F20C0000 		.4byte	0xcf2
 5484 1090 0B       		.uleb128 0xb
 5485 1091 04       		.byte	0x4
 5486 1092 D2030000 		.4byte	0x3d2
 5487 1096 13       		.uleb128 0x13
 5488 1097 F20C0000 		.4byte	0xcf2
 5489 109b A6100000 		.4byte	0x10a6
 5490 109f 14       		.uleb128 0x14
 5491 10a0 37000000 		.4byte	0x37
 5492 10a4 30       		.byte	0x30
 5493 10a5 00       		.byte	0
 5494 10a6 1F       		.uleb128 0x1f
 5495 10a7 636800   		.ascii	"ch\000"
 5496 10aa 07       		.byte	0x7
 5497 10ab 0902     		.2byte	0x209
 5498 10ad C7040000 		.4byte	0x4c7
 5499 10b1 17       		.uleb128 0x17
 5500 10b2 16       		.byte	0x16
 5501 10b3 12       		.byte	0x12
 5502 10b4 34       		.byte	0x34
 5503 10b5 92110000 		.4byte	0x1192
 5504 10b9 08       		.uleb128 0x8
 5505 10ba 1E1E0000 		.4byte	.LASF226
 5506 10be 12       		.byte	0x12
 5507 10bf 35       		.byte	0x35
 5508 10c0 92110000 		.4byte	0x1192
 5509 10c4 00       		.byte	0
 5510 10c5 08       		.uleb128 0x8
 5511 10c6 F11F0000 		.4byte	.LASF227
 5512 10ca 12       		.byte	0x12
 5513 10cb 36       		.byte	0x36
 5514 10cc D5000000 		.4byte	0xd5
 5515 10d0 04       		.byte	0x4
 5516 10d1 08       		.uleb128 0x8
 5517 10d2 52020000 		.4byte	.LASF228
 5518 10d6 12       		.byte	0x12
 5519 10d7 37       		.byte	0x37
 5520 10d8 D5000000 		.4byte	0xd5
 5521 10dc 05       		.byte	0x5
 5522 10dd 08       		.uleb128 0x8
 5523 10de F7130000 		.4byte	.LASF229
 5524 10e2 12       		.byte	0x12
 5525 10e3 38       		.byte	0x38
 5526 10e4 F0000000 		.4byte	0xf0
 5527 10e8 06       		.byte	0x6
 5528 10e9 08       		.uleb128 0x8
ARM GAS  /tmp/cc5QaxCL.s 			page 98


 5529 10ea 27000000 		.4byte	.LASF230
 5530 10ee 12       		.byte	0x12
 5531 10ef 39       		.byte	0x39
 5532 10f0 D5000000 		.4byte	0xd5
 5533 10f4 08       		.byte	0x8
 5534 10f5 08       		.uleb128 0x8
 5535 10f6 7D120000 		.4byte	.LASF231
 5536 10fa 12       		.byte	0x12
 5537 10fb 3A       		.byte	0x3a
 5538 10fc D5000000 		.4byte	0xd5
 5539 1100 09       		.byte	0x9
 5540 1101 08       		.uleb128 0x8
 5541 1102 11200000 		.4byte	.LASF232
 5542 1106 12       		.byte	0x12
 5543 1107 3B       		.byte	0x3b
 5544 1108 D5000000 		.4byte	0xd5
 5545 110c 0A       		.byte	0xa
 5546 110d 08       		.uleb128 0x8
 5547 110e 4A1E0000 		.4byte	.LASF233
 5548 1112 12       		.byte	0x12
 5549 1113 3C       		.byte	0x3c
 5550 1114 D5000000 		.4byte	0xd5
 5551 1118 0B       		.byte	0xb
 5552 1119 08       		.uleb128 0x8
 5553 111a 6F040000 		.4byte	.LASF234
 5554 111e 12       		.byte	0x12
 5555 111f 3D       		.byte	0x3d
 5556 1120 D5000000 		.4byte	0xd5
 5557 1124 0C       		.byte	0xc
 5558 1125 08       		.uleb128 0x8
 5559 1126 570A0000 		.4byte	.LASF235
 5560 112a 12       		.byte	0x12
 5561 112b 3E       		.byte	0x3e
 5562 112c D5000000 		.4byte	0xd5
 5563 1130 0D       		.byte	0xd
 5564 1131 08       		.uleb128 0x8
 5565 1132 B9040000 		.4byte	.LASF236
 5566 1136 12       		.byte	0x12
 5567 1137 3F       		.byte	0x3f
 5568 1138 D5000000 		.4byte	0xd5
 5569 113c 0E       		.byte	0xe
 5570 113d 08       		.uleb128 0x8
 5571 113e BB0B0000 		.4byte	.LASF237
 5572 1142 12       		.byte	0x12
 5573 1143 40       		.byte	0x40
 5574 1144 D5000000 		.4byte	0xd5
 5575 1148 0F       		.byte	0xf
 5576 1149 08       		.uleb128 0x8
 5577 114a 23030000 		.4byte	.LASF238
 5578 114e 12       		.byte	0x12
 5579 114f 41       		.byte	0x41
 5580 1150 D5000000 		.4byte	0xd5
 5581 1154 10       		.byte	0x10
 5582 1155 08       		.uleb128 0x8
 5583 1156 7E070000 		.4byte	.LASF239
 5584 115a 12       		.byte	0x12
 5585 115b 43       		.byte	0x43
ARM GAS  /tmp/cc5QaxCL.s 			page 99


 5586 115c D5000000 		.4byte	0xd5
 5587 1160 11       		.byte	0x11
 5588 1161 08       		.uleb128 0x8
 5589 1162 19020000 		.4byte	.LASF240
 5590 1166 12       		.byte	0x12
 5591 1167 44       		.byte	0x44
 5592 1168 D5000000 		.4byte	0xd5
 5593 116c 12       		.byte	0x12
 5594 116d 08       		.uleb128 0x8
 5595 116e A5130000 		.4byte	.LASF241
 5596 1172 12       		.byte	0x12
 5597 1173 45       		.byte	0x45
 5598 1174 D5000000 		.4byte	0xd5
 5599 1178 13       		.byte	0x13
 5600 1179 08       		.uleb128 0x8
 5601 117a CF180000 		.4byte	.LASF242
 5602 117e 12       		.byte	0x12
 5603 117f 46       		.byte	0x46
 5604 1180 D5000000 		.4byte	0xd5
 5605 1184 14       		.byte	0x14
 5606 1185 08       		.uleb128 0x8
 5607 1186 87000000 		.4byte	.LASF243
 5608 118a 12       		.byte	0x12
 5609 118b 48       		.byte	0x48
 5610 118c D5000000 		.4byte	0xd5
 5611 1190 15       		.byte	0x15
 5612 1191 00       		.byte	0
 5613 1192 13       		.uleb128 0x13
 5614 1193 7E100000 		.4byte	0x107e
 5615 1197 A2110000 		.4byte	0x11a2
 5616 119b 14       		.uleb128 0x14
 5617 119c 37000000 		.4byte	0x37
 5618 11a0 03       		.byte	0x3
 5619 11a1 00       		.byte	0
 5620 11a2 03       		.uleb128 0x3
 5621 11a3 36120000 		.4byte	.LASF244
 5622 11a7 12       		.byte	0x12
 5623 11a8 49       		.byte	0x49
 5624 11a9 B1100000 		.4byte	0x10b1
 5625 11ad 05       		.uleb128 0x5
 5626 11ae A2110000 		.4byte	0x11a2
 5627 11b2 16       		.uleb128 0x16
 5628 11b3 75090000 		.4byte	.LASF245
 5629 11b7 12       		.byte	0x12
 5630 11b8 6E       		.byte	0x6e
 5631 11b9 AD110000 		.4byte	0x11ad
 5632 11bd 03       		.uleb128 0x3
 5633 11be CD1A0000 		.4byte	.LASF246
 5634 11c2 11       		.byte	0x11
 5635 11c3 34       		.byte	0x34
 5636 11c4 30100000 		.4byte	0x1030
 5637 11c8 0B       		.uleb128 0xb
 5638 11c9 04       		.byte	0x4
 5639 11ca BD110000 		.4byte	0x11bd
 5640 11ce 03       		.uleb128 0x3
 5641 11cf BB090000 		.4byte	.LASF247
 5642 11d3 13       		.byte	0x13
ARM GAS  /tmp/cc5QaxCL.s 			page 100


 5643 11d4 34       		.byte	0x34
 5644 11d5 D9110000 		.4byte	0x11d9
 5645 11d9 07       		.uleb128 0x7
 5646 11da 76200000 		.4byte	.LASF248
 5647 11de 14       		.byte	0x14
 5648 11df 13       		.byte	0x13
 5649 11e0 39       		.byte	0x39
 5650 11e1 22120000 		.4byte	0x1222
 5651 11e5 08       		.uleb128 0x8
 5652 11e6 7E010000 		.4byte	.LASF249
 5653 11ea 13       		.byte	0x13
 5654 11eb 3A       		.byte	0x3a
 5655 11ec 22120000 		.4byte	0x1222
 5656 11f0 00       		.byte	0
 5657 11f1 08       		.uleb128 0x8
 5658 11f2 AD1B0000 		.4byte	.LASF250
 5659 11f6 13       		.byte	0x13
 5660 11f7 3D       		.byte	0x3d
 5661 11f8 F3020000 		.4byte	0x2f3
 5662 11fc 04       		.byte	0x4
 5663 11fd 08       		.uleb128 0x8
 5664 11fe B6020000 		.4byte	.LASF251
 5665 1202 13       		.byte	0x13
 5666 1203 3F       		.byte	0x3f
 5667 1204 83010000 		.4byte	0x183
 5668 1208 08       		.byte	0x8
 5669 1209 08       		.uleb128 0x8
 5670 120a D61C0000 		.4byte	.LASF252
 5671 120e 13       		.byte	0x13
 5672 120f 41       		.byte	0x41
 5673 1210 8E010000 		.4byte	0x18e
 5674 1214 0C       		.byte	0xc
 5675 1215 08       		.uleb128 0x8
 5676 1216 090C0000 		.4byte	.LASF253
 5677 121a 13       		.byte	0x13
 5678 121b 43       		.byte	0x43
 5679 121c 8E010000 		.4byte	0x18e
 5680 1220 10       		.byte	0x10
 5681 1221 00       		.byte	0
 5682 1222 0B       		.uleb128 0xb
 5683 1223 04       		.byte	0x4
 5684 1224 CE110000 		.4byte	0x11ce
 5685 1228 07       		.uleb128 0x7
 5686 1229 DF1C0000 		.4byte	.LASF254
 5687 122d 04       		.byte	0x4
 5688 122e 13       		.byte	0x13
 5689 122f 4A       		.byte	0x4a
 5690 1230 41120000 		.4byte	0x1241
 5691 1234 08       		.uleb128 0x8
 5692 1235 401C0000 		.4byte	.LASF255
 5693 1239 13       		.byte	0x13
 5694 123a 4B       		.byte	0x4b
 5695 123b 22120000 		.4byte	0x1222
 5696 123f 00       		.byte	0
 5697 1240 00       		.byte	0
 5698 1241 03       		.uleb128 0x3
 5699 1242 99120000 		.4byte	.LASF256
ARM GAS  /tmp/cc5QaxCL.s 			page 101


 5700 1246 13       		.byte	0x13
 5701 1247 4E       		.byte	0x4e
 5702 1248 28120000 		.4byte	0x1228
 5703 124c 03       		.uleb128 0x3
 5704 124d 410C0000 		.4byte	.LASF257
 5705 1251 14       		.byte	0x14
 5706 1252 3F       		.byte	0x3f
 5707 1253 57120000 		.4byte	0x1257
 5708 1257 07       		.uleb128 0x7
 5709 1258 510F0000 		.4byte	.LASF258
 5710 125c 24       		.byte	0x24
 5711 125d 14       		.byte	0x14
 5712 125e 4D       		.byte	0x4d
 5713 125f C4120000 		.4byte	0x12c4
 5714 1263 08       		.uleb128 0x8
 5715 1264 3A040000 		.4byte	.LASF259
 5716 1268 14       		.byte	0x14
 5717 1269 4E       		.byte	0x4e
 5718 126a 1D030000 		.4byte	0x31d
 5719 126e 00       		.byte	0
 5720 126f 08       		.uleb128 0x8
 5721 1270 701A0000 		.4byte	.LASF260
 5722 1274 14       		.byte	0x14
 5723 1275 4F       		.byte	0x4f
 5724 1276 2C000000 		.4byte	0x2c
 5725 127a 08       		.byte	0x8
 5726 127b 08       		.uleb128 0x8
 5727 127c 5A100000 		.4byte	.LASF261
 5728 1280 14       		.byte	0x14
 5729 1281 50       		.byte	0x50
 5730 1282 E6120000 		.4byte	0x12e6
 5731 1286 0C       		.byte	0xc
 5732 1287 08       		.uleb128 0x8
 5733 1288 96030000 		.4byte	.LASF262
 5734 128c 14       		.byte	0x14
 5735 128d 51       		.byte	0x51
 5736 128e E6120000 		.4byte	0x12e6
 5737 1292 10       		.byte	0x10
 5738 1293 08       		.uleb128 0x8
 5739 1294 77160000 		.4byte	.LASF263
 5740 1298 14       		.byte	0x14
 5741 1299 53       		.byte	0x53
 5742 129a E6120000 		.4byte	0x12e6
 5743 129e 14       		.byte	0x14
 5744 129f 08       		.uleb128 0x8
 5745 12a0 A1150000 		.4byte	.LASF264
 5746 12a4 14       		.byte	0x14
 5747 12a5 54       		.byte	0x54
 5748 12a6 E6120000 		.4byte	0x12e6
 5749 12aa 18       		.byte	0x18
 5750 12ab 08       		.uleb128 0x8
 5751 12ac C4190000 		.4byte	.LASF265
 5752 12b0 14       		.byte	0x14
 5753 12b1 55       		.byte	0x55
 5754 12b2 C4120000 		.4byte	0x12c4
 5755 12b6 1C       		.byte	0x1c
 5756 12b7 08       		.uleb128 0x8
ARM GAS  /tmp/cc5QaxCL.s 			page 102


 5757 12b8 65170000 		.4byte	.LASF266
 5758 12bc 14       		.byte	0x14
 5759 12bd 56       		.byte	0x56
 5760 12be D0030000 		.4byte	0x3d0
 5761 12c2 20       		.byte	0x20
 5762 12c3 00       		.byte	0
 5763 12c4 03       		.uleb128 0x3
 5764 12c5 5C030000 		.4byte	.LASF267
 5765 12c9 14       		.byte	0x14
 5766 12ca 42       		.byte	0x42
 5767 12cb CF120000 		.4byte	0x12cf
 5768 12cf 0B       		.uleb128 0xb
 5769 12d0 04       		.byte	0x4
 5770 12d1 D5120000 		.4byte	0x12d5
 5771 12d5 0D       		.uleb128 0xd
 5772 12d6 E0120000 		.4byte	0x12e0
 5773 12da 0E       		.uleb128 0xe
 5774 12db E0120000 		.4byte	0x12e0
 5775 12df 00       		.byte	0
 5776 12e0 0B       		.uleb128 0xb
 5777 12e1 04       		.byte	0x4
 5778 12e2 4C120000 		.4byte	0x124c
 5779 12e6 0B       		.uleb128 0xb
 5780 12e7 04       		.byte	0x4
 5781 12e8 D5000000 		.4byte	0xd5
 5782 12ec 03       		.uleb128 0x3
 5783 12ed 7A040000 		.4byte	.LASF268
 5784 12f1 14       		.byte	0x14
 5785 12f2 64       		.byte	0x64
 5786 12f3 4C120000 		.4byte	0x124c
 5787 12f7 03       		.uleb128 0x3
 5788 12f8 B3200000 		.4byte	.LASF269
 5789 12fc 14       		.byte	0x14
 5790 12fd 71       		.byte	0x71
 5791 12fe 4C120000 		.4byte	0x124c
 5792 1302 20       		.uleb128 0x20
 5793 1303 2C000000 		.4byte	0x2c
 5794 1307 1B130000 		.4byte	0x131b
 5795 130b 0E       		.uleb128 0xe
 5796 130c D0030000 		.4byte	0x3d0
 5797 1310 0E       		.uleb128 0xe
 5798 1311 1B130000 		.4byte	0x131b
 5799 1315 0E       		.uleb128 0xe
 5800 1316 2C000000 		.4byte	0x2c
 5801 131a 00       		.byte	0
 5802 131b 0B       		.uleb128 0xb
 5803 131c 04       		.byte	0x4
 5804 131d E0000000 		.4byte	0xe0
 5805 1321 0B       		.uleb128 0xb
 5806 1322 04       		.byte	0x4
 5807 1323 02130000 		.4byte	0x1302
 5808 1327 20       		.uleb128 0x20
 5809 1328 2C000000 		.4byte	0x2c
 5810 132c 40130000 		.4byte	0x1340
 5811 1330 0E       		.uleb128 0xe
 5812 1331 D0030000 		.4byte	0x3d0
 5813 1335 0E       		.uleb128 0xe
ARM GAS  /tmp/cc5QaxCL.s 			page 103


 5814 1336 E6120000 		.4byte	0x12e6
 5815 133a 0E       		.uleb128 0xe
 5816 133b 2C000000 		.4byte	0x2c
 5817 133f 00       		.byte	0
 5818 1340 0B       		.uleb128 0xb
 5819 1341 04       		.byte	0x4
 5820 1342 27130000 		.4byte	0x1327
 5821 1346 20       		.uleb128 0x20
 5822 1347 78010000 		.4byte	0x178
 5823 134b 5A130000 		.4byte	0x135a
 5824 134f 0E       		.uleb128 0xe
 5825 1350 D0030000 		.4byte	0x3d0
 5826 1354 0E       		.uleb128 0xe
 5827 1355 D5000000 		.4byte	0xd5
 5828 1359 00       		.byte	0
 5829 135a 0B       		.uleb128 0xb
 5830 135b 04       		.byte	0x4
 5831 135c 46130000 		.4byte	0x1346
 5832 1360 20       		.uleb128 0x20
 5833 1361 78010000 		.4byte	0x178
 5834 1365 6F130000 		.4byte	0x136f
 5835 1369 0E       		.uleb128 0xe
 5836 136a D0030000 		.4byte	0x3d0
 5837 136e 00       		.byte	0
 5838 136f 0B       		.uleb128 0xb
 5839 1370 04       		.byte	0x4
 5840 1371 60130000 		.4byte	0x1360
 5841 1375 17       		.uleb128 0x17
 5842 1376 0C       		.byte	0xc
 5843 1377 15       		.byte	0x15
 5844 1378 DA       		.byte	0xda
 5845 1379 BA130000 		.4byte	0x13ba
 5846 137d 08       		.uleb128 0x8
 5847 137e 5D200000 		.4byte	.LASF270
 5848 1382 15       		.byte	0x15
 5849 1383 DB       		.byte	0xdb
 5850 1384 BA130000 		.4byte	0x13ba
 5851 1388 00       		.byte	0
 5852 1389 08       		.uleb128 0x8
 5853 138a B30E0000 		.4byte	.LASF271
 5854 138e 15       		.byte	0x15
 5855 138f DC       		.byte	0xdc
 5856 1390 C0130000 		.4byte	0x13c0
 5857 1394 04       		.byte	0x4
 5858 1395 08       		.uleb128 0x8
 5859 1396 83030000 		.4byte	.LASF272
 5860 139a 15       		.byte	0x15
 5861 139b DD       		.byte	0xdd
 5862 139c D5000000 		.4byte	0xd5
 5863 13a0 08       		.byte	0x8
 5864 13a1 08       		.uleb128 0x8
 5865 13a2 C31A0000 		.4byte	.LASF273
 5866 13a6 15       		.byte	0x15
 5867 13a7 DF       		.byte	0xdf
 5868 13a8 D5000000 		.4byte	0xd5
 5869 13ac 09       		.byte	0x9
 5870 13ad 08       		.uleb128 0x8
ARM GAS  /tmp/cc5QaxCL.s 			page 104


 5871 13ae EE020000 		.4byte	.LASF274
 5872 13b2 15       		.byte	0x15
 5873 13b3 E0       		.byte	0xe0
 5874 13b4 D5000000 		.4byte	0xd5
 5875 13b8 0A       		.byte	0xa
 5876 13b9 00       		.byte	0
 5877 13ba 0B       		.uleb128 0xb
 5878 13bb 04       		.byte	0x4
 5879 13bc E3090000 		.4byte	0x9e3
 5880 13c0 0B       		.uleb128 0xb
 5881 13c1 04       		.byte	0x4
 5882 13c2 16010000 		.4byte	0x116
 5883 13c6 03       		.uleb128 0x3
 5884 13c7 58110000 		.4byte	.LASF275
 5885 13cb 15       		.byte	0x15
 5886 13cc E1       		.byte	0xe1
 5887 13cd 75130000 		.4byte	0x1375
 5888 13d1 05       		.uleb128 0x5
 5889 13d2 C6130000 		.4byte	0x13c6
 5890 13d6 13       		.uleb128 0x13
 5891 13d7 D1130000 		.4byte	0x13d1
 5892 13db E6130000 		.4byte	0x13e6
 5893 13df 14       		.uleb128 0x14
 5894 13e0 37000000 		.4byte	0x37
 5895 13e4 0F       		.byte	0xf
 5896 13e5 00       		.byte	0
 5897 13e6 05       		.uleb128 0x5
 5898 13e7 D6130000 		.4byte	0x13d6
 5899 13eb 15       		.uleb128 0x15
 5900 13ec CC170000 		.4byte	.LASF276
 5901 13f0 15       		.byte	0x15
 5902 13f1 BB01     		.2byte	0x1bb
 5903 13f3 E6130000 		.4byte	0x13e6
 5904 13f7 20       		.uleb128 0x20
 5905 13f8 78010000 		.4byte	0x178
 5906 13fc 10140000 		.4byte	0x1410
 5907 1400 0E       		.uleb128 0xe
 5908 1401 D0030000 		.4byte	0x3d0
 5909 1405 0E       		.uleb128 0xe
 5910 1406 D5000000 		.4byte	0xd5
 5911 140a 0E       		.uleb128 0xe
 5912 140b AF010000 		.4byte	0x1af
 5913 140f 00       		.byte	0
 5914 1410 0B       		.uleb128 0xb
 5915 1411 04       		.byte	0x4
 5916 1412 F7130000 		.4byte	0x13f7
 5917 1416 20       		.uleb128 0x20
 5918 1417 78010000 		.4byte	0x178
 5919 141b 2A140000 		.4byte	0x142a
 5920 141f 0E       		.uleb128 0xe
 5921 1420 D0030000 		.4byte	0x3d0
 5922 1424 0E       		.uleb128 0xe
 5923 1425 AF010000 		.4byte	0x1af
 5924 1429 00       		.byte	0
 5925 142a 0B       		.uleb128 0xb
 5926 142b 04       		.byte	0x4
 5927 142c 16140000 		.4byte	0x1416
ARM GAS  /tmp/cc5QaxCL.s 			page 105


 5928 1430 20       		.uleb128 0x20
 5929 1431 2C000000 		.4byte	0x2c
 5930 1435 4E140000 		.4byte	0x144e
 5931 1439 0E       		.uleb128 0xe
 5932 143a D0030000 		.4byte	0x3d0
 5933 143e 0E       		.uleb128 0xe
 5934 143f 1B130000 		.4byte	0x131b
 5935 1443 0E       		.uleb128 0xe
 5936 1444 2C000000 		.4byte	0x2c
 5937 1448 0E       		.uleb128 0xe
 5938 1449 AF010000 		.4byte	0x1af
 5939 144d 00       		.byte	0
 5940 144e 0B       		.uleb128 0xb
 5941 144f 04       		.byte	0x4
 5942 1450 30140000 		.4byte	0x1430
 5943 1454 20       		.uleb128 0x20
 5944 1455 2C000000 		.4byte	0x2c
 5945 1459 72140000 		.4byte	0x1472
 5946 145d 0E       		.uleb128 0xe
 5947 145e D0030000 		.4byte	0x3d0
 5948 1462 0E       		.uleb128 0xe
 5949 1463 E6120000 		.4byte	0x12e6
 5950 1467 0E       		.uleb128 0xe
 5951 1468 2C000000 		.4byte	0x2c
 5952 146c 0E       		.uleb128 0xe
 5953 146d AF010000 		.4byte	0x1af
 5954 1471 00       		.byte	0
 5955 1472 0B       		.uleb128 0xb
 5956 1473 04       		.byte	0x4
 5957 1474 54140000 		.4byte	0x1454
 5958 1478 21       		.uleb128 0x21
 5959 1479 07       		.byte	0x7
 5960 147a 01       		.byte	0x1
 5961 147b 69000000 		.4byte	0x69
 5962 147f 16       		.byte	0x16
 5963 1480 28       		.byte	0x28
 5964 1481 BC140000 		.4byte	0x14bc
 5965 1485 22       		.uleb128 0x22
 5966 1486 D4000000 		.4byte	.LASF277
 5967 148a 00       		.byte	0
 5968 148b 22       		.uleb128 0x22
 5969 148c D70C0000 		.4byte	.LASF278
 5970 1490 01       		.byte	0x1
 5971 1491 22       		.uleb128 0x22
 5972 1492 B0090000 		.4byte	.LASF279
 5973 1496 02       		.byte	0x2
 5974 1497 22       		.uleb128 0x22
 5975 1498 1B190000 		.4byte	.LASF280
 5976 149c 03       		.byte	0x3
 5977 149d 22       		.uleb128 0x22
 5978 149e 731F0000 		.4byte	.LASF281
 5979 14a2 04       		.byte	0x4
 5980 14a3 22       		.uleb128 0x22
 5981 14a4 79060000 		.4byte	.LASF282
 5982 14a8 05       		.byte	0x5
 5983 14a9 22       		.uleb128 0x22
 5984 14aa 901A0000 		.4byte	.LASF283
ARM GAS  /tmp/cc5QaxCL.s 			page 106


 5985 14ae 06       		.byte	0x6
 5986 14af 22       		.uleb128 0x22
 5987 14b0 F4150000 		.4byte	.LASF284
 5988 14b4 07       		.byte	0x7
 5989 14b5 22       		.uleb128 0x22
 5990 14b6 3A1F0000 		.4byte	.LASF285
 5991 14ba 08       		.byte	0x8
 5992 14bb 00       		.byte	0
 5993 14bc 03       		.uleb128 0x3
 5994 14bd D7140000 		.4byte	.LASF286
 5995 14c1 16       		.byte	0x16
 5996 14c2 32       		.byte	0x32
 5997 14c3 78140000 		.4byte	0x1478
 5998 14c7 17       		.uleb128 0x17
 5999 14c8 08       		.byte	0x8
 6000 14c9 16       		.byte	0x16
 6001 14ca 37       		.byte	0x37
 6002 14cb E8140000 		.4byte	0x14e8
 6003 14cf 08       		.uleb128 0x8
 6004 14d0 1C060000 		.4byte	.LASF287
 6005 14d4 16       		.byte	0x16
 6006 14d5 38       		.byte	0x38
 6007 14d6 0B010000 		.4byte	0x10b
 6008 14da 00       		.byte	0
 6009 14db 08       		.uleb128 0x8
 6010 14dc F6190000 		.4byte	.LASF288
 6011 14e0 16       		.byte	0x16
 6012 14e1 39       		.byte	0x39
 6013 14e2 0B010000 		.4byte	0x10b
 6014 14e6 04       		.byte	0x4
 6015 14e7 00       		.byte	0
 6016 14e8 03       		.uleb128 0x3
 6017 14e9 001C0000 		.4byte	.LASF289
 6018 14ed 16       		.byte	0x16
 6019 14ee 3A       		.byte	0x3a
 6020 14ef C7140000 		.4byte	0x14c7
 6021 14f3 20       		.uleb128 0x20
 6022 14f4 02150000 		.4byte	0x1502
 6023 14f8 02150000 		.4byte	0x1502
 6024 14fc 0E       		.uleb128 0xe
 6025 14fd D0030000 		.4byte	0x3d0
 6026 1501 00       		.byte	0
 6027 1502 04       		.uleb128 0x4
 6028 1503 01       		.byte	0x1
 6029 1504 02       		.byte	0x2
 6030 1505 B0000000 		.4byte	.LASF290
 6031 1509 0B       		.uleb128 0xb
 6032 150a 04       		.byte	0x4
 6033 150b F3140000 		.4byte	0x14f3
 6034 150f 20       		.uleb128 0x20
 6035 1510 02150000 		.4byte	0x1502
 6036 1514 2D150000 		.4byte	0x152d
 6037 1518 0E       		.uleb128 0xe
 6038 1519 D0030000 		.4byte	0x3d0
 6039 151d 0E       		.uleb128 0xe
 6040 151e 0B010000 		.4byte	0x10b
 6041 1522 0E       		.uleb128 0xe
ARM GAS  /tmp/cc5QaxCL.s 			page 107


 6042 1523 E6120000 		.4byte	0x12e6
 6043 1527 0E       		.uleb128 0xe
 6044 1528 0B010000 		.4byte	0x10b
 6045 152c 00       		.byte	0
 6046 152d 0B       		.uleb128 0xb
 6047 152e 04       		.byte	0x4
 6048 152f 0F150000 		.4byte	0x150f
 6049 1533 20       		.uleb128 0x20
 6050 1534 02150000 		.4byte	0x1502
 6051 1538 51150000 		.4byte	0x1551
 6052 153c 0E       		.uleb128 0xe
 6053 153d D0030000 		.4byte	0x3d0
 6054 1541 0E       		.uleb128 0xe
 6055 1542 0B010000 		.4byte	0x10b
 6056 1546 0E       		.uleb128 0xe
 6057 1547 1B130000 		.4byte	0x131b
 6058 154b 0E       		.uleb128 0xe
 6059 154c 0B010000 		.4byte	0x10b
 6060 1550 00       		.byte	0
 6061 1551 0B       		.uleb128 0xb
 6062 1552 04       		.byte	0x4
 6063 1553 33150000 		.4byte	0x1533
 6064 1557 20       		.uleb128 0x20
 6065 1558 02150000 		.4byte	0x1502
 6066 155c 6B150000 		.4byte	0x156b
 6067 1560 0E       		.uleb128 0xe
 6068 1561 D0030000 		.4byte	0x3d0
 6069 1565 0E       		.uleb128 0xe
 6070 1566 6B150000 		.4byte	0x156b
 6071 156a 00       		.byte	0
 6072 156b 0B       		.uleb128 0xb
 6073 156c 04       		.byte	0x4
 6074 156d E8140000 		.4byte	0x14e8
 6075 1571 0B       		.uleb128 0xb
 6076 1572 04       		.byte	0x4
 6077 1573 57150000 		.4byte	0x1557
 6078 1577 13       		.uleb128 0x13
 6079 1578 0B010000 		.4byte	0x10b
 6080 157c 87150000 		.4byte	0x1587
 6081 1580 14       		.uleb128 0x14
 6082 1581 37000000 		.4byte	0x37
 6083 1585 03       		.byte	0x3
 6084 1586 00       		.byte	0
 6085 1587 17       		.uleb128 0x17
 6086 1588 04       		.byte	0x4
 6087 1589 17       		.byte	0x17
 6088 158a B3       		.byte	0xb3
 6089 158b A8150000 		.4byte	0x15a8
 6090 158f 18       		.uleb128 0x18
 6091 1590 73657400 		.ascii	"set\000"
 6092 1594 17       		.byte	0x17
 6093 1595 B4       		.byte	0xb4
 6094 1596 F0000000 		.4byte	0xf0
 6095 159a 00       		.byte	0
 6096 159b 08       		.uleb128 0x8
 6097 159c 2E0B0000 		.4byte	.LASF291
 6098 15a0 17       		.byte	0x17
ARM GAS  /tmp/cc5QaxCL.s 			page 108


 6099 15a1 B5       		.byte	0xb5
 6100 15a2 F0000000 		.4byte	0xf0
 6101 15a6 02       		.byte	0x2
 6102 15a7 00       		.byte	0
 6103 15a8 1D       		.uleb128 0x1d
 6104 15a9 04       		.byte	0x4
 6105 15aa 17       		.byte	0x17
 6106 15ab B1       		.byte	0xb1
 6107 15ac C3150000 		.4byte	0x15c3
 6108 15b0 23       		.uleb128 0x23
 6109 15b1 5700     		.ascii	"W\000"
 6110 15b3 17       		.byte	0x17
 6111 15b4 B2       		.byte	0xb2
 6112 15b5 0B010000 		.4byte	0x10b
 6113 15b9 23       		.uleb128 0x23
 6114 15ba 4800     		.ascii	"H\000"
 6115 15bc 17       		.byte	0x17
 6116 15bd B6       		.byte	0xb6
 6117 15be 87150000 		.4byte	0x1587
 6118 15c2 00       		.byte	0
 6119 15c3 06       		.uleb128 0x6
 6120 15c4 A8150000 		.4byte	0x15a8
 6121 15c8 17       		.uleb128 0x17
 6122 15c9 2C       		.byte	0x2c
 6123 15ca 17       		.byte	0x17
 6124 15cb A9       		.byte	0xa9
 6125 15cc 55160000 		.4byte	0x1655
 6126 15d0 08       		.uleb128 0x8
 6127 15d1 E01A0000 		.4byte	.LASF292
 6128 15d5 17       		.byte	0x17
 6129 15d6 AB       		.byte	0xab
 6130 15d7 16010000 		.4byte	0x116
 6131 15db 00       		.byte	0
 6132 15dc 08       		.uleb128 0x8
 6133 15dd 6E020000 		.4byte	.LASF293
 6134 15e1 17       		.byte	0x17
 6135 15e2 AC       		.byte	0xac
 6136 15e3 16010000 		.4byte	0x116
 6137 15e7 04       		.byte	0x4
 6138 15e8 08       		.uleb128 0x8
 6139 15e9 AA0C0000 		.4byte	.LASF294
 6140 15ed 17       		.byte	0x17
 6141 15ee AD       		.byte	0xad
 6142 15ef 16010000 		.4byte	0x116
 6143 15f3 08       		.byte	0x8
 6144 15f4 08       		.uleb128 0x8
 6145 15f5 1C1A0000 		.4byte	.LASF295
 6146 15f9 17       		.byte	0x17
 6147 15fa AE       		.byte	0xae
 6148 15fb 16010000 		.4byte	0x116
 6149 15ff 0C       		.byte	0xc
 6150 1600 18       		.uleb128 0x18
 6151 1601 49445200 		.ascii	"IDR\000"
 6152 1605 17       		.byte	0x17
 6153 1606 AF       		.byte	0xaf
 6154 1607 16010000 		.4byte	0x116
 6155 160b 10       		.byte	0x10
ARM GAS  /tmp/cc5QaxCL.s 			page 109


 6156 160c 18       		.uleb128 0x18
 6157 160d 4F445200 		.ascii	"ODR\000"
 6158 1611 17       		.byte	0x17
 6159 1612 B0       		.byte	0xb0
 6160 1613 16010000 		.4byte	0x116
 6161 1617 14       		.byte	0x14
 6162 1618 08       		.uleb128 0x8
 6163 1619 53110000 		.4byte	.LASF296
 6164 161d 17       		.byte	0x17
 6165 161e B7       		.byte	0xb7
 6166 161f C3150000 		.4byte	0x15c3
 6167 1623 18       		.byte	0x18
 6168 1624 08       		.uleb128 0x8
 6169 1625 D1150000 		.4byte	.LASF297
 6170 1629 17       		.byte	0x17
 6171 162a B8       		.byte	0xb8
 6172 162b 16010000 		.4byte	0x116
 6173 162f 1C       		.byte	0x1c
 6174 1630 08       		.uleb128 0x8
 6175 1631 B8180000 		.4byte	.LASF298
 6176 1635 17       		.byte	0x17
 6177 1636 B9       		.byte	0xb9
 6178 1637 16010000 		.4byte	0x116
 6179 163b 20       		.byte	0x20
 6180 163c 08       		.uleb128 0x8
 6181 163d B3180000 		.4byte	.LASF299
 6182 1641 17       		.byte	0x17
 6183 1642 BA       		.byte	0xba
 6184 1643 16010000 		.4byte	0x116
 6185 1647 24       		.byte	0x24
 6186 1648 18       		.uleb128 0x18
 6187 1649 42525200 		.ascii	"BRR\000"
 6188 164d 17       		.byte	0x17
 6189 164e BB       		.byte	0xbb
 6190 164f 16010000 		.4byte	0x116
 6191 1653 28       		.byte	0x28
 6192 1654 00       		.byte	0
 6193 1655 03       		.uleb128 0x3
 6194 1656 CB0E0000 		.4byte	.LASF300
 6195 165a 17       		.byte	0x17
 6196 165b BC       		.byte	0xbc
 6197 165c C8150000 		.4byte	0x15c8
 6198 1660 17       		.uleb128 0x17
 6199 1661 1C       		.byte	0x1c
 6200 1662 17       		.byte	0x17
 6201 1663 C1       		.byte	0xc1
 6202 1664 BD160000 		.4byte	0x16bd
 6203 1668 08       		.uleb128 0x8
 6204 1669 E61D0000 		.4byte	.LASF301
 6205 166d 17       		.byte	0x17
 6206 166e C3       		.byte	0xc3
 6207 166f 0B010000 		.4byte	0x10b
 6208 1673 00       		.byte	0
 6209 1674 08       		.uleb128 0x8
 6210 1675 62020000 		.4byte	.LASF302
 6211 1679 17       		.byte	0x17
 6212 167a C5       		.byte	0xc5
ARM GAS  /tmp/cc5QaxCL.s 			page 110


 6213 167b 0B010000 		.4byte	0x10b
 6214 167f 04       		.byte	0x4
 6215 1680 08       		.uleb128 0x8
 6216 1681 6E010000 		.4byte	.LASF303
 6217 1685 17       		.byte	0x17
 6218 1686 C7       		.byte	0xc7
 6219 1687 0B010000 		.4byte	0x10b
 6220 168b 08       		.byte	0x8
 6221 168c 08       		.uleb128 0x8
 6222 168d 391D0000 		.4byte	.LASF304
 6223 1691 17       		.byte	0x17
 6224 1692 C9       		.byte	0xc9
 6225 1693 0B010000 		.4byte	0x10b
 6226 1697 0C       		.byte	0xc
 6227 1698 18       		.uleb128 0x18
 6228 1699 6F647200 		.ascii	"odr\000"
 6229 169d 17       		.byte	0x17
 6230 169e CB       		.byte	0xcb
 6231 169f 0B010000 		.4byte	0x10b
 6232 16a3 10       		.byte	0x10
 6233 16a4 08       		.uleb128 0x8
 6234 16a5 9C1A0000 		.4byte	.LASF305
 6235 16a9 17       		.byte	0x17
 6236 16aa CD       		.byte	0xcd
 6237 16ab 0B010000 		.4byte	0x10b
 6238 16af 14       		.byte	0x14
 6239 16b0 08       		.uleb128 0x8
 6240 16b1 4B000000 		.4byte	.LASF306
 6241 16b5 17       		.byte	0x17
 6242 16b6 CF       		.byte	0xcf
 6243 16b7 0B010000 		.4byte	0x10b
 6244 16bb 18       		.byte	0x18
 6245 16bc 00       		.byte	0
 6246 16bd 03       		.uleb128 0x3
 6247 16be A4170000 		.4byte	.LASF307
 6248 16c2 17       		.byte	0x17
 6249 16c3 D0       		.byte	0xd0
 6250 16c4 60160000 		.4byte	0x1660
 6251 16c8 17       		.uleb128 0x17
 6252 16c9 FC       		.byte	0xfc
 6253 16ca 17       		.byte	0x17
 6254 16cb D9       		.byte	0xd9
 6255 16cc 3D170000 		.4byte	0x173d
 6256 16d0 08       		.uleb128 0x8
 6257 16d1 990F0000 		.4byte	.LASF308
 6258 16d5 17       		.byte	0x17
 6259 16d6 DC       		.byte	0xdc
 6260 16d7 BD160000 		.4byte	0x16bd
 6261 16db 00       		.byte	0
 6262 16dc 08       		.uleb128 0x8
 6263 16dd 3B020000 		.4byte	.LASF309
 6264 16e1 17       		.byte	0x17
 6265 16e2 E0       		.byte	0xe0
 6266 16e3 BD160000 		.4byte	0x16bd
 6267 16e7 1C       		.byte	0x1c
 6268 16e8 08       		.uleb128 0x8
 6269 16e9 1C010000 		.4byte	.LASF310
ARM GAS  /tmp/cc5QaxCL.s 			page 111


 6270 16ed 17       		.byte	0x17
 6271 16ee E4       		.byte	0xe4
 6272 16ef BD160000 		.4byte	0x16bd
 6273 16f3 38       		.byte	0x38
 6274 16f4 08       		.uleb128 0x8
 6275 16f5 250C0000 		.4byte	.LASF311
 6276 16f9 17       		.byte	0x17
 6277 16fa E8       		.byte	0xe8
 6278 16fb BD160000 		.4byte	0x16bd
 6279 16ff 54       		.byte	0x54
 6280 1700 08       		.uleb128 0x8
 6281 1701 0B170000 		.4byte	.LASF312
 6282 1705 17       		.byte	0x17
 6283 1706 EC       		.byte	0xec
 6284 1707 BD160000 		.4byte	0x16bd
 6285 170b 70       		.byte	0x70
 6286 170c 08       		.uleb128 0x8
 6287 170d 00210000 		.4byte	.LASF313
 6288 1711 17       		.byte	0x17
 6289 1712 F0       		.byte	0xf0
 6290 1713 BD160000 		.4byte	0x16bd
 6291 1717 8C       		.byte	0x8c
 6292 1718 08       		.uleb128 0x8
 6293 1719 360A0000 		.4byte	.LASF314
 6294 171d 17       		.byte	0x17
 6295 171e F4       		.byte	0xf4
 6296 171f BD160000 		.4byte	0x16bd
 6297 1723 A8       		.byte	0xa8
 6298 1724 08       		.uleb128 0x8
 6299 1725 54150000 		.4byte	.LASF315
 6300 1729 17       		.byte	0x17
 6301 172a F8       		.byte	0xf8
 6302 172b BD160000 		.4byte	0x16bd
 6303 172f C4       		.byte	0xc4
 6304 1730 08       		.uleb128 0x8
 6305 1731 461F0000 		.4byte	.LASF316
 6306 1735 17       		.byte	0x17
 6307 1736 FC       		.byte	0xfc
 6308 1737 BD160000 		.4byte	0x16bd
 6309 173b E0       		.byte	0xe0
 6310 173c 00       		.byte	0
 6311 173d 03       		.uleb128 0x3
 6312 173e 88090000 		.4byte	.LASF317
 6313 1742 17       		.byte	0x17
 6314 1743 FE       		.byte	0xfe
 6315 1744 C8160000 		.4byte	0x16c8
 6316 1748 05       		.uleb128 0x5
 6317 1749 3D170000 		.4byte	0x173d
 6318 174d 1A       		.uleb128 0x1a
 6319 174e 5B150000 		.4byte	.LASF318
 6320 1752 17       		.byte	0x17
 6321 1753 1B01     		.2byte	0x11b
 6322 1755 59170000 		.4byte	0x1759
 6323 1759 0B       		.uleb128 0xb
 6324 175a 04       		.byte	0x4
 6325 175b 55160000 		.4byte	0x1655
 6326 175f 15       		.uleb128 0x15
ARM GAS  /tmp/cc5QaxCL.s 			page 112


 6327 1760 7E1B0000 		.4byte	.LASF319
 6328 1764 17       		.byte	0x17
 6329 1765 DA01     		.2byte	0x1da
 6330 1767 48170000 		.4byte	0x1748
 6331 176b 21       		.uleb128 0x21
 6332 176c 07       		.byte	0x7
 6333 176d 01       		.byte	0x1
 6334 176e 69000000 		.4byte	0x69
 6335 1772 18       		.byte	0x18
 6336 1773 46       		.byte	0x46
 6337 1774 9D170000 		.4byte	0x179d
 6338 1778 22       		.uleb128 0x22
 6339 1779 54070000 		.4byte	.LASF320
 6340 177d 00       		.byte	0
 6341 177e 22       		.uleb128 0x22
 6342 177f 3E130000 		.4byte	.LASF321
 6343 1783 01       		.byte	0x1
 6344 1784 22       		.uleb128 0x22
 6345 1785 A91D0000 		.4byte	.LASF322
 6346 1789 02       		.byte	0x2
 6347 178a 22       		.uleb128 0x22
 6348 178b 12110000 		.4byte	.LASF323
 6349 178f 03       		.byte	0x3
 6350 1790 22       		.uleb128 0x22
 6351 1791 65050000 		.4byte	.LASF324
 6352 1795 04       		.byte	0x4
 6353 1796 22       		.uleb128 0x22
 6354 1797 00110000 		.4byte	.LASF325
 6355 179b 05       		.byte	0x5
 6356 179c 00       		.byte	0
 6357 179d 03       		.uleb128 0x3
 6358 179e 66030000 		.4byte	.LASF326
 6359 17a2 18       		.byte	0x18
 6360 17a3 4D       		.byte	0x4d
 6361 17a4 6B170000 		.4byte	0x176b
 6362 17a8 1A       		.uleb128 0x1a
 6363 17a9 40100000 		.4byte	.LASF327
 6364 17ad 19       		.byte	0x19
 6365 17ae 2701     		.2byte	0x127
 6366 17b0 F0000000 		.4byte	0xf0
 6367 17b4 1A       		.uleb128 0x1a
 6368 17b5 35190000 		.4byte	.LASF328
 6369 17b9 19       		.byte	0x19
 6370 17ba 2C01     		.2byte	0x12c
 6371 17bc F0000000 		.4byte	0xf0
 6372 17c0 24       		.uleb128 0x24
 6373 17c1 07       		.byte	0x7
 6374 17c2 01       		.byte	0x1
 6375 17c3 69000000 		.4byte	0x69
 6376 17c7 19       		.byte	0x19
 6377 17c8 3301     		.2byte	0x133
 6378 17ca DB170000 		.4byte	0x17db
 6379 17ce 22       		.uleb128 0x22
 6380 17cf 7B0C0000 		.4byte	.LASF329
 6381 17d3 00       		.byte	0
 6382 17d4 22       		.uleb128 0x22
 6383 17d5 86010000 		.4byte	.LASF330
ARM GAS  /tmp/cc5QaxCL.s 			page 113


 6384 17d9 01       		.byte	0x1
 6385 17da 00       		.byte	0
 6386 17db 1A       		.uleb128 0x1a
 6387 17dc 801E0000 		.4byte	.LASF331
 6388 17e0 19       		.byte	0x19
 6389 17e1 3601     		.2byte	0x136
 6390 17e3 C0170000 		.4byte	0x17c0
 6391 17e7 1A       		.uleb128 0x1a
 6392 17e8 0B0D0000 		.4byte	.LASF332
 6393 17ec 19       		.byte	0x19
 6394 17ed 3B01     		.2byte	0x13b
 6395 17ef F3170000 		.4byte	0x17f3
 6396 17f3 0C       		.uleb128 0xc
 6397 17f4 0B0D0000 		.4byte	.LASF332
 6398 17f8 38       		.byte	0x38
 6399 17f9 19       		.byte	0x19
 6400 17fa 9F01     		.2byte	0x19f
 6401 17fc 83180000 		.4byte	0x1883
 6402 1800 0A       		.uleb128 0xa
 6403 1801 F1130000 		.4byte	.LASF333
 6404 1805 19       		.byte	0x19
 6405 1806 A301     		.2byte	0x1a3
 6406 1808 9D170000 		.4byte	0x179d
 6407 180c 00       		.byte	0
 6408 180d 0A       		.uleb128 0xa
 6409 180e FC180000 		.4byte	.LASF334
 6410 1812 19       		.byte	0x19
 6411 1813 A701     		.2byte	0x1a7
 6412 1815 AA190000 		.4byte	0x19aa
 6413 1819 04       		.byte	0x4
 6414 181a 0A       		.uleb128 0xa
 6415 181b 28010000 		.4byte	.LASF335
 6416 181f 19       		.byte	0x19
 6417 1820 AB01     		.2byte	0x1ab
 6418 1822 B0180000 		.4byte	0x18b0
 6419 1826 08       		.byte	0x8
 6420 1827 0A       		.uleb128 0xa
 6421 1828 26160000 		.4byte	.LASF336
 6422 182c 19       		.byte	0x19
 6423 182d AF01     		.2byte	0x1af
 6424 182f 2C000000 		.4byte	0x2c
 6425 1833 0C       		.byte	0xc
 6426 1834 0A       		.uleb128 0xa
 6427 1835 A01B0000 		.4byte	.LASF337
 6428 1839 19       		.byte	0x19
 6429 183a B301     		.2byte	0x1b3
 6430 183c B0190000 		.4byte	0x19b0
 6431 1840 10       		.byte	0x10
 6432 1841 0A       		.uleb128 0xa
 6433 1842 F3050000 		.4byte	.LASF338
 6434 1846 19       		.byte	0x19
 6435 1847 B801     		.2byte	0x1b8
 6436 1849 E8020000 		.4byte	0x2e8
 6437 184d 14       		.byte	0x14
 6438 184e 0A       		.uleb128 0xa
 6439 184f FF0A0000 		.4byte	.LASF339
 6440 1853 19       		.byte	0x19
ARM GAS  /tmp/cc5QaxCL.s 			page 114


 6441 1854 BE01     		.2byte	0x1be
 6442 1856 BD110000 		.4byte	0x11bd
 6443 185a 18       		.byte	0x18
 6444 185b 09       		.uleb128 0x9
 6445 185c 61646300 		.ascii	"adc\000"
 6446 1860 19       		.byte	0x19
 6447 1861 C701     		.2byte	0x1c7
 6448 1863 B6190000 		.4byte	0x19b6
 6449 1867 2C       		.byte	0x2c
 6450 1868 0A       		.uleb128 0xa
 6451 1869 47090000 		.4byte	.LASF340
 6452 186d 19       		.byte	0x19
 6453 186e CB01     		.2byte	0x1cb
 6454 1870 BC190000 		.4byte	0x19bc
 6455 1874 30       		.byte	0x30
 6456 1875 0A       		.uleb128 0xa
 6457 1876 7D150000 		.4byte	.LASF341
 6458 187a 19       		.byte	0x19
 6459 187b CF01     		.2byte	0x1cf
 6460 187d 0B010000 		.4byte	0x10b
 6461 1881 34       		.byte	0x34
 6462 1882 00       		.byte	0
 6463 1883 1A       		.uleb128 0x1a
 6464 1884 3A180000 		.4byte	.LASF342
 6465 1888 19       		.byte	0x19
 6466 1889 4501     		.2byte	0x145
 6467 188b 8F180000 		.4byte	0x188f
 6468 188f 0B       		.uleb128 0xb
 6469 1890 04       		.byte	0x4
 6470 1891 95180000 		.4byte	0x1895
 6471 1895 0D       		.uleb128 0xd
 6472 1896 AA180000 		.4byte	0x18aa
 6473 189a 0E       		.uleb128 0xe
 6474 189b AA180000 		.4byte	0x18aa
 6475 189f 0E       		.uleb128 0xe
 6476 18a0 B0180000 		.4byte	0x18b0
 6477 18a4 0E       		.uleb128 0xe
 6478 18a5 2C000000 		.4byte	0x2c
 6479 18a9 00       		.byte	0
 6480 18aa 0B       		.uleb128 0xb
 6481 18ab 04       		.byte	0x4
 6482 18ac E7170000 		.4byte	0x17e7
 6483 18b0 0B       		.uleb128 0xb
 6484 18b1 04       		.byte	0x4
 6485 18b2 A8170000 		.4byte	0x17a8
 6486 18b6 1A       		.uleb128 0x1a
 6487 18b7 D3130000 		.4byte	.LASF343
 6488 18bb 19       		.byte	0x19
 6489 18bc 4E01     		.2byte	0x14e
 6490 18be C2180000 		.4byte	0x18c2
 6491 18c2 0B       		.uleb128 0xb
 6492 18c3 04       		.byte	0x4
 6493 18c4 C8180000 		.4byte	0x18c8
 6494 18c8 0D       		.uleb128 0xd
 6495 18c9 D8180000 		.4byte	0x18d8
 6496 18cd 0E       		.uleb128 0xe
 6497 18ce AA180000 		.4byte	0x18aa
ARM GAS  /tmp/cc5QaxCL.s 			page 115


 6498 18d2 0E       		.uleb128 0xe
 6499 18d3 DB170000 		.4byte	0x17db
 6500 18d7 00       		.byte	0
 6501 18d8 19       		.uleb128 0x19
 6502 18d9 28       		.byte	0x28
 6503 18da 19       		.byte	0x19
 6504 18db 5801     		.2byte	0x158
 6505 18dd 71190000 		.4byte	0x1971
 6506 18e1 0A       		.uleb128 0xa
 6507 18e2 D21D0000 		.4byte	.LASF344
 6508 18e6 19       		.byte	0x19
 6509 18e7 5C01     		.2byte	0x15c
 6510 18e9 02150000 		.4byte	0x1502
 6511 18ed 00       		.byte	0
 6512 18ee 0A       		.uleb128 0xa
 6513 18ef 150F0000 		.4byte	.LASF345
 6514 18f3 19       		.byte	0x19
 6515 18f4 6001     		.2byte	0x160
 6516 18f6 B4170000 		.4byte	0x17b4
 6517 18fa 02       		.byte	0x2
 6518 18fb 0A       		.uleb128 0xa
 6519 18fc 08080000 		.4byte	.LASF346
 6520 1900 19       		.byte	0x19
 6521 1901 6401     		.2byte	0x164
 6522 1903 83180000 		.4byte	0x1883
 6523 1907 04       		.byte	0x4
 6524 1908 0A       		.uleb128 0xa
 6525 1909 5D1F0000 		.4byte	.LASF347
 6526 190d 19       		.byte	0x19
 6527 190e 6801     		.2byte	0x168
 6528 1910 B6180000 		.4byte	0x18b6
 6529 1914 08       		.byte	0x8
 6530 1915 09       		.uleb128 0x9
 6531 1916 63723100 		.ascii	"cr1\000"
 6532 191a 19       		.byte	0x19
 6533 191b 6F01     		.2byte	0x16f
 6534 191d 0B010000 		.4byte	0x10b
 6535 1921 0C       		.byte	0xc
 6536 1922 09       		.uleb128 0x9
 6537 1923 63723200 		.ascii	"cr2\000"
 6538 1927 19       		.byte	0x19
 6539 1928 7601     		.2byte	0x176
 6540 192a 0B010000 		.4byte	0x10b
 6541 192e 10       		.byte	0x10
 6542 192f 0A       		.uleb128 0xa
 6543 1930 BB140000 		.4byte	.LASF348
 6544 1934 19       		.byte	0x19
 6545 1935 7C01     		.2byte	0x17c
 6546 1937 0B010000 		.4byte	0x10b
 6547 193b 14       		.byte	0x14
 6548 193c 0A       		.uleb128 0xa
 6549 193d C1140000 		.4byte	.LASF349
 6550 1941 19       		.byte	0x19
 6551 1942 8201     		.2byte	0x182
 6552 1944 0B010000 		.4byte	0x10b
 6553 1948 18       		.byte	0x18
 6554 1949 0A       		.uleb128 0xa
ARM GAS  /tmp/cc5QaxCL.s 			page 116


 6555 194a CF000000 		.4byte	.LASF350
 6556 194e 19       		.byte	0x19
 6557 194f 8701     		.2byte	0x187
 6558 1951 0B010000 		.4byte	0x10b
 6559 1955 1C       		.byte	0x1c
 6560 1956 0A       		.uleb128 0xa
 6561 1957 43200000 		.4byte	.LASF351
 6562 195b 19       		.byte	0x19
 6563 195c 8C01     		.2byte	0x18c
 6564 195e 0B010000 		.4byte	0x10b
 6565 1962 20       		.byte	0x20
 6566 1963 0A       		.uleb128 0xa
 6567 1964 48200000 		.4byte	.LASF352
 6568 1968 19       		.byte	0x19
 6569 1969 9101     		.2byte	0x191
 6570 196b 0B010000 		.4byte	0x10b
 6571 196f 24       		.byte	0x24
 6572 1970 00       		.byte	0
 6573 1971 1A       		.uleb128 0x1a
 6574 1972 88040000 		.4byte	.LASF353
 6575 1976 19       		.byte	0x19
 6576 1977 9201     		.2byte	0x192
 6577 1979 D8180000 		.4byte	0x18d8
 6578 197d 05       		.uleb128 0x5
 6579 197e 71190000 		.4byte	0x1971
 6580 1982 19       		.uleb128 0x19
 6581 1983 04       		.byte	0x4
 6582 1984 19       		.byte	0x19
 6583 1985 9801     		.2byte	0x198
 6584 1987 99190000 		.4byte	0x1999
 6585 198b 0A       		.uleb128 0xa
 6586 198c 64200000 		.4byte	.LASF354
 6587 1990 19       		.byte	0x19
 6588 1991 9901     		.2byte	0x199
 6589 1993 0B010000 		.4byte	0x10b
 6590 1997 00       		.byte	0
 6591 1998 00       		.byte	0
 6592 1999 1A       		.uleb128 0x1a
 6593 199a 230D0000 		.4byte	.LASF355
 6594 199e 19       		.byte	0x19
 6595 199f 9A01     		.2byte	0x19a
 6596 19a1 82190000 		.4byte	0x1982
 6597 19a5 05       		.uleb128 0x5
 6598 19a6 99190000 		.4byte	0x1999
 6599 19aa 0B       		.uleb128 0xb
 6600 19ab 04       		.byte	0x4
 6601 19ac A5190000 		.4byte	0x19a5
 6602 19b0 0B       		.uleb128 0xb
 6603 19b1 04       		.byte	0x4
 6604 19b2 7D190000 		.4byte	0x197d
 6605 19b6 0B       		.uleb128 0xb
 6606 19b7 04       		.byte	0x4
 6607 19b8 6D060000 		.4byte	0x66d
 6608 19bc 0B       		.uleb128 0xb
 6609 19bd 04       		.byte	0x4
 6610 19be D1130000 		.4byte	0x13d1
 6611 19c2 15       		.uleb128 0x15
ARM GAS  /tmp/cc5QaxCL.s 			page 117


 6612 19c3 66150000 		.4byte	.LASF356
 6613 19c7 19       		.byte	0x19
 6614 19c8 1402     		.2byte	0x214
 6615 19ca E7170000 		.4byte	0x17e7
 6616 19ce 15       		.uleb128 0x15
 6617 19cf 6C150000 		.4byte	.LASF357
 6618 19d3 19       		.byte	0x19
 6619 19d4 1802     		.2byte	0x218
 6620 19d6 E7170000 		.4byte	0x17e7
 6621 19da 15       		.uleb128 0x15
 6622 19db 72150000 		.4byte	.LASF358
 6623 19df 19       		.byte	0x19
 6624 19e0 1C02     		.2byte	0x21c
 6625 19e2 E7170000 		.4byte	0x17e7
 6626 19e6 21       		.uleb128 0x21
 6627 19e7 07       		.byte	0x7
 6628 19e8 01       		.byte	0x1
 6629 19e9 69000000 		.4byte	0x69
 6630 19ed 1A       		.byte	0x1a
 6631 19ee 5F       		.byte	0x5f
 6632 19ef 121A0000 		.4byte	0x1a12
 6633 19f3 22       		.uleb128 0x22
 6634 19f4 D1080000 		.4byte	.LASF359
 6635 19f8 00       		.byte	0
 6636 19f9 22       		.uleb128 0x22
 6637 19fa 7E000000 		.4byte	.LASF360
 6638 19fe 01       		.byte	0x1
 6639 19ff 22       		.uleb128 0x22
 6640 1a00 38000000 		.4byte	.LASF361
 6641 1a04 02       		.byte	0x2
 6642 1a05 22       		.uleb128 0x22
 6643 1a06 AF040000 		.4byte	.LASF362
 6644 1a0a 03       		.byte	0x3
 6645 1a0b 22       		.uleb128 0x22
 6646 1a0c BE080000 		.4byte	.LASF363
 6647 1a10 04       		.byte	0x4
 6648 1a11 00       		.byte	0
 6649 1a12 03       		.uleb128 0x3
 6650 1a13 DE040000 		.4byte	.LASF364
 6651 1a17 1A       		.byte	0x1a
 6652 1a18 65       		.byte	0x65
 6653 1a19 E6190000 		.4byte	0x19e6
 6654 1a1d 13       		.uleb128 0x13
 6655 1a1e D5000000 		.4byte	0xd5
 6656 1a22 2D1A0000 		.4byte	0x1a2d
 6657 1a26 14       		.uleb128 0x14
 6658 1a27 37000000 		.4byte	0x37
 6659 1a2b 07       		.byte	0x7
 6660 1a2c 00       		.byte	0
 6661 1a2d 17       		.uleb128 0x17
 6662 1a2e 08       		.byte	0x8
 6663 1a2f 1B       		.byte	0x1b
 6664 1a30 F4       		.byte	0xf4
 6665 1a31 4F1A0000 		.4byte	0x1a4f
 6666 1a35 18       		.uleb128 0x18
 6667 1a36 6D637200 		.ascii	"mcr\000"
 6668 1a3a 1B       		.byte	0x1b
ARM GAS  /tmp/cc5QaxCL.s 			page 118


 6669 1a3b FA       		.byte	0xfa
 6670 1a3c 0B010000 		.4byte	0x10b
 6671 1a40 00       		.byte	0
 6672 1a41 09       		.uleb128 0x9
 6673 1a42 62747200 		.ascii	"btr\000"
 6674 1a46 1B       		.byte	0x1b
 6675 1a47 0001     		.2byte	0x100
 6676 1a49 0B010000 		.4byte	0x10b
 6677 1a4d 04       		.byte	0x4
 6678 1a4e 00       		.byte	0
 6679 1a4f 1A       		.uleb128 0x1a
 6680 1a50 01170000 		.4byte	.LASF365
 6681 1a54 1B       		.byte	0x1b
 6682 1a55 0101     		.2byte	0x101
 6683 1a57 2D1A0000 		.4byte	0x1a2d
 6684 1a5b 05       		.uleb128 0x5
 6685 1a5c 4F1A0000 		.4byte	0x1a4f
 6686 1a60 19       		.uleb128 0x19
 6687 1a61 30       		.byte	0x30
 6688 1a62 1B       		.byte	0x1b
 6689 1a63 0601     		.2byte	0x106
 6690 1a65 EC1A0000 		.4byte	0x1aec
 6691 1a69 0A       		.uleb128 0xa
 6692 1a6a F1130000 		.4byte	.LASF333
 6693 1a6e 1B       		.byte	0x1b
 6694 1a6f 0A01     		.2byte	0x10a
 6695 1a71 121A0000 		.4byte	0x1a12
 6696 1a75 00       		.byte	0
 6697 1a76 0A       		.uleb128 0xa
 6698 1a77 FC180000 		.4byte	.LASF334
 6699 1a7b 1B       		.byte	0x1b
 6700 1a7c 0E01     		.2byte	0x10e
 6701 1a7e EC1A0000 		.4byte	0x1aec
 6702 1a82 04       		.byte	0x4
 6703 1a83 0A       		.uleb128 0xa
 6704 1a84 3E080000 		.4byte	.LASF366
 6705 1a88 1B       		.byte	0x1b
 6706 1a89 1201     		.2byte	0x112
 6707 1a8b 1D030000 		.4byte	0x31d
 6708 1a8f 08       		.byte	0x8
 6709 1a90 0A       		.uleb128 0xa
 6710 1a91 651B0000 		.4byte	.LASF367
 6711 1a95 1B       		.byte	0x1b
 6712 1a96 1601     		.2byte	0x116
 6713 1a98 1D030000 		.4byte	0x31d
 6714 1a9c 10       		.byte	0x10
 6715 1a9d 0A       		.uleb128 0xa
 6716 1a9e B6160000 		.4byte	.LASF368
 6717 1aa2 1B       		.byte	0x1b
 6718 1aa3 2301     		.2byte	0x123
 6719 1aa5 41120000 		.4byte	0x1241
 6720 1aa9 18       		.byte	0x18
 6721 1aaa 0A       		.uleb128 0xa
 6722 1aab 130A0000 		.4byte	.LASF369
 6723 1aaf 1B       		.byte	0x1b
 6724 1ab0 2A01     		.2byte	0x12a
 6725 1ab2 41120000 		.4byte	0x1241
ARM GAS  /tmp/cc5QaxCL.s 			page 119


 6726 1ab6 1C       		.byte	0x1c
 6727 1ab7 0A       		.uleb128 0xa
 6728 1ab8 090F0000 		.4byte	.LASF370
 6729 1abc 1B       		.byte	0x1b
 6730 1abd 3001     		.2byte	0x130
 6731 1abf 41120000 		.4byte	0x1241
 6732 1ac3 20       		.byte	0x20
 6733 1ac4 0A       		.uleb128 0xa
 6734 1ac5 CB020000 		.4byte	.LASF371
 6735 1ac9 1B       		.byte	0x1b
 6736 1aca 3501     		.2byte	0x135
 6737 1acc 41120000 		.4byte	0x1241
 6738 1ad0 24       		.byte	0x24
 6739 1ad1 0A       		.uleb128 0xa
 6740 1ad2 F3070000 		.4byte	.LASF372
 6741 1ad6 1B       		.byte	0x1b
 6742 1ad7 3901     		.2byte	0x139
 6743 1ad9 41120000 		.4byte	0x1241
 6744 1add 28       		.byte	0x28
 6745 1ade 09       		.uleb128 0x9
 6746 1adf 63616E00 		.ascii	"can\000"
 6747 1ae3 1B       		.byte	0x1b
 6748 1ae4 3F01     		.2byte	0x13f
 6749 1ae6 F21A0000 		.4byte	0x1af2
 6750 1aea 2C       		.byte	0x2c
 6751 1aeb 00       		.byte	0
 6752 1aec 0B       		.uleb128 0xb
 6753 1aed 04       		.byte	0x4
 6754 1aee 5B1A0000 		.4byte	0x1a5b
 6755 1af2 0B       		.uleb128 0xb
 6756 1af3 04       		.byte	0x4
 6757 1af4 B6080000 		.4byte	0x8b6
 6758 1af8 1A       		.uleb128 0x1a
 6759 1af9 19030000 		.4byte	.LASF373
 6760 1afd 1B       		.byte	0x1b
 6761 1afe 4001     		.2byte	0x140
 6762 1b00 601A0000 		.4byte	0x1a60
 6763 1b04 15       		.uleb128 0x15
 6764 1b05 F61C0000 		.4byte	.LASF374
 6765 1b09 1B       		.byte	0x1b
 6766 1b0a 4B01     		.2byte	0x14b
 6767 1b0c F81A0000 		.4byte	0x1af8
 6768 1b10 21       		.uleb128 0x21
 6769 1b11 07       		.byte	0x7
 6770 1b12 01       		.byte	0x1
 6771 1b13 69000000 		.4byte	0x69
 6772 1b17 1C       		.byte	0x1c
 6773 1b18 46       		.byte	0x46
 6774 1b19 421B0000 		.4byte	0x1b42
 6775 1b1d 22       		.uleb128 0x22
 6776 1b1e 2A190000 		.4byte	.LASF375
 6777 1b22 00       		.byte	0
 6778 1b23 22       		.uleb128 0x22
 6779 1b24 FF1D0000 		.4byte	.LASF376
 6780 1b28 01       		.byte	0x1
 6781 1b29 22       		.uleb128 0x22
 6782 1b2a B20C0000 		.4byte	.LASF377
ARM GAS  /tmp/cc5QaxCL.s 			page 120


 6783 1b2e 02       		.byte	0x2
 6784 1b2f 22       		.uleb128 0x22
 6785 1b30 E6130000 		.4byte	.LASF378
 6786 1b34 03       		.byte	0x3
 6787 1b35 22       		.uleb128 0x22
 6788 1b36 DE180000 		.4byte	.LASF379
 6789 1b3a 04       		.byte	0x4
 6790 1b3b 22       		.uleb128 0x22
 6791 1b3c 950E0000 		.4byte	.LASF380
 6792 1b40 05       		.byte	0x5
 6793 1b41 00       		.byte	0
 6794 1b42 03       		.uleb128 0x3
 6795 1b43 66160000 		.4byte	.LASF381
 6796 1b47 1C       		.byte	0x1c
 6797 1b48 4D       		.byte	0x4d
 6798 1b49 101B0000 		.4byte	0x1b10
 6799 1b4d 17       		.uleb128 0x17
 6800 1b4e 1C       		.byte	0x1c
 6801 1b4f 1D       		.byte	0x1d
 6802 1b50 F9       		.byte	0xf9
 6803 1b51 B01B0000 		.4byte	0x1bb0
 6804 1b55 18       		.uleb128 0x18
 6805 1b56 64616300 		.ascii	"dac\000"
 6806 1b5a 1D       		.byte	0x1d
 6807 1b5b FD       		.byte	0xfd
 6808 1b5c B01B0000 		.4byte	0x1bb0
 6809 1b60 00       		.byte	0
 6810 1b61 0A       		.uleb128 0xa
 6811 1b62 E9150000 		.4byte	.LASF382
 6812 1b66 1D       		.byte	0x1d
 6813 1b67 0101     		.2byte	0x101
 6814 1b69 0B010000 		.4byte	0x10b
 6815 1b6d 04       		.byte	0x4
 6816 1b6e 0A       		.uleb128 0xa
 6817 1b6f FA050000 		.4byte	.LASF383
 6818 1b73 1D       		.byte	0x1d
 6819 1b74 0501     		.2byte	0x105
 6820 1b76 0B010000 		.4byte	0x10b
 6821 1b7a 08       		.byte	0x8
 6822 1b7b 0A       		.uleb128 0xa
 6823 1b7c 3B010000 		.4byte	.LASF384
 6824 1b80 1D       		.byte	0x1d
 6825 1b81 0901     		.2byte	0x109
 6826 1b83 0B010000 		.4byte	0x10b
 6827 1b87 0C       		.byte	0xc
 6828 1b88 09       		.uleb128 0x9
 6829 1b89 646D6100 		.ascii	"dma\000"
 6830 1b8d 1D       		.byte	0x1d
 6831 1b8e 0D01     		.2byte	0x10d
 6832 1b90 BC190000 		.4byte	0x19bc
 6833 1b94 10       		.byte	0x10
 6834 1b95 0A       		.uleb128 0xa
 6835 1b96 7D150000 		.4byte	.LASF341
 6836 1b9a 1D       		.byte	0x1d
 6837 1b9b 1101     		.2byte	0x111
 6838 1b9d 0B010000 		.4byte	0x10b
 6839 1ba1 14       		.byte	0x14
ARM GAS  /tmp/cc5QaxCL.s 			page 121


 6840 1ba2 0A       		.uleb128 0xa
 6841 1ba3 34150000 		.4byte	.LASF385
 6842 1ba7 1D       		.byte	0x1d
 6843 1ba8 1501     		.2byte	0x115
 6844 1baa 0B010000 		.4byte	0x10b
 6845 1bae 18       		.byte	0x18
 6846 1baf 00       		.byte	0
 6847 1bb0 0B       		.uleb128 0xb
 6848 1bb1 04       		.byte	0x4
 6849 1bb2 80090000 		.4byte	0x980
 6850 1bb6 1A       		.uleb128 0x1a
 6851 1bb7 75020000 		.4byte	.LASF386
 6852 1bbb 1D       		.byte	0x1d
 6853 1bbc 1601     		.2byte	0x116
 6854 1bbe 4D1B0000 		.4byte	0x1b4d
 6855 1bc2 05       		.uleb128 0x5
 6856 1bc3 B61B0000 		.4byte	0x1bb6
 6857 1bc7 1A       		.uleb128 0x1a
 6858 1bc8 0A0B0000 		.4byte	.LASF387
 6859 1bcc 1D       		.byte	0x1d
 6860 1bcd 1B01     		.2byte	0x11b
 6861 1bcf D31B0000 		.4byte	0x1bd3
 6862 1bd3 0C       		.uleb128 0xc
 6863 1bd4 0A0B0000 		.4byte	.LASF387
 6864 1bd8 30       		.byte	0x30
 6865 1bd9 1D       		.byte	0x1d
 6866 1bda 7B01     		.2byte	0x17b
 6867 1bdc 491C0000 		.4byte	0x1c49
 6868 1be0 0A       		.uleb128 0xa
 6869 1be1 F1130000 		.4byte	.LASF333
 6870 1be5 1D       		.byte	0x1d
 6871 1be6 7F01     		.2byte	0x17f
 6872 1be8 421B0000 		.4byte	0x1b42
 6873 1bec 00       		.byte	0
 6874 1bed 0A       		.uleb128 0xa
 6875 1bee A01B0000 		.4byte	.LASF337
 6876 1bf2 1D       		.byte	0x1d
 6877 1bf3 8301     		.2byte	0x183
 6878 1bf5 871D0000 		.4byte	0x1d87
 6879 1bf9 04       		.byte	0x4
 6880 1bfa 0A       		.uleb128 0xa
 6881 1bfb 28010000 		.4byte	.LASF335
 6882 1bff 1D       		.byte	0x1d
 6883 1c00 8701     		.2byte	0x187
 6884 1c02 AE1C0000 		.4byte	0x1cae
 6885 1c06 08       		.byte	0x8
 6886 1c07 0A       		.uleb128 0xa
 6887 1c08 26160000 		.4byte	.LASF336
 6888 1c0c 1D       		.byte	0x1d
 6889 1c0d 8B01     		.2byte	0x18b
 6890 1c0f F0000000 		.4byte	0xf0
 6891 1c13 0C       		.byte	0xc
 6892 1c14 0A       		.uleb128 0xa
 6893 1c15 FC180000 		.4byte	.LASF334
 6894 1c19 1D       		.byte	0x1d
 6895 1c1a 8F01     		.2byte	0x18f
 6896 1c1c 8D1D0000 		.4byte	0x1d8d
ARM GAS  /tmp/cc5QaxCL.s 			page 122


 6897 1c20 10       		.byte	0x10
 6898 1c21 0A       		.uleb128 0xa
 6899 1c22 F3050000 		.4byte	.LASF338
 6900 1c26 1D       		.byte	0x1d
 6901 1c27 9401     		.2byte	0x194
 6902 1c29 E8020000 		.4byte	0x2e8
 6903 1c2d 14       		.byte	0x14
 6904 1c2e 0A       		.uleb128 0xa
 6905 1c2f FF0A0000 		.4byte	.LASF339
 6906 1c33 1D       		.byte	0x1d
 6907 1c34 9A01     		.2byte	0x19a
 6908 1c36 BD110000 		.4byte	0x11bd
 6909 1c3a 18       		.byte	0x18
 6910 1c3b 0A       		.uleb128 0xa
 6911 1c3c EF0F0000 		.4byte	.LASF388
 6912 1c40 1D       		.byte	0x1d
 6913 1c41 A301     		.2byte	0x1a3
 6914 1c43 931D0000 		.4byte	0x1d93
 6915 1c47 2C       		.byte	0x2c
 6916 1c48 00       		.byte	0
 6917 1c49 1A       		.uleb128 0x1a
 6918 1c4a 7F160000 		.4byte	.LASF389
 6919 1c4e 1D       		.byte	0x1d
 6920 1c4f 2001     		.2byte	0x120
 6921 1c51 F0000000 		.4byte	0xf0
 6922 1c55 05       		.uleb128 0x5
 6923 1c56 491C0000 		.4byte	0x1c49
 6924 1c5a 24       		.uleb128 0x24
 6925 1c5b 07       		.byte	0x7
 6926 1c5c 01       		.byte	0x1
 6927 1c5d 69000000 		.4byte	0x69
 6928 1c61 1D       		.byte	0x1d
 6929 1c62 2701     		.2byte	0x127
 6930 1c64 751C0000 		.4byte	0x1c75
 6931 1c68 22       		.uleb128 0x22
 6932 1c69 2A170000 		.4byte	.LASF390
 6933 1c6d 00       		.byte	0
 6934 1c6e 22       		.uleb128 0x22
 6935 1c6f E1070000 		.4byte	.LASF391
 6936 1c73 01       		.byte	0x1
 6937 1c74 00       		.byte	0
 6938 1c75 1A       		.uleb128 0x1a
 6939 1c76 2A100000 		.4byte	.LASF392
 6940 1c7a 1D       		.byte	0x1d
 6941 1c7b 2A01     		.2byte	0x12a
 6942 1c7d 5A1C0000 		.4byte	0x1c5a
 6943 1c81 1A       		.uleb128 0x1a
 6944 1c82 52060000 		.4byte	.LASF393
 6945 1c86 1D       		.byte	0x1d
 6946 1c87 3401     		.2byte	0x134
 6947 1c89 8D1C0000 		.4byte	0x1c8d
 6948 1c8d 0B       		.uleb128 0xb
 6949 1c8e 04       		.byte	0x4
 6950 1c8f 931C0000 		.4byte	0x1c93
 6951 1c93 0D       		.uleb128 0xd
 6952 1c94 A81C0000 		.4byte	0x1ca8
 6953 1c98 0E       		.uleb128 0xe
ARM GAS  /tmp/cc5QaxCL.s 			page 123


 6954 1c99 A81C0000 		.4byte	0x1ca8
 6955 1c9d 0E       		.uleb128 0xe
 6956 1c9e AE1C0000 		.4byte	0x1cae
 6957 1ca2 0E       		.uleb128 0xe
 6958 1ca3 2C000000 		.4byte	0x2c
 6959 1ca7 00       		.byte	0
 6960 1ca8 0B       		.uleb128 0xb
 6961 1ca9 04       		.byte	0x4
 6962 1caa C71B0000 		.4byte	0x1bc7
 6963 1cae 0B       		.uleb128 0xb
 6964 1caf 04       		.byte	0x4
 6965 1cb0 551C0000 		.4byte	0x1c55
 6966 1cb4 1A       		.uleb128 0x1a
 6967 1cb5 3F1D0000 		.4byte	.LASF394
 6968 1cb9 1D       		.byte	0x1d
 6969 1cba 3F01     		.2byte	0x13f
 6970 1cbc C01C0000 		.4byte	0x1cc0
 6971 1cc0 0B       		.uleb128 0xb
 6972 1cc1 04       		.byte	0x4
 6973 1cc2 C61C0000 		.4byte	0x1cc6
 6974 1cc6 0D       		.uleb128 0xd
 6975 1cc7 D61C0000 		.4byte	0x1cd6
 6976 1ccb 0E       		.uleb128 0xe
 6977 1ccc A81C0000 		.4byte	0x1ca8
 6978 1cd0 0E       		.uleb128 0xe
 6979 1cd1 751C0000 		.4byte	0x1c75
 6980 1cd5 00       		.byte	0
 6981 1cd6 24       		.uleb128 0x24
 6982 1cd7 07       		.byte	0x7
 6983 1cd8 01       		.byte	0x1
 6984 1cd9 69000000 		.4byte	0x69
 6985 1cdd 1D       		.byte	0x1d
 6986 1cde 4401     		.2byte	0x144
 6987 1ce0 F71C0000 		.4byte	0x1cf7
 6988 1ce4 22       		.uleb128 0x22
 6989 1ce5 7C190000 		.4byte	.LASF395
 6990 1ce9 00       		.byte	0
 6991 1cea 22       		.uleb128 0x22
 6992 1ceb 91110000 		.4byte	.LASF396
 6993 1cef 01       		.byte	0x1
 6994 1cf0 22       		.uleb128 0x22
 6995 1cf1 5F140000 		.4byte	.LASF397
 6996 1cf5 02       		.byte	0x2
 6997 1cf6 00       		.byte	0
 6998 1cf7 1A       		.uleb128 0x1a
 6999 1cf8 3A090000 		.4byte	.LASF398
 7000 1cfc 1D       		.byte	0x1d
 7001 1cfd 4D01     		.2byte	0x14d
 7002 1cff D61C0000 		.4byte	0x1cd6
 7003 1d03 19       		.uleb128 0x19
 7004 1d04 10       		.byte	0x10
 7005 1d05 1D       		.byte	0x1d
 7006 1d06 5201     		.2byte	0x152
 7007 1d08 411D0000 		.4byte	0x1d41
 7008 1d0c 0A       		.uleb128 0xa
 7009 1d0d 150F0000 		.4byte	.LASF345
 7010 1d11 1D       		.byte	0x1d
ARM GAS  /tmp/cc5QaxCL.s 			page 124


 7011 1d12 5601     		.2byte	0x156
 7012 1d14 0B010000 		.4byte	0x10b
 7013 1d18 00       		.byte	0
 7014 1d19 0A       		.uleb128 0xa
 7015 1d1a 08080000 		.4byte	.LASF346
 7016 1d1e 1D       		.byte	0x1d
 7017 1d1f 5A01     		.2byte	0x15a
 7018 1d21 811C0000 		.4byte	0x1c81
 7019 1d25 04       		.byte	0x4
 7020 1d26 0A       		.uleb128 0xa
 7021 1d27 5D1F0000 		.4byte	.LASF347
 7022 1d2b 1D       		.byte	0x1d
 7023 1d2c 5E01     		.2byte	0x15e
 7024 1d2e B41C0000 		.4byte	0x1cb4
 7025 1d32 08       		.byte	0x8
 7026 1d33 0A       		.uleb128 0xa
 7027 1d34 C1120000 		.4byte	.LASF399
 7028 1d38 1D       		.byte	0x1d
 7029 1d39 6601     		.2byte	0x166
 7030 1d3b 0B010000 		.4byte	0x10b
 7031 1d3f 0C       		.byte	0xc
 7032 1d40 00       		.byte	0
 7033 1d41 1A       		.uleb128 0x1a
 7034 1d42 DF100000 		.4byte	.LASF400
 7035 1d46 1D       		.byte	0x1d
 7036 1d47 6701     		.2byte	0x167
 7037 1d49 031D0000 		.4byte	0x1d03
 7038 1d4d 05       		.uleb128 0x5
 7039 1d4e 411D0000 		.4byte	0x1d41
 7040 1d52 19       		.uleb128 0x19
 7041 1d53 04       		.byte	0x4
 7042 1d54 1D       		.byte	0x1d
 7043 1d55 6C01     		.2byte	0x16c
 7044 1d57 761D0000 		.4byte	0x1d76
 7045 1d5b 0A       		.uleb128 0xa
 7046 1d5c 7E090000 		.4byte	.LASF401
 7047 1d60 1D       		.byte	0x1d
 7048 1d61 7101     		.2byte	0x171
 7049 1d63 491C0000 		.4byte	0x1c49
 7050 1d67 00       		.byte	0
 7051 1d68 0A       		.uleb128 0xa
 7052 1d69 B6000000 		.4byte	.LASF402
 7053 1d6d 1D       		.byte	0x1d
 7054 1d6e 7501     		.2byte	0x175
 7055 1d70 F71C0000 		.4byte	0x1cf7
 7056 1d74 02       		.byte	0x2
 7057 1d75 00       		.byte	0
 7058 1d76 1A       		.uleb128 0x1a
 7059 1d77 140B0000 		.4byte	.LASF403
 7060 1d7b 1D       		.byte	0x1d
 7061 1d7c 7601     		.2byte	0x176
 7062 1d7e 521D0000 		.4byte	0x1d52
 7063 1d82 05       		.uleb128 0x5
 7064 1d83 761D0000 		.4byte	0x1d76
 7065 1d87 0B       		.uleb128 0xb
 7066 1d88 04       		.byte	0x4
 7067 1d89 4D1D0000 		.4byte	0x1d4d
ARM GAS  /tmp/cc5QaxCL.s 			page 125


 7068 1d8d 0B       		.uleb128 0xb
 7069 1d8e 04       		.byte	0x4
 7070 1d8f 821D0000 		.4byte	0x1d82
 7071 1d93 0B       		.uleb128 0xb
 7072 1d94 04       		.byte	0x4
 7073 1d95 C21B0000 		.4byte	0x1bc2
 7074 1d99 15       		.uleb128 0x15
 7075 1d9a 13030000 		.4byte	.LASF404
 7076 1d9e 1D       		.byte	0x1d
 7077 1d9f B301     		.2byte	0x1b3
 7078 1da1 C71B0000 		.4byte	0x1bc7
 7079 1da5 21       		.uleb128 0x21
 7080 1da6 07       		.byte	0x7
 7081 1da7 01       		.byte	0x1
 7082 1da8 69000000 		.4byte	0x69
 7083 1dac 1E       		.byte	0x1e
 7084 1dad 3F       		.byte	0x3f
 7085 1dae C51D0000 		.4byte	0x1dc5
 7086 1db2 22       		.uleb128 0x22
 7087 1db3 B3080000 		.4byte	.LASF405
 7088 1db7 00       		.byte	0
 7089 1db8 22       		.uleb128 0x22
 7090 1db9 16210000 		.4byte	.LASF406
 7091 1dbd 01       		.byte	0x1
 7092 1dbe 22       		.uleb128 0x22
 7093 1dbf 63010000 		.4byte	.LASF407
 7094 1dc3 02       		.byte	0x2
 7095 1dc4 00       		.byte	0
 7096 1dc5 03       		.uleb128 0x3
 7097 1dc6 64180000 		.4byte	.LASF408
 7098 1dca 1E       		.byte	0x1e
 7099 1dcb 43       		.byte	0x43
 7100 1dcc A51D0000 		.4byte	0x1da5
 7101 1dd0 03       		.uleb128 0x3
 7102 1dd1 74070000 		.4byte	.LASF409
 7103 1dd5 1E       		.byte	0x1e
 7104 1dd6 48       		.byte	0x48
 7105 1dd7 DB1D0000 		.4byte	0x1ddb
 7106 1ddb 07       		.uleb128 0x7
 7107 1ddc 74070000 		.4byte	.LASF409
 7108 1de0 08       		.byte	0x8
 7109 1de1 1F       		.byte	0x1f
 7110 1de2 71       		.byte	0x71
 7111 1de3 001E0000 		.4byte	0x1e00
 7112 1de7 08       		.uleb128 0x8
 7113 1de8 F1130000 		.4byte	.LASF333
 7114 1dec 1F       		.byte	0x1f
 7115 1ded 75       		.byte	0x75
 7116 1dee C51D0000 		.4byte	0x1dc5
 7117 1df2 00       		.byte	0
 7118 1df3 08       		.uleb128 0x8
 7119 1df4 FC180000 		.4byte	.LASF334
 7120 1df8 1F       		.byte	0x1f
 7121 1df9 79       		.byte	0x79
 7122 1dfa 921E0000 		.4byte	0x1e92
 7123 1dfe 04       		.byte	0x4
 7124 1dff 00       		.byte	0
ARM GAS  /tmp/cc5QaxCL.s 			page 126


 7125 1e00 03       		.uleb128 0x3
 7126 1e01 9F1F0000 		.4byte	.LASF410
 7127 1e05 1F       		.byte	0x1f
 7128 1e06 47       		.byte	0x47
 7129 1e07 0B010000 		.4byte	0x10b
 7130 1e0b 03       		.uleb128 0x3
 7131 1e0c 571B0000 		.4byte	.LASF411
 7132 1e10 1F       		.byte	0x1f
 7133 1e11 4F       		.byte	0x4f
 7134 1e12 161E0000 		.4byte	0x1e16
 7135 1e16 0B       		.uleb128 0xb
 7136 1e17 04       		.byte	0x4
 7137 1e18 1C1E0000 		.4byte	0x1e1c
 7138 1e1c 0D       		.uleb128 0xd
 7139 1e1d 2C1E0000 		.4byte	0x1e2c
 7140 1e21 0E       		.uleb128 0xe
 7141 1e22 2C1E0000 		.4byte	0x1e2c
 7142 1e26 0E       		.uleb128 0xe
 7143 1e27 001E0000 		.4byte	0x1e00
 7144 1e2b 00       		.byte	0
 7145 1e2c 0B       		.uleb128 0xb
 7146 1e2d 04       		.byte	0x4
 7147 1e2e D01D0000 		.4byte	0x1dd0
 7148 1e32 17       		.uleb128 0x17
 7149 1e33 08       		.byte	0x8
 7150 1e34 1F       		.byte	0x1f
 7151 1e35 54       		.byte	0x54
 7152 1e36 521E0000 		.4byte	0x1e52
 7153 1e3a 08       		.uleb128 0x8
 7154 1e3b 69070000 		.4byte	.LASF412
 7155 1e3f 1F       		.byte	0x1f
 7156 1e40 58       		.byte	0x58
 7157 1e41 0B010000 		.4byte	0x10b
 7158 1e45 00       		.byte	0
 7159 1e46 18       		.uleb128 0x18
 7160 1e47 636200   		.ascii	"cb\000"
 7161 1e4a 1F       		.byte	0x1f
 7162 1e4b 5F       		.byte	0x5f
 7163 1e4c 0B1E0000 		.4byte	0x1e0b
 7164 1e50 04       		.byte	0x4
 7165 1e51 00       		.byte	0
 7166 1e52 03       		.uleb128 0x3
 7167 1e53 990C0000 		.4byte	.LASF413
 7168 1e57 1F       		.byte	0x1f
 7169 1e58 60       		.byte	0x60
 7170 1e59 321E0000 		.4byte	0x1e32
 7171 1e5d 17       		.uleb128 0x17
 7172 1e5e B8       		.byte	0xb8
 7173 1e5f 1F       		.byte	0x1f
 7174 1e60 66       		.byte	0x66
 7175 1e61 721E0000 		.4byte	0x1e72
 7176 1e65 08       		.uleb128 0x8
 7177 1e66 5F1D0000 		.4byte	.LASF414
 7178 1e6a 1F       		.byte	0x1f
 7179 1e6b 6A       		.byte	0x6a
 7180 1e6c 721E0000 		.4byte	0x1e72
 7181 1e70 00       		.byte	0
ARM GAS  /tmp/cc5QaxCL.s 			page 127


 7182 1e71 00       		.byte	0
 7183 1e72 13       		.uleb128 0x13
 7184 1e73 521E0000 		.4byte	0x1e52
 7185 1e77 821E0000 		.4byte	0x1e82
 7186 1e7b 14       		.uleb128 0x14
 7187 1e7c 37000000 		.4byte	0x37
 7188 1e80 16       		.byte	0x16
 7189 1e81 00       		.byte	0
 7190 1e82 03       		.uleb128 0x3
 7191 1e83 661A0000 		.4byte	.LASF415
 7192 1e87 1F       		.byte	0x1f
 7193 1e88 6C       		.byte	0x6c
 7194 1e89 5D1E0000 		.4byte	0x1e5d
 7195 1e8d 05       		.uleb128 0x5
 7196 1e8e 821E0000 		.4byte	0x1e82
 7197 1e92 0B       		.uleb128 0xb
 7198 1e93 04       		.byte	0x4
 7199 1e94 8D1E0000 		.4byte	0x1e8d
 7200 1e98 16       		.uleb128 0x16
 7201 1e99 CF040000 		.4byte	.LASF416
 7202 1e9d 1F       		.byte	0x1f
 7203 1e9e 86       		.byte	0x86
 7204 1e9f D01D0000 		.4byte	0x1dd0
 7205 1ea3 21       		.uleb128 0x21
 7206 1ea4 07       		.byte	0x7
 7207 1ea5 01       		.byte	0x1
 7208 1ea6 69000000 		.4byte	0x69
 7209 1eaa 20       		.byte	0x20
 7210 1eab 31       		.byte	0x31
 7211 1eac CF1E0000 		.4byte	0x1ecf
 7212 1eb0 22       		.uleb128 0x22
 7213 1eb1 73140000 		.4byte	.LASF417
 7214 1eb5 00       		.byte	0
 7215 1eb6 22       		.uleb128 0x22
 7216 1eb7 E3120000 		.4byte	.LASF418
 7217 1ebb 01       		.byte	0x1
 7218 1ebc 22       		.uleb128 0x22
 7219 1ebd 5C160000 		.4byte	.LASF419
 7220 1ec1 02       		.byte	0x2
 7221 1ec2 22       		.uleb128 0x22
 7222 1ec3 98060000 		.4byte	.LASF420
 7223 1ec7 03       		.byte	0x3
 7224 1ec8 22       		.uleb128 0x22
 7225 1ec9 8A030000 		.4byte	.LASF421
 7226 1ecd 04       		.byte	0x4
 7227 1ece 00       		.byte	0
 7228 1ecf 03       		.uleb128 0x3
 7229 1ed0 EC110000 		.4byte	.LASF422
 7230 1ed4 20       		.byte	0x20
 7231 1ed5 37       		.byte	0x37
 7232 1ed6 A31E0000 		.4byte	0x1ea3
 7233 1eda 03       		.uleb128 0x3
 7234 1edb 3F150000 		.4byte	.LASF423
 7235 1edf 20       		.byte	0x20
 7236 1ee0 3C       		.byte	0x3c
 7237 1ee1 E51E0000 		.4byte	0x1ee5
 7238 1ee5 0C       		.uleb128 0xc
ARM GAS  /tmp/cc5QaxCL.s 			page 128


 7239 1ee6 3F150000 		.4byte	.LASF423
 7240 1eea 10       		.byte	0x10
 7241 1eeb 21       		.byte	0x21
 7242 1eec 9701     		.2byte	0x197
 7243 1eee 271F0000 		.4byte	0x1f27
 7244 1ef2 0A       		.uleb128 0xa
 7245 1ef3 F1130000 		.4byte	.LASF333
 7246 1ef7 21       		.byte	0x21
 7247 1ef8 9B01     		.2byte	0x19b
 7248 1efa CF1E0000 		.4byte	0x1ecf
 7249 1efe 00       		.byte	0
 7250 1eff 0A       		.uleb128 0xa
 7251 1f00 FC180000 		.4byte	.LASF334
 7252 1f04 21       		.byte	0x21
 7253 1f05 9F01     		.2byte	0x19f
 7254 1f07 BC200000 		.4byte	0x20bc
 7255 1f0b 04       		.byte	0x4
 7256 1f0c 0A       		.uleb128 0xa
 7257 1f0d 280B0000 		.4byte	.LASF424
 7258 1f11 21       		.byte	0x21
 7259 1f12 A701     		.2byte	0x1a7
 7260 1f14 0B010000 		.4byte	0x10b
 7261 1f18 08       		.byte	0x8
 7262 1f19 09       		.uleb128 0x9
 7263 1f1a 74696D00 		.ascii	"tim\000"
 7264 1f1e 21       		.byte	0x21
 7265 1f1f AB01     		.2byte	0x1ab
 7266 1f21 C2200000 		.4byte	0x20c2
 7267 1f25 0C       		.byte	0xc
 7268 1f26 00       		.byte	0
 7269 1f27 03       		.uleb128 0x3
 7270 1f28 4C100000 		.4byte	.LASF425
 7271 1f2c 20       		.byte	0x20
 7272 1f2d 43       		.byte	0x43
 7273 1f2e 321F0000 		.4byte	0x1f32
 7274 1f32 0B       		.uleb128 0xb
 7275 1f33 04       		.byte	0x4
 7276 1f34 381F0000 		.4byte	0x1f38
 7277 1f38 0D       		.uleb128 0xd
 7278 1f39 431F0000 		.4byte	0x1f43
 7279 1f3d 0E       		.uleb128 0xe
 7280 1f3e 431F0000 		.4byte	0x1f43
 7281 1f42 00       		.byte	0
 7282 1f43 0B       		.uleb128 0xb
 7283 1f44 04       		.byte	0x4
 7284 1f45 DA1E0000 		.4byte	0x1eda
 7285 1f49 19       		.uleb128 0x19
 7286 1f4a 60       		.byte	0x60
 7287 1f4b 22       		.byte	0x22
 7288 1f4c 9E01     		.2byte	0x19e
 7289 1f4e 55200000 		.4byte	0x2055
 7290 1f52 09       		.uleb128 0x9
 7291 1f53 43523100 		.ascii	"CR1\000"
 7292 1f57 22       		.byte	0x22
 7293 1f58 9F01     		.2byte	0x19f
 7294 1f5a 16010000 		.4byte	0x116
 7295 1f5e 00       		.byte	0
ARM GAS  /tmp/cc5QaxCL.s 			page 129


 7296 1f5f 09       		.uleb128 0x9
 7297 1f60 43523200 		.ascii	"CR2\000"
 7298 1f64 22       		.byte	0x22
 7299 1f65 A001     		.2byte	0x1a0
 7300 1f67 16010000 		.4byte	0x116
 7301 1f6b 04       		.byte	0x4
 7302 1f6c 0A       		.uleb128 0xa
 7303 1f6d 7B1C0000 		.4byte	.LASF426
 7304 1f71 22       		.byte	0x22
 7305 1f72 A101     		.2byte	0x1a1
 7306 1f74 16010000 		.4byte	0x116
 7307 1f78 08       		.byte	0x8
 7308 1f79 0A       		.uleb128 0xa
 7309 1f7a FF080000 		.4byte	.LASF427
 7310 1f7e 22       		.byte	0x22
 7311 1f7f A201     		.2byte	0x1a2
 7312 1f81 16010000 		.4byte	0x116
 7313 1f85 0C       		.byte	0xc
 7314 1f86 09       		.uleb128 0x9
 7315 1f87 535200   		.ascii	"SR\000"
 7316 1f8a 22       		.byte	0x22
 7317 1f8b A301     		.2byte	0x1a3
 7318 1f8d 16010000 		.4byte	0x116
 7319 1f91 10       		.byte	0x10
 7320 1f92 09       		.uleb128 0x9
 7321 1f93 45475200 		.ascii	"EGR\000"
 7322 1f97 22       		.byte	0x22
 7323 1f98 A401     		.2byte	0x1a4
 7324 1f9a 16010000 		.4byte	0x116
 7325 1f9e 14       		.byte	0x14
 7326 1f9f 0A       		.uleb128 0xa
 7327 1fa0 24200000 		.4byte	.LASF428
 7328 1fa4 22       		.byte	0x22
 7329 1fa5 A501     		.2byte	0x1a5
 7330 1fa7 16010000 		.4byte	0x116
 7331 1fab 18       		.byte	0x18
 7332 1fac 0A       		.uleb128 0xa
 7333 1fad 2A200000 		.4byte	.LASF429
 7334 1fb1 22       		.byte	0x22
 7335 1fb2 A601     		.2byte	0x1a6
 7336 1fb4 16010000 		.4byte	0x116
 7337 1fb8 1C       		.byte	0x1c
 7338 1fb9 0A       		.uleb128 0xa
 7339 1fba 2F060000 		.4byte	.LASF430
 7340 1fbe 22       		.byte	0x22
 7341 1fbf A701     		.2byte	0x1a7
 7342 1fc1 16010000 		.4byte	0x116
 7343 1fc5 20       		.byte	0x20
 7344 1fc6 09       		.uleb128 0x9
 7345 1fc7 434E5400 		.ascii	"CNT\000"
 7346 1fcb 22       		.byte	0x22
 7347 1fcc A801     		.2byte	0x1a8
 7348 1fce 16010000 		.4byte	0x116
 7349 1fd2 24       		.byte	0x24
 7350 1fd3 09       		.uleb128 0x9
 7351 1fd4 50534300 		.ascii	"PSC\000"
 7352 1fd8 22       		.byte	0x22
ARM GAS  /tmp/cc5QaxCL.s 			page 130


 7353 1fd9 A901     		.2byte	0x1a9
 7354 1fdb 16010000 		.4byte	0x116
 7355 1fdf 28       		.byte	0x28
 7356 1fe0 09       		.uleb128 0x9
 7357 1fe1 41525200 		.ascii	"ARR\000"
 7358 1fe5 22       		.byte	0x22
 7359 1fe6 AA01     		.2byte	0x1aa
 7360 1fe8 16010000 		.4byte	0x116
 7361 1fec 2C       		.byte	0x2c
 7362 1fed 09       		.uleb128 0x9
 7363 1fee 52435200 		.ascii	"RCR\000"
 7364 1ff2 22       		.byte	0x22
 7365 1ff3 AB01     		.2byte	0x1ab
 7366 1ff5 16010000 		.4byte	0x116
 7367 1ff9 30       		.byte	0x30
 7368 1ffa 09       		.uleb128 0x9
 7369 1ffb 43435200 		.ascii	"CCR\000"
 7370 1fff 22       		.byte	0x22
 7371 2000 AC01     		.2byte	0x1ac
 7372 2002 140A0000 		.4byte	0xa14
 7373 2006 34       		.byte	0x34
 7374 2007 0A       		.uleb128 0xa
 7375 2008 36010000 		.4byte	.LASF431
 7376 200c 22       		.byte	0x22
 7377 200d AD01     		.2byte	0x1ad
 7378 200f 16010000 		.4byte	0x116
 7379 2013 44       		.byte	0x44
 7380 2014 09       		.uleb128 0x9
 7381 2015 44435200 		.ascii	"DCR\000"
 7382 2019 22       		.byte	0x22
 7383 201a AE01     		.2byte	0x1ae
 7384 201c 16010000 		.4byte	0x116
 7385 2020 48       		.byte	0x48
 7386 2021 0A       		.uleb128 0xa
 7387 2022 34140000 		.4byte	.LASF432
 7388 2026 22       		.byte	0x22
 7389 2027 AF01     		.2byte	0x1af
 7390 2029 16010000 		.4byte	0x116
 7391 202d 4C       		.byte	0x4c
 7392 202e 09       		.uleb128 0x9
 7393 202f 4F5200   		.ascii	"OR\000"
 7394 2032 22       		.byte	0x22
 7395 2033 B001     		.2byte	0x1b0
 7396 2035 16010000 		.4byte	0x116
 7397 2039 50       		.byte	0x50
 7398 203a 0A       		.uleb128 0xa
 7399 203b 30200000 		.4byte	.LASF433
 7400 203f 22       		.byte	0x22
 7401 2040 B101     		.2byte	0x1b1
 7402 2042 16010000 		.4byte	0x116
 7403 2046 54       		.byte	0x54
 7404 2047 0A       		.uleb128 0xa
 7405 2048 340B0000 		.4byte	.LASF434
 7406 204c 22       		.byte	0x22
 7407 204d B201     		.2byte	0x1b2
 7408 204f FF090000 		.4byte	0x9ff
 7409 2053 58       		.byte	0x58
ARM GAS  /tmp/cc5QaxCL.s 			page 131


 7410 2054 00       		.byte	0
 7411 2055 1A       		.uleb128 0x1a
 7412 2056 C01B0000 		.4byte	.LASF435
 7413 205a 22       		.byte	0x22
 7414 205b B301     		.2byte	0x1b3
 7415 205d 491F0000 		.4byte	0x1f49
 7416 2061 1A       		.uleb128 0x1a
 7417 2062 A9070000 		.4byte	.LASF436
 7418 2066 21       		.byte	0x21
 7419 2067 6D01     		.2byte	0x16d
 7420 2069 0B010000 		.4byte	0x10b
 7421 206d 19       		.uleb128 0x19
 7422 206e 10       		.byte	0x10
 7423 206f 21       		.byte	0x21
 7424 2070 7801     		.2byte	0x178
 7425 2072 AB200000 		.4byte	0x20ab
 7426 2076 0A       		.uleb128 0xa
 7427 2077 B61F0000 		.4byte	.LASF437
 7428 207b 21       		.byte	0x21
 7429 207c 7E01     		.2byte	0x17e
 7430 207e 61200000 		.4byte	0x2061
 7431 2082 00       		.byte	0
 7432 2083 0A       		.uleb128 0xa
 7433 2084 39140000 		.4byte	.LASF438
 7434 2088 21       		.byte	0x21
 7435 2089 8501     		.2byte	0x185
 7436 208b 271F0000 		.4byte	0x1f27
 7437 208f 04       		.byte	0x4
 7438 2090 09       		.uleb128 0x9
 7439 2091 63723200 		.ascii	"cr2\000"
 7440 2095 21       		.byte	0x21
 7441 2096 8B01     		.2byte	0x18b
 7442 2098 0B010000 		.4byte	0x10b
 7443 209c 08       		.byte	0x8
 7444 209d 0A       		.uleb128 0xa
 7445 209e A90A0000 		.4byte	.LASF439
 7446 20a2 21       		.byte	0x21
 7447 20a3 9101     		.2byte	0x191
 7448 20a5 0B010000 		.4byte	0x10b
 7449 20a9 0C       		.byte	0xc
 7450 20aa 00       		.byte	0
 7451 20ab 1A       		.uleb128 0x1a
 7452 20ac 72050000 		.4byte	.LASF440
 7453 20b0 21       		.byte	0x21
 7454 20b1 9201     		.2byte	0x192
 7455 20b3 6D200000 		.4byte	0x206d
 7456 20b7 05       		.uleb128 0x5
 7457 20b8 AB200000 		.4byte	0x20ab
 7458 20bc 0B       		.uleb128 0xb
 7459 20bd 04       		.byte	0x4
 7460 20be B7200000 		.4byte	0x20b7
 7461 20c2 0B       		.uleb128 0xb
 7462 20c3 04       		.byte	0x4
 7463 20c4 55200000 		.4byte	0x2055
 7464 20c8 15       		.uleb128 0x15
 7465 20c9 571F0000 		.4byte	.LASF441
 7466 20cd 21       		.byte	0x21
ARM GAS  /tmp/cc5QaxCL.s 			page 132


 7467 20ce F201     		.2byte	0x1f2
 7468 20d0 DA1E0000 		.4byte	0x1eda
 7469 20d4 15       		.uleb128 0x15
 7470 20d5 03190000 		.4byte	.LASF442
 7471 20d9 21       		.byte	0x21
 7472 20da 0202     		.2byte	0x202
 7473 20dc DA1E0000 		.4byte	0x1eda
 7474 20e0 15       		.uleb128 0x15
 7475 20e1 0A190000 		.4byte	.LASF443
 7476 20e5 21       		.byte	0x21
 7477 20e6 0A02     		.2byte	0x20a
 7478 20e8 DA1E0000 		.4byte	0x1eda
 7479 20ec 21       		.uleb128 0x21
 7480 20ed 07       		.byte	0x7
 7481 20ee 01       		.byte	0x1
 7482 20ef 69000000 		.4byte	0x69
 7483 20f3 23       		.byte	0x23
 7484 20f4 4C       		.byte	0x4c
 7485 20f5 1E210000 		.4byte	0x211e
 7486 20f9 22       		.uleb128 0x22
 7487 20fa 4A050000 		.4byte	.LASF444
 7488 20fe 00       		.byte	0
 7489 20ff 22       		.uleb128 0x22
 7490 2100 680C0000 		.4byte	.LASF445
 7491 2104 01       		.byte	0x1
 7492 2105 22       		.uleb128 0x22
 7493 2106 A3050000 		.4byte	.LASF446
 7494 210a 02       		.byte	0x2
 7495 210b 22       		.uleb128 0x22
 7496 210c B0030000 		.4byte	.LASF447
 7497 2110 03       		.byte	0x3
 7498 2111 22       		.uleb128 0x22
 7499 2112 9F020000 		.4byte	.LASF448
 7500 2116 04       		.byte	0x4
 7501 2117 22       		.uleb128 0x22
 7502 2118 C1110000 		.4byte	.LASF449
 7503 211c 05       		.byte	0x5
 7504 211d 00       		.byte	0
 7505 211e 03       		.uleb128 0x3
 7506 211f 11100000 		.4byte	.LASF450
 7507 2123 23       		.byte	0x23
 7508 2124 53       		.byte	0x53
 7509 2125 EC200000 		.4byte	0x20ec
 7510 2129 1A       		.uleb128 0x1a
 7511 212a 01040000 		.4byte	.LASF451
 7512 212e 24       		.byte	0x24
 7513 212f 6A01     		.2byte	0x16a
 7514 2131 F0000000 		.4byte	0xf0
 7515 2135 1A       		.uleb128 0x1a
 7516 2136 40030000 		.4byte	.LASF452
 7517 213a 24       		.byte	0x24
 7518 213b 6F01     		.2byte	0x16f
 7519 213d 0B010000 		.4byte	0x10b
 7520 2141 24       		.uleb128 0x24
 7521 2142 07       		.byte	0x7
 7522 2143 01       		.byte	0x1
 7523 2144 69000000 		.4byte	0x69
ARM GAS  /tmp/cc5QaxCL.s 			page 133


 7524 2148 24       		.byte	0x24
 7525 2149 7401     		.2byte	0x174
 7526 214b 62210000 		.4byte	0x2162
 7527 214f 22       		.uleb128 0x22
 7528 2150 C3030000 		.4byte	.LASF453
 7529 2154 01       		.byte	0x1
 7530 2155 22       		.uleb128 0x22
 7531 2156 50000000 		.4byte	.LASF454
 7532 215a 02       		.byte	0x2
 7533 215b 22       		.uleb128 0x22
 7534 215c 63080000 		.4byte	.LASF455
 7535 2160 03       		.byte	0x3
 7536 2161 00       		.byte	0
 7537 2162 1A       		.uleb128 0x1a
 7538 2163 6A200000 		.4byte	.LASF456
 7539 2167 24       		.byte	0x24
 7540 2168 7801     		.2byte	0x178
 7541 216a 41210000 		.4byte	0x2141
 7542 216e 24       		.uleb128 0x24
 7543 216f 07       		.byte	0x7
 7544 2170 01       		.byte	0x1
 7545 2171 69000000 		.4byte	0x69
 7546 2175 24       		.byte	0x24
 7547 2176 7D01     		.2byte	0x17d
 7548 2178 8F210000 		.4byte	0x218f
 7549 217c 22       		.uleb128 0x22
 7550 217d A0040000 		.4byte	.LASF457
 7551 2181 01       		.byte	0x1
 7552 2182 22       		.uleb128 0x22
 7553 2183 F91F0000 		.4byte	.LASF458
 7554 2187 02       		.byte	0x2
 7555 2188 22       		.uleb128 0x22
 7556 2189 4E090000 		.4byte	.LASF459
 7557 218d 03       		.byte	0x3
 7558 218e 00       		.byte	0
 7559 218f 1A       		.uleb128 0x1a
 7560 2190 B6050000 		.4byte	.LASF460
 7561 2194 24       		.byte	0x24
 7562 2195 8101     		.2byte	0x181
 7563 2197 6E210000 		.4byte	0x216e
 7564 219b 19       		.uleb128 0x19
 7565 219c 0C       		.byte	0xc
 7566 219d 24       		.byte	0x24
 7567 219e 8601     		.2byte	0x186
 7568 21a0 CC210000 		.4byte	0x21cc
 7569 21a4 0A       		.uleb128 0xa
 7570 21a5 0B130000 		.4byte	.LASF461
 7571 21a9 24       		.byte	0x24
 7572 21aa 8801     		.2byte	0x188
 7573 21ac 62210000 		.4byte	0x2162
 7574 21b0 00       		.byte	0
 7575 21b1 0A       		.uleb128 0xa
 7576 21b2 FD020000 		.4byte	.LASF462
 7577 21b6 24       		.byte	0x24
 7578 21b7 8901     		.2byte	0x189
 7579 21b9 0B010000 		.4byte	0x10b
 7580 21bd 04       		.byte	0x4
ARM GAS  /tmp/cc5QaxCL.s 			page 134


 7581 21be 0A       		.uleb128 0xa
 7582 21bf D8200000 		.4byte	.LASF463
 7583 21c3 24       		.byte	0x24
 7584 21c4 8C01     		.2byte	0x18c
 7585 21c6 8F210000 		.4byte	0x218f
 7586 21ca 08       		.byte	0x8
 7587 21cb 00       		.byte	0
 7588 21cc 1A       		.uleb128 0x1a
 7589 21cd 43010000 		.4byte	.LASF464
 7590 21d1 24       		.byte	0x24
 7591 21d2 8E01     		.2byte	0x18e
 7592 21d4 9B210000 		.4byte	0x219b
 7593 21d8 05       		.uleb128 0x5
 7594 21d9 CC210000 		.4byte	0x21cc
 7595 21dd 1A       		.uleb128 0x1a
 7596 21de A6030000 		.4byte	.LASF465
 7597 21e2 24       		.byte	0x24
 7598 21e3 9301     		.2byte	0x193
 7599 21e5 E9210000 		.4byte	0x21e9
 7600 21e9 0C       		.uleb128 0xc
 7601 21ea A6030000 		.4byte	.LASF465
 7602 21ee 3C       		.byte	0x3c
 7603 21ef 24       		.byte	0x24
 7604 21f0 9801     		.2byte	0x198
 7605 21f2 86220000 		.4byte	0x2286
 7606 21f6 0A       		.uleb128 0xa
 7607 21f7 F1130000 		.4byte	.LASF333
 7608 21fb 24       		.byte	0x24
 7609 21fc 9C01     		.2byte	0x19c
 7610 21fe 1E210000 		.4byte	0x211e
 7611 2202 00       		.byte	0
 7612 2203 0A       		.uleb128 0xa
 7613 2204 FC180000 		.4byte	.LASF334
 7614 2208 24       		.byte	0x24
 7615 2209 A001     		.2byte	0x1a0
 7616 220b 86220000 		.4byte	0x2286
 7617 220f 04       		.byte	0x4
 7618 2210 0A       		.uleb128 0xa
 7619 2211 E9000000 		.4byte	.LASF466
 7620 2215 24       		.byte	0x24
 7621 2216 A401     		.2byte	0x1a4
 7622 2218 35210000 		.4byte	0x2135
 7623 221c 08       		.byte	0x8
 7624 221d 0A       		.uleb128 0xa
 7625 221e FF0A0000 		.4byte	.LASF339
 7626 2222 24       		.byte	0x24
 7627 2223 A901     		.2byte	0x1a9
 7628 2225 BD110000 		.4byte	0x11bd
 7629 2229 0C       		.byte	0xc
 7630 222a 0A       		.uleb128 0xa
 7631 222b F3050000 		.4byte	.LASF338
 7632 222f 24       		.byte	0x24
 7633 2230 B201     		.2byte	0x1b2
 7634 2232 E8020000 		.4byte	0x2e8
 7635 2236 20       		.byte	0x20
 7636 2237 0A       		.uleb128 0xa
 7637 2238 710C0000 		.4byte	.LASF467
ARM GAS  /tmp/cc5QaxCL.s 			page 135


 7638 223c 24       		.byte	0x24
 7639 223d B601     		.2byte	0x1b6
 7640 223f 29210000 		.4byte	0x2129
 7641 2243 24       		.byte	0x24
 7642 2244 0A       		.uleb128 0xa
 7643 2245 5F070000 		.4byte	.LASF468
 7644 2249 24       		.byte	0x24
 7645 224a BA01     		.2byte	0x1ba
 7646 224c 0B010000 		.4byte	0x10b
 7647 2250 28       		.byte	0x28
 7648 2251 0A       		.uleb128 0xa
 7649 2252 9F070000 		.4byte	.LASF469
 7650 2256 24       		.byte	0x24
 7651 2257 BE01     		.2byte	0x1be
 7652 2259 0B010000 		.4byte	0x10b
 7653 225d 2C       		.byte	0x2c
 7654 225e 0A       		.uleb128 0xa
 7655 225f BF000000 		.4byte	.LASF470
 7656 2263 24       		.byte	0x24
 7657 2264 C201     		.2byte	0x1c2
 7658 2266 BC190000 		.4byte	0x19bc
 7659 226a 30       		.byte	0x30
 7660 226b 0A       		.uleb128 0xa
 7661 226c 56010000 		.4byte	.LASF471
 7662 2270 24       		.byte	0x24
 7663 2271 C601     		.2byte	0x1c6
 7664 2273 BC190000 		.4byte	0x19bc
 7665 2277 34       		.byte	0x34
 7666 2278 09       		.uleb128 0x9
 7667 2279 69326300 		.ascii	"i2c\000"
 7668 227d 24       		.byte	0x24
 7669 227e CA01     		.2byte	0x1ca
 7670 2280 8C220000 		.4byte	0x228c
 7671 2284 38       		.byte	0x38
 7672 2285 00       		.byte	0
 7673 2286 0B       		.uleb128 0xb
 7674 2287 04       		.byte	0x4
 7675 2288 D8210000 		.4byte	0x21d8
 7676 228c 0B       		.uleb128 0xb
 7677 228d 04       		.byte	0x4
 7678 228e A40A0000 		.4byte	0xaa4
 7679 2292 15       		.uleb128 0x15
 7680 2293 6A100000 		.4byte	.LASF472
 7681 2297 24       		.byte	0x24
 7682 2298 E001     		.2byte	0x1e0
 7683 229a DD210000 		.4byte	0x21dd
 7684 229e 21       		.uleb128 0x21
 7685 229f 07       		.byte	0x7
 7686 22a0 01       		.byte	0x1
 7687 22a1 69000000 		.4byte	0x69
 7688 22a5 25       		.byte	0x25
 7689 22a6 39       		.byte	0x39
 7690 22a7 CA220000 		.4byte	0x22ca
 7691 22ab 22       		.uleb128 0x22
 7692 22ac B80E0000 		.4byte	.LASF473
 7693 22b0 00       		.byte	0
 7694 22b1 22       		.uleb128 0x22
ARM GAS  /tmp/cc5QaxCL.s 			page 136


 7695 22b2 E50A0000 		.4byte	.LASF474
 7696 22b6 01       		.byte	0x1
 7697 22b7 22       		.uleb128 0x22
 7698 22b8 C5000000 		.4byte	.LASF475
 7699 22bc 02       		.byte	0x2
 7700 22bd 22       		.uleb128 0x22
 7701 22be 51160000 		.4byte	.LASF476
 7702 22c2 03       		.byte	0x3
 7703 22c3 22       		.uleb128 0x22
 7704 22c4 EC1A0000 		.4byte	.LASF477
 7705 22c8 04       		.byte	0x4
 7706 22c9 00       		.byte	0
 7707 22ca 03       		.uleb128 0x3
 7708 22cb DB1D0000 		.4byte	.LASF478
 7709 22cf 25       		.byte	0x25
 7710 22d0 3F       		.byte	0x3f
 7711 22d1 9E220000 		.4byte	0x229e
 7712 22d5 03       		.uleb128 0x3
 7713 22d6 CE200000 		.4byte	.LASF479
 7714 22da 26       		.byte	0x26
 7715 22db E2       		.byte	0xe2
 7716 22dc E0220000 		.4byte	0x22e0
 7717 22e0 0C       		.uleb128 0xc
 7718 22e1 CE200000 		.4byte	.LASF479
 7719 22e5 20       		.byte	0x20
 7720 22e6 26       		.byte	0x26
 7721 22e7 1B01     		.2byte	0x11b
 7722 22e9 56230000 		.4byte	0x2356
 7723 22ed 0A       		.uleb128 0xa
 7724 22ee F1130000 		.4byte	.LASF333
 7725 22f2 26       		.byte	0x26
 7726 22f3 1F01     		.2byte	0x11f
 7727 22f5 CA220000 		.4byte	0x22ca
 7728 22f9 00       		.byte	0
 7729 22fa 0A       		.uleb128 0xa
 7730 22fb FC180000 		.4byte	.LASF334
 7731 22ff 26       		.byte	0x26
 7732 2300 2301     		.2byte	0x123
 7733 2302 EE230000 		.4byte	0x23ee
 7734 2306 04       		.byte	0x4
 7735 2307 09       		.uleb128 0x9
 7736 2308 73706900 		.ascii	"spi\000"
 7737 230c 26       		.byte	0x26
 7738 230d 2801     		.2byte	0x128
 7739 230f F4230000 		.4byte	0x23f4
 7740 2313 08       		.byte	0x8
 7741 2314 09       		.uleb128 0x9
 7742 2315 63666700 		.ascii	"cfg\000"
 7743 2319 26       		.byte	0x26
 7744 231a 2C01     		.2byte	0x12c
 7745 231c F0000000 		.4byte	0xf0
 7746 2320 0C       		.byte	0xc
 7747 2321 0A       		.uleb128 0xa
 7748 2322 BF000000 		.4byte	.LASF470
 7749 2326 26       		.byte	0x26
 7750 2327 3001     		.2byte	0x130
 7751 2329 BC190000 		.4byte	0x19bc
ARM GAS  /tmp/cc5QaxCL.s 			page 137


 7752 232d 10       		.byte	0x10
 7753 232e 0A       		.uleb128 0xa
 7754 232f 56010000 		.4byte	.LASF471
 7755 2333 26       		.byte	0x26
 7756 2334 3401     		.2byte	0x134
 7757 2336 BC190000 		.4byte	0x19bc
 7758 233a 14       		.byte	0x14
 7759 233b 0A       		.uleb128 0xa
 7760 233c 5F070000 		.4byte	.LASF468
 7761 2340 26       		.byte	0x26
 7762 2341 3801     		.2byte	0x138
 7763 2343 0B010000 		.4byte	0x10b
 7764 2347 18       		.byte	0x18
 7765 2348 0A       		.uleb128 0xa
 7766 2349 9F070000 		.4byte	.LASF469
 7767 234d 26       		.byte	0x26
 7768 234e 3C01     		.2byte	0x13c
 7769 2350 0B010000 		.4byte	0x10b
 7770 2354 1C       		.byte	0x1c
 7771 2355 00       		.byte	0
 7772 2356 03       		.uleb128 0x3
 7773 2357 8B070000 		.4byte	.LASF480
 7774 235b 26       		.byte	0x26
 7775 235c EB       		.byte	0xeb
 7776 235d 61230000 		.4byte	0x2361
 7777 2361 0B       		.uleb128 0xb
 7778 2362 04       		.byte	0x4
 7779 2363 67230000 		.4byte	0x2367
 7780 2367 0D       		.uleb128 0xd
 7781 2368 7C230000 		.4byte	0x237c
 7782 236c 0E       		.uleb128 0xe
 7783 236d 7C230000 		.4byte	0x237c
 7784 2371 0E       		.uleb128 0xe
 7785 2372 2C000000 		.4byte	0x2c
 7786 2376 0E       		.uleb128 0xe
 7787 2377 2C000000 		.4byte	0x2c
 7788 237b 00       		.byte	0
 7789 237c 0B       		.uleb128 0xb
 7790 237d 04       		.byte	0x4
 7791 237e D5220000 		.4byte	0x22d5
 7792 2382 17       		.uleb128 0x17
 7793 2383 14       		.byte	0x14
 7794 2384 26       		.byte	0x26
 7795 2385 F1       		.byte	0xf1
 7796 2386 D6230000 		.4byte	0x23d6
 7797 238a 08       		.uleb128 0x8
 7798 238b 0B010000 		.4byte	.LASF481
 7799 238f 26       		.byte	0x26
 7800 2390 F6       		.byte	0xf6
 7801 2391 D6230000 		.4byte	0x23d6
 7802 2395 00       		.byte	0
 7803 2396 08       		.uleb128 0x8
 7804 2397 DF000000 		.4byte	.LASF482
 7805 239b 26       		.byte	0x26
 7806 239c FB       		.byte	0xfb
 7807 239d D0030000 		.4byte	0x3d0
 7808 23a1 04       		.byte	0x4
ARM GAS  /tmp/cc5QaxCL.s 			page 138


 7809 23a2 08       		.uleb128 0x8
 7810 23a3 050B0000 		.4byte	.LASF483
 7811 23a7 26       		.byte	0x26
 7812 23a8 FF       		.byte	0xff
 7813 23a9 2C000000 		.4byte	0x2c
 7814 23ad 08       		.byte	0x8
 7815 23ae 0A       		.uleb128 0xa
 7816 23af 08080000 		.4byte	.LASF346
 7817 23b3 26       		.byte	0x26
 7818 23b4 0301     		.2byte	0x103
 7819 23b6 56230000 		.4byte	0x2356
 7820 23ba 0C       		.byte	0xc
 7821 23bb 0A       		.uleb128 0xa
 7822 23bc 9D160000 		.4byte	.LASF484
 7823 23c0 26       		.byte	0x26
 7824 23c1 0F01     		.2byte	0x10f
 7825 23c3 E5000000 		.4byte	0xe5
 7826 23c7 10       		.byte	0x10
 7827 23c8 0A       		.uleb128 0xa
 7828 23c9 94050000 		.4byte	.LASF485
 7829 23cd 26       		.byte	0x26
 7830 23ce 1501     		.2byte	0x115
 7831 23d0 E5000000 		.4byte	0xe5
 7832 23d4 12       		.byte	0x12
 7833 23d5 00       		.byte	0
 7834 23d6 0B       		.uleb128 0xb
 7835 23d7 04       		.byte	0x4
 7836 23d8 DC230000 		.4byte	0x23dc
 7837 23dc 25       		.uleb128 0x25
 7838 23dd 1A       		.uleb128 0x1a
 7839 23de E3200000 		.4byte	.LASF486
 7840 23e2 26       		.byte	0x26
 7841 23e3 1601     		.2byte	0x116
 7842 23e5 82230000 		.4byte	0x2382
 7843 23e9 05       		.uleb128 0x5
 7844 23ea DD230000 		.4byte	0x23dd
 7845 23ee 0B       		.uleb128 0xb
 7846 23ef 04       		.byte	0x4
 7847 23f0 E9230000 		.4byte	0x23e9
 7848 23f4 0B       		.uleb128 0xb
 7849 23f5 04       		.byte	0x4
 7850 23f6 570C0000 		.4byte	0xc57
 7851 23fa 15       		.uleb128 0x15
 7852 23fb 27210000 		.4byte	.LASF487
 7853 23ff 26       		.byte	0x26
 7854 2400 4801     		.2byte	0x148
 7855 2402 D5220000 		.4byte	0x22d5
 7856 2406 21       		.uleb128 0x21
 7857 2407 07       		.byte	0x7
 7858 2408 01       		.byte	0x1
 7859 2409 69000000 		.4byte	0x69
 7860 240d 27       		.byte	0x27
 7861 240e 4A       		.byte	0x4a
 7862 240f 26240000 		.4byte	0x2426
 7863 2413 22       		.uleb128 0x22
 7864 2414 3A060000 		.4byte	.LASF488
 7865 2418 00       		.byte	0
ARM GAS  /tmp/cc5QaxCL.s 			page 139


 7866 2419 22       		.uleb128 0x22
 7867 241a EE0A0000 		.4byte	.LASF489
 7868 241e 01       		.byte	0x1
 7869 241f 22       		.uleb128 0x22
 7870 2420 DF0E0000 		.4byte	.LASF490
 7871 2424 02       		.byte	0x2
 7872 2425 00       		.byte	0
 7873 2426 03       		.uleb128 0x3
 7874 2427 C0020000 		.4byte	.LASF491
 7875 242b 27       		.byte	0x27
 7876 242c 4E       		.byte	0x4e
 7877 242d 06240000 		.4byte	0x2406
 7878 2431 03       		.uleb128 0x3
 7879 2432 2C0A0000 		.4byte	.LASF492
 7880 2436 27       		.byte	0x27
 7881 2437 53       		.byte	0x53
 7882 2438 3C240000 		.4byte	0x243c
 7883 243c 0C       		.uleb128 0xc
 7884 243d 2C0A0000 		.4byte	.LASF492
 7885 2441 1C       		.byte	0x1c
 7886 2442 28       		.byte	0x28
 7887 2443 7901     		.2byte	0x179
 7888 2445 A5240000 		.4byte	0x24a5
 7889 2449 0A       		.uleb128 0xa
 7890 244a F1130000 		.4byte	.LASF333
 7891 244e 28       		.byte	0x28
 7892 244f 7D01     		.2byte	0x17d
 7893 2451 26240000 		.4byte	0x2426
 7894 2455 00       		.byte	0
 7895 2456 0A       		.uleb128 0xa
 7896 2457 FC180000 		.4byte	.LASF334
 7897 245b 28       		.byte	0x28
 7898 245c 8101     		.2byte	0x181
 7899 245e A0250000 		.4byte	0x25a0
 7900 2462 04       		.byte	0x4
 7901 2463 0A       		.uleb128 0xa
 7902 2464 BA110000 		.4byte	.LASF493
 7903 2468 28       		.byte	0x28
 7904 2469 8501     		.2byte	0x185
 7905 246b EB240000 		.4byte	0x24eb
 7906 246f 08       		.byte	0x8
 7907 2470 0A       		.uleb128 0xa
 7908 2471 22170000 		.4byte	.LASF494
 7909 2475 28       		.byte	0x28
 7910 2476 8901     		.2byte	0x189
 7911 2478 DF240000 		.4byte	0x24df
 7912 247c 0C       		.byte	0xc
 7913 247d 0A       		.uleb128 0xa
 7914 247e 5F1D0000 		.4byte	.LASF414
 7915 2482 28       		.byte	0x28
 7916 2483 8D01     		.2byte	0x18d
 7917 2485 D3240000 		.4byte	0x24d3
 7918 2489 10       		.byte	0x10
 7919 248a 0A       		.uleb128 0xa
 7920 248b 280B0000 		.4byte	.LASF424
 7921 248f 28       		.byte	0x28
 7922 2490 9501     		.2byte	0x195
ARM GAS  /tmp/cc5QaxCL.s 			page 140


 7923 2492 0B010000 		.4byte	0x10b
 7924 2496 14       		.byte	0x14
 7925 2497 09       		.uleb128 0x9
 7926 2498 74696D00 		.ascii	"tim\000"
 7927 249c 28       		.byte	0x28
 7928 249d 9901     		.2byte	0x199
 7929 249f C2200000 		.4byte	0x20c2
 7930 24a3 18       		.byte	0x18
 7931 24a4 00       		.byte	0
 7932 24a5 03       		.uleb128 0x3
 7933 24a6 C70F0000 		.4byte	.LASF495
 7934 24aa 27       		.byte	0x27
 7935 24ab 5A       		.byte	0x5a
 7936 24ac B0240000 		.4byte	0x24b0
 7937 24b0 0B       		.uleb128 0xb
 7938 24b1 04       		.byte	0x4
 7939 24b2 B6240000 		.4byte	0x24b6
 7940 24b6 0D       		.uleb128 0xd
 7941 24b7 C1240000 		.4byte	0x24c1
 7942 24bb 0E       		.uleb128 0xe
 7943 24bc C1240000 		.4byte	0x24c1
 7944 24c0 00       		.byte	0
 7945 24c1 0B       		.uleb128 0xb
 7946 24c2 04       		.byte	0x4
 7947 24c3 31240000 		.4byte	0x2431
 7948 24c7 1A       		.uleb128 0x1a
 7949 24c8 52130000 		.4byte	.LASF496
 7950 24cc 28       		.byte	0x28
 7951 24cd 2501     		.2byte	0x125
 7952 24cf 0B010000 		.4byte	0x10b
 7953 24d3 1A       		.uleb128 0x1a
 7954 24d4 F8140000 		.4byte	.LASF497
 7955 24d8 28       		.byte	0x28
 7956 24d9 2A01     		.2byte	0x12a
 7957 24db D5000000 		.4byte	0xd5
 7958 24df 1A       		.uleb128 0x1a
 7959 24e0 2F020000 		.4byte	.LASF498
 7960 24e4 28       		.byte	0x28
 7961 24e5 2F01     		.2byte	0x12f
 7962 24e7 0B010000 		.4byte	0x10b
 7963 24eb 1A       		.uleb128 0x1a
 7964 24ec D80B0000 		.4byte	.LASF499
 7965 24f0 28       		.byte	0x28
 7966 24f1 3401     		.2byte	0x134
 7967 24f3 0B010000 		.4byte	0x10b
 7968 24f7 19       		.uleb128 0x19
 7969 24f8 08       		.byte	0x8
 7970 24f9 28       		.byte	0x28
 7971 24fa 3901     		.2byte	0x139
 7972 24fc 1B250000 		.4byte	0x251b
 7973 2500 0A       		.uleb128 0xa
 7974 2501 69070000 		.4byte	.LASF412
 7975 2505 28       		.byte	0x28
 7976 2506 3D01     		.2byte	0x13d
 7977 2508 C7240000 		.4byte	0x24c7
 7978 250c 00       		.byte	0
 7979 250d 0A       		.uleb128 0xa
ARM GAS  /tmp/cc5QaxCL.s 			page 141


 7980 250e 39140000 		.4byte	.LASF438
 7981 2512 28       		.byte	0x28
 7982 2513 4301     		.2byte	0x143
 7983 2515 A5240000 		.4byte	0x24a5
 7984 2519 04       		.byte	0x4
 7985 251a 00       		.byte	0
 7986 251b 1A       		.uleb128 0x1a
 7987 251c C70B0000 		.4byte	.LASF500
 7988 2520 28       		.byte	0x28
 7989 2521 4501     		.2byte	0x145
 7990 2523 F7240000 		.4byte	0x24f7
 7991 2527 19       		.uleb128 0x19
 7992 2528 34       		.byte	0x34
 7993 2529 28       		.byte	0x28
 7994 252a 4A01     		.2byte	0x14a
 7995 252c 7F250000 		.4byte	0x257f
 7996 2530 0A       		.uleb128 0xa
 7997 2531 B61F0000 		.4byte	.LASF437
 7998 2535 28       		.byte	0x28
 7999 2536 5001     		.2byte	0x150
 8000 2538 0B010000 		.4byte	0x10b
 8001 253c 00       		.byte	0
 8002 253d 0A       		.uleb128 0xa
 8003 253e BA110000 		.4byte	.LASF493
 8004 2542 28       		.byte	0x28
 8005 2543 5601     		.2byte	0x156
 8006 2545 EB240000 		.4byte	0x24eb
 8007 2549 04       		.byte	0x4
 8008 254a 0A       		.uleb128 0xa
 8009 254b 39140000 		.4byte	.LASF438
 8010 254f 28       		.byte	0x28
 8011 2550 5C01     		.2byte	0x15c
 8012 2552 A5240000 		.4byte	0x24a5
 8013 2556 08       		.byte	0x8
 8014 2557 0A       		.uleb128 0xa
 8015 2558 5F1D0000 		.4byte	.LASF414
 8016 255c 28       		.byte	0x28
 8017 255d 6001     		.2byte	0x160
 8018 255f 7F250000 		.4byte	0x257f
 8019 2563 0C       		.byte	0xc
 8020 2564 09       		.uleb128 0x9
 8021 2565 63723200 		.ascii	"cr2\000"
 8022 2569 28       		.byte	0x28
 8023 256a 6601     		.2byte	0x166
 8024 256c 0B010000 		.4byte	0x10b
 8025 2570 2C       		.byte	0x2c
 8026 2571 0A       		.uleb128 0xa
 8027 2572 A90A0000 		.4byte	.LASF439
 8028 2576 28       		.byte	0x28
 8029 2577 7301     		.2byte	0x173
 8030 2579 0B010000 		.4byte	0x10b
 8031 257d 30       		.byte	0x30
 8032 257e 00       		.byte	0
 8033 257f 13       		.uleb128 0x13
 8034 2580 1B250000 		.4byte	0x251b
 8035 2584 8F250000 		.4byte	0x258f
 8036 2588 14       		.uleb128 0x14
ARM GAS  /tmp/cc5QaxCL.s 			page 142


 8037 2589 37000000 		.4byte	0x37
 8038 258d 03       		.byte	0x3
 8039 258e 00       		.byte	0
 8040 258f 1A       		.uleb128 0x1a
 8041 2590 3D0A0000 		.4byte	.LASF501
 8042 2594 28       		.byte	0x28
 8043 2595 7401     		.2byte	0x174
 8044 2597 27250000 		.4byte	0x2527
 8045 259b 05       		.uleb128 0x5
 8046 259c 8F250000 		.4byte	0x258f
 8047 25a0 0B       		.uleb128 0xb
 8048 25a1 04       		.byte	0x4
 8049 25a2 9B250000 		.4byte	0x259b
 8050 25a6 15       		.uleb128 0x15
 8051 25a7 9B100000 		.4byte	.LASF502
 8052 25ab 28       		.byte	0x28
 8053 25ac BC01     		.2byte	0x1bc
 8054 25ae 31240000 		.4byte	0x2431
 8055 25b2 15       		.uleb128 0x15
 8056 25b3 A1100000 		.4byte	.LASF503
 8057 25b7 28       		.byte	0x28
 8058 25b8 C001     		.2byte	0x1c0
 8059 25ba 31240000 		.4byte	0x2431
 8060 25be 15       		.uleb128 0x15
 8061 25bf A7100000 		.4byte	.LASF504
 8062 25c3 28       		.byte	0x28
 8063 25c4 C401     		.2byte	0x1c4
 8064 25c6 31240000 		.4byte	0x2431
 8065 25ca 15       		.uleb128 0x15
 8066 25cb AD100000 		.4byte	.LASF505
 8067 25cf 28       		.byte	0x28
 8068 25d0 C801     		.2byte	0x1c8
 8069 25d2 31240000 		.4byte	0x2431
 8070 25d6 21       		.uleb128 0x21
 8071 25d7 07       		.byte	0x7
 8072 25d8 01       		.byte	0x1
 8073 25d9 69000000 		.4byte	0x69
 8074 25dd 29       		.byte	0x29
 8075 25de 55       		.byte	0x55
 8076 25df F6250000 		.4byte	0x25f6
 8077 25e3 22       		.uleb128 0x22
 8078 25e4 7C050000 		.4byte	.LASF506
 8079 25e8 00       		.byte	0
 8080 25e9 22       		.uleb128 0x22
 8081 25ea 680B0000 		.4byte	.LASF507
 8082 25ee 01       		.byte	0x1
 8083 25ef 22       		.uleb128 0x22
 8084 25f0 350D0000 		.4byte	.LASF508
 8085 25f4 02       		.byte	0x2
 8086 25f5 00       		.byte	0
 8087 25f6 03       		.uleb128 0x3
 8088 25f7 D6150000 		.4byte	.LASF509
 8089 25fb 29       		.byte	0x29
 8090 25fc 59       		.byte	0x59
 8091 25fd D6250000 		.4byte	0x25d6
 8092 2601 03       		.uleb128 0x3
 8093 2602 7F1D0000 		.4byte	.LASF510
ARM GAS  /tmp/cc5QaxCL.s 			page 143


 8094 2606 29       		.byte	0x29
 8095 2607 5E       		.byte	0x5e
 8096 2608 0C260000 		.4byte	0x260c
 8097 260c 26       		.uleb128 0x26
 8098 260d 7F1D0000 		.4byte	.LASF510
 8099 2611 5801     		.2byte	0x158
 8100 2613 29       		.byte	0x29
 8101 2614 78       		.byte	0x78
 8102 2615 79260000 		.4byte	0x2679
 8103 2619 18       		.uleb128 0x18
 8104 261a 766D7400 		.ascii	"vmt\000"
 8105 261e 29       		.byte	0x29
 8106 261f 7A       		.byte	0x7a
 8107 2620 F7260000 		.4byte	0x26f7
 8108 2624 00       		.byte	0
 8109 2625 08       		.uleb128 0x8
 8110 2626 32000000 		.4byte	.LASF511
 8111 262a 29       		.byte	0x29
 8112 262b 7B       		.byte	0x7b
 8113 262c 41120000 		.4byte	0x1241
 8114 2630 04       		.byte	0x4
 8115 2631 08       		.uleb128 0x8
 8116 2632 F1130000 		.4byte	.LASF333
 8117 2636 29       		.byte	0x29
 8118 2637 7B       		.byte	0x7b
 8119 2638 F6250000 		.4byte	0x25f6
 8120 263c 08       		.byte	0x8
 8121 263d 08       		.uleb128 0x8
 8122 263e B7150000 		.4byte	.LASF512
 8123 2642 29       		.byte	0x29
 8124 2643 7B       		.byte	0x7b
 8125 2644 EC120000 		.4byte	0x12ec
 8126 2648 0C       		.byte	0xc
 8127 2649 08       		.uleb128 0x8
 8128 264a C8100000 		.4byte	.LASF513
 8129 264e 29       		.byte	0x29
 8130 264f 7B       		.byte	0x7b
 8131 2650 F7120000 		.4byte	0x12f7
 8132 2654 30       		.byte	0x30
 8133 2655 18       		.uleb128 0x18
 8134 2656 696200   		.ascii	"ib\000"
 8135 2659 29       		.byte	0x29
 8136 265a 7B       		.byte	0x7b
 8137 265b FD260000 		.4byte	0x26fd
 8138 265f 54       		.byte	0x54
 8139 2660 18       		.uleb128 0x18
 8140 2661 6F6200   		.ascii	"ob\000"
 8141 2664 29       		.byte	0x29
 8142 2665 7B       		.byte	0x7b
 8143 2666 FD260000 		.4byte	0x26fd
 8144 266a D4       		.byte	0xd4
 8145 266b 27       		.uleb128 0x27
 8146 266c 4A170000 		.4byte	.LASF514
 8147 2670 29       		.byte	0x29
 8148 2671 7B       		.byte	0x7b
 8149 2672 0D270000 		.4byte	0x270d
 8150 2676 5401     		.2byte	0x154
ARM GAS  /tmp/cc5QaxCL.s 			page 144


 8151 2678 00       		.byte	0
 8152 2679 1F       		.uleb128 0x1f
 8153 267a 53443300 		.ascii	"SD3\000"
 8154 267e 2A       		.byte	0x2a
 8155 267f 1501     		.2byte	0x115
 8156 2681 01260000 		.4byte	0x2601
 8157 2685 07       		.uleb128 0x7
 8158 2686 E00C0000 		.4byte	.LASF515
 8159 268a 20       		.byte	0x20
 8160 268b 29       		.byte	0x29
 8161 268c 6D       		.byte	0x6d
 8162 268d F2260000 		.4byte	0x26f2
 8163 2691 08       		.uleb128 0x8
 8164 2692 B1150000 		.4byte	.LASF516
 8165 2696 29       		.byte	0x29
 8166 2697 6E       		.byte	0x6e
 8167 2698 21130000 		.4byte	0x1321
 8168 269c 00       		.byte	0
 8169 269d 08       		.uleb128 0x8
 8170 269e BE030000 		.4byte	.LASF517
 8171 26a2 29       		.byte	0x29
 8172 26a3 6E       		.byte	0x6e
 8173 26a4 40130000 		.4byte	0x1340
 8174 26a8 04       		.byte	0x4
 8175 26a9 18       		.uleb128 0x18
 8176 26aa 70757400 		.ascii	"put\000"
 8177 26ae 29       		.byte	0x29
 8178 26af 6E       		.byte	0x6e
 8179 26b0 5A130000 		.4byte	0x135a
 8180 26b4 08       		.byte	0x8
 8181 26b5 18       		.uleb128 0x18
 8182 26b6 67657400 		.ascii	"get\000"
 8183 26ba 29       		.byte	0x29
 8184 26bb 6E       		.byte	0x6e
 8185 26bc 6F130000 		.4byte	0x136f
 8186 26c0 0C       		.byte	0xc
 8187 26c1 08       		.uleb128 0x8
 8188 26c2 6E120000 		.4byte	.LASF518
 8189 26c6 29       		.byte	0x29
 8190 26c7 6E       		.byte	0x6e
 8191 26c8 10140000 		.4byte	0x1410
 8192 26cc 10       		.byte	0x10
 8193 26cd 08       		.uleb128 0x8
 8194 26ce 96150000 		.4byte	.LASF519
 8195 26d2 29       		.byte	0x29
 8196 26d3 6E       		.byte	0x6e
 8197 26d4 2A140000 		.4byte	0x142a
 8198 26d8 14       		.byte	0x14
 8199 26d9 08       		.uleb128 0x8
 8200 26da 2C1E0000 		.4byte	.LASF520
 8201 26de 29       		.byte	0x29
 8202 26df 6E       		.byte	0x6e
 8203 26e0 4E140000 		.4byte	0x144e
 8204 26e4 18       		.byte	0x18
 8205 26e5 08       		.uleb128 0x8
 8206 26e6 DE110000 		.4byte	.LASF521
 8207 26ea 29       		.byte	0x29
ARM GAS  /tmp/cc5QaxCL.s 			page 145


 8208 26eb 6E       		.byte	0x6e
 8209 26ec 72140000 		.4byte	0x1472
 8210 26f0 1C       		.byte	0x1c
 8211 26f1 00       		.byte	0
 8212 26f2 05       		.uleb128 0x5
 8213 26f3 85260000 		.4byte	0x2685
 8214 26f7 0B       		.uleb128 0xb
 8215 26f8 04       		.byte	0x4
 8216 26f9 F2260000 		.4byte	0x26f2
 8217 26fd 13       		.uleb128 0x13
 8218 26fe D5000000 		.4byte	0xd5
 8219 2702 0D270000 		.4byte	0x270d
 8220 2706 14       		.uleb128 0x14
 8221 2707 37000000 		.4byte	0x37
 8222 270b 7F       		.byte	0x7f
 8223 270c 00       		.byte	0
 8224 270d 0B       		.uleb128 0xb
 8225 270e 04       		.byte	0x4
 8226 270f C60C0000 		.4byte	0xcc6
 8227 2713 21       		.uleb128 0x21
 8228 2714 07       		.byte	0x7
 8229 2715 01       		.byte	0x1
 8230 2716 69000000 		.4byte	0x69
 8231 271a 2B       		.byte	0x2b
 8232 271b 6C       		.byte	0x6c
 8233 271c 33270000 		.4byte	0x2733
 8234 2720 22       		.uleb128 0x22
 8235 2721 8A020000 		.4byte	.LASF522
 8236 2725 00       		.byte	0
 8237 2726 22       		.uleb128 0x22
 8238 2727 68130000 		.4byte	.LASF523
 8239 272b 01       		.byte	0x1
 8240 272c 22       		.uleb128 0x22
 8241 272d 7C110000 		.4byte	.LASF524
 8242 2731 02       		.byte	0x2
 8243 2732 00       		.byte	0
 8244 2733 03       		.uleb128 0x3
 8245 2734 EF170000 		.4byte	.LASF525
 8246 2738 2B       		.byte	0x2b
 8247 2739 70       		.byte	0x70
 8248 273a 13270000 		.4byte	0x2713
 8249 273e 03       		.uleb128 0x3
 8250 273f 5B170000 		.4byte	.LASF526
 8251 2743 2C       		.byte	0x2c
 8252 2744 BF       		.byte	0xbf
 8253 2745 0B010000 		.4byte	0x10b
 8254 2749 03       		.uleb128 0x3
 8255 274a 49150000 		.4byte	.LASF527
 8256 274e 2C       		.byte	0x2c
 8257 274f C4       		.byte	0xc4
 8258 2750 0B010000 		.4byte	0x10b
 8259 2754 03       		.uleb128 0x3
 8260 2755 6E1D0000 		.4byte	.LASF528
 8261 2759 2C       		.byte	0x2c
 8262 275a C9       		.byte	0xc9
 8263 275b 5F270000 		.4byte	0x275f
 8264 275f 07       		.uleb128 0x7
ARM GAS  /tmp/cc5QaxCL.s 			page 146


 8265 2760 6E1D0000 		.4byte	.LASF528
 8266 2764 4C       		.byte	0x4c
 8267 2765 2C       		.byte	0x2c
 8268 2766 F2       		.byte	0xf2
 8269 2767 0E280000 		.4byte	0x280e
 8270 276b 18       		.uleb128 0x18
 8271 276c 766D7400 		.ascii	"vmt\000"
 8272 2770 2C       		.byte	0x2c
 8273 2771 F6       		.byte	0xf6
 8274 2772 B1280000 		.4byte	0x28b1
 8275 2776 00       		.byte	0
 8276 2777 08       		.uleb128 0x8
 8277 2778 F1130000 		.4byte	.LASF333
 8278 277c 2C       		.byte	0x2c
 8279 277d F7       		.byte	0xf7
 8280 277e BC140000 		.4byte	0x14bc
 8281 2782 04       		.byte	0x4
 8282 2783 18       		.uleb128 0x18
 8283 2784 63696400 		.ascii	"cid\000"
 8284 2788 2C       		.byte	0x2c
 8285 2789 F7       		.byte	0xf7
 8286 278a 77150000 		.4byte	0x1577
 8287 278e 08       		.byte	0x8
 8288 278f 18       		.uleb128 0x18
 8289 2790 63736400 		.ascii	"csd\000"
 8290 2794 2C       		.byte	0x2c
 8291 2795 F7       		.byte	0xf7
 8292 2796 77150000 		.4byte	0x1577
 8293 279a 18       		.byte	0x18
 8294 279b 08       		.uleb128 0x8
 8295 279c 9C190000 		.4byte	.LASF529
 8296 27a0 2C       		.byte	0x2c
 8297 27a1 F7       		.byte	0xf7
 8298 27a2 0B010000 		.4byte	0x10b
 8299 27a6 28       		.byte	0x28
 8300 27a7 08       		.uleb128 0x8
 8301 27a8 FC180000 		.4byte	.LASF334
 8302 27ac 2C       		.byte	0x2c
 8303 27ad FB       		.byte	0xfb
 8304 27ae B7280000 		.4byte	0x28b7
 8305 27b2 2C       		.byte	0x2c
 8306 27b3 08       		.uleb128 0x8
 8307 27b4 1F130000 		.4byte	.LASF530
 8308 27b8 2C       		.byte	0x2c
 8309 27b9 FF       		.byte	0xff
 8310 27ba 3E270000 		.4byte	0x273e
 8311 27be 30       		.byte	0x30
 8312 27bf 0A       		.uleb128 0xa
 8313 27c0 E9000000 		.4byte	.LASF466
 8314 27c4 2C       		.byte	0x2c
 8315 27c5 0301     		.2byte	0x103
 8316 27c7 49270000 		.4byte	0x2749
 8317 27cb 34       		.byte	0x34
 8318 27cc 09       		.uleb128 0x9
 8319 27cd 72636100 		.ascii	"rca\000"
 8320 27d1 2C       		.byte	0x2c
 8321 27d2 0701     		.2byte	0x107
ARM GAS  /tmp/cc5QaxCL.s 			page 147


 8322 27d4 0B010000 		.4byte	0x10b
 8323 27d8 38       		.byte	0x38
 8324 27d9 0A       		.uleb128 0xa
 8325 27da F3050000 		.4byte	.LASF338
 8326 27de 2C       		.byte	0x2c
 8327 27df 0C01     		.2byte	0x10c
 8328 27e1 E8020000 		.4byte	0x2e8
 8329 27e5 3C       		.byte	0x3c
 8330 27e6 0A       		.uleb128 0xa
 8331 27e7 7D150000 		.4byte	.LASF341
 8332 27eb 2C       		.byte	0x2c
 8333 27ec 1001     		.2byte	0x110
 8334 27ee 0B010000 		.4byte	0x10b
 8335 27f2 40       		.byte	0x40
 8336 27f3 09       		.uleb128 0x9
 8337 27f4 646D6100 		.ascii	"dma\000"
 8338 27f8 2C       		.byte	0x2c
 8339 27f9 1401     		.2byte	0x114
 8340 27fb BC190000 		.4byte	0x19bc
 8341 27ff 44       		.byte	0x44
 8342 2800 0A       		.uleb128 0xa
 8343 2801 02140000 		.4byte	.LASF531
 8344 2805 2C       		.byte	0x2c
 8345 2806 1901     		.2byte	0x119
 8346 2808 BD280000 		.4byte	0x28bd
 8347 280c 48       		.byte	0x48
 8348 280d 00       		.byte	0
 8349 280e 17       		.uleb128 0x17
 8350 280f 08       		.byte	0x8
 8351 2810 2C       		.byte	0x2c
 8352 2811 CF       		.byte	0xcf
 8353 2812 2F280000 		.4byte	0x282f
 8354 2816 08       		.uleb128 0x8
 8355 2817 2C0C0000 		.4byte	.LASF532
 8356 281b 2C       		.byte	0x2c
 8357 281c D8       		.byte	0xd8
 8358 281d E6120000 		.4byte	0x12e6
 8359 2821 00       		.byte	0
 8360 2822 08       		.uleb128 0x8
 8361 2823 C11E0000 		.4byte	.LASF533
 8362 2827 2C       		.byte	0x2c
 8363 2828 DC       		.byte	0xdc
 8364 2829 33270000 		.4byte	0x2733
 8365 282d 04       		.byte	0x4
 8366 282e 00       		.byte	0
 8367 282f 03       		.uleb128 0x3
 8368 2830 B1130000 		.4byte	.LASF534
 8369 2834 2C       		.byte	0x2c
 8370 2835 DE       		.byte	0xde
 8371 2836 0E280000 		.4byte	0x280e
 8372 283a 05       		.uleb128 0x5
 8373 283b 2F280000 		.4byte	0x282f
 8374 283f 07       		.uleb128 0x7
 8375 2840 D71E0000 		.4byte	.LASF535
 8376 2844 20       		.byte	0x20
 8377 2845 2C       		.byte	0x2c
 8378 2846 EB       		.byte	0xeb
ARM GAS  /tmp/cc5QaxCL.s 			page 148


 8379 2847 AC280000 		.4byte	0x28ac
 8380 284b 08       		.uleb128 0x8
 8381 284c 2D210000 		.4byte	.LASF536
 8382 2850 2C       		.byte	0x2c
 8383 2851 EC       		.byte	0xec
 8384 2852 09150000 		.4byte	0x1509
 8385 2856 00       		.byte	0
 8386 2857 08       		.uleb128 0x8
 8387 2858 AE0A0000 		.4byte	.LASF537
 8388 285c 2C       		.byte	0x2c
 8389 285d EC       		.byte	0xec
 8390 285e 09150000 		.4byte	0x1509
 8391 2862 04       		.byte	0x4
 8392 2863 08       		.uleb128 0x8
 8393 2864 FE0C0000 		.4byte	.LASF538
 8394 2868 2C       		.byte	0x2c
 8395 2869 EC       		.byte	0xec
 8396 286a 09150000 		.4byte	0x1509
 8397 286e 08       		.byte	0x8
 8398 286f 08       		.uleb128 0x8
 8399 2870 63120000 		.4byte	.LASF539
 8400 2874 2C       		.byte	0x2c
 8401 2875 EC       		.byte	0xec
 8402 2876 09150000 		.4byte	0x1509
 8403 287a 0C       		.byte	0xc
 8404 287b 08       		.uleb128 0x8
 8405 287c BE030000 		.4byte	.LASF517
 8406 2880 2C       		.byte	0x2c
 8407 2881 EC       		.byte	0xec
 8408 2882 2D150000 		.4byte	0x152d
 8409 2886 10       		.byte	0x10
 8410 2887 08       		.uleb128 0x8
 8411 2888 B1150000 		.4byte	.LASF516
 8412 288c 2C       		.byte	0x2c
 8413 288d EC       		.byte	0xec
 8414 288e 51150000 		.4byte	0x1551
 8415 2892 14       		.byte	0x14
 8416 2893 08       		.uleb128 0x8
 8417 2894 45170000 		.4byte	.LASF540
 8418 2898 2C       		.byte	0x2c
 8419 2899 EC       		.byte	0xec
 8420 289a 09150000 		.4byte	0x1509
 8421 289e 18       		.byte	0x18
 8422 289f 08       		.uleb128 0x8
 8423 28a0 771E0000 		.4byte	.LASF541
 8424 28a4 2C       		.byte	0x2c
 8425 28a5 EC       		.byte	0xec
 8426 28a6 71150000 		.4byte	0x1571
 8427 28aa 1C       		.byte	0x1c
 8428 28ab 00       		.byte	0
 8429 28ac 05       		.uleb128 0x5
 8430 28ad 3F280000 		.4byte	0x283f
 8431 28b1 0B       		.uleb128 0xb
 8432 28b2 04       		.byte	0x4
 8433 28b3 AC280000 		.4byte	0x28ac
 8434 28b7 0B       		.uleb128 0xb
 8435 28b8 04       		.byte	0x4
ARM GAS  /tmp/cc5QaxCL.s 			page 149


 8436 28b9 3A280000 		.4byte	0x283a
 8437 28bd 0B       		.uleb128 0xb
 8438 28be 04       		.byte	0x4
 8439 28bf CE0B0000 		.4byte	0xbce
 8440 28c3 15       		.uleb128 0x15
 8441 28c4 DC080000 		.4byte	.LASF542
 8442 28c8 2C       		.byte	0x2c
 8443 28c9 2501     		.2byte	0x125
 8444 28cb 54270000 		.4byte	0x2754
 8445 28cf 21       		.uleb128 0x21
 8446 28d0 07       		.byte	0x7
 8447 28d1 01       		.byte	0x1
 8448 28d2 69000000 		.4byte	0x69
 8449 28d6 2D       		.byte	0x2d
 8450 28d7 46       		.byte	0x46
 8451 28d8 FB280000 		.4byte	0x28fb
 8452 28dc 22       		.uleb128 0x22
 8453 28dd 09060000 		.4byte	.LASF543
 8454 28e1 00       		.byte	0
 8455 28e2 22       		.uleb128 0x22
 8456 28e3 26020000 		.4byte	.LASF544
 8457 28e7 01       		.byte	0x1
 8458 28e8 22       		.uleb128 0x22
 8459 28e9 AA1E0000 		.4byte	.LASF545
 8460 28ed 02       		.byte	0x2
 8461 28ee 22       		.uleb128 0x22
 8462 28ef 8E0C0000 		.4byte	.LASF546
 8463 28f3 03       		.byte	0x3
 8464 28f4 22       		.uleb128 0x22
 8465 28f5 08120000 		.4byte	.LASF547
 8466 28f9 04       		.byte	0x4
 8467 28fa 00       		.byte	0
 8468 28fb 03       		.uleb128 0x3
 8469 28fc 4C0C0000 		.4byte	.LASF548
 8470 2900 2D       		.byte	0x2d
 8471 2901 4C       		.byte	0x4c
 8472 2902 CF280000 		.4byte	0x28cf
 8473 2906 1A       		.uleb128 0x1a
 8474 2907 0A1D0000 		.4byte	.LASF549
 8475 290b 2E       		.byte	0x2e
 8476 290c 9601     		.2byte	0x196
 8477 290e 12290000 		.4byte	0x2912
 8478 2912 0C       		.uleb128 0xc
 8479 2913 0A1D0000 		.4byte	.LASF549
 8480 2917 34       		.byte	0x34
 8481 2918 2E       		.byte	0x2e
 8482 2919 BA01     		.2byte	0x1ba
 8483 291b 95290000 		.4byte	0x2995
 8484 291f 0A       		.uleb128 0xa
 8485 2920 F1130000 		.4byte	.LASF333
 8486 2924 2E       		.byte	0x2e
 8487 2925 BE01     		.2byte	0x1be
 8488 2927 FB280000 		.4byte	0x28fb
 8489 292b 00       		.byte	0
 8490 292c 0A       		.uleb128 0xa
 8491 292d FC180000 		.4byte	.LASF334
 8492 2931 2E       		.byte	0x2e
ARM GAS  /tmp/cc5QaxCL.s 			page 150


 8493 2932 C201     		.2byte	0x1c2
 8494 2934 072A0000 		.4byte	0x2a07
 8495 2938 04       		.byte	0x4
 8496 2939 0A       		.uleb128 0xa
 8497 293a F3050000 		.4byte	.LASF338
 8498 293e 2E       		.byte	0x2e
 8499 293f C701     		.2byte	0x1c7
 8500 2941 E8020000 		.4byte	0x2e8
 8501 2945 08       		.byte	0x8
 8502 2946 0A       		.uleb128 0xa
 8503 2947 FF0A0000 		.4byte	.LASF339
 8504 294b 2E       		.byte	0x2e
 8505 294c CD01     		.2byte	0x1cd
 8506 294e BD110000 		.4byte	0x11bd
 8507 2952 0C       		.byte	0xc
 8508 2953 09       		.uleb128 0x9
 8509 2954 73706900 		.ascii	"spi\000"
 8510 2958 2E       		.byte	0x2e
 8511 2959 D601     		.2byte	0x1d6
 8512 295b F4230000 		.4byte	0x23f4
 8513 295f 20       		.byte	0x20
 8514 2960 0A       		.uleb128 0xa
 8515 2961 BF000000 		.4byte	.LASF470
 8516 2965 2E       		.byte	0x2e
 8517 2966 DA01     		.2byte	0x1da
 8518 2968 BC190000 		.4byte	0x19bc
 8519 296c 24       		.byte	0x24
 8520 296d 0A       		.uleb128 0xa
 8521 296e 56010000 		.4byte	.LASF471
 8522 2972 2E       		.byte	0x2e
 8523 2973 DE01     		.2byte	0x1de
 8524 2975 BC190000 		.4byte	0x19bc
 8525 2979 28       		.byte	0x28
 8526 297a 0A       		.uleb128 0xa
 8527 297b 5F070000 		.4byte	.LASF468
 8528 297f 2E       		.byte	0x2e
 8529 2980 E201     		.2byte	0x1e2
 8530 2982 0B010000 		.4byte	0x10b
 8531 2986 2C       		.byte	0x2c
 8532 2987 0A       		.uleb128 0xa
 8533 2988 9F070000 		.4byte	.LASF469
 8534 298c 2E       		.byte	0x2e
 8535 298d E601     		.2byte	0x1e6
 8536 298f 0B010000 		.4byte	0x10b
 8537 2993 30       		.byte	0x30
 8538 2994 00       		.byte	0
 8539 2995 1A       		.uleb128 0x1a
 8540 2996 84130000 		.4byte	.LASF550
 8541 299a 2E       		.byte	0x2e
 8542 299b 9E01     		.2byte	0x19e
 8543 299d A1290000 		.4byte	0x29a1
 8544 29a1 0B       		.uleb128 0xb
 8545 29a2 04       		.byte	0x4
 8546 29a3 A7290000 		.4byte	0x29a7
 8547 29a7 0D       		.uleb128 0xd
 8548 29a8 B2290000 		.4byte	0x29b2
 8549 29ac 0E       		.uleb128 0xe
ARM GAS  /tmp/cc5QaxCL.s 			page 151


 8550 29ad B2290000 		.4byte	0x29b2
 8551 29b1 00       		.byte	0
 8552 29b2 0B       		.uleb128 0xb
 8553 29b3 04       		.byte	0x4
 8554 29b4 06290000 		.4byte	0x2906
 8555 29b8 19       		.uleb128 0x19
 8556 29b9 0C       		.byte	0xc
 8557 29ba 2E       		.byte	0x2e
 8558 29bb A301     		.2byte	0x1a3
 8559 29bd F6290000 		.4byte	0x29f6
 8560 29c1 0A       		.uleb128 0xa
 8561 29c2 08080000 		.4byte	.LASF346
 8562 29c6 2E       		.byte	0x2e
 8563 29c7 A701     		.2byte	0x1a7
 8564 29c9 95290000 		.4byte	0x2995
 8565 29cd 00       		.byte	0
 8566 29ce 0A       		.uleb128 0xa
 8567 29cf 851F0000 		.4byte	.LASF551
 8568 29d3 2E       		.byte	0x2e
 8569 29d4 AC01     		.2byte	0x1ac
 8570 29d6 4D170000 		.4byte	0x174d
 8571 29da 04       		.byte	0x4
 8572 29db 0A       		.uleb128 0xa
 8573 29dc 99070000 		.4byte	.LASF552
 8574 29e0 2E       		.byte	0x2e
 8575 29e1 B001     		.2byte	0x1b0
 8576 29e3 F0000000 		.4byte	0xf0
 8577 29e7 08       		.byte	0x8
 8578 29e8 09       		.uleb128 0x9
 8579 29e9 63723100 		.ascii	"cr1\000"
 8580 29ed 2E       		.byte	0x2e
 8581 29ee B401     		.2byte	0x1b4
 8582 29f0 F0000000 		.4byte	0xf0
 8583 29f4 0A       		.byte	0xa
 8584 29f5 00       		.byte	0
 8585 29f6 1A       		.uleb128 0x1a
 8586 29f7 1A1D0000 		.4byte	.LASF553
 8587 29fb 2E       		.byte	0x2e
 8588 29fc B501     		.2byte	0x1b5
 8589 29fe B8290000 		.4byte	0x29b8
 8590 2a02 05       		.uleb128 0x5
 8591 2a03 F6290000 		.4byte	0x29f6
 8592 2a07 0B       		.uleb128 0xb
 8593 2a08 04       		.byte	0x4
 8594 2a09 022A0000 		.4byte	0x2a02
 8595 2a0d 15       		.uleb128 0x15
 8596 2a0e 90150000 		.4byte	.LASF554
 8597 2a12 2E       		.byte	0x2e
 8598 2a13 F201     		.2byte	0x1f2
 8599 2a15 06290000 		.4byte	0x2906
 8600 2a19 03       		.uleb128 0x3
 8601 2a1a 77100000 		.4byte	.LASF555
 8602 2a1e 2F       		.byte	0x2f
 8603 2a1f FA       		.byte	0xfa
 8604 2a20 242A0000 		.4byte	0x2a24
 8605 2a24 10       		.uleb128 0x10
 8606 2a25 77100000 		.4byte	.LASF555
ARM GAS  /tmp/cc5QaxCL.s 			page 152


 8607 2a29 6002     		.2byte	0x260
 8608 2a2b 30       		.byte	0x30
 8609 2a2c 7701     		.2byte	0x177
 8610 2a2e 502B0000 		.4byte	0x2b50
 8611 2a32 0A       		.uleb128 0xa
 8612 2a33 F1130000 		.4byte	.LASF333
 8613 2a37 30       		.byte	0x30
 8614 2a38 7B01     		.2byte	0x17b
 8615 2a3a 882B0000 		.4byte	0x2b88
 8616 2a3e 00       		.byte	0
 8617 2a3f 0A       		.uleb128 0xa
 8618 2a40 FC180000 		.4byte	.LASF334
 8619 2a44 30       		.byte	0x30
 8620 2a45 7F01     		.2byte	0x17f
 8621 2a47 AB340000 		.4byte	0x34ab
 8622 2a4b 04       		.byte	0x4
 8623 2a4c 0A       		.uleb128 0xa
 8624 2a4d 521D0000 		.4byte	.LASF556
 8625 2a51 30       		.byte	0x30
 8626 2a52 8301     		.2byte	0x183
 8627 2a54 F0000000 		.4byte	0xf0
 8628 2a58 08       		.byte	0x8
 8629 2a59 0A       		.uleb128 0xa
 8630 2a5a AC1F0000 		.4byte	.LASF557
 8631 2a5e 30       		.byte	0x30
 8632 2a5f 8701     		.2byte	0x187
 8633 2a61 F0000000 		.4byte	0xf0
 8634 2a65 0A       		.byte	0xa
 8635 2a66 09       		.uleb128 0x9
 8636 2a67 65706300 		.ascii	"epc\000"
 8637 2a6b 30       		.byte	0x30
 8638 2a6c 8B01     		.2byte	0x18b
 8639 2a6e B1340000 		.4byte	0x34b1
 8640 2a72 0C       		.byte	0xc
 8641 2a73 0A       		.uleb128 0xa
 8642 2a74 25060000 		.4byte	.LASF558
 8643 2a78 30       		.byte	0x30
 8644 2a79 9201     		.2byte	0x192
 8645 2a7b C7340000 		.4byte	0x34c7
 8646 2a7f 1C       		.byte	0x1c
 8647 2a80 0A       		.uleb128 0xa
 8648 2a81 840A0000 		.4byte	.LASF559
 8649 2a85 30       		.byte	0x30
 8650 2a86 9901     		.2byte	0x199
 8651 2a88 C7340000 		.4byte	0x34c7
 8652 2a8c 28       		.byte	0x28
 8653 2a8d 0A       		.uleb128 0xa
 8654 2a8e AA0E0000 		.4byte	.LASF560
 8655 2a92 30       		.byte	0x30
 8656 2a93 9D01     		.2byte	0x19d
 8657 2a95 CD2B0000 		.4byte	0x2bcd
 8658 2a99 34       		.byte	0x34
 8659 2a9a 0A       		.uleb128 0xa
 8660 2a9b 96180000 		.4byte	.LASF561
 8661 2a9f 30       		.byte	0x30
 8662 2aa0 A101     		.2byte	0x1a1
 8663 2aa2 E6120000 		.4byte	0x12e6
ARM GAS  /tmp/cc5QaxCL.s 			page 153


 8664 2aa6 38       		.byte	0x38
 8665 2aa7 0A       		.uleb128 0xa
 8666 2aa8 1E150000 		.4byte	.LASF562
 8667 2aac 30       		.byte	0x30
 8668 2aad A501     		.2byte	0x1a5
 8669 2aaf 2C000000 		.4byte	0x2c
 8670 2ab3 3C       		.byte	0x3c
 8671 2ab4 0A       		.uleb128 0xa
 8672 2ab5 BA1A0000 		.4byte	.LASF563
 8673 2ab9 30       		.byte	0x30
 8674 2aba A901     		.2byte	0x1a9
 8675 2abc 4D2C0000 		.4byte	0x2c4d
 8676 2ac0 40       		.byte	0x40
 8677 2ac1 0A       		.uleb128 0xa
 8678 2ac2 03060000 		.4byte	.LASF564
 8679 2ac6 30       		.byte	0x30
 8680 2ac7 AD01     		.2byte	0x1ad
 8681 2ac9 1D1A0000 		.4byte	0x1a1d
 8682 2acd 44       		.byte	0x44
 8683 2ace 0A       		.uleb128 0xa
 8684 2acf 5C130000 		.4byte	.LASF565
 8685 2ad3 30       		.byte	0x30
 8686 2ad4 B101     		.2byte	0x1b1
 8687 2ad6 F0000000 		.4byte	0xf0
 8688 2ada 4C       		.byte	0x4c
 8689 2adb 0A       		.uleb128 0xa
 8690 2adc 92130000 		.4byte	.LASF566
 8691 2ae0 30       		.byte	0x30
 8692 2ae1 B501     		.2byte	0x1b5
 8693 2ae3 D5000000 		.4byte	0xd5
 8694 2ae7 4E       		.byte	0x4e
 8695 2ae8 0A       		.uleb128 0xa
 8696 2ae9 8B170000 		.4byte	.LASF567
 8697 2aed 30       		.byte	0x30
 8698 2aee B901     		.2byte	0x1b9
 8699 2af0 D5000000 		.4byte	0xd5
 8700 2af4 4F       		.byte	0x4f
 8701 2af5 09       		.uleb128 0x9
 8702 2af6 6F746700 		.ascii	"otg\000"
 8703 2afa 30       		.byte	0x30
 8704 2afb C101     		.2byte	0x1c1
 8705 2afd D7340000 		.4byte	0x34d7
 8706 2b01 50       		.byte	0x50
 8707 2b02 0A       		.uleb128 0xa
 8708 2b03 130C0000 		.4byte	.LASF568
 8709 2b07 30       		.byte	0x30
 8710 2b08 C501     		.2byte	0x1c5
 8711 2b0a DD340000 		.4byte	0x34dd
 8712 2b0e 54       		.byte	0x54
 8713 2b0f 0A       		.uleb128 0xa
 8714 2b10 EC1B0000 		.4byte	.LASF569
 8715 2b14 30       		.byte	0x30
 8716 2b15 C901     		.2byte	0x1c9
 8717 2b17 0B010000 		.4byte	0x10b
 8718 2b1b 58       		.byte	0x58
 8719 2b1c 0A       		.uleb128 0xa
 8720 2b1d 1E0B0000 		.4byte	.LASF570
ARM GAS  /tmp/cc5QaxCL.s 			page 154


 8721 2b21 30       		.byte	0x30
 8722 2b22 CD01     		.2byte	0x1cd
 8723 2b24 0B010000 		.4byte	0x10b
 8724 2b28 5C       		.byte	0x5c
 8725 2b29 0A       		.uleb128 0xa
 8726 2b2a E7060000 		.4byte	.LASF571
 8727 2b2e 30       		.byte	0x30
 8728 2b2f D101     		.2byte	0x1d1
 8729 2b31 E8020000 		.4byte	0x2e8
 8730 2b35 60       		.byte	0x60
 8731 2b36 09       		.uleb128 0x9
 8732 2b37 747200   		.ascii	"tr\000"
 8733 2b3a 30       		.byte	0x30
 8734 2b3b D601     		.2byte	0x1d6
 8735 2b3d E8020000 		.4byte	0x2e8
 8736 2b41 64       		.byte	0x64
 8737 2b42 0A       		.uleb128 0xa
 8738 2b43 89120000 		.4byte	.LASF572
 8739 2b47 30       		.byte	0x30
 8740 2b48 DA01     		.2byte	0x1da
 8741 2b4a E3340000 		.4byte	0x34e3
 8742 2b4e 68       		.byte	0x68
 8743 2b4f 00       		.byte	0
 8744 2b50 03       		.uleb128 0x3
 8745 2b51 81080000 		.4byte	.LASF573
 8746 2b55 2F       		.byte	0x2f
 8747 2b56 FF       		.byte	0xff
 8748 2b57 D5000000 		.4byte	0xd5
 8749 2b5b 24       		.uleb128 0x24
 8750 2b5c 07       		.byte	0x7
 8751 2b5d 01       		.byte	0x1
 8752 2b5e 69000000 		.4byte	0x69
 8753 2b62 2F       		.byte	0x2f
 8754 2b63 0401     		.2byte	0x104
 8755 2b65 882B0000 		.4byte	0x2b88
 8756 2b69 22       		.uleb128 0x22
 8757 2b6a 52200000 		.4byte	.LASF574
 8758 2b6e 00       		.byte	0
 8759 2b6f 22       		.uleb128 0x22
 8760 2b70 00000000 		.4byte	.LASF575
 8761 2b74 01       		.byte	0x1
 8762 2b75 22       		.uleb128 0x22
 8763 2b76 D4110000 		.4byte	.LASF576
 8764 2b7a 02       		.byte	0x2
 8765 2b7b 22       		.uleb128 0x22
 8766 2b7c 32160000 		.4byte	.LASF577
 8767 2b80 03       		.byte	0x3
 8768 2b81 22       		.uleb128 0x22
 8769 2b82 31070000 		.4byte	.LASF578
 8770 2b86 04       		.byte	0x4
 8771 2b87 00       		.byte	0
 8772 2b88 1A       		.uleb128 0x1a
 8773 2b89 62210000 		.4byte	.LASF579
 8774 2b8d 2F       		.byte	0x2f
 8775 2b8e 0A01     		.2byte	0x10a
 8776 2b90 5B2B0000 		.4byte	0x2b5b
 8777 2b94 24       		.uleb128 0x24
ARM GAS  /tmp/cc5QaxCL.s 			page 155


 8778 2b95 07       		.byte	0x7
 8779 2b96 01       		.byte	0x1
 8780 2b97 69000000 		.4byte	0x69
 8781 2b9b 2F       		.byte	0x2f
 8782 2b9c 1801     		.2byte	0x118
 8783 2b9e CD2B0000 		.4byte	0x2bcd
 8784 2ba2 22       		.uleb128 0x22
 8785 2ba3 7A1A0000 		.4byte	.LASF580
 8786 2ba7 00       		.byte	0
 8787 2ba8 22       		.uleb128 0x22
 8788 2ba9 9F0E0000 		.4byte	.LASF581
 8789 2bad 01       		.byte	0x1
 8790 2bae 22       		.uleb128 0x22
 8791 2baf 82180000 		.4byte	.LASF582
 8792 2bb3 02       		.byte	0x2
 8793 2bb4 22       		.uleb128 0x22
 8794 2bb5 0F140000 		.4byte	.LASF583
 8795 2bb9 03       		.byte	0x3
 8796 2bba 22       		.uleb128 0x22
 8797 2bbb 47130000 		.4byte	.LASF584
 8798 2bbf 04       		.byte	0x4
 8799 2bc0 22       		.uleb128 0x22
 8800 2bc1 F60F0000 		.4byte	.LASF585
 8801 2bc5 05       		.byte	0x5
 8802 2bc6 22       		.uleb128 0x22
 8803 2bc7 F00C0000 		.4byte	.LASF586
 8804 2bcb 06       		.byte	0x6
 8805 2bcc 00       		.byte	0
 8806 2bcd 1A       		.uleb128 0x1a
 8807 2bce 1C100000 		.4byte	.LASF587
 8808 2bd2 2F       		.byte	0x2f
 8809 2bd3 2001     		.2byte	0x120
 8810 2bd5 942B0000 		.4byte	0x2b94
 8811 2bd9 24       		.uleb128 0x24
 8812 2bda 07       		.byte	0x7
 8813 2bdb 01       		.byte	0x1
 8814 2bdc 69000000 		.4byte	0x69
 8815 2be0 2F       		.byte	0x2f
 8816 2be1 2501     		.2byte	0x125
 8817 2be3 0C2C0000 		.4byte	0x2c0c
 8818 2be7 22       		.uleb128 0x22
 8819 2be8 FE190000 		.4byte	.LASF588
 8820 2bec 00       		.byte	0
 8821 2bed 22       		.uleb128 0x22
 8822 2bee 8B160000 		.4byte	.LASF589
 8823 2bf2 01       		.byte	0x1
 8824 2bf3 22       		.uleb128 0x22
 8825 2bf4 4E120000 		.4byte	.LASF590
 8826 2bf8 02       		.byte	0x2
 8827 2bf9 22       		.uleb128 0x22
 8828 2bfa C9120000 		.4byte	.LASF591
 8829 2bfe 03       		.byte	0x3
 8830 2bff 22       		.uleb128 0x22
 8831 2c00 FB1E0000 		.4byte	.LASF592
 8832 2c04 04       		.byte	0x4
 8833 2c05 22       		.uleb128 0x22
 8834 2c06 24120000 		.4byte	.LASF593
ARM GAS  /tmp/cc5QaxCL.s 			page 156


 8835 2c0a 05       		.byte	0x5
 8836 2c0b 00       		.byte	0
 8837 2c0c 1A       		.uleb128 0x1a
 8838 2c0d F1160000 		.4byte	.LASF594
 8839 2c11 2F       		.byte	0x2f
 8840 2c12 2C01     		.2byte	0x12c
 8841 2c14 D92B0000 		.4byte	0x2bd9
 8842 2c18 19       		.uleb128 0x19
 8843 2c19 08       		.byte	0x8
 8844 2c1a 2F       		.byte	0x2f
 8845 2c1b 3101     		.2byte	0x131
 8846 2c1d 3C2C0000 		.4byte	0x2c3c
 8847 2c21 0A       		.uleb128 0xa
 8848 2c22 ED200000 		.4byte	.LASF595
 8849 2c26 2F       		.byte	0x2f
 8850 2c27 3501     		.2byte	0x135
 8851 2c29 2C000000 		.4byte	0x2c
 8852 2c2d 00       		.byte	0
 8853 2c2e 0A       		.uleb128 0xa
 8854 2c2f 9C030000 		.4byte	.LASF596
 8855 2c33 2F       		.byte	0x2f
 8856 2c34 3901     		.2byte	0x139
 8857 2c36 1B130000 		.4byte	0x131b
 8858 2c3a 04       		.byte	0x4
 8859 2c3b 00       		.byte	0
 8860 2c3c 1A       		.uleb128 0x1a
 8861 2c3d 76130000 		.4byte	.LASF597
 8862 2c41 2F       		.byte	0x2f
 8863 2c42 3A01     		.2byte	0x13a
 8864 2c44 182C0000 		.4byte	0x2c18
 8865 2c48 05       		.uleb128 0x5
 8866 2c49 3C2C0000 		.4byte	0x2c3c
 8867 2c4d 1A       		.uleb128 0x1a
 8868 2c4e 8F200000 		.4byte	.LASF598
 8869 2c52 2F       		.byte	0x2f
 8870 2c53 4201     		.2byte	0x142
 8871 2c55 592C0000 		.4byte	0x2c59
 8872 2c59 0B       		.uleb128 0xb
 8873 2c5a 04       		.byte	0x4
 8874 2c5b 5F2C0000 		.4byte	0x2c5f
 8875 2c5f 0D       		.uleb128 0xd
 8876 2c60 6A2C0000 		.4byte	0x2c6a
 8877 2c64 0E       		.uleb128 0xe
 8878 2c65 6A2C0000 		.4byte	0x2c6a
 8879 2c69 00       		.byte	0
 8880 2c6a 0B       		.uleb128 0xb
 8881 2c6b 04       		.byte	0x4
 8882 2c6c 192A0000 		.4byte	0x2a19
 8883 2c70 1A       		.uleb128 0x1a
 8884 2c71 F1030000 		.4byte	.LASF599
 8885 2c75 2F       		.byte	0x2f
 8886 2c76 4B01     		.2byte	0x14b
 8887 2c78 7C2C0000 		.4byte	0x2c7c
 8888 2c7c 0B       		.uleb128 0xb
 8889 2c7d 04       		.byte	0x4
 8890 2c7e 822C0000 		.4byte	0x2c82
 8891 2c82 0D       		.uleb128 0xd
ARM GAS  /tmp/cc5QaxCL.s 			page 157


 8892 2c83 922C0000 		.4byte	0x2c92
 8893 2c87 0E       		.uleb128 0xe
 8894 2c88 6A2C0000 		.4byte	0x2c6a
 8895 2c8c 0E       		.uleb128 0xe
 8896 2c8d 502B0000 		.4byte	0x2b50
 8897 2c91 00       		.byte	0
 8898 2c92 1A       		.uleb128 0x1a
 8899 2c93 A3090000 		.4byte	.LASF600
 8900 2c97 2F       		.byte	0x2f
 8901 2c98 5401     		.2byte	0x154
 8902 2c9a 9E2C0000 		.4byte	0x2c9e
 8903 2c9e 0B       		.uleb128 0xb
 8904 2c9f 04       		.byte	0x4
 8905 2ca0 A42C0000 		.4byte	0x2ca4
 8906 2ca4 0D       		.uleb128 0xd
 8907 2ca5 B42C0000 		.4byte	0x2cb4
 8908 2ca9 0E       		.uleb128 0xe
 8909 2caa 6A2C0000 		.4byte	0x2c6a
 8910 2cae 0E       		.uleb128 0xe
 8911 2caf 0C2C0000 		.4byte	0x2c0c
 8912 2cb3 00       		.byte	0
 8913 2cb4 1A       		.uleb128 0x1a
 8914 2cb5 55050000 		.4byte	.LASF601
 8915 2cb9 2F       		.byte	0x2f
 8916 2cba 6001     		.2byte	0x160
 8917 2cbc C02C0000 		.4byte	0x2cc0
 8918 2cc0 0B       		.uleb128 0xb
 8919 2cc1 04       		.byte	0x4
 8920 2cc2 C62C0000 		.4byte	0x2cc6
 8921 2cc6 20       		.uleb128 0x20
 8922 2cc7 02150000 		.4byte	0x1502
 8923 2ccb D52C0000 		.4byte	0x2cd5
 8924 2ccf 0E       		.uleb128 0xe
 8925 2cd0 6A2C0000 		.4byte	0x2c6a
 8926 2cd4 00       		.byte	0
 8927 2cd5 1A       		.uleb128 0x1a
 8928 2cd6 3E0D0000 		.4byte	.LASF602
 8929 2cda 2F       		.byte	0x2f
 8930 2cdb 6501     		.2byte	0x165
 8931 2cdd E12C0000 		.4byte	0x2ce1
 8932 2ce1 0B       		.uleb128 0xb
 8933 2ce2 04       		.byte	0x4
 8934 2ce3 E72C0000 		.4byte	0x2ce7
 8935 2ce7 20       		.uleb128 0x20
 8936 2ce8 052D0000 		.4byte	0x2d05
 8937 2cec 052D0000 		.4byte	0x2d05
 8938 2cf0 0E       		.uleb128 0xe
 8939 2cf1 6A2C0000 		.4byte	0x2c6a
 8940 2cf5 0E       		.uleb128 0xe
 8941 2cf6 D5000000 		.4byte	0xd5
 8942 2cfa 0E       		.uleb128 0xe
 8943 2cfb D5000000 		.4byte	0xd5
 8944 2cff 0E       		.uleb128 0xe
 8945 2d00 F0000000 		.4byte	0xf0
 8946 2d04 00       		.byte	0
 8947 2d05 0B       		.uleb128 0xb
 8948 2d06 04       		.byte	0x4
ARM GAS  /tmp/cc5QaxCL.s 			page 158


 8949 2d07 482C0000 		.4byte	0x2c48
 8950 2d0b 17       		.uleb128 0x17
 8951 2d0c 20       		.byte	0x20
 8952 2d0d 31       		.byte	0x31
 8953 2d0e 35       		.byte	0x35
 8954 2d0f 742D0000 		.4byte	0x2d74
 8955 2d13 08       		.uleb128 0x8
 8956 2d14 98020000 		.4byte	.LASF603
 8957 2d18 31       		.byte	0x31
 8958 2d19 36       		.byte	0x36
 8959 2d1a 16010000 		.4byte	0x116
 8960 2d1e 00       		.byte	0
 8961 2d1f 08       		.uleb128 0x8
 8962 2d20 700B0000 		.4byte	.LASF604
 8963 2d24 31       		.byte	0x31
 8964 2d25 38       		.byte	0x38
 8965 2d26 16010000 		.4byte	0x116
 8966 2d2a 04       		.byte	0x4
 8967 2d2b 08       		.uleb128 0x8
 8968 2d2c 00020000 		.4byte	.LASF605
 8969 2d30 31       		.byte	0x31
 8970 2d31 39       		.byte	0x39
 8971 2d32 16010000 		.4byte	0x116
 8972 2d36 08       		.byte	0x8
 8973 2d37 08       		.uleb128 0x8
 8974 2d38 F3180000 		.4byte	.LASF606
 8975 2d3c 31       		.byte	0x31
 8976 2d3d 3A       		.byte	0x3a
 8977 2d3e 16010000 		.4byte	0x116
 8978 2d42 0C       		.byte	0xc
 8979 2d43 08       		.uleb128 0x8
 8980 2d44 47120000 		.4byte	.LASF607
 8981 2d48 31       		.byte	0x31
 8982 2d49 3C       		.byte	0x3c
 8983 2d4a 16010000 		.4byte	0x116
 8984 2d4e 10       		.byte	0x10
 8985 2d4f 08       		.uleb128 0x8
 8986 2d50 9C0B0000 		.4byte	.LASF608
 8987 2d54 31       		.byte	0x31
 8988 2d55 3E       		.byte	0x3e
 8989 2d56 16010000 		.4byte	0x116
 8990 2d5a 14       		.byte	0x14
 8991 2d5b 08       		.uleb128 0x8
 8992 2d5c A40B0000 		.4byte	.LASF609
 8993 2d60 31       		.byte	0x31
 8994 2d61 3F       		.byte	0x3f
 8995 2d62 16010000 		.4byte	0x116
 8996 2d66 18       		.byte	0x18
 8997 2d67 08       		.uleb128 0x8
 8998 2d68 38030000 		.4byte	.LASF610
 8999 2d6c 31       		.byte	0x31
 9000 2d6d 40       		.byte	0x40
 9001 2d6e 16010000 		.4byte	0x116
 9002 2d72 1C       		.byte	0x1c
 9003 2d73 00       		.byte	0
 9004 2d74 03       		.uleb128 0x3
 9005 2d75 9E180000 		.4byte	.LASF611
ARM GAS  /tmp/cc5QaxCL.s 			page 159


 9006 2d79 31       		.byte	0x31
 9007 2d7a 41       		.byte	0x41
 9008 2d7b 0B2D0000 		.4byte	0x2d0b
 9009 2d7f 17       		.uleb128 0x17
 9010 2d80 20       		.byte	0x20
 9011 2d81 31       		.byte	0x31
 9012 2d82 46       		.byte	0x46
 9013 2d83 E82D0000 		.4byte	0x2de8
 9014 2d87 08       		.uleb128 0x8
 9015 2d88 010C0000 		.4byte	.LASF612
 9016 2d8c 31       		.byte	0x31
 9017 2d8d 47       		.byte	0x47
 9018 2d8e 16010000 		.4byte	0x116
 9019 2d92 00       		.byte	0
 9020 2d93 08       		.uleb128 0x8
 9021 2d94 70100000 		.4byte	.LASF613
 9022 2d98 31       		.byte	0x31
 9023 2d99 49       		.byte	0x49
 9024 2d9a 16010000 		.4byte	0x116
 9025 2d9e 04       		.byte	0x4
 9026 2d9f 08       		.uleb128 0x8
 9027 2da0 5F1C0000 		.4byte	.LASF614
 9028 2da4 31       		.byte	0x31
 9029 2da5 4A       		.byte	0x4a
 9030 2da6 16010000 		.4byte	0x116
 9031 2daa 08       		.byte	0x8
 9032 2dab 08       		.uleb128 0x8
 9033 2dac 94100000 		.4byte	.LASF615
 9034 2db0 31       		.byte	0x31
 9035 2db1 4C       		.byte	0x4c
 9036 2db2 16010000 		.4byte	0x116
 9037 2db6 0C       		.byte	0xc
 9038 2db7 08       		.uleb128 0x8
 9039 2db8 B2140000 		.4byte	.LASF616
 9040 2dbc 31       		.byte	0x31
 9041 2dbd 4D       		.byte	0x4d
 9042 2dbe 16010000 		.4byte	0x116
 9043 2dc2 10       		.byte	0x10
 9044 2dc3 08       		.uleb128 0x8
 9045 2dc4 9C0B0000 		.4byte	.LASF608
 9046 2dc8 31       		.byte	0x31
 9047 2dc9 4F       		.byte	0x4f
 9048 2dca 16010000 		.4byte	0x116
 9049 2dce 14       		.byte	0x14
 9050 2dcf 08       		.uleb128 0x8
 9051 2dd0 14060000 		.4byte	.LASF617
 9052 2dd4 31       		.byte	0x31
 9053 2dd5 50       		.byte	0x50
 9054 2dd6 16010000 		.4byte	0x116
 9055 2dda 18       		.byte	0x18
 9056 2ddb 08       		.uleb128 0x8
 9057 2ddc 481C0000 		.4byte	.LASF618
 9058 2de0 31       		.byte	0x31
 9059 2de1 52       		.byte	0x52
 9060 2de2 16010000 		.4byte	0x116
 9061 2de6 1C       		.byte	0x1c
 9062 2de7 00       		.byte	0
ARM GAS  /tmp/cc5QaxCL.s 			page 160


 9063 2de8 03       		.uleb128 0x3
 9064 2de9 3C070000 		.4byte	.LASF619
 9065 2ded 31       		.byte	0x31
 9066 2dee 53       		.byte	0x53
 9067 2def 7F2D0000 		.4byte	0x2d7f
 9068 2df3 17       		.uleb128 0x17
 9069 2df4 20       		.byte	0x20
 9070 2df5 31       		.byte	0x31
 9071 2df6 58       		.byte	0x58
 9072 2df7 5C2E0000 		.4byte	0x2e5c
 9073 2dfb 08       		.uleb128 0x8
 9074 2dfc EB180000 		.4byte	.LASF620
 9075 2e00 31       		.byte	0x31
 9076 2e01 59       		.byte	0x59
 9077 2e02 16010000 		.4byte	0x116
 9078 2e06 00       		.byte	0
 9079 2e07 08       		.uleb128 0x8
 9080 2e08 70100000 		.4byte	.LASF613
 9081 2e0c 31       		.byte	0x31
 9082 2e0d 5B       		.byte	0x5b
 9083 2e0e 16010000 		.4byte	0x116
 9084 2e12 04       		.byte	0x4
 9085 2e13 08       		.uleb128 0x8
 9086 2e14 C4150000 		.4byte	.LASF621
 9087 2e18 31       		.byte	0x31
 9088 2e19 5C       		.byte	0x5c
 9089 2e1a 16010000 		.4byte	0x116
 9090 2e1e 08       		.byte	0x8
 9091 2e1f 08       		.uleb128 0x8
 9092 2e20 94100000 		.4byte	.LASF615
 9093 2e24 31       		.byte	0x31
 9094 2e25 5E       		.byte	0x5e
 9095 2e26 16010000 		.4byte	0x116
 9096 2e2a 0C       		.byte	0xc
 9097 2e2b 08       		.uleb128 0x8
 9098 2e2c A01D0000 		.4byte	.LASF622
 9099 2e30 31       		.byte	0x31
 9100 2e31 5F       		.byte	0x5f
 9101 2e32 16010000 		.4byte	0x116
 9102 2e36 10       		.byte	0x10
 9103 2e37 08       		.uleb128 0x8
 9104 2e38 9C0B0000 		.4byte	.LASF608
 9105 2e3c 31       		.byte	0x31
 9106 2e3d 61       		.byte	0x61
 9107 2e3e 16010000 		.4byte	0x116
 9108 2e42 14       		.byte	0x14
 9109 2e43 08       		.uleb128 0x8
 9110 2e44 A40B0000 		.4byte	.LASF609
 9111 2e48 31       		.byte	0x31
 9112 2e49 62       		.byte	0x62
 9113 2e4a 16010000 		.4byte	0x116
 9114 2e4e 18       		.byte	0x18
 9115 2e4f 08       		.uleb128 0x8
 9116 2e50 481C0000 		.4byte	.LASF618
 9117 2e54 31       		.byte	0x31
 9118 2e55 63       		.byte	0x63
 9119 2e56 16010000 		.4byte	0x116
ARM GAS  /tmp/cc5QaxCL.s 			page 161


 9120 2e5a 1C       		.byte	0x1c
 9121 2e5b 00       		.byte	0
 9122 2e5c 03       		.uleb128 0x3
 9123 2e5d B6060000 		.4byte	.LASF623
 9124 2e61 31       		.byte	0x31
 9125 2e62 64       		.byte	0x64
 9126 2e63 F32D0000 		.4byte	0x2df3
 9127 2e67 28       		.uleb128 0x28
 9128 2e68 00100100 		.4byte	0x11000
 9129 2e6c 31       		.byte	0x31
 9130 2e6d 69       		.byte	0x69
 9131 2e6e 44310000 		.4byte	0x3144
 9132 2e72 08       		.uleb128 0x8
 9133 2e73 E0030000 		.4byte	.LASF624
 9134 2e77 31       		.byte	0x31
 9135 2e78 6A       		.byte	0x6a
 9136 2e79 16010000 		.4byte	0x116
 9137 2e7d 00       		.byte	0
 9138 2e7e 08       		.uleb128 0x8
 9139 2e7f 6C0A0000 		.4byte	.LASF625
 9140 2e83 31       		.byte	0x31
 9141 2e84 6B       		.byte	0x6b
 9142 2e85 16010000 		.4byte	0x116
 9143 2e89 04       		.byte	0x4
 9144 2e8a 08       		.uleb128 0x8
 9145 2e8b 4A060000 		.4byte	.LASF626
 9146 2e8f 31       		.byte	0x31
 9147 2e90 6C       		.byte	0x6c
 9148 2e91 16010000 		.4byte	0x116
 9149 2e95 08       		.byte	0x8
 9150 2e96 08       		.uleb128 0x8
 9151 2e97 9D200000 		.4byte	.LASF627
 9152 2e9b 31       		.byte	0x31
 9153 2e9c 6D       		.byte	0x6d
 9154 2e9d 16010000 		.4byte	0x116
 9155 2ea1 0C       		.byte	0xc
 9156 2ea2 08       		.uleb128 0x8
 9157 2ea3 E4110000 		.4byte	.LASF628
 9158 2ea7 31       		.byte	0x31
 9159 2ea8 6E       		.byte	0x6e
 9160 2ea9 16010000 		.4byte	0x116
 9161 2ead 10       		.byte	0x10
 9162 2eae 08       		.uleb128 0x8
 9163 2eaf 020A0000 		.4byte	.LASF629
 9164 2eb3 31       		.byte	0x31
 9165 2eb4 6F       		.byte	0x6f
 9166 2eb5 16010000 		.4byte	0x116
 9167 2eb9 14       		.byte	0x14
 9168 2eba 08       		.uleb128 0x8
 9169 2ebb 7A170000 		.4byte	.LASF630
 9170 2ebf 31       		.byte	0x31
 9171 2ec0 70       		.byte	0x70
 9172 2ec1 16010000 		.4byte	0x116
 9173 2ec5 18       		.byte	0x18
 9174 2ec6 08       		.uleb128 0x8
 9175 2ec7 D1060000 		.4byte	.LASF631
 9176 2ecb 31       		.byte	0x31
ARM GAS  /tmp/cc5QaxCL.s 			page 162


 9177 2ecc 71       		.byte	0x71
 9178 2ecd 16010000 		.4byte	0x116
 9179 2ed1 1C       		.byte	0x1c
 9180 2ed2 08       		.uleb128 0x8
 9181 2ed3 C9060000 		.4byte	.LASF632
 9182 2ed7 31       		.byte	0x31
 9183 2ed8 73       		.byte	0x73
 9184 2ed9 16010000 		.4byte	0x116
 9185 2edd 20       		.byte	0x20
 9186 2ede 08       		.uleb128 0x8
 9187 2edf 3D170000 		.4byte	.LASF633
 9188 2ee3 31       		.byte	0x31
 9189 2ee4 75       		.byte	0x75
 9190 2ee5 16010000 		.4byte	0x116
 9191 2ee9 24       		.byte	0x24
 9192 2eea 08       		.uleb128 0x8
 9193 2eeb 6F000000 		.4byte	.LASF634
 9194 2eef 31       		.byte	0x31
 9195 2ef0 76       		.byte	0x76
 9196 2ef1 16010000 		.4byte	0x116
 9197 2ef5 28       		.byte	0x28
 9198 2ef6 08       		.uleb128 0x8
 9199 2ef7 82170000 		.4byte	.LASF635
 9200 2efb 31       		.byte	0x31
 9201 2efc 78       		.byte	0x78
 9202 2efd 16010000 		.4byte	0x116
 9203 2f01 2C       		.byte	0x2c
 9204 2f02 08       		.uleb128 0x8
 9205 2f03 BC0C0000 		.4byte	.LASF636
 9206 2f07 31       		.byte	0x31
 9207 2f08 7A       		.byte	0x7a
 9208 2f09 16010000 		.4byte	0x116
 9209 2f0d 30       		.byte	0x30
 9210 2f0e 08       		.uleb128 0x8
 9211 2f0f C40C0000 		.4byte	.LASF637
 9212 2f13 31       		.byte	0x31
 9213 2f14 7B       		.byte	0x7b
 9214 2f15 16010000 		.4byte	0x116
 9215 2f19 34       		.byte	0x34
 9216 2f1a 08       		.uleb128 0x8
 9217 2f1b 30010000 		.4byte	.LASF638
 9218 2f1f 31       		.byte	0x31
 9219 2f20 7C       		.byte	0x7c
 9220 2f21 16010000 		.4byte	0x116
 9221 2f25 38       		.byte	0x38
 9222 2f26 18       		.uleb128 0x18
 9223 2f27 43494400 		.ascii	"CID\000"
 9224 2f2b 31       		.byte	0x31
 9225 2f2c 7D       		.byte	0x7d
 9226 2f2d 16010000 		.4byte	0x116
 9227 2f31 3C       		.byte	0x3c
 9228 2f32 08       		.uleb128 0x8
 9229 2f33 2F0F0000 		.4byte	.LASF639
 9230 2f37 31       		.byte	0x31
 9231 2f38 7E       		.byte	0x7e
 9232 2f39 54310000 		.4byte	0x3154
 9233 2f3d 40       		.byte	0x40
ARM GAS  /tmp/cc5QaxCL.s 			page 163


 9234 2f3e 27       		.uleb128 0x27
 9235 2f3f 411E0000 		.4byte	.LASF640
 9236 2f43 31       		.byte	0x31
 9237 2f44 7F       		.byte	0x7f
 9238 2f45 16010000 		.4byte	0x116
 9239 2f49 0001     		.2byte	0x100
 9240 2f4b 27       		.uleb128 0x27
 9241 2f4c 76010000 		.4byte	.LASF641
 9242 2f50 31       		.byte	0x31
 9243 2f51 81       		.byte	0x81
 9244 2f52 E20C0000 		.4byte	0xce2
 9245 2f56 0401     		.2byte	0x104
 9246 2f58 27       		.uleb128 0x27
 9247 2f59 A8120000 		.4byte	.LASF642
 9248 2f5d 31       		.byte	0x31
 9249 2f5e 83       		.byte	0x83
 9250 2f5f 69310000 		.4byte	0x3169
 9251 2f63 4001     		.2byte	0x140
 9252 2f65 27       		.uleb128 0x27
 9253 2f66 78150000 		.4byte	.LASF643
 9254 2f6a 31       		.byte	0x31
 9255 2f6b 84       		.byte	0x84
 9256 2f6c 16010000 		.4byte	0x116
 9257 2f70 0004     		.2byte	0x400
 9258 2f72 27       		.uleb128 0x27
 9259 2f73 4D200000 		.4byte	.LASF644
 9260 2f77 31       		.byte	0x31
 9261 2f78 85       		.byte	0x85
 9262 2f79 16010000 		.4byte	0x116
 9263 2f7d 0404     		.2byte	0x404
 9264 2f7f 27       		.uleb128 0x27
 9265 2f80 56030000 		.4byte	.LASF645
 9266 2f84 31       		.byte	0x31
 9267 2f85 86       		.byte	0x86
 9268 2f86 16010000 		.4byte	0x116
 9269 2f8a 0804     		.2byte	0x408
 9270 2f8c 27       		.uleb128 0x27
 9271 2f8d C91D0000 		.4byte	.LASF646
 9272 2f91 31       		.byte	0x31
 9273 2f92 88       		.byte	0x88
 9274 2f93 16010000 		.4byte	0x116
 9275 2f97 0C04     		.2byte	0x40c
 9276 2f99 27       		.uleb128 0x27
 9277 2f9a 5A020000 		.4byte	.LASF647
 9278 2f9e 31       		.byte	0x31
 9279 2f9f 89       		.byte	0x89
 9280 2fa0 16010000 		.4byte	0x116
 9281 2fa4 1004     		.2byte	0x410
 9282 2fa6 27       		.uleb128 0x27
 9283 2fa7 4B030000 		.4byte	.LASF648
 9284 2fab 31       		.byte	0x31
 9285 2fac 8B       		.byte	0x8b
 9286 2fad 16010000 		.4byte	0x116
 9287 2fb1 1404     		.2byte	0x414
 9288 2fb3 27       		.uleb128 0x27
 9289 2fb4 7B0A0000 		.4byte	.LASF649
 9290 2fb8 31       		.byte	0x31
ARM GAS  /tmp/cc5QaxCL.s 			page 164


 9291 2fb9 8D       		.byte	0x8d
 9292 2fba 16010000 		.4byte	0x116
 9293 2fbe 1804     		.2byte	0x418
 9294 2fc0 27       		.uleb128 0x27
 9295 2fc1 E8190000 		.4byte	.LASF650
 9296 2fc5 31       		.byte	0x31
 9297 2fc6 8F       		.byte	0x8f
 9298 2fc7 7E310000 		.4byte	0x317e
 9299 2fcb 1C04     		.2byte	0x41c
 9300 2fcd 27       		.uleb128 0x27
 9301 2fce D9010000 		.4byte	.LASF651
 9302 2fd2 31       		.byte	0x31
 9303 2fd3 90       		.byte	0x90
 9304 2fd4 16010000 		.4byte	0x116
 9305 2fd8 4004     		.2byte	0x440
 9306 2fda 27       		.uleb128 0x27
 9307 2fdb 751B0000 		.4byte	.LASF652
 9308 2fdf 31       		.byte	0x31
 9309 2fe0 92       		.byte	0x92
 9310 2fe1 93310000 		.4byte	0x3193
 9311 2fe5 4404     		.2byte	0x444
 9312 2fe7 29       		.uleb128 0x29
 9313 2fe8 686300   		.ascii	"hc\000"
 9314 2feb 31       		.byte	0x31
 9315 2fec 93       		.byte	0x93
 9316 2fed 98310000 		.4byte	0x3198
 9317 2ff1 0005     		.2byte	0x500
 9318 2ff3 27       		.uleb128 0x27
 9319 2ff4 081E0000 		.4byte	.LASF653
 9320 2ff8 31       		.byte	0x31
 9321 2ff9 94       		.byte	0x94
 9322 2ffa B8310000 		.4byte	0x31b8
 9323 2ffe 0007     		.2byte	0x700
 9324 3000 27       		.uleb128 0x27
 9325 3001 6C170000 		.4byte	.LASF654
 9326 3005 31       		.byte	0x31
 9327 3006 95       		.byte	0x95
 9328 3007 16010000 		.4byte	0x116
 9329 300b 0008     		.2byte	0x800
 9330 300d 27       		.uleb128 0x27
 9331 300e D21E0000 		.4byte	.LASF655
 9332 3012 31       		.byte	0x31
 9333 3013 96       		.byte	0x96
 9334 3014 16010000 		.4byte	0x116
 9335 3018 0408     		.2byte	0x804
 9336 301a 27       		.uleb128 0x27
 9337 301b 9B040000 		.4byte	.LASF656
 9338 301f 31       		.byte	0x31
 9339 3020 97       		.byte	0x97
 9340 3021 16010000 		.4byte	0x116
 9341 3025 0808     		.2byte	0x808
 9342 3027 27       		.uleb128 0x27
 9343 3028 CE030000 		.4byte	.LASF657
 9344 302c 31       		.byte	0x31
 9345 302d 98       		.byte	0x98
 9346 302e 16010000 		.4byte	0x116
 9347 3032 0C08     		.2byte	0x80c
ARM GAS  /tmp/cc5QaxCL.s 			page 165


 9348 3034 27       		.uleb128 0x27
 9349 3035 640A0000 		.4byte	.LASF658
 9350 3039 31       		.byte	0x31
 9351 303a 99       		.byte	0x99
 9352 303b 16010000 		.4byte	0x116
 9353 303f 1008     		.2byte	0x810
 9354 3041 27       		.uleb128 0x27
 9355 3042 801C0000 		.4byte	.LASF659
 9356 3046 31       		.byte	0x31
 9357 3047 9B       		.byte	0x9b
 9358 3048 16010000 		.4byte	0x116
 9359 304c 1408     		.2byte	0x814
 9360 304e 27       		.uleb128 0x27
 9361 304f 141D0000 		.4byte	.LASF660
 9362 3053 31       		.byte	0x31
 9363 3054 9D       		.byte	0x9d
 9364 3055 16010000 		.4byte	0x116
 9365 3059 1808     		.2byte	0x818
 9366 305b 27       		.uleb128 0x27
 9367 305c 5D1A0000 		.4byte	.LASF661
 9368 3060 31       		.byte	0x31
 9369 3061 9F       		.byte	0x9f
 9370 3062 16010000 		.4byte	0x116
 9371 3066 1C08     		.2byte	0x81c
 9372 3068 27       		.uleb128 0x27
 9373 3069 0D050000 		.4byte	.LASF662
 9374 306d 31       		.byte	0x31
 9375 306e A1       		.byte	0xa1
 9376 306f 16010000 		.4byte	0x116
 9377 3073 2008     		.2byte	0x820
 9378 3075 27       		.uleb128 0x27
 9379 3076 18040000 		.4byte	.LASF663
 9380 307a 31       		.byte	0x31
 9381 307b A2       		.byte	0xa2
 9382 307c 16010000 		.4byte	0x116
 9383 3080 2408     		.2byte	0x824
 9384 3082 27       		.uleb128 0x27
 9385 3083 71170000 		.4byte	.LASF664
 9386 3087 31       		.byte	0x31
 9387 3088 A3       		.byte	0xa3
 9388 3089 16010000 		.4byte	0x116
 9389 308d 2808     		.2byte	0x828
 9390 308f 27       		.uleb128 0x27
 9391 3090 CC0C0000 		.4byte	.LASF665
 9392 3094 31       		.byte	0x31
 9393 3095 A5       		.byte	0xa5
 9394 3096 16010000 		.4byte	0x116
 9395 309a 2C08     		.2byte	0x82c
 9396 309c 27       		.uleb128 0x27
 9397 309d 9A050000 		.4byte	.LASF666
 9398 30a1 31       		.byte	0x31
 9399 30a2 A7       		.byte	0xa7
 9400 30a3 16010000 		.4byte	0x116
 9401 30a7 3008     		.2byte	0x830
 9402 30a9 27       		.uleb128 0x27
 9403 30aa F60B0000 		.4byte	.LASF667
 9404 30ae 31       		.byte	0x31
ARM GAS  /tmp/cc5QaxCL.s 			page 166


 9405 30af A8       		.byte	0xa8
 9406 30b0 16010000 		.4byte	0x116
 9407 30b4 3408     		.2byte	0x834
 9408 30b6 27       		.uleb128 0x27
 9409 30b7 AD050000 		.4byte	.LASF668
 9410 30bb 31       		.byte	0x31
 9411 30bc AA       		.byte	0xaa
 9412 30bd 16010000 		.4byte	0x116
 9413 30c1 3808     		.2byte	0x838
 9414 30c3 27       		.uleb128 0x27
 9415 30c4 E0050000 		.4byte	.LASF669
 9416 30c8 31       		.byte	0x31
 9417 30c9 AB       		.byte	0xab
 9418 30ca 16010000 		.4byte	0x116
 9419 30ce 3C08     		.2byte	0x83c
 9420 30d0 27       		.uleb128 0x27
 9421 30d1 6A060000 		.4byte	.LASF670
 9422 30d5 31       		.byte	0x31
 9423 30d6 AC       		.byte	0xac
 9424 30d7 CD310000 		.4byte	0x31cd
 9425 30db 4008     		.2byte	0x840
 9426 30dd 27       		.uleb128 0x27
 9427 30de 8B0B0000 		.4byte	.LASF671
 9428 30e2 31       		.byte	0x31
 9429 30e3 AD       		.byte	0xad
 9430 30e4 CD310000 		.4byte	0x31cd
 9431 30e8 8008     		.2byte	0x880
 9432 30ea 27       		.uleb128 0x27
 9433 30eb 81100000 		.4byte	.LASF672
 9434 30ef 31       		.byte	0x31
 9435 30f0 AE       		.byte	0xae
 9436 30f1 CD310000 		.4byte	0x31cd
 9437 30f5 C008     		.2byte	0x8c0
 9438 30f7 29       		.uleb128 0x29
 9439 30f8 696500   		.ascii	"ie\000"
 9440 30fb 31       		.byte	0x31
 9441 30fc AF       		.byte	0xaf
 9442 30fd D2310000 		.4byte	0x31d2
 9443 3101 0009     		.2byte	0x900
 9444 3103 29       		.uleb128 0x29
 9445 3104 6F6500   		.ascii	"oe\000"
 9446 3107 31       		.byte	0x31
 9447 3108 B0       		.byte	0xb0
 9448 3109 E2310000 		.4byte	0x31e2
 9449 310d 000B     		.2byte	0xb00
 9450 310f 27       		.uleb128 0x27
 9451 3110 EC090000 		.4byte	.LASF673
 9452 3114 31       		.byte	0x31
 9453 3115 B1       		.byte	0xb1
 9454 3116 B8310000 		.4byte	0x31b8
 9455 311a 000D     		.2byte	0xd00
 9456 311c 27       		.uleb128 0x27
 9457 311d F31E0000 		.4byte	.LASF674
 9458 3121 31       		.byte	0x31
 9459 3122 B2       		.byte	0xb2
 9460 3123 16010000 		.4byte	0x116
 9461 3127 000E     		.2byte	0xe00
ARM GAS  /tmp/cc5QaxCL.s 			page 167


 9462 3129 27       		.uleb128 0x27
 9463 312a 23150000 		.4byte	.LASF675
 9464 312e 31       		.byte	0x31
 9465 312f B4       		.byte	0xb4
 9466 3130 02320000 		.4byte	0x3202
 9467 3134 040E     		.2byte	0xe04
 9468 3136 27       		.uleb128 0x27
 9469 3137 2F080000 		.4byte	.LASF175
 9470 313b 31       		.byte	0x31
 9471 313c B5       		.byte	0xb5
 9472 313d 1E320000 		.4byte	0x321e
 9473 3141 0010     		.2byte	0x1000
 9474 3143 00       		.byte	0
 9475 3144 13       		.uleb128 0x13
 9476 3145 16010000 		.4byte	0x116
 9477 3149 54310000 		.4byte	0x3154
 9478 314d 14       		.uleb128 0x14
 9479 314e 37000000 		.4byte	0x37
 9480 3152 2F       		.byte	0x2f
 9481 3153 00       		.byte	0
 9482 3154 06       		.uleb128 0x6
 9483 3155 44310000 		.4byte	0x3144
 9484 3159 13       		.uleb128 0x13
 9485 315a 16010000 		.4byte	0x116
 9486 315e 69310000 		.4byte	0x3169
 9487 3162 14       		.uleb128 0x14
 9488 3163 37000000 		.4byte	0x37
 9489 3167 AF       		.byte	0xaf
 9490 3168 00       		.byte	0
 9491 3169 06       		.uleb128 0x6
 9492 316a 59310000 		.4byte	0x3159
 9493 316e 13       		.uleb128 0x13
 9494 316f 16010000 		.4byte	0x116
 9495 3173 7E310000 		.4byte	0x317e
 9496 3177 14       		.uleb128 0x14
 9497 3178 37000000 		.4byte	0x37
 9498 317c 08       		.byte	0x8
 9499 317d 00       		.byte	0
 9500 317e 06       		.uleb128 0x6
 9501 317f 6E310000 		.4byte	0x316e
 9502 3183 13       		.uleb128 0x13
 9503 3184 16010000 		.4byte	0x116
 9504 3188 93310000 		.4byte	0x3193
 9505 318c 14       		.uleb128 0x14
 9506 318d 37000000 		.4byte	0x37
 9507 3191 2E       		.byte	0x2e
 9508 3192 00       		.byte	0
 9509 3193 06       		.uleb128 0x6
 9510 3194 83310000 		.4byte	0x3183
 9511 3198 13       		.uleb128 0x13
 9512 3199 742D0000 		.4byte	0x2d74
 9513 319d A8310000 		.4byte	0x31a8
 9514 31a1 14       		.uleb128 0x14
 9515 31a2 37000000 		.4byte	0x37
 9516 31a6 0F       		.byte	0xf
 9517 31a7 00       		.byte	0
 9518 31a8 13       		.uleb128 0x13
ARM GAS  /tmp/cc5QaxCL.s 			page 168


 9519 31a9 16010000 		.4byte	0x116
 9520 31ad B8310000 		.4byte	0x31b8
 9521 31b1 14       		.uleb128 0x14
 9522 31b2 37000000 		.4byte	0x37
 9523 31b6 3F       		.byte	0x3f
 9524 31b7 00       		.byte	0
 9525 31b8 06       		.uleb128 0x6
 9526 31b9 A8310000 		.4byte	0x31a8
 9527 31bd 13       		.uleb128 0x13
 9528 31be 16010000 		.4byte	0x116
 9529 31c2 CD310000 		.4byte	0x31cd
 9530 31c6 14       		.uleb128 0x14
 9531 31c7 37000000 		.4byte	0x37
 9532 31cb 0F       		.byte	0xf
 9533 31cc 00       		.byte	0
 9534 31cd 06       		.uleb128 0x6
 9535 31ce BD310000 		.4byte	0x31bd
 9536 31d2 13       		.uleb128 0x13
 9537 31d3 E82D0000 		.4byte	0x2de8
 9538 31d7 E2310000 		.4byte	0x31e2
 9539 31db 14       		.uleb128 0x14
 9540 31dc 37000000 		.4byte	0x37
 9541 31e0 0F       		.byte	0xf
 9542 31e1 00       		.byte	0
 9543 31e2 13       		.uleb128 0x13
 9544 31e3 5C2E0000 		.4byte	0x2e5c
 9545 31e7 F2310000 		.4byte	0x31f2
 9546 31eb 14       		.uleb128 0x14
 9547 31ec 37000000 		.4byte	0x37
 9548 31f0 0F       		.byte	0xf
 9549 31f1 00       		.byte	0
 9550 31f2 13       		.uleb128 0x13
 9551 31f3 16010000 		.4byte	0x116
 9552 31f7 02320000 		.4byte	0x3202
 9553 31fb 14       		.uleb128 0x14
 9554 31fc 37000000 		.4byte	0x37
 9555 3200 7E       		.byte	0x7e
 9556 3201 00       		.byte	0
 9557 3202 06       		.uleb128 0x6
 9558 3203 F2310000 		.4byte	0x31f2
 9559 3207 13       		.uleb128 0x13
 9560 3208 16010000 		.4byte	0x116
 9561 320c 1E320000 		.4byte	0x321e
 9562 3210 14       		.uleb128 0x14
 9563 3211 37000000 		.4byte	0x37
 9564 3215 0F       		.byte	0xf
 9565 3216 2A       		.uleb128 0x2a
 9566 3217 37000000 		.4byte	0x37
 9567 321b FF03     		.2byte	0x3ff
 9568 321d 00       		.byte	0
 9569 321e 06       		.uleb128 0x6
 9570 321f 07320000 		.4byte	0x3207
 9571 3223 03       		.uleb128 0x3
 9572 3224 C2200000 		.4byte	.LASF676
 9573 3228 31       		.byte	0x31
 9574 3229 B6       		.byte	0xb6
 9575 322a 672E0000 		.4byte	0x2e67
ARM GAS  /tmp/cc5QaxCL.s 			page 169


 9576 322e 17       		.uleb128 0x17
 9577 322f 0C       		.byte	0xc
 9578 3230 30       		.byte	0x30
 9579 3231 C6       		.byte	0xc6
 9580 3232 5B320000 		.4byte	0x325b
 9581 3236 08       		.uleb128 0x8
 9582 3237 C9070000 		.4byte	.LASF677
 9583 323b 30       		.byte	0x30
 9584 323c C7       		.byte	0xc7
 9585 323d 0B010000 		.4byte	0x10b
 9586 3241 00       		.byte	0
 9587 3242 08       		.uleb128 0x8
 9588 3243 CC090000 		.4byte	.LASF678
 9589 3247 30       		.byte	0x30
 9590 3248 C8       		.byte	0xc8
 9591 3249 0B010000 		.4byte	0x10b
 9592 324d 04       		.byte	0x4
 9593 324e 08       		.uleb128 0x8
 9594 324f 150D0000 		.4byte	.LASF679
 9595 3253 30       		.byte	0x30
 9596 3254 C9       		.byte	0xc9
 9597 3255 0B010000 		.4byte	0x10b
 9598 3259 08       		.byte	0x8
 9599 325a 00       		.byte	0
 9600 325b 03       		.uleb128 0x3
 9601 325c D9090000 		.4byte	.LASF680
 9602 3260 30       		.byte	0x30
 9603 3261 CA       		.byte	0xca
 9604 3262 2E320000 		.4byte	0x322e
 9605 3266 05       		.uleb128 0x5
 9606 3267 5B320000 		.4byte	0x325b
 9607 326b 17       		.uleb128 0x17
 9608 326c 04       		.byte	0x4
 9609 326d 30       		.byte	0x30
 9610 326e DD       		.byte	0xdd
 9611 326f 80320000 		.4byte	0x3280
 9612 3273 08       		.uleb128 0x8
 9613 3274 ED1E0000 		.4byte	.LASF681
 9614 3278 30       		.byte	0x30
 9615 3279 E1       		.byte	0xe1
 9616 327a 1B130000 		.4byte	0x131b
 9617 327e 00       		.byte	0
 9618 327f 00       		.byte	0
 9619 3280 17       		.uleb128 0x17
 9620 3281 04       		.byte	0x4
 9621 3282 30       		.byte	0x30
 9622 3283 E3       		.byte	0xe3
 9623 3284 95320000 		.4byte	0x3295
 9624 3288 08       		.uleb128 0x8
 9625 3289 3E080000 		.4byte	.LASF366
 9626 328d 30       		.byte	0x30
 9627 328e E7       		.byte	0xe7
 9628 328f 95320000 		.4byte	0x3295
 9629 3293 00       		.byte	0
 9630 3294 00       		.byte	0
 9631 3295 0B       		.uleb128 0xb
 9632 3296 04       		.byte	0x4
ARM GAS  /tmp/cc5QaxCL.s 			page 170


 9633 3297 F7120000 		.4byte	0x12f7
 9634 329b 1D       		.uleb128 0x1d
 9635 329c 04       		.byte	0x4
 9636 329d 30       		.byte	0x30
 9637 329e DC       		.byte	0xdc
 9638 329f BA320000 		.4byte	0x32ba
 9639 32a3 2B       		.uleb128 0x2b
 9640 32a4 B91B0000 		.4byte	.LASF682
 9641 32a8 30       		.byte	0x30
 9642 32a9 E2       		.byte	0xe2
 9643 32aa 6B320000 		.4byte	0x326b
 9644 32ae 2B       		.uleb128 0x2b
 9645 32af B41A0000 		.4byte	.LASF683
 9646 32b3 30       		.byte	0x30
 9647 32b4 E8       		.byte	0xe8
 9648 32b5 80320000 		.4byte	0x3280
 9649 32b9 00       		.byte	0
 9650 32ba 17       		.uleb128 0x17
 9651 32bb 14       		.byte	0x14
 9652 32bc 30       		.byte	0x30
 9653 32bd CF       		.byte	0xcf
 9654 32be FF320000 		.4byte	0x32ff
 9655 32c2 08       		.uleb128 0x8
 9656 32c3 A7060000 		.4byte	.LASF684
 9657 32c7 30       		.byte	0x30
 9658 32c8 D3       		.byte	0xd3
 9659 32c9 02150000 		.4byte	0x1502
 9660 32cd 00       		.byte	0
 9661 32ce 08       		.uleb128 0x8
 9662 32cf 8A110000 		.4byte	.LASF685
 9663 32d3 30       		.byte	0x30
 9664 32d4 D7       		.byte	0xd7
 9665 32d5 2C000000 		.4byte	0x2c
 9666 32d9 04       		.byte	0x4
 9667 32da 08       		.uleb128 0x8
 9668 32db 9D090000 		.4byte	.LASF686
 9669 32df 30       		.byte	0x30
 9670 32e0 DB       		.byte	0xdb
 9671 32e1 2C000000 		.4byte	0x2c
 9672 32e5 08       		.byte	0x8
 9673 32e6 08       		.uleb128 0x8
 9674 32e7 69070000 		.4byte	.LASF412
 9675 32eb 30       		.byte	0x30
 9676 32ec E9       		.byte	0xe9
 9677 32ed 9B320000 		.4byte	0x329b
 9678 32f1 0C       		.byte	0xc
 9679 32f2 08       		.uleb128 0x8
 9680 32f3 2D0D0000 		.4byte	.LASF687
 9681 32f7 30       		.byte	0x30
 9682 32f8 ED       		.byte	0xed
 9683 32f9 2C000000 		.4byte	0x2c
 9684 32fd 10       		.byte	0x10
 9685 32fe 00       		.byte	0
 9686 32ff 03       		.uleb128 0x3
 9687 3300 370F0000 		.4byte	.LASF688
 9688 3304 30       		.byte	0x30
 9689 3305 EE       		.byte	0xee
ARM GAS  /tmp/cc5QaxCL.s 			page 171


 9690 3306 BA320000 		.4byte	0x32ba
 9691 330a 19       		.uleb128 0x19
 9692 330b 04       		.byte	0x4
 9693 330c 30       		.byte	0x30
 9694 330d 0101     		.2byte	0x101
 9695 330f 21330000 		.4byte	0x3321
 9696 3313 0A       		.uleb128 0xa
 9697 3314 FC090000 		.4byte	.LASF689
 9698 3318 30       		.byte	0x30
 9699 3319 0501     		.2byte	0x105
 9700 331b E6120000 		.4byte	0x12e6
 9701 331f 00       		.byte	0
 9702 3320 00       		.byte	0
 9703 3321 19       		.uleb128 0x19
 9704 3322 04       		.byte	0x4
 9705 3323 30       		.byte	0x30
 9706 3324 0701     		.2byte	0x107
 9707 3326 38330000 		.4byte	0x3338
 9708 332a 0A       		.uleb128 0xa
 9709 332b 651B0000 		.4byte	.LASF367
 9710 332f 30       		.byte	0x30
 9711 3330 0B01     		.2byte	0x10b
 9712 3332 38330000 		.4byte	0x3338
 9713 3336 00       		.byte	0
 9714 3337 00       		.byte	0
 9715 3338 0B       		.uleb128 0xb
 9716 3339 04       		.byte	0x4
 9717 333a EC120000 		.4byte	0x12ec
 9718 333e 2C       		.uleb128 0x2c
 9719 333f 04       		.byte	0x4
 9720 3340 30       		.byte	0x30
 9721 3341 0001     		.2byte	0x100
 9722 3343 60330000 		.4byte	0x3360
 9723 3347 1E       		.uleb128 0x1e
 9724 3348 B91B0000 		.4byte	.LASF682
 9725 334c 30       		.byte	0x30
 9726 334d 0601     		.2byte	0x106
 9727 334f 0A330000 		.4byte	0x330a
 9728 3353 1E       		.uleb128 0x1e
 9729 3354 B41A0000 		.4byte	.LASF683
 9730 3358 30       		.byte	0x30
 9731 3359 0C01     		.2byte	0x10c
 9732 335b 21330000 		.4byte	0x3321
 9733 335f 00       		.byte	0
 9734 3360 17       		.uleb128 0x17
 9735 3361 14       		.byte	0x14
 9736 3362 30       		.byte	0x30
 9737 3363 F3       		.byte	0xf3
 9738 3364 A7330000 		.4byte	0x33a7
 9739 3368 08       		.uleb128 0x8
 9740 3369 D5040000 		.4byte	.LASF690
 9741 336d 30       		.byte	0x30
 9742 336e F7       		.byte	0xf7
 9743 336f 02150000 		.4byte	0x1502
 9744 3373 00       		.byte	0
 9745 3374 08       		.uleb128 0x8
 9746 3375 40120000 		.4byte	.LASF691
ARM GAS  /tmp/cc5QaxCL.s 			page 172


 9747 3379 30       		.byte	0x30
 9748 337a FB       		.byte	0xfb
 9749 337b 2C000000 		.4byte	0x2c
 9750 337f 04       		.byte	0x4
 9751 3380 08       		.uleb128 0x8
 9752 3381 4E070000 		.4byte	.LASF692
 9753 3385 30       		.byte	0x30
 9754 3386 FF       		.byte	0xff
 9755 3387 2C000000 		.4byte	0x2c
 9756 338b 08       		.byte	0x8
 9757 338c 0A       		.uleb128 0xa
 9758 338d 69070000 		.4byte	.LASF412
 9759 3391 30       		.byte	0x30
 9760 3392 0D01     		.2byte	0x10d
 9761 3394 3E330000 		.4byte	0x333e
 9762 3398 0C       		.byte	0xc
 9763 3399 0A       		.uleb128 0xa
 9764 339a 2D0D0000 		.4byte	.LASF687
 9765 339e 30       		.byte	0x30
 9766 339f 1101     		.2byte	0x111
 9767 33a1 2C000000 		.4byte	0x2c
 9768 33a5 10       		.byte	0x10
 9769 33a6 00       		.byte	0
 9770 33a7 1A       		.uleb128 0x1a
 9771 33a8 D4190000 		.4byte	.LASF693
 9772 33ac 30       		.byte	0x30
 9773 33ad 1201     		.2byte	0x112
 9774 33af 60330000 		.4byte	0x3360
 9775 33b3 19       		.uleb128 0x19
 9776 33b4 24       		.byte	0x24
 9777 33b5 30       		.byte	0x30
 9778 33b6 1801     		.2byte	0x118
 9779 33b8 3F340000 		.4byte	0x343f
 9780 33bc 0A       		.uleb128 0xa
 9781 33bd F0140000 		.4byte	.LASF694
 9782 33c1 30       		.byte	0x30
 9783 33c2 1C01     		.2byte	0x11c
 9784 33c4 0B010000 		.4byte	0x10b
 9785 33c8 00       		.byte	0
 9786 33c9 0A       		.uleb128 0xa
 9787 33ca 0F080000 		.4byte	.LASF695
 9788 33ce 30       		.byte	0x30
 9789 33cf 2701     		.2byte	0x127
 9790 33d1 702C0000 		.4byte	0x2c70
 9791 33d5 04       		.byte	0x4
 9792 33d6 0A       		.uleb128 0xa
 9793 33d7 BE150000 		.4byte	.LASF696
 9794 33db 30       		.byte	0x30
 9795 33dc 2D01     		.2byte	0x12d
 9796 33de 702C0000 		.4byte	0x2c70
 9797 33e2 08       		.byte	0x8
 9798 33e3 0A       		.uleb128 0xa
 9799 33e4 740A0000 		.4byte	.LASF697
 9800 33e8 30       		.byte	0x30
 9801 33e9 3301     		.2byte	0x133
 9802 33eb 702C0000 		.4byte	0x2c70
 9803 33ef 0C       		.byte	0xc
ARM GAS  /tmp/cc5QaxCL.s 			page 173


 9804 33f0 0A       		.uleb128 0xa
 9805 33f1 F5200000 		.4byte	.LASF698
 9806 33f5 30       		.byte	0x30
 9807 33f6 3901     		.2byte	0x139
 9808 33f8 F0000000 		.4byte	0xf0
 9809 33fc 10       		.byte	0x10
 9810 33fd 0A       		.uleb128 0xa
 9811 33fe CB0A0000 		.4byte	.LASF699
 9812 3402 30       		.byte	0x30
 9813 3403 3F01     		.2byte	0x13f
 9814 3405 F0000000 		.4byte	0xf0
 9815 3409 12       		.byte	0x12
 9816 340a 0A       		.uleb128 0xa
 9817 340b DA1F0000 		.4byte	.LASF700
 9818 340f 30       		.byte	0x30
 9819 3410 4401     		.2byte	0x144
 9820 3412 3F340000 		.4byte	0x343f
 9821 3416 14       		.byte	0x14
 9822 3417 0A       		.uleb128 0xa
 9823 3418 370C0000 		.4byte	.LASF701
 9824 341c 30       		.byte	0x30
 9825 341d 4901     		.2byte	0x149
 9826 341f 45340000 		.4byte	0x3445
 9827 3423 18       		.byte	0x18
 9828 3424 0A       		.uleb128 0xa
 9829 3425 F2100000 		.4byte	.LASF702
 9830 3429 30       		.byte	0x30
 9831 342a 5001     		.2byte	0x150
 9832 342c F0000000 		.4byte	0xf0
 9833 3430 1C       		.byte	0x1c
 9834 3431 0A       		.uleb128 0xa
 9835 3432 4D1F0000 		.4byte	.LASF703
 9836 3436 30       		.byte	0x30
 9837 3437 5601     		.2byte	0x156
 9838 3439 E6120000 		.4byte	0x12e6
 9839 343d 20       		.byte	0x20
 9840 343e 00       		.byte	0
 9841 343f 0B       		.uleb128 0xb
 9842 3440 04       		.byte	0x4
 9843 3441 FF320000 		.4byte	0x32ff
 9844 3445 0B       		.uleb128 0xb
 9845 3446 04       		.byte	0x4
 9846 3447 A7330000 		.4byte	0x33a7
 9847 344b 1A       		.uleb128 0x1a
 9848 344c 351B0000 		.4byte	.LASF704
 9849 3450 30       		.byte	0x30
 9850 3451 5701     		.2byte	0x157
 9851 3453 B3330000 		.4byte	0x33b3
 9852 3457 05       		.uleb128 0x5
 9853 3458 4B340000 		.4byte	0x344b
 9854 345c 19       		.uleb128 0x19
 9855 345d 10       		.byte	0x10
 9856 345e 30       		.byte	0x30
 9857 345f 5C01     		.2byte	0x15c
 9858 3461 9A340000 		.4byte	0x349a
 9859 3465 0A       		.uleb128 0xa
 9860 3466 D7030000 		.4byte	.LASF705
ARM GAS  /tmp/cc5QaxCL.s 			page 174


 9861 346a 30       		.byte	0x30
 9862 346b 6101     		.2byte	0x161
 9863 346d 922C0000 		.4byte	0x2c92
 9864 3471 00       		.byte	0
 9865 3472 0A       		.uleb128 0xa
 9866 3473 8B1E0000 		.4byte	.LASF706
 9867 3477 30       		.byte	0x30
 9868 3478 6601     		.2byte	0x166
 9869 347a D52C0000 		.4byte	0x2cd5
 9870 347e 04       		.byte	0x4
 9871 347f 0A       		.uleb128 0xa
 9872 3480 6B110000 		.4byte	.LASF707
 9873 3484 30       		.byte	0x30
 9874 3485 6C01     		.2byte	0x16c
 9875 3487 B42C0000 		.4byte	0x2cb4
 9876 348b 08       		.byte	0x8
 9877 348c 0A       		.uleb128 0xa
 9878 348d 5C010000 		.4byte	.LASF708
 9879 3491 30       		.byte	0x30
 9880 3492 7001     		.2byte	0x170
 9881 3494 4D2C0000 		.4byte	0x2c4d
 9882 3498 0C       		.byte	0xc
 9883 3499 00       		.byte	0
 9884 349a 1A       		.uleb128 0x1a
 9885 349b 8A100000 		.4byte	.LASF709
 9886 349f 30       		.byte	0x30
 9887 34a0 7201     		.2byte	0x172
 9888 34a2 5C340000 		.4byte	0x345c
 9889 34a6 05       		.uleb128 0x5
 9890 34a7 9A340000 		.4byte	0x349a
 9891 34ab 0B       		.uleb128 0xb
 9892 34ac 04       		.byte	0x4
 9893 34ad A6340000 		.4byte	0x34a6
 9894 34b1 13       		.uleb128 0x13
 9895 34b2 C1340000 		.4byte	0x34c1
 9896 34b6 C1340000 		.4byte	0x34c1
 9897 34ba 14       		.uleb128 0x14
 9898 34bb 37000000 		.4byte	0x37
 9899 34bf 03       		.byte	0x3
 9900 34c0 00       		.byte	0
 9901 34c1 0B       		.uleb128 0xb
 9902 34c2 04       		.byte	0x4
 9903 34c3 57340000 		.4byte	0x3457
 9904 34c7 13       		.uleb128 0x13
 9905 34c8 D0030000 		.4byte	0x3d0
 9906 34cc D7340000 		.4byte	0x34d7
 9907 34d0 14       		.uleb128 0x14
 9908 34d1 37000000 		.4byte	0x37
 9909 34d5 02       		.byte	0x2
 9910 34d6 00       		.byte	0
 9911 34d7 0B       		.uleb128 0xb
 9912 34d8 04       		.byte	0x4
 9913 34d9 23320000 		.4byte	0x3223
 9914 34dd 0B       		.uleb128 0xb
 9915 34de 04       		.byte	0x4
 9916 34df 66320000 		.4byte	0x3266
 9917 34e3 13       		.uleb128 0x13
ARM GAS  /tmp/cc5QaxCL.s 			page 175


 9918 34e4 F20C0000 		.4byte	0xcf2
 9919 34e8 F3340000 		.4byte	0x34f3
 9920 34ec 14       		.uleb128 0x14
 9921 34ed 37000000 		.4byte	0x37
 9922 34f1 3E       		.byte	0x3e
 9923 34f2 00       		.byte	0
 9924 34f3 15       		.uleb128 0x15
 9925 34f4 78000000 		.4byte	.LASF710
 9926 34f8 30       		.byte	0x30
 9927 34f9 0602     		.2byte	0x206
 9928 34fb 192A0000 		.4byte	0x2a19
 9929 34ff 21       		.uleb128 0x21
 9930 3500 07       		.byte	0x7
 9931 3501 01       		.byte	0x1
 9932 3502 69000000 		.4byte	0x69
 9933 3506 32       		.byte	0x32
 9934 3507 97       		.byte	0x97
 9935 3508 1F350000 		.4byte	0x351f
 9936 350c 22       		.uleb128 0x22
 9937 350d 210A0000 		.4byte	.LASF711
 9938 3511 00       		.byte	0
 9939 3512 22       		.uleb128 0x22
 9940 3513 A5160000 		.4byte	.LASF712
 9941 3517 01       		.byte	0x1
 9942 3518 22       		.uleb128 0x22
 9943 3519 60060000 		.4byte	.LASF713
 9944 351d 02       		.byte	0x2
 9945 351e 00       		.byte	0
 9946 351f 03       		.uleb128 0x3
 9947 3520 C5050000 		.4byte	.LASF714
 9948 3524 32       		.byte	0x32
 9949 3525 9B       		.byte	0x9b
 9950 3526 FF340000 		.4byte	0x34ff
 9951 352a 03       		.uleb128 0x3
 9952 352b 97010000 		.4byte	.LASF715
 9953 352f 32       		.byte	0x32
 9954 3530 A0       		.byte	0xa0
 9955 3531 35350000 		.4byte	0x3535
 9956 3535 26       		.uleb128 0x26
 9957 3536 97010000 		.4byte	.LASF715
 9958 353a 5802     		.2byte	0x258
 9959 353c 32       		.byte	0x32
 9960 353d E5       		.byte	0xe5
 9961 353e A3350000 		.4byte	0x35a3
 9962 3542 18       		.uleb128 0x18
 9963 3543 766D7400 		.ascii	"vmt\000"
 9964 3547 32       		.byte	0x32
 9965 3548 E7       		.byte	0xe7
 9966 3549 5E360000 		.4byte	0x365e
 9967 354d 00       		.byte	0
 9968 354e 08       		.uleb128 0x8
 9969 354f 32000000 		.4byte	.LASF511
 9970 3553 32       		.byte	0x32
 9971 3554 E8       		.byte	0xe8
 9972 3555 41120000 		.4byte	0x1241
 9973 3559 04       		.byte	0x4
 9974 355a 08       		.uleb128 0x8
ARM GAS  /tmp/cc5QaxCL.s 			page 176


 9975 355b F1130000 		.4byte	.LASF333
 9976 355f 32       		.byte	0x32
 9977 3560 E8       		.byte	0xe8
 9978 3561 1F350000 		.4byte	0x351f
 9979 3565 08       		.byte	0x8
 9980 3566 08       		.uleb128 0x8
 9981 3567 B7150000 		.4byte	.LASF512
 9982 356b 32       		.byte	0x32
 9983 356c E8       		.byte	0xe8
 9984 356d EC120000 		.4byte	0x12ec
 9985 3571 0C       		.byte	0xc
 9986 3572 08       		.uleb128 0x8
 9987 3573 C8100000 		.4byte	.LASF513
 9988 3577 32       		.byte	0x32
 9989 3578 E8       		.byte	0xe8
 9990 3579 F7120000 		.4byte	0x12f7
 9991 357d 30       		.byte	0x30
 9992 357e 18       		.uleb128 0x18
 9993 357f 696200   		.ascii	"ib\000"
 9994 3582 32       		.byte	0x32
 9995 3583 E8       		.byte	0xe8
 9996 3584 64360000 		.4byte	0x3664
 9997 3588 54       		.byte	0x54
 9998 3589 29       		.uleb128 0x29
 9999 358a 6F6200   		.ascii	"ob\000"
 10000 358d 32       		.byte	0x32
 10001 358e E8       		.byte	0xe8
 10002 358f 64360000 		.4byte	0x3664
 10003 3593 5401     		.2byte	0x154
 10004 3595 27       		.uleb128 0x27
 10005 3596 FC180000 		.4byte	.LASF334
 10006 359a 32       		.byte	0x32
 10007 359b E8       		.byte	0xe8
 10008 359c 74360000 		.4byte	0x3674
 10009 35a0 5402     		.2byte	0x254
 10010 35a2 00       		.byte	0
 10011 35a3 17       		.uleb128 0x17
 10012 35a4 08       		.byte	0x8
 10013 35a5 32       		.byte	0x32
 10014 35a6 A7       		.byte	0xa7
 10015 35a7 DC350000 		.4byte	0x35dc
 10016 35ab 08       		.uleb128 0x8
 10017 35ac 191E0000 		.4byte	.LASF716
 10018 35b0 32       		.byte	0x32
 10019 35b1 AB       		.byte	0xab
 10020 35b2 6A2C0000 		.4byte	0x2c6a
 10021 35b6 00       		.byte	0
 10022 35b7 08       		.uleb128 0x8
 10023 35b8 C30E0000 		.4byte	.LASF717
 10024 35bc 32       		.byte	0x32
 10025 35bd AF       		.byte	0xaf
 10026 35be 502B0000 		.4byte	0x2b50
 10027 35c2 04       		.byte	0x4
 10028 35c3 08       		.uleb128 0x8
 10029 35c4 E8030000 		.4byte	.LASF718
 10030 35c8 32       		.byte	0x32
 10031 35c9 B3       		.byte	0xb3
ARM GAS  /tmp/cc5QaxCL.s 			page 177


 10032 35ca 502B0000 		.4byte	0x2b50
 10033 35ce 05       		.byte	0x5
 10034 35cf 08       		.uleb128 0x8
 10035 35d0 0A100000 		.4byte	.LASF719
 10036 35d4 32       		.byte	0x32
 10037 35d5 B9       		.byte	0xb9
 10038 35d6 502B0000 		.4byte	0x2b50
 10039 35da 06       		.byte	0x6
 10040 35db 00       		.byte	0
 10041 35dc 03       		.uleb128 0x3
 10042 35dd B4190000 		.4byte	.LASF720
 10043 35e1 32       		.byte	0x32
 10044 35e2 BA       		.byte	0xba
 10045 35e3 A3350000 		.4byte	0x35a3
 10046 35e7 05       		.uleb128 0x5
 10047 35e8 DC350000 		.4byte	0x35dc
 10048 35ec 07       		.uleb128 0x7
 10049 35ed 9F140000 		.4byte	.LASF721
 10050 35f1 20       		.byte	0x20
 10051 35f2 32       		.byte	0x32
 10052 35f3 DA       		.byte	0xda
 10053 35f4 59360000 		.4byte	0x3659
 10054 35f8 08       		.uleb128 0x8
 10055 35f9 B1150000 		.4byte	.LASF516
 10056 35fd 32       		.byte	0x32
 10057 35fe DB       		.byte	0xdb
 10058 35ff 21130000 		.4byte	0x1321
 10059 3603 00       		.byte	0
 10060 3604 08       		.uleb128 0x8
 10061 3605 BE030000 		.4byte	.LASF517
 10062 3609 32       		.byte	0x32
 10063 360a DB       		.byte	0xdb
 10064 360b 40130000 		.4byte	0x1340
 10065 360f 04       		.byte	0x4
 10066 3610 18       		.uleb128 0x18
 10067 3611 70757400 		.ascii	"put\000"
 10068 3615 32       		.byte	0x32
 10069 3616 DB       		.byte	0xdb
 10070 3617 5A130000 		.4byte	0x135a
 10071 361b 08       		.byte	0x8
 10072 361c 18       		.uleb128 0x18
 10073 361d 67657400 		.ascii	"get\000"
 10074 3621 32       		.byte	0x32
 10075 3622 DB       		.byte	0xdb
 10076 3623 6F130000 		.4byte	0x136f
 10077 3627 0C       		.byte	0xc
 10078 3628 08       		.uleb128 0x8
 10079 3629 6E120000 		.4byte	.LASF518
 10080 362d 32       		.byte	0x32
 10081 362e DB       		.byte	0xdb
 10082 362f 10140000 		.4byte	0x1410
 10083 3633 10       		.byte	0x10
 10084 3634 08       		.uleb128 0x8
 10085 3635 96150000 		.4byte	.LASF519
 10086 3639 32       		.byte	0x32
 10087 363a DB       		.byte	0xdb
 10088 363b 2A140000 		.4byte	0x142a
ARM GAS  /tmp/cc5QaxCL.s 			page 178


 10089 363f 14       		.byte	0x14
 10090 3640 08       		.uleb128 0x8
 10091 3641 2C1E0000 		.4byte	.LASF520
 10092 3645 32       		.byte	0x32
 10093 3646 DB       		.byte	0xdb
 10094 3647 4E140000 		.4byte	0x144e
 10095 364b 18       		.byte	0x18
 10096 364c 08       		.uleb128 0x8
 10097 364d DE110000 		.4byte	.LASF521
 10098 3651 32       		.byte	0x32
 10099 3652 DB       		.byte	0xdb
 10100 3653 72140000 		.4byte	0x1472
 10101 3657 1C       		.byte	0x1c
 10102 3658 00       		.byte	0
 10103 3659 05       		.uleb128 0x5
 10104 365a EC350000 		.4byte	0x35ec
 10105 365e 0B       		.uleb128 0xb
 10106 365f 04       		.byte	0x4
 10107 3660 59360000 		.4byte	0x3659
 10108 3664 13       		.uleb128 0x13
 10109 3665 D5000000 		.4byte	0xd5
 10110 3669 74360000 		.4byte	0x3674
 10111 366d 14       		.uleb128 0x14
 10112 366e 37000000 		.4byte	0x37
 10113 3672 FF       		.byte	0xff
 10114 3673 00       		.byte	0
 10115 3674 0B       		.uleb128 0xb
 10116 3675 04       		.byte	0x4
 10117 3676 E7350000 		.4byte	0x35e7
 10118 367a 21       		.uleb128 0x21
 10119 367b 07       		.byte	0x7
 10120 367c 01       		.byte	0x1
 10121 367d 69000000 		.4byte	0x69
 10122 3681 33       		.byte	0x33
 10123 3682 08       		.byte	0x8
 10124 3683 9A360000 		.4byte	0x369a
 10125 3687 22       		.uleb128 0x22
 10126 3688 26080000 		.4byte	.LASF722
 10127 368c 00       		.byte	0
 10128 368d 22       		.uleb128 0x22
 10129 368e E9050000 		.4byte	.LASF723
 10130 3692 01       		.byte	0x1
 10131 3693 22       		.uleb128 0x22
 10132 3694 50170000 		.4byte	.LASF724
 10133 3698 02       		.byte	0x2
 10134 3699 00       		.byte	0
 10135 369a 03       		.uleb128 0x3
 10136 369b 661F0000 		.4byte	.LASF725
 10137 369f 33       		.byte	0x33
 10138 36a0 0C       		.byte	0xc
 10139 36a1 7A360000 		.4byte	0x367a
 10140 36a5 21       		.uleb128 0x21
 10141 36a6 07       		.byte	0x7
 10142 36a7 01       		.byte	0x1
 10143 36a8 69000000 		.4byte	0x69
 10144 36ac 33       		.byte	0x33
 10145 36ad 0E       		.byte	0xe
ARM GAS  /tmp/cc5QaxCL.s 			page 179


 10146 36ae C5360000 		.4byte	0x36c5
 10147 36b2 22       		.uleb128 0x22
 10148 36b3 DE010000 		.4byte	.LASF726
 10149 36b7 20       		.byte	0x20
 10150 36b8 22       		.uleb128 0x22
 10151 36b9 881C0000 		.4byte	.LASF727
 10152 36bd 40       		.byte	0x40
 10153 36be 22       		.uleb128 0x22
 10154 36bf 971C0000 		.4byte	.LASF728
 10155 36c3 80       		.byte	0x80
 10156 36c4 00       		.byte	0
 10157 36c5 03       		.uleb128 0x3
 10158 36c6 5A0F0000 		.4byte	.LASF729
 10159 36ca 33       		.byte	0x33
 10160 36cb 12       		.byte	0x12
 10161 36cc A5360000 		.4byte	0x36a5
 10162 36d0 21       		.uleb128 0x21
 10163 36d1 07       		.byte	0x7
 10164 36d2 01       		.byte	0x1
 10165 36d3 69000000 		.4byte	0x69
 10166 36d7 34       		.byte	0x34
 10167 36d8 11       		.byte	0x11
 10168 36d9 2C370000 		.4byte	0x372c
 10169 36dd 22       		.uleb128 0x22
 10170 36de 241D0000 		.4byte	.LASF730
 10171 36e2 00       		.byte	0
 10172 36e3 22       		.uleb128 0x22
 10173 36e4 B3100000 		.4byte	.LASF731
 10174 36e8 01       		.byte	0x1
 10175 36e9 22       		.uleb128 0x22
 10176 36ea B7170000 		.4byte	.LASF732
 10177 36ee 02       		.byte	0x2
 10178 36ef 22       		.uleb128 0x22
 10179 36f0 840F0000 		.4byte	.LASF733
 10180 36f4 03       		.byte	0x3
 10181 36f5 22       		.uleb128 0x22
 10182 36f6 A11A0000 		.4byte	.LASF734
 10183 36fa 04       		.byte	0x4
 10184 36fb 22       		.uleb128 0x22
 10185 36fc 6F180000 		.4byte	.LASF735
 10186 3700 05       		.byte	0x5
 10187 3701 22       		.uleb128 0x22
 10188 3702 40110000 		.4byte	.LASF736
 10189 3706 06       		.byte	0x6
 10190 3707 22       		.uleb128 0x22
 10191 3708 ED010000 		.4byte	.LASF737
 10192 370c 07       		.byte	0x7
 10193 370d 22       		.uleb128 0x22
 10194 370e A5110000 		.4byte	.LASF738
 10195 3712 08       		.byte	0x8
 10196 3713 22       		.uleb128 0x22
 10197 3714 9E080000 		.4byte	.LASF739
 10198 3718 09       		.byte	0x9
 10199 3719 22       		.uleb128 0x22
 10200 371a D50F0000 		.4byte	.LASF740
 10201 371e 0C       		.byte	0xc
 10202 371f 22       		.uleb128 0x22
ARM GAS  /tmp/cc5QaxCL.s 			page 180


 10203 3720 EC060000 		.4byte	.LASF741
 10204 3724 0D       		.byte	0xd
 10205 3725 22       		.uleb128 0x22
 10206 3726 E10B0000 		.4byte	.LASF742
 10207 372a 0E       		.byte	0xe
 10208 372b 00       		.byte	0
 10209 372c 03       		.uleb128 0x3
 10210 372d A61C0000 		.4byte	.LASF743
 10211 3731 34       		.byte	0x34
 10212 3732 1F       		.byte	0x1f
 10213 3733 D0360000 		.4byte	0x36d0
 10214 3737 07       		.uleb128 0x7
 10215 3738 89080000 		.4byte	.LASF744
 10216 373c 08       		.byte	0x8
 10217 373d 34       		.byte	0x34
 10218 373e 21       		.byte	0x21
 10219 373f 80370000 		.4byte	0x3780
 10220 3743 08       		.uleb128 0x8
 10221 3744 E61A0000 		.4byte	.LASF745
 10222 3748 34       		.byte	0x34
 10223 3749 22       		.byte	0x22
 10224 374a F0000000 		.4byte	0xf0
 10225 374e 00       		.byte	0
 10226 374f 08       		.uleb128 0x8
 10227 3750 06020000 		.4byte	.LASF746
 10228 3754 34       		.byte	0x34
 10229 3755 23       		.byte	0x23
 10230 3756 F0000000 		.4byte	0xf0
 10231 375a 02       		.byte	0x2
 10232 375b 08       		.uleb128 0x8
 10233 375c 26180000 		.4byte	.LASF747
 10234 3760 34       		.byte	0x34
 10235 3761 24       		.byte	0x24
 10236 3762 2C370000 		.4byte	0x372c
 10237 3766 04       		.byte	0x4
 10238 3767 08       		.uleb128 0x8
 10239 3768 0C1F0000 		.4byte	.LASF748
 10240 376c 34       		.byte	0x34
 10241 376d 25       		.byte	0x25
 10242 376e C5360000 		.4byte	0x36c5
 10243 3772 05       		.byte	0x5
 10244 3773 08       		.uleb128 0x8
 10245 3774 1F1F0000 		.4byte	.LASF749
 10246 3778 34       		.byte	0x34
 10247 3779 26       		.byte	0x26
 10248 377a C5360000 		.4byte	0x36c5
 10249 377e 06       		.byte	0x6
 10250 377f 00       		.byte	0
 10251 3780 16       		.uleb128 0x16
 10252 3781 C2070000 		.4byte	.LASF750
 10253 3785 35       		.byte	0x35
 10254 3786 14       		.byte	0x14
 10255 3787 A6340000 		.4byte	0x34a6
 10256 378b 16       		.uleb128 0x16
 10257 378c 470A0000 		.4byte	.LASF751
 10258 3790 35       		.byte	0x35
 10259 3791 15       		.byte	0x15
ARM GAS  /tmp/cc5QaxCL.s 			page 181


 10260 3792 DC350000 		.4byte	0x35dc
 10261 3796 16       		.uleb128 0x16
 10262 3797 C20F0000 		.4byte	.LASF752
 10263 379b 35       		.byte	0x35
 10264 379c 16       		.byte	0x16
 10265 379d 2A350000 		.4byte	0x352a
 10266 37a1 2D       		.uleb128 0x2d
 10267 37a2 75080000 		.4byte	.LASF753
 10268 37a6 01       		.byte	0x1
 10269 37a7 5A       		.byte	0x5a
 10270 37a8 37370000 		.4byte	0x3737
 10271 37ac 05       		.uleb128 0x5
 10272 37ad 03       		.byte	0x3
 10273 37ae 00000000 		.4byte	po6030_conf
 10274 37b2 2E       		.uleb128 0x2e
 10275 37b3 B3070000 		.4byte	.LASF779
 10276 37b7 01       		.byte	0x1
 10277 37b8 5B       		.byte	0x5b
 10278 37b9 02150000 		.4byte	0x1502
 10279 37bd 2F       		.uleb128 0x2f
 10280 37be 2C110000 		.4byte	.LASF754
 10281 37c2 01       		.byte	0x1
 10282 37c3 1E04     		.2byte	0x41e
 10283 37c5 D5000000 		.4byte	0xd5
 10284 37c9 00000000 		.4byte	.LFB275
 10285 37cd 40000000 		.4byte	.LFE275-.LFB275
 10286 37d1 01       		.uleb128 0x1
 10287 37d2 9C       		.byte	0x9c
 10288 37d3 13380000 		.4byte	0x3813
 10289 37d7 30       		.uleb128 0x30
 10290 37d8 696400   		.ascii	"id\000"
 10291 37db 01       		.byte	0x1
 10292 37dc 1F04     		.2byte	0x41f
 10293 37de F0000000 		.4byte	0xf0
 10294 37e2 02       		.uleb128 0x2
 10295 37e3 91       		.byte	0x91
 10296 37e4 6A       		.sleb128 -22
 10297 37e5 31       		.uleb128 0x31
 10298 37e6 72657300 		.ascii	"res\000"
 10299 37ea 01       		.byte	0x1
 10300 37eb 2004     		.2byte	0x420
 10301 37ed CA000000 		.4byte	0xca
 10302 37f1 00000000 		.4byte	.LLST65
 10303 37f5 32       		.uleb128 0x32
 10304 37f6 16000000 		.4byte	.LVL463
 10305 37fa 8B450000 		.4byte	0x458b
 10306 37fe 09380000 		.4byte	0x3809
 10307 3802 33       		.uleb128 0x33
 10308 3803 01       		.uleb128 0x1
 10309 3804 50       		.byte	0x50
 10310 3805 02       		.uleb128 0x2
 10311 3806 91       		.byte	0x91
 10312 3807 6A       		.sleb128 -22
 10313 3808 00       		.byte	0
 10314 3809 34       		.uleb128 0x34
 10315 380a 3C000000 		.4byte	.LVL467
 10316 380e 0B550000 		.4byte	0x550b
ARM GAS  /tmp/cc5QaxCL.s 			page 182


 10317 3812 00       		.byte	0
 10318 3813 2F       		.uleb128 0x2f
 10319 3814 12070000 		.4byte	.LASF755
 10320 3818 01       		.byte	0x1
 10321 3819 1604     		.2byte	0x416
 10322 381b 0B010000 		.4byte	0x10b
 10323 381f 00000000 		.4byte	.LFB274
 10324 3823 34000000 		.4byte	.LFE274-.LFB274
 10325 3827 01       		.uleb128 0x1
 10326 3828 9C       		.byte	0x9c
 10327 3829 37380000 		.4byte	0x3837
 10328 382d 34       		.uleb128 0x34
 10329 382e 2C000000 		.4byte	.LVL462
 10330 3832 0B550000 		.4byte	0x550b
 10331 3836 00       		.byte	0
 10332 3837 2F       		.uleb128 0x2f
 10333 3838 450B0000 		.4byte	.LASF756
 10334 383c 01       		.byte	0x1
 10335 383d EE03     		.2byte	0x3ee
 10336 383f CA000000 		.4byte	0xca
 10337 3843 00000000 		.4byte	.LFB273
 10338 3847 7C000000 		.4byte	.LFE273-.LFB273
 10339 384b 01       		.uleb128 0x1
 10340 384c 9C       		.byte	0x9c
 10341 384d 52390000 		.4byte	0x3952
 10342 3851 35       		.uleb128 0x35
 10343 3852 E31F0000 		.4byte	.LASF757
 10344 3856 01       		.byte	0x1
 10345 3857 EE03     		.2byte	0x3ee
 10346 3859 F0000000 		.4byte	0xf0
 10347 385d 1E000000 		.4byte	.LLST61
 10348 3861 35       		.uleb128 0x35
 10349 3862 3F050000 		.4byte	.LASF758
 10350 3866 01       		.byte	0x1
 10351 3867 EE03     		.2byte	0x3ee
 10352 3869 D5000000 		.4byte	0xd5
 10353 386d 3F000000 		.4byte	.LLST62
 10354 3871 31       		.uleb128 0x31
 10355 3872 65727200 		.ascii	"err\000"
 10356 3876 01       		.byte	0x1
 10357 3877 EF03     		.2byte	0x3ef
 10358 3879 CA000000 		.4byte	0xca
 10359 387d 60000000 		.4byte	.LLST63
 10360 3881 36       		.uleb128 0x36
 10361 3882 6F450000 		.4byte	0x456f
 10362 3886 22000000 		.4byte	.LBB152
 10363 388a 0A000000 		.4byte	.LBE152-.LBB152
 10364 388e 01       		.byte	0x1
 10365 388f F503     		.2byte	0x3f5
 10366 3891 B9380000 		.4byte	0x38b9
 10367 3895 37       		.uleb128 0x37
 10368 3896 7F450000 		.4byte	0x457f
 10369 389a AB000000 		.4byte	.LLST64
 10370 389e 38       		.uleb128 0x38
 10371 389f 2C000000 		.4byte	.LVL453
 10372 38a3 14550000 		.4byte	0x5514
 10373 38a7 33       		.uleb128 0x33
ARM GAS  /tmp/cc5QaxCL.s 			page 183


 10374 38a8 01       		.uleb128 0x1
 10375 38a9 50       		.byte	0x50
 10376 38aa 02       		.uleb128 0x2
 10377 38ab 08       		.byte	0x8
 10378 38ac 6E       		.byte	0x6e
 10379 38ad 33       		.uleb128 0x33
 10380 38ae 01       		.uleb128 0x1
 10381 38af 51       		.byte	0x51
 10382 38b0 01       		.uleb128 0x1
 10383 38b1 33       		.byte	0x33
 10384 38b2 33       		.uleb128 0x33
 10385 38b3 01       		.uleb128 0x1
 10386 38b4 52       		.byte	0x52
 10387 38b5 01       		.uleb128 0x1
 10388 38b6 32       		.byte	0x32
 10389 38b7 00       		.byte	0
 10390 38b8 00       		.byte	0
 10391 38b9 32       		.uleb128 0x32
 10392 38ba 14000000 		.4byte	.LVL449
 10393 38be 52390000 		.4byte	0x3952
 10394 38c2 CC380000 		.4byte	0x38cc
 10395 38c6 33       		.uleb128 0x33
 10396 38c7 01       		.uleb128 0x1
 10397 38c8 50       		.byte	0x50
 10398 38c9 01       		.uleb128 0x1
 10399 38ca 30       		.byte	0x30
 10400 38cb 00       		.byte	0
 10401 38cc 32       		.uleb128 0x32
 10402 38cd 3A000000 		.4byte	.LVL454
 10403 38d1 14550000 		.4byte	0x5514
 10404 38d5 EC380000 		.4byte	0x38ec
 10405 38d9 33       		.uleb128 0x33
 10406 38da 01       		.uleb128 0x1
 10407 38db 50       		.byte	0x50
 10408 38dc 02       		.uleb128 0x2
 10409 38dd 08       		.byte	0x8
 10410 38de 6E       		.byte	0x6e
 10411 38df 33       		.uleb128 0x33
 10412 38e0 01       		.uleb128 0x1
 10413 38e1 51       		.byte	0x51
 10414 38e2 02       		.uleb128 0x2
 10415 38e3 08       		.byte	0x8
 10416 38e4 50       		.byte	0x50
 10417 38e5 33       		.uleb128 0x33
 10418 38e6 01       		.uleb128 0x1
 10419 38e7 52       		.byte	0x52
 10420 38e8 02       		.uleb128 0x2
 10421 38e9 08       		.byte	0x8
 10422 38ea 27       		.byte	0x27
 10423 38eb 00       		.byte	0
 10424 38ec 32       		.uleb128 0x32
 10425 38ed 48000000 		.4byte	.LVL456
 10426 38f1 14550000 		.4byte	0x5514
 10427 38f5 0E390000 		.4byte	0x390e
 10428 38f9 33       		.uleb128 0x33
 10429 38fa 01       		.uleb128 0x1
 10430 38fb 50       		.byte	0x50
ARM GAS  /tmp/cc5QaxCL.s 			page 184


 10431 38fc 02       		.uleb128 0x2
 10432 38fd 08       		.byte	0x8
 10433 38fe 6E       		.byte	0x6e
 10434 38ff 33       		.uleb128 0x33
 10435 3900 01       		.uleb128 0x1
 10436 3901 51       		.byte	0x51
 10437 3902 02       		.uleb128 0x2
 10438 3903 08       		.byte	0x8
 10439 3904 4C       		.byte	0x4c
 10440 3905 33       		.uleb128 0x33
 10441 3906 01       		.uleb128 0x1
 10442 3907 52       		.byte	0x52
 10443 3908 04       		.uleb128 0x4
 10444 3909 75       		.byte	0x75
 10445 390a 00       		.sleb128 0
 10446 390b 38       		.byte	0x38
 10447 390c 25       		.byte	0x25
 10448 390d 00       		.byte	0
 10449 390e 32       		.uleb128 0x32
 10450 390f 56000000 		.4byte	.LVL458
 10451 3913 14550000 		.4byte	0x5514
 10452 3917 2E390000 		.4byte	0x392e
 10453 391b 33       		.uleb128 0x33
 10454 391c 01       		.uleb128 0x1
 10455 391d 50       		.byte	0x50
 10456 391e 02       		.uleb128 0x2
 10457 391f 08       		.byte	0x8
 10458 3920 6E       		.byte	0x6e
 10459 3921 33       		.uleb128 0x33
 10460 3922 01       		.uleb128 0x1
 10461 3923 51       		.byte	0x51
 10462 3924 02       		.uleb128 0x2
 10463 3925 08       		.byte	0x8
 10464 3926 4D       		.byte	0x4d
 10465 3927 33       		.uleb128 0x33
 10466 3928 01       		.uleb128 0x1
 10467 3929 52       		.byte	0x52
 10468 392a 02       		.uleb128 0x2
 10469 392b 75       		.byte	0x75
 10470 392c 00       		.sleb128 0
 10471 392d 00       		.byte	0
 10472 392e 39       		.uleb128 0x39
 10473 392f 72000000 		.4byte	.LVL460
 10474 3933 14550000 		.4byte	0x5514
 10475 3937 48390000 		.4byte	0x3948
 10476 393b 33       		.uleb128 0x33
 10477 393c 01       		.uleb128 0x1
 10478 393d 50       		.byte	0x50
 10479 393e 02       		.uleb128 0x2
 10480 393f 08       		.byte	0x8
 10481 3940 6E       		.byte	0x6e
 10482 3941 33       		.uleb128 0x33
 10483 3942 01       		.uleb128 0x1
 10484 3943 51       		.byte	0x51
 10485 3944 02       		.uleb128 0x2
 10486 3945 08       		.byte	0x8
 10487 3946 4E       		.byte	0x4e
ARM GAS  /tmp/cc5QaxCL.s 			page 185


 10488 3947 00       		.byte	0
 10489 3948 34       		.uleb128 0x34
 10490 3949 76000000 		.4byte	.LVL461
 10491 394d 0B550000 		.4byte	0x550b
 10492 3951 00       		.byte	0
 10493 3952 2F       		.uleb128 0x2f
 10494 3953 561E0000 		.4byte	.LASF759
 10495 3957 01       		.byte	0x1
 10496 3958 D903     		.2byte	0x3d9
 10497 395a CA000000 		.4byte	0xca
 10498 395e 00000000 		.4byte	.LFB272
 10499 3962 60000000 		.4byte	.LFE272-.LFB272
 10500 3966 01       		.uleb128 0x1
 10501 3967 9C       		.byte	0x9c
 10502 3968 143A0000 		.4byte	0x3a14
 10503 396c 3A       		.uleb128 0x3a
 10504 396d 616500   		.ascii	"ae\000"
 10505 3970 01       		.byte	0x1
 10506 3971 D903     		.2byte	0x3d9
 10507 3973 D5000000 		.4byte	0xd5
 10508 3977 BF000000 		.4byte	.LLST58
 10509 397b 31       		.uleb128 0x31
 10510 397c 65727200 		.ascii	"err\000"
 10511 3980 01       		.byte	0x1
 10512 3981 DA03     		.2byte	0x3da
 10513 3983 CA000000 		.4byte	0xca
 10514 3987 E0000000 		.4byte	.LLST59
 10515 398b 3B       		.uleb128 0x3b
 10516 398c 510A0000 		.4byte	.LASF760
 10517 3990 01       		.byte	0x1
 10518 3991 DB03     		.2byte	0x3db
 10519 3993 D5000000 		.4byte	0xd5
 10520 3997 02       		.uleb128 0x2
 10521 3998 91       		.byte	0x91
 10522 3999 6B       		.sleb128 -21
 10523 399a 3C       		.uleb128 0x3c
 10524 399b 6F450000 		.4byte	0x456f
 10525 399f 0E000000 		.4byte	.LBB148
 10526 39a3 A8000000 		.4byte	.Ldebug_ranges0+0xa8
 10527 39a7 01       		.byte	0x1
 10528 39a8 DD03     		.2byte	0x3dd
 10529 39aa D2390000 		.4byte	0x39d2
 10530 39ae 37       		.uleb128 0x37
 10531 39af 7F450000 		.4byte	0x457f
 10532 39b3 FF000000 		.4byte	.LLST60
 10533 39b7 38       		.uleb128 0x38
 10534 39b8 1C000000 		.4byte	.LVL441
 10535 39bc 14550000 		.4byte	0x5514
 10536 39c0 33       		.uleb128 0x33
 10537 39c1 01       		.uleb128 0x1
 10538 39c2 50       		.byte	0x50
 10539 39c3 02       		.uleb128 0x2
 10540 39c4 08       		.byte	0x8
 10541 39c5 6E       		.byte	0x6e
 10542 39c6 33       		.uleb128 0x33
 10543 39c7 01       		.uleb128 0x1
 10544 39c8 51       		.byte	0x51
ARM GAS  /tmp/cc5QaxCL.s 			page 186


 10545 39c9 01       		.uleb128 0x1
 10546 39ca 33       		.byte	0x33
 10547 39cb 33       		.uleb128 0x33
 10548 39cc 01       		.uleb128 0x1
 10549 39cd 52       		.byte	0x52
 10550 39ce 01       		.uleb128 0x1
 10551 39cf 32       		.byte	0x32
 10552 39d0 00       		.byte	0
 10553 39d1 00       		.byte	0
 10554 39d2 32       		.uleb128 0x32
 10555 39d3 36000000 		.4byte	.LVL442
 10556 39d7 1F550000 		.4byte	0x551f
 10557 39db F1390000 		.4byte	0x39f1
 10558 39df 33       		.uleb128 0x33
 10559 39e0 01       		.uleb128 0x1
 10560 39e1 50       		.byte	0x50
 10561 39e2 02       		.uleb128 0x2
 10562 39e3 08       		.byte	0x8
 10563 39e4 6E       		.byte	0x6e
 10564 39e5 33       		.uleb128 0x33
 10565 39e6 01       		.uleb128 0x1
 10566 39e7 51       		.byte	0x51
 10567 39e8 01       		.uleb128 0x1
 10568 39e9 34       		.byte	0x34
 10569 39ea 33       		.uleb128 0x33
 10570 39eb 01       		.uleb128 0x1
 10571 39ec 52       		.byte	0x52
 10572 39ed 02       		.uleb128 0x2
 10573 39ee 91       		.byte	0x91
 10574 39ef 6B       		.sleb128 -21
 10575 39f0 00       		.byte	0
 10576 39f1 32       		.uleb128 0x32
 10577 39f2 56000000 		.4byte	.LVL444
 10578 39f6 14550000 		.4byte	0x5514
 10579 39fa 0A3A0000 		.4byte	0x3a0a
 10580 39fe 33       		.uleb128 0x33
 10581 39ff 01       		.uleb128 0x1
 10582 3a00 50       		.byte	0x50
 10583 3a01 02       		.uleb128 0x2
 10584 3a02 08       		.byte	0x8
 10585 3a03 6E       		.byte	0x6e
 10586 3a04 33       		.uleb128 0x33
 10587 3a05 01       		.uleb128 0x1
 10588 3a06 51       		.byte	0x51
 10589 3a07 01       		.uleb128 0x1
 10590 3a08 34       		.byte	0x34
 10591 3a09 00       		.byte	0
 10592 3a0a 34       		.uleb128 0x34
 10593 3a0b 5C000000 		.4byte	.LVL445
 10594 3a0f 0B550000 		.4byte	0x550b
 10595 3a13 00       		.byte	0
 10596 3a14 2F       		.uleb128 0x2f
 10597 3a15 7E140000 		.4byte	.LASF761
 10598 3a19 01       		.byte	0x1
 10599 3a1a C103     		.2byte	0x3c1
 10600 3a1c CA000000 		.4byte	0xca
 10601 3a20 00000000 		.4byte	.LFB271
ARM GAS  /tmp/cc5QaxCL.s 			page 187


 10602 3a24 70000000 		.4byte	.LFE271-.LFB271
 10603 3a28 01       		.uleb128 0x1
 10604 3a29 9C       		.byte	0x9c
 10605 3a2a 173B0000 		.4byte	0x3b17
 10606 3a2e 3A       		.uleb128 0x3a
 10607 3a2f 7200     		.ascii	"r\000"
 10608 3a31 01       		.byte	0x1
 10609 3a32 C103     		.2byte	0x3c1
 10610 3a34 D5000000 		.4byte	0xd5
 10611 3a38 13010000 		.4byte	.LLST53
 10612 3a3c 3A       		.uleb128 0x3a
 10613 3a3d 6700     		.ascii	"g\000"
 10614 3a3f 01       		.byte	0x1
 10615 3a40 C103     		.2byte	0x3c1
 10616 3a42 D5000000 		.4byte	0xd5
 10617 3a46 34010000 		.4byte	.LLST54
 10618 3a4a 3A       		.uleb128 0x3a
 10619 3a4b 6200     		.ascii	"b\000"
 10620 3a4d 01       		.byte	0x1
 10621 3a4e C103     		.2byte	0x3c1
 10622 3a50 D5000000 		.4byte	0xd5
 10623 3a54 55010000 		.4byte	.LLST55
 10624 3a58 31       		.uleb128 0x31
 10625 3a59 65727200 		.ascii	"err\000"
 10626 3a5d 01       		.byte	0x1
 10627 3a5e C203     		.2byte	0x3c2
 10628 3a60 CA000000 		.4byte	0xca
 10629 3a64 76010000 		.4byte	.LLST56
 10630 3a68 36       		.uleb128 0x36
 10631 3a69 6F450000 		.4byte	0x456f
 10632 3a6d 24000000 		.4byte	.LBB146
 10633 3a71 0A000000 		.4byte	.LBE146-.LBB146
 10634 3a75 01       		.byte	0x1
 10635 3a76 C803     		.2byte	0x3c8
 10636 3a78 A03A0000 		.4byte	0x3aa0
 10637 3a7c 37       		.uleb128 0x37
 10638 3a7d 7F450000 		.4byte	0x457f
 10639 3a81 B6010000 		.4byte	.LLST57
 10640 3a85 38       		.uleb128 0x38
 10641 3a86 2E000000 		.4byte	.LVL430
 10642 3a8a 14550000 		.4byte	0x5514
 10643 3a8e 33       		.uleb128 0x33
 10644 3a8f 01       		.uleb128 0x1
 10645 3a90 50       		.byte	0x50
 10646 3a91 02       		.uleb128 0x2
 10647 3a92 08       		.byte	0x8
 10648 3a93 6E       		.byte	0x6e
 10649 3a94 33       		.uleb128 0x33
 10650 3a95 01       		.uleb128 0x1
 10651 3a96 51       		.byte	0x51
 10652 3a97 01       		.uleb128 0x1
 10653 3a98 33       		.byte	0x33
 10654 3a99 33       		.uleb128 0x33
 10655 3a9a 01       		.uleb128 0x1
 10656 3a9b 52       		.byte	0x52
 10657 3a9c 01       		.uleb128 0x1
 10658 3a9d 32       		.byte	0x32
ARM GAS  /tmp/cc5QaxCL.s 			page 188


 10659 3a9e 00       		.byte	0
 10660 3a9f 00       		.byte	0
 10661 3aa0 32       		.uleb128 0x32
 10662 3aa1 16000000 		.4byte	.LVL426
 10663 3aa5 173B0000 		.4byte	0x3b17
 10664 3aa9 B33A0000 		.4byte	0x3ab3
 10665 3aad 33       		.uleb128 0x33
 10666 3aae 01       		.uleb128 0x1
 10667 3aaf 50       		.byte	0x50
 10668 3ab0 01       		.uleb128 0x1
 10669 3ab1 30       		.byte	0x30
 10670 3ab2 00       		.byte	0
 10671 3ab3 32       		.uleb128 0x32
 10672 3ab4 3C000000 		.4byte	.LVL431
 10673 3ab8 14550000 		.4byte	0x5514
 10674 3abc D33A0000 		.4byte	0x3ad3
 10675 3ac0 33       		.uleb128 0x33
 10676 3ac1 01       		.uleb128 0x1
 10677 3ac2 50       		.byte	0x50
 10678 3ac3 02       		.uleb128 0x2
 10679 3ac4 08       		.byte	0x8
 10680 3ac5 6E       		.byte	0x6e
 10681 3ac6 33       		.uleb128 0x33
 10682 3ac7 01       		.uleb128 0x1
 10683 3ac8 51       		.byte	0x51
 10684 3ac9 02       		.uleb128 0x2
 10685 3aca 09       		.byte	0x9
 10686 3acb A4       		.byte	0xa4
 10687 3acc 33       		.uleb128 0x33
 10688 3acd 01       		.uleb128 0x1
 10689 3ace 52       		.byte	0x52
 10690 3acf 02       		.uleb128 0x2
 10691 3ad0 75       		.byte	0x75
 10692 3ad1 00       		.sleb128 0
 10693 3ad2 00       		.byte	0
 10694 3ad3 32       		.uleb128 0x32
 10695 3ad4 4A000000 		.4byte	.LVL433
 10696 3ad8 14550000 		.4byte	0x5514
 10697 3adc F33A0000 		.4byte	0x3af3
 10698 3ae0 33       		.uleb128 0x33
 10699 3ae1 01       		.uleb128 0x1
 10700 3ae2 50       		.byte	0x50
 10701 3ae3 02       		.uleb128 0x2
 10702 3ae4 08       		.byte	0x8
 10703 3ae5 6E       		.byte	0x6e
 10704 3ae6 33       		.uleb128 0x33
 10705 3ae7 01       		.uleb128 0x1
 10706 3ae8 51       		.byte	0x51
 10707 3ae9 02       		.uleb128 0x2
 10708 3aea 09       		.byte	0x9
 10709 3aeb A5       		.byte	0xa5
 10710 3aec 33       		.uleb128 0x33
 10711 3aed 01       		.uleb128 0x1
 10712 3aee 52       		.byte	0x52
 10713 3aef 02       		.uleb128 0x2
 10714 3af0 76       		.byte	0x76
 10715 3af1 00       		.sleb128 0
ARM GAS  /tmp/cc5QaxCL.s 			page 189


 10716 3af2 00       		.byte	0
 10717 3af3 39       		.uleb128 0x39
 10718 3af4 66000000 		.4byte	.LVL435
 10719 3af8 14550000 		.4byte	0x5514
 10720 3afc 0D3B0000 		.4byte	0x3b0d
 10721 3b00 33       		.uleb128 0x33
 10722 3b01 01       		.uleb128 0x1
 10723 3b02 50       		.byte	0x50
 10724 3b03 02       		.uleb128 0x2
 10725 3b04 08       		.byte	0x8
 10726 3b05 6E       		.byte	0x6e
 10727 3b06 33       		.uleb128 0x33
 10728 3b07 01       		.uleb128 0x1
 10729 3b08 51       		.byte	0x51
 10730 3b09 02       		.uleb128 0x2
 10731 3b0a 09       		.byte	0x9
 10732 3b0b A6       		.byte	0xa6
 10733 3b0c 00       		.byte	0
 10734 3b0d 34       		.uleb128 0x34
 10735 3b0e 6A000000 		.4byte	.LVL436
 10736 3b12 0B550000 		.4byte	0x550b
 10737 3b16 00       		.byte	0
 10738 3b17 2F       		.uleb128 0x2f
 10739 3b18 07210000 		.4byte	.LASF762
 10740 3b1c 01       		.byte	0x1
 10741 3b1d AC03     		.2byte	0x3ac
 10742 3b1f CA000000 		.4byte	0xca
 10743 3b23 00000000 		.4byte	.LFB270
 10744 3b27 60000000 		.4byte	.LFE270-.LFB270
 10745 3b2b 01       		.uleb128 0x1
 10746 3b2c 9C       		.byte	0x9c
 10747 3b2d DA3B0000 		.4byte	0x3bda
 10748 3b31 3A       		.uleb128 0x3a
 10749 3b32 61776200 		.ascii	"awb\000"
 10750 3b36 01       		.byte	0x1
 10751 3b37 AC03     		.2byte	0x3ac
 10752 3b39 D5000000 		.4byte	0xd5
 10753 3b3d CA010000 		.4byte	.LLST50
 10754 3b41 31       		.uleb128 0x31
 10755 3b42 65727200 		.ascii	"err\000"
 10756 3b46 01       		.byte	0x1
 10757 3b47 AD03     		.2byte	0x3ad
 10758 3b49 CA000000 		.4byte	0xca
 10759 3b4d EB010000 		.4byte	.LLST51
 10760 3b51 3B       		.uleb128 0x3b
 10761 3b52 510A0000 		.4byte	.LASF760
 10762 3b56 01       		.byte	0x1
 10763 3b57 AE03     		.2byte	0x3ae
 10764 3b59 D5000000 		.4byte	0xd5
 10765 3b5d 02       		.uleb128 0x2
 10766 3b5e 91       		.byte	0x91
 10767 3b5f 6B       		.sleb128 -21
 10768 3b60 3C       		.uleb128 0x3c
 10769 3b61 6F450000 		.4byte	0x456f
 10770 3b65 0E000000 		.4byte	.LBB142
 10771 3b69 90000000 		.4byte	.Ldebug_ranges0+0x90
 10772 3b6d 01       		.byte	0x1
ARM GAS  /tmp/cc5QaxCL.s 			page 190


 10773 3b6e B003     		.2byte	0x3b0
 10774 3b70 983B0000 		.4byte	0x3b98
 10775 3b74 37       		.uleb128 0x37
 10776 3b75 7F450000 		.4byte	0x457f
 10777 3b79 0A020000 		.4byte	.LLST52
 10778 3b7d 38       		.uleb128 0x38
 10779 3b7e 1C000000 		.4byte	.LVL418
 10780 3b82 14550000 		.4byte	0x5514
 10781 3b86 33       		.uleb128 0x33
 10782 3b87 01       		.uleb128 0x1
 10783 3b88 50       		.byte	0x50
 10784 3b89 02       		.uleb128 0x2
 10785 3b8a 08       		.byte	0x8
 10786 3b8b 6E       		.byte	0x6e
 10787 3b8c 33       		.uleb128 0x33
 10788 3b8d 01       		.uleb128 0x1
 10789 3b8e 51       		.byte	0x51
 10790 3b8f 01       		.uleb128 0x1
 10791 3b90 33       		.byte	0x33
 10792 3b91 33       		.uleb128 0x33
 10793 3b92 01       		.uleb128 0x1
 10794 3b93 52       		.byte	0x52
 10795 3b94 01       		.uleb128 0x1
 10796 3b95 32       		.byte	0x32
 10797 3b96 00       		.byte	0
 10798 3b97 00       		.byte	0
 10799 3b98 32       		.uleb128 0x32
 10800 3b99 36000000 		.4byte	.LVL419
 10801 3b9d 1F550000 		.4byte	0x551f
 10802 3ba1 B73B0000 		.4byte	0x3bb7
 10803 3ba5 33       		.uleb128 0x33
 10804 3ba6 01       		.uleb128 0x1
 10805 3ba7 50       		.byte	0x50
 10806 3ba8 02       		.uleb128 0x2
 10807 3ba9 08       		.byte	0x8
 10808 3baa 6E       		.byte	0x6e
 10809 3bab 33       		.uleb128 0x33
 10810 3bac 01       		.uleb128 0x1
 10811 3bad 51       		.byte	0x51
 10812 3bae 01       		.uleb128 0x1
 10813 3baf 34       		.byte	0x34
 10814 3bb0 33       		.uleb128 0x33
 10815 3bb1 01       		.uleb128 0x1
 10816 3bb2 52       		.byte	0x52
 10817 3bb3 02       		.uleb128 0x2
 10818 3bb4 91       		.byte	0x91
 10819 3bb5 6B       		.sleb128 -21
 10820 3bb6 00       		.byte	0
 10821 3bb7 32       		.uleb128 0x32
 10822 3bb8 56000000 		.4byte	.LVL421
 10823 3bbc 14550000 		.4byte	0x5514
 10824 3bc0 D03B0000 		.4byte	0x3bd0
 10825 3bc4 33       		.uleb128 0x33
 10826 3bc5 01       		.uleb128 0x1
 10827 3bc6 50       		.byte	0x50
 10828 3bc7 02       		.uleb128 0x2
 10829 3bc8 08       		.byte	0x8
ARM GAS  /tmp/cc5QaxCL.s 			page 191


 10830 3bc9 6E       		.byte	0x6e
 10831 3bca 33       		.uleb128 0x33
 10832 3bcb 01       		.uleb128 0x1
 10833 3bcc 51       		.byte	0x51
 10834 3bcd 01       		.uleb128 0x1
 10835 3bce 34       		.byte	0x34
 10836 3bcf 00       		.byte	0
 10837 3bd0 34       		.uleb128 0x34
 10838 3bd1 5C000000 		.4byte	.LVL422
 10839 3bd5 0B550000 		.4byte	0x550b
 10840 3bd9 00       		.byte	0
 10841 3bda 2F       		.uleb128 0x2f
 10842 3bdb BD180000 		.4byte	.LASF763
 10843 3bdf 01       		.byte	0x1
 10844 3be0 9A03     		.2byte	0x39a
 10845 3be2 CA000000 		.4byte	0xca
 10846 3be6 00000000 		.4byte	.LFB269
 10847 3bea 54000000 		.4byte	.LFE269-.LFB269
 10848 3bee 01       		.uleb128 0x1
 10849 3bef 9C       		.byte	0x9c
 10850 3bf0 903C0000 		.4byte	0x3c90
 10851 3bf4 35       		.uleb128 0x35
 10852 3bf5 E41E0000 		.4byte	.LASF764
 10853 3bf9 01       		.byte	0x1
 10854 3bfa 9A03     		.2byte	0x39a
 10855 3bfc D5000000 		.4byte	0xd5
 10856 3c00 1E020000 		.4byte	.LLST45
 10857 3c04 35       		.uleb128 0x35
 10858 3c05 CC1B0000 		.4byte	.LASF765
 10859 3c09 01       		.byte	0x1
 10860 3c0a 9A03     		.2byte	0x39a
 10861 3c0c D5000000 		.4byte	0xd5
 10862 3c10 3F020000 		.4byte	.LLST46
 10863 3c14 31       		.uleb128 0x31
 10864 3c15 65727200 		.ascii	"err\000"
 10865 3c19 01       		.byte	0x1
 10866 3c1a 9B03     		.2byte	0x39b
 10867 3c1c CA000000 		.4byte	0xca
 10868 3c20 60020000 		.4byte	.LLST47
 10869 3c24 3D       		.uleb128 0x3d
 10870 3c25 510A0000 		.4byte	.LASF760
 10871 3c29 01       		.byte	0x1
 10872 3c2a 9C03     		.2byte	0x39c
 10873 3c2c D5000000 		.4byte	0xd5
 10874 3c30 74020000 		.4byte	.LLST48
 10875 3c34 36       		.uleb128 0x36
 10876 3c35 6F450000 		.4byte	0x456f
 10877 3c39 0E000000 		.4byte	.LBB140
 10878 3c3d 0A000000 		.4byte	.LBE140-.LBB140
 10879 3c41 01       		.byte	0x1
 10880 3c42 9E03     		.2byte	0x39e
 10881 3c44 6C3C0000 		.4byte	0x3c6c
 10882 3c48 37       		.uleb128 0x37
 10883 3c49 7F450000 		.4byte	0x457f
 10884 3c4d 60020000 		.4byte	.LLST47
 10885 3c51 38       		.uleb128 0x38
 10886 3c52 18000000 		.4byte	.LVL408
ARM GAS  /tmp/cc5QaxCL.s 			page 192


 10887 3c56 14550000 		.4byte	0x5514
 10888 3c5a 33       		.uleb128 0x33
 10889 3c5b 01       		.uleb128 0x1
 10890 3c5c 50       		.byte	0x50
 10891 3c5d 02       		.uleb128 0x2
 10892 3c5e 08       		.byte	0x8
 10893 3c5f 6E       		.byte	0x6e
 10894 3c60 33       		.uleb128 0x33
 10895 3c61 01       		.uleb128 0x1
 10896 3c62 51       		.byte	0x51
 10897 3c63 01       		.uleb128 0x1
 10898 3c64 33       		.byte	0x33
 10899 3c65 33       		.uleb128 0x33
 10900 3c66 01       		.uleb128 0x1
 10901 3c67 52       		.byte	0x52
 10902 3c68 01       		.uleb128 0x1
 10903 3c69 30       		.byte	0x30
 10904 3c6a 00       		.byte	0
 10905 3c6b 00       		.byte	0
 10906 3c6c 39       		.uleb128 0x39
 10907 3c6d 40000000 		.4byte	.LVL411
 10908 3c71 14550000 		.4byte	0x5514
 10909 3c75 863C0000 		.4byte	0x3c86
 10910 3c79 33       		.uleb128 0x33
 10911 3c7a 01       		.uleb128 0x1
 10912 3c7b 50       		.byte	0x50
 10913 3c7c 02       		.uleb128 0x2
 10914 3c7d 08       		.byte	0x8
 10915 3c7e 6E       		.byte	0x6e
 10916 3c7f 33       		.uleb128 0x33
 10917 3c80 01       		.uleb128 0x1
 10918 3c81 51       		.byte	0x51
 10919 3c82 02       		.uleb128 0x2
 10920 3c83 09       		.byte	0x9
 10921 3c84 90       		.byte	0x90
 10922 3c85 00       		.byte	0
 10923 3c86 34       		.uleb128 0x34
 10924 3c87 50000000 		.4byte	.LVL413
 10925 3c8b 0B550000 		.4byte	0x550b
 10926 3c8f 00       		.byte	0
 10927 3c90 2F       		.uleb128 0x2f
 10928 3c91 E9040000 		.4byte	.LASF766
 10929 3c95 01       		.byte	0x1
 10930 3c96 9203     		.2byte	0x392
 10931 3c98 CA000000 		.4byte	0xca
 10932 3c9c 00000000 		.4byte	.LFB268
 10933 3ca0 40000000 		.4byte	.LFE268-.LFB268
 10934 3ca4 01       		.uleb128 0x1
 10935 3ca5 9C       		.byte	0x9c
 10936 3ca6 263D0000 		.4byte	0x3d26
 10937 3caa 35       		.uleb128 0x35
 10938 3cab 510A0000 		.4byte	.LASF760
 10939 3caf 01       		.byte	0x1
 10940 3cb0 9203     		.2byte	0x392
 10941 3cb2 D5000000 		.4byte	0xd5
 10942 3cb6 A1020000 		.4byte	.LLST42
 10943 3cba 31       		.uleb128 0x31
ARM GAS  /tmp/cc5QaxCL.s 			page 193


 10944 3cbb 65727200 		.ascii	"err\000"
 10945 3cbf 01       		.byte	0x1
 10946 3cc0 9303     		.2byte	0x393
 10947 3cc2 CA000000 		.4byte	0xca
 10948 3cc6 C2020000 		.4byte	.LLST43
 10949 3cca 3C       		.uleb128 0x3c
 10950 3ccb 6F450000 		.4byte	0x456f
 10951 3ccf 0A000000 		.4byte	.LBB136
 10952 3cd3 78000000 		.4byte	.Ldebug_ranges0+0x78
 10953 3cd7 01       		.byte	0x1
 10954 3cd8 9403     		.2byte	0x394
 10955 3cda 023D0000 		.4byte	0x3d02
 10956 3cde 37       		.uleb128 0x37
 10957 3cdf 7F450000 		.4byte	0x457f
 10958 3ce3 D6020000 		.4byte	.LLST44
 10959 3ce7 38       		.uleb128 0x38
 10960 3ce8 16000000 		.4byte	.LVL401
 10961 3cec 14550000 		.4byte	0x5514
 10962 3cf0 33       		.uleb128 0x33
 10963 3cf1 01       		.uleb128 0x1
 10964 3cf2 50       		.byte	0x50
 10965 3cf3 02       		.uleb128 0x2
 10966 3cf4 08       		.byte	0x8
 10967 3cf5 6E       		.byte	0x6e
 10968 3cf6 33       		.uleb128 0x33
 10969 3cf7 01       		.uleb128 0x1
 10970 3cf8 51       		.byte	0x51
 10971 3cf9 01       		.uleb128 0x1
 10972 3cfa 33       		.byte	0x33
 10973 3cfb 33       		.uleb128 0x33
 10974 3cfc 01       		.uleb128 0x1
 10975 3cfd 52       		.byte	0x52
 10976 3cfe 01       		.uleb128 0x1
 10977 3cff 31       		.byte	0x31
 10978 3d00 00       		.byte	0
 10979 3d01 00       		.byte	0
 10980 3d02 39       		.uleb128 0x39
 10981 3d03 38000000 		.4byte	.LVL402
 10982 3d07 14550000 		.4byte	0x5514
 10983 3d0b 1C3D0000 		.4byte	0x3d1c
 10984 3d0f 33       		.uleb128 0x33
 10985 3d10 01       		.uleb128 0x1
 10986 3d11 50       		.byte	0x50
 10987 3d12 02       		.uleb128 0x2
 10988 3d13 08       		.byte	0x8
 10989 3d14 6E       		.byte	0x6e
 10990 3d15 33       		.uleb128 0x33
 10991 3d16 01       		.uleb128 0x1
 10992 3d17 51       		.byte	0x51
 10993 3d18 02       		.uleb128 0x2
 10994 3d19 09       		.byte	0x9
 10995 3d1a 91       		.byte	0x91
 10996 3d1b 00       		.byte	0
 10997 3d1c 34       		.uleb128 0x34
 10998 3d1d 3C000000 		.4byte	.LVL403
 10999 3d21 0B550000 		.4byte	0x550b
 11000 3d25 00       		.byte	0
ARM GAS  /tmp/cc5QaxCL.s 			page 194


 11001 3d26 2F       		.uleb128 0x2f
 11002 3d27 2C1A0000 		.4byte	.LASF767
 11003 3d2b 01       		.byte	0x1
 11004 3d2c 8A03     		.2byte	0x38a
 11005 3d2e CA000000 		.4byte	0xca
 11006 3d32 00000000 		.4byte	.LFB267
 11007 3d36 40000000 		.4byte	.LFE267-.LFB267
 11008 3d3a 01       		.uleb128 0x1
 11009 3d3b 9C       		.byte	0x9c
 11010 3d3c BC3D0000 		.4byte	0x3dbc
 11011 3d40 35       		.uleb128 0x35
 11012 3d41 510A0000 		.4byte	.LASF760
 11013 3d45 01       		.byte	0x1
 11014 3d46 8A03     		.2byte	0x38a
 11015 3d48 D5000000 		.4byte	0xd5
 11016 3d4c EA020000 		.4byte	.LLST39
 11017 3d50 31       		.uleb128 0x31
 11018 3d51 65727200 		.ascii	"err\000"
 11019 3d55 01       		.byte	0x1
 11020 3d56 8B03     		.2byte	0x38b
 11021 3d58 CA000000 		.4byte	0xca
 11022 3d5c 0B030000 		.4byte	.LLST40
 11023 3d60 3C       		.uleb128 0x3c
 11024 3d61 6F450000 		.4byte	0x456f
 11025 3d65 0A000000 		.4byte	.LBB132
 11026 3d69 60000000 		.4byte	.Ldebug_ranges0+0x60
 11027 3d6d 01       		.byte	0x1
 11028 3d6e 8C03     		.2byte	0x38c
 11029 3d70 983D0000 		.4byte	0x3d98
 11030 3d74 37       		.uleb128 0x37
 11031 3d75 7F450000 		.4byte	0x457f
 11032 3d79 1F030000 		.4byte	.LLST41
 11033 3d7d 38       		.uleb128 0x38
 11034 3d7e 16000000 		.4byte	.LVL395
 11035 3d82 14550000 		.4byte	0x5514
 11036 3d86 33       		.uleb128 0x33
 11037 3d87 01       		.uleb128 0x1
 11038 3d88 50       		.byte	0x50
 11039 3d89 02       		.uleb128 0x2
 11040 3d8a 08       		.byte	0x8
 11041 3d8b 6E       		.byte	0x6e
 11042 3d8c 33       		.uleb128 0x33
 11043 3d8d 01       		.uleb128 0x1
 11044 3d8e 51       		.byte	0x51
 11045 3d8f 01       		.uleb128 0x1
 11046 3d90 33       		.byte	0x33
 11047 3d91 33       		.uleb128 0x33
 11048 3d92 01       		.uleb128 0x1
 11049 3d93 52       		.byte	0x52
 11050 3d94 01       		.uleb128 0x1
 11051 3d95 31       		.byte	0x31
 11052 3d96 00       		.byte	0
 11053 3d97 00       		.byte	0
 11054 3d98 39       		.uleb128 0x39
 11055 3d99 38000000 		.4byte	.LVL396
 11056 3d9d 14550000 		.4byte	0x5514
 11057 3da1 B23D0000 		.4byte	0x3db2
ARM GAS  /tmp/cc5QaxCL.s 			page 195


 11058 3da5 33       		.uleb128 0x33
 11059 3da6 01       		.uleb128 0x1
 11060 3da7 50       		.byte	0x50
 11061 3da8 02       		.uleb128 0x2
 11062 3da9 08       		.byte	0x8
 11063 3daa 6E       		.byte	0x6e
 11064 3dab 33       		.uleb128 0x33
 11065 3dac 01       		.uleb128 0x1
 11066 3dad 51       		.byte	0x51
 11067 3dae 02       		.uleb128 0x2
 11068 3daf 09       		.byte	0x9
 11069 3db0 92       		.byte	0x92
 11070 3db1 00       		.byte	0
 11071 3db2 34       		.uleb128 0x34
 11072 3db3 3C000000 		.4byte	.LVL397
 11073 3db7 0B550000 		.4byte	0x550b
 11074 3dbb 00       		.byte	0
 11075 3dbc 2F       		.uleb128 0x2f
 11076 3dbd AB0F0000 		.4byte	.LASF768
 11077 3dc1 01       		.byte	0x1
 11078 3dc2 6E02     		.2byte	0x26e
 11079 3dc4 CA000000 		.4byte	0xca
 11080 3dc8 00000000 		.4byte	.LFB266
 11081 3dcc E4040000 		.4byte	.LFE266-.LFB266
 11082 3dd0 01       		.uleb128 0x1
 11083 3dd1 9C       		.byte	0x9c
 11084 3dd2 12440000 		.4byte	0x4412
 11085 3dd6 3A       		.uleb128 0x3a
 11086 3dd7 666D7400 		.ascii	"fmt\000"
 11087 3ddb 01       		.byte	0x1
 11088 3ddc 6E02     		.2byte	0x26e
 11089 3dde 2C370000 		.4byte	0x372c
 11090 3de2 33030000 		.4byte	.LLST23
 11091 3de6 3A       		.uleb128 0x3a
 11092 3de7 783100   		.ascii	"x1\000"
 11093 3dea 01       		.byte	0x1
 11094 3deb 6E02     		.2byte	0x26e
 11095 3ded 37000000 		.4byte	0x37
 11096 3df1 1C040000 		.4byte	.LLST24
 11097 3df5 3A       		.uleb128 0x3a
 11098 3df6 793100   		.ascii	"y1\000"
 11099 3df9 01       		.byte	0x1
 11100 3dfa 6E02     		.2byte	0x26e
 11101 3dfc 37000000 		.4byte	0x37
 11102 3e00 8B040000 		.4byte	.LLST25
 11103 3e04 35       		.uleb128 0x35
 11104 3e05 E61A0000 		.4byte	.LASF745
 11105 3e09 01       		.byte	0x1
 11106 3e0a 6F02     		.2byte	0x26f
 11107 3e0c 37000000 		.4byte	0x37
 11108 3e10 FA040000 		.4byte	.LLST26
 11109 3e14 35       		.uleb128 0x35
 11110 3e15 06020000 		.4byte	.LASF746
 11111 3e19 01       		.byte	0x1
 11112 3e1a 6F02     		.2byte	0x26f
 11113 3e1c 37000000 		.4byte	0x37
 11114 3e20 7F050000 		.4byte	.LLST27
ARM GAS  /tmp/cc5QaxCL.s 			page 196


 11115 3e24 35       		.uleb128 0x35
 11116 3e25 680F0000 		.4byte	.LASF769
 11117 3e29 01       		.byte	0x1
 11118 3e2a 7002     		.2byte	0x270
 11119 3e2c C5360000 		.4byte	0x36c5
 11120 3e30 9F050000 		.4byte	.LLST28
 11121 3e34 35       		.uleb128 0x35
 11122 3e35 760F0000 		.4byte	.LASF770
 11123 3e39 01       		.byte	0x1
 11124 3e3a 7002     		.2byte	0x270
 11125 3e3c C5360000 		.4byte	0x36c5
 11126 3e40 BF050000 		.4byte	.LLST29
 11127 3e44 31       		.uleb128 0x31
 11128 3e45 65727200 		.ascii	"err\000"
 11129 3e49 01       		.byte	0x1
 11130 3e4a 7102     		.2byte	0x271
 11131 3e4c CA000000 		.4byte	0xca
 11132 3e50 DF050000 		.4byte	.LLST30
 11133 3e54 31       		.uleb128 0x31
 11134 3e55 783200   		.ascii	"x2\000"
 11135 3e58 01       		.byte	0x1
 11136 3e59 7402     		.2byte	0x274
 11137 3e5b 37000000 		.4byte	0x37
 11138 3e5f AD070000 		.4byte	.LLST31
 11139 3e63 31       		.uleb128 0x31
 11140 3e64 793200   		.ascii	"y2\000"
 11141 3e67 01       		.byte	0x1
 11142 3e68 7502     		.2byte	0x275
 11143 3e6a 37000000 		.4byte	0x37
 11144 3e6e 60080000 		.4byte	.LLST32
 11145 3e72 3D       		.uleb128 0x3d
 11146 3e73 99170000 		.4byte	.LASF771
 11147 3e77 01       		.byte	0x1
 11148 3e78 7602     		.2byte	0x276
 11149 3e7a 37000000 		.4byte	0x37
 11150 3e7e 01090000 		.4byte	.LLST33
 11151 3e82 3D       		.uleb128 0x3d
 11152 3e83 92090000 		.4byte	.LASF772
 11153 3e87 01       		.byte	0x1
 11154 3e88 7602     		.2byte	0x276
 11155 3e8a 37000000 		.4byte	0x37
 11156 3e8e A7090000 		.4byte	.LLST34
 11157 3e92 3D       		.uleb128 0x3d
 11158 3e93 9E0A0000 		.4byte	.LASF773
 11159 3e97 01       		.byte	0x1
 11160 3e98 7702     		.2byte	0x277
 11161 3e9a 37000000 		.4byte	0x37
 11162 3e9e 2D0A0000 		.4byte	.LLST35
 11163 3ea2 3D       		.uleb128 0x3d
 11164 3ea3 59180000 		.4byte	.LASF774
 11165 3ea7 01       		.byte	0x1
 11166 3ea8 7702     		.2byte	0x277
 11167 3eaa 37000000 		.4byte	0x37
 11168 3eae B00A0000 		.4byte	.LLST36
 11169 3eb2 36       		.uleb128 0x36
 11170 3eb3 6F450000 		.4byte	0x456f
 11171 3eb7 20010000 		.4byte	.LBB128
ARM GAS  /tmp/cc5QaxCL.s 			page 197


 11172 3ebb 0A000000 		.4byte	.LBE128-.LBB128
 11173 3ebf 01       		.byte	0x1
 11174 3ec0 CF02     		.2byte	0x2cf
 11175 3ec2 EA3E0000 		.4byte	0x3eea
 11176 3ec6 37       		.uleb128 0x37
 11177 3ec7 7F450000 		.4byte	0x457f
 11178 3ecb 3C0B0000 		.4byte	.LLST37
 11179 3ecf 38       		.uleb128 0x38
 11180 3ed0 2A010000 		.4byte	.LVL279
 11181 3ed4 14550000 		.4byte	0x5514
 11182 3ed8 33       		.uleb128 0x33
 11183 3ed9 01       		.uleb128 0x1
 11184 3eda 50       		.byte	0x50
 11185 3edb 02       		.uleb128 0x2
 11186 3edc 08       		.byte	0x8
 11187 3edd 6E       		.byte	0x6e
 11188 3ede 33       		.uleb128 0x33
 11189 3edf 01       		.uleb128 0x1
 11190 3ee0 51       		.byte	0x51
 11191 3ee1 01       		.uleb128 0x1
 11192 3ee2 33       		.byte	0x33
 11193 3ee3 33       		.uleb128 0x33
 11194 3ee4 01       		.uleb128 0x1
 11195 3ee5 52       		.byte	0x52
 11196 3ee6 01       		.uleb128 0x1
 11197 3ee7 31       		.byte	0x31
 11198 3ee8 00       		.byte	0
 11199 3ee9 00       		.byte	0
 11200 3eea 36       		.uleb128 0x36
 11201 3eeb 6F450000 		.4byte	0x456f
 11202 3eef 50020000 		.4byte	.LBB130
 11203 3ef3 0A000000 		.4byte	.LBE130-.LBB130
 11204 3ef7 01       		.byte	0x1
 11205 3ef8 4503     		.2byte	0x345
 11206 3efa 223F0000 		.4byte	0x3f22
 11207 3efe 37       		.uleb128 0x37
 11208 3eff 7F450000 		.4byte	0x457f
 11209 3f03 500B0000 		.4byte	.LLST38
 11210 3f07 38       		.uleb128 0x38
 11211 3f08 5A020000 		.4byte	.LVL311
 11212 3f0c 14550000 		.4byte	0x5514
 11213 3f10 33       		.uleb128 0x33
 11214 3f11 01       		.uleb128 0x1
 11215 3f12 50       		.byte	0x50
 11216 3f13 02       		.uleb128 0x2
 11217 3f14 08       		.byte	0x8
 11218 3f15 6E       		.byte	0x6e
 11219 3f16 33       		.uleb128 0x33
 11220 3f17 01       		.uleb128 0x1
 11221 3f18 51       		.byte	0x51
 11222 3f19 01       		.uleb128 0x1
 11223 3f1a 33       		.byte	0x33
 11224 3f1b 33       		.uleb128 0x33
 11225 3f1c 01       		.uleb128 0x1
 11226 3f1d 52       		.byte	0x52
 11227 3f1e 01       		.uleb128 0x1
 11228 3f1f 32       		.byte	0x32
ARM GAS  /tmp/cc5QaxCL.s 			page 198


 11229 3f20 00       		.byte	0
 11230 3f21 00       		.byte	0
 11231 3f22 32       		.uleb128 0x32
 11232 3f23 AA000000 		.4byte	.LVL260
 11233 3f27 48450000 		.4byte	0x4548
 11234 3f2b 383F0000 		.4byte	0x3f38
 11235 3f2f 33       		.uleb128 0x33
 11236 3f30 01       		.uleb128 0x1
 11237 3f31 50       		.byte	0x50
 11238 3f32 04       		.uleb128 0x4
 11239 3f33 7D       		.byte	0x7d
 11240 3f34 00       		.sleb128 0
 11241 3f35 94       		.byte	0x94
 11242 3f36 01       		.byte	0x1
 11243 3f37 00       		.byte	0
 11244 3f38 32       		.uleb128 0x32
 11245 3f39 1C010000 		.4byte	.LVL276
 11246 3f3d 48450000 		.4byte	0x4548
 11247 3f41 4E3F0000 		.4byte	0x3f4e
 11248 3f45 33       		.uleb128 0x33
 11249 3f46 01       		.uleb128 0x1
 11250 3f47 50       		.byte	0x50
 11251 3f48 04       		.uleb128 0x4
 11252 3f49 7D       		.byte	0x7d
 11253 3f4a 00       		.sleb128 0
 11254 3f4b 94       		.byte	0x94
 11255 3f4c 01       		.byte	0x1
 11256 3f4d 00       		.byte	0
 11257 3f4e 32       		.uleb128 0x32
 11258 3f4f 3E010000 		.4byte	.LVL280
 11259 3f53 14550000 		.4byte	0x5514
 11260 3f57 713F0000 		.4byte	0x3f71
 11261 3f5b 33       		.uleb128 0x33
 11262 3f5c 01       		.uleb128 0x1
 11263 3f5d 50       		.byte	0x50
 11264 3f5e 02       		.uleb128 0x2
 11265 3f5f 08       		.byte	0x8
 11266 3f60 6E       		.byte	0x6e
 11267 3f61 33       		.uleb128 0x33
 11268 3f62 01       		.uleb128 0x1
 11269 3f63 51       		.byte	0x51
 11270 3f64 02       		.uleb128 0x2
 11271 3f65 08       		.byte	0x8
 11272 3f66 50       		.byte	0x50
 11273 3f67 33       		.uleb128 0x33
 11274 3f68 01       		.uleb128 0x1
 11275 3f69 52       		.byte	0x52
 11276 3f6a 05       		.uleb128 0x5
 11277 3f6b 91       		.byte	0x91
 11278 3f6c B87F     		.sleb128 -72
 11279 3f6e 94       		.byte	0x94
 11280 3f6f 01       		.byte	0x1
 11281 3f70 00       		.byte	0
 11282 3f71 32       		.uleb128 0x32
 11283 3f72 50010000 		.4byte	.LVL282
 11284 3f76 14550000 		.4byte	0x5514
 11285 3f7a 943F0000 		.4byte	0x3f94
ARM GAS  /tmp/cc5QaxCL.s 			page 199


 11286 3f7e 33       		.uleb128 0x33
 11287 3f7f 01       		.uleb128 0x1
 11288 3f80 50       		.byte	0x50
 11289 3f81 02       		.uleb128 0x2
 11290 3f82 08       		.byte	0x8
 11291 3f83 6E       		.byte	0x6e
 11292 3f84 33       		.uleb128 0x33
 11293 3f85 01       		.uleb128 0x1
 11294 3f86 51       		.byte	0x51
 11295 3f87 02       		.uleb128 0x2
 11296 3f88 08       		.byte	0x8
 11297 3f89 51       		.byte	0x51
 11298 3f8a 33       		.uleb128 0x33
 11299 3f8b 01       		.uleb128 0x1
 11300 3f8c 52       		.byte	0x52
 11301 3f8d 05       		.uleb128 0x5
 11302 3f8e 91       		.byte	0x91
 11303 3f8f BC7F     		.sleb128 -68
 11304 3f91 94       		.byte	0x94
 11305 3f92 01       		.byte	0x1
 11306 3f93 00       		.byte	0
 11307 3f94 32       		.uleb128 0x32
 11308 3f95 64010000 		.4byte	.LVL284
 11309 3f99 14550000 		.4byte	0x5514
 11310 3f9d B63F0000 		.4byte	0x3fb6
 11311 3fa1 33       		.uleb128 0x33
 11312 3fa2 01       		.uleb128 0x1
 11313 3fa3 50       		.byte	0x50
 11314 3fa4 02       		.uleb128 0x2
 11315 3fa5 08       		.byte	0x8
 11316 3fa6 6E       		.byte	0x6e
 11317 3fa7 33       		.uleb128 0x33
 11318 3fa8 01       		.uleb128 0x1
 11319 3fa9 51       		.byte	0x51
 11320 3faa 02       		.uleb128 0x2
 11321 3fab 08       		.byte	0x8
 11322 3fac 52       		.byte	0x52
 11323 3fad 33       		.uleb128 0x33
 11324 3fae 01       		.uleb128 0x1
 11325 3faf 52       		.byte	0x52
 11326 3fb0 04       		.uleb128 0x4
 11327 3fb1 91       		.byte	0x91
 11328 3fb2 40       		.sleb128 -64
 11329 3fb3 94       		.byte	0x94
 11330 3fb4 01       		.byte	0x1
 11331 3fb5 00       		.byte	0
 11332 3fb6 32       		.uleb128 0x32
 11333 3fb7 76010000 		.4byte	.LVL286
 11334 3fbb 14550000 		.4byte	0x5514
 11335 3fbf D83F0000 		.4byte	0x3fd8
 11336 3fc3 33       		.uleb128 0x33
 11337 3fc4 01       		.uleb128 0x1
 11338 3fc5 50       		.byte	0x50
 11339 3fc6 02       		.uleb128 0x2
 11340 3fc7 08       		.byte	0x8
 11341 3fc8 6E       		.byte	0x6e
 11342 3fc9 33       		.uleb128 0x33
ARM GAS  /tmp/cc5QaxCL.s 			page 200


 11343 3fca 01       		.uleb128 0x1
 11344 3fcb 51       		.byte	0x51
 11345 3fcc 02       		.uleb128 0x2
 11346 3fcd 08       		.byte	0x8
 11347 3fce 53       		.byte	0x53
 11348 3fcf 33       		.uleb128 0x33
 11349 3fd0 01       		.uleb128 0x1
 11350 3fd1 52       		.byte	0x52
 11351 3fd2 04       		.uleb128 0x4
 11352 3fd3 91       		.byte	0x91
 11353 3fd4 44       		.sleb128 -60
 11354 3fd5 94       		.byte	0x94
 11355 3fd6 01       		.byte	0x1
 11356 3fd7 00       		.byte	0
 11357 3fd8 32       		.uleb128 0x32
 11358 3fd9 86010000 		.4byte	.LVL288
 11359 3fdd 14550000 		.4byte	0x5514
 11360 3fe1 FE3F0000 		.4byte	0x3ffe
 11361 3fe5 33       		.uleb128 0x33
 11362 3fe6 01       		.uleb128 0x1
 11363 3fe7 50       		.byte	0x50
 11364 3fe8 02       		.uleb128 0x2
 11365 3fe9 08       		.byte	0x8
 11366 3fea 6E       		.byte	0x6e
 11367 3feb 33       		.uleb128 0x33
 11368 3fec 01       		.uleb128 0x1
 11369 3fed 51       		.byte	0x51
 11370 3fee 02       		.uleb128 0x2
 11371 3fef 08       		.byte	0x8
 11372 3ff0 54       		.byte	0x54
 11373 3ff1 33       		.uleb128 0x33
 11374 3ff2 01       		.uleb128 0x1
 11375 3ff3 52       		.byte	0x52
 11376 3ff4 08       		.uleb128 0x8
 11377 3ff5 74       		.byte	0x74
 11378 3ff6 00       		.sleb128 0
 11379 3ff7 09       		.byte	0x9
 11380 3ff8 F4       		.byte	0xf4
 11381 3ff9 24       		.byte	0x24
 11382 3ffa 09       		.byte	0x9
 11383 3ffb FC       		.byte	0xfc
 11384 3ffc 25       		.byte	0x25
 11385 3ffd 00       		.byte	0
 11386 3ffe 32       		.uleb128 0x32
 11387 3fff 98010000 		.4byte	.LVL290
 11388 4003 14550000 		.4byte	0x5514
 11389 4007 20400000 		.4byte	0x4020
 11390 400b 33       		.uleb128 0x33
 11391 400c 01       		.uleb128 0x1
 11392 400d 50       		.byte	0x50
 11393 400e 02       		.uleb128 0x2
 11394 400f 08       		.byte	0x8
 11395 4010 6E       		.byte	0x6e
 11396 4011 33       		.uleb128 0x33
 11397 4012 01       		.uleb128 0x1
 11398 4013 51       		.byte	0x51
 11399 4014 02       		.uleb128 0x2
ARM GAS  /tmp/cc5QaxCL.s 			page 201


 11400 4015 08       		.byte	0x8
 11401 4016 55       		.byte	0x55
 11402 4017 33       		.uleb128 0x33
 11403 4018 01       		.uleb128 0x1
 11404 4019 52       		.byte	0x52
 11405 401a 04       		.uleb128 0x4
 11406 401b 91       		.byte	0x91
 11407 401c 48       		.sleb128 -56
 11408 401d 94       		.byte	0x94
 11409 401e 01       		.byte	0x1
 11410 401f 00       		.byte	0
 11411 4020 32       		.uleb128 0x32
 11412 4021 A8010000 		.4byte	.LVL292
 11413 4025 14550000 		.4byte	0x5514
 11414 4029 46400000 		.4byte	0x4046
 11415 402d 33       		.uleb128 0x33
 11416 402e 01       		.uleb128 0x1
 11417 402f 50       		.byte	0x50
 11418 4030 02       		.uleb128 0x2
 11419 4031 08       		.byte	0x8
 11420 4032 6E       		.byte	0x6e
 11421 4033 33       		.uleb128 0x33
 11422 4034 01       		.uleb128 0x1
 11423 4035 51       		.byte	0x51
 11424 4036 02       		.uleb128 0x2
 11425 4037 08       		.byte	0x8
 11426 4038 56       		.byte	0x56
 11427 4039 33       		.uleb128 0x33
 11428 403a 01       		.uleb128 0x1
 11429 403b 52       		.byte	0x52
 11430 403c 08       		.uleb128 0x8
 11431 403d 75       		.byte	0x75
 11432 403e 00       		.sleb128 0
 11433 403f 09       		.byte	0x9
 11434 4040 F4       		.byte	0xf4
 11435 4041 24       		.byte	0x24
 11436 4042 09       		.byte	0x9
 11437 4043 FC       		.byte	0xfc
 11438 4044 25       		.byte	0x25
 11439 4045 00       		.byte	0
 11440 4046 32       		.uleb128 0x32
 11441 4047 BA010000 		.4byte	.LVL294
 11442 404b 14550000 		.4byte	0x5514
 11443 404f 68400000 		.4byte	0x4068
 11444 4053 33       		.uleb128 0x33
 11445 4054 01       		.uleb128 0x1
 11446 4055 50       		.byte	0x50
 11447 4056 02       		.uleb128 0x2
 11448 4057 08       		.byte	0x8
 11449 4058 6E       		.byte	0x6e
 11450 4059 33       		.uleb128 0x33
 11451 405a 01       		.uleb128 0x1
 11452 405b 51       		.byte	0x51
 11453 405c 02       		.uleb128 0x2
 11454 405d 08       		.byte	0x8
 11455 405e 57       		.byte	0x57
 11456 405f 33       		.uleb128 0x33
ARM GAS  /tmp/cc5QaxCL.s 			page 202


 11457 4060 01       		.uleb128 0x1
 11458 4061 52       		.byte	0x52
 11459 4062 04       		.uleb128 0x4
 11460 4063 91       		.byte	0x91
 11461 4064 4C       		.sleb128 -52
 11462 4065 94       		.byte	0x94
 11463 4066 01       		.byte	0x1
 11464 4067 00       		.byte	0
 11465 4068 32       		.uleb128 0x32
 11466 4069 CA010000 		.4byte	.LVL296
 11467 406d 14550000 		.4byte	0x5514
 11468 4071 88400000 		.4byte	0x4088
 11469 4075 33       		.uleb128 0x33
 11470 4076 01       		.uleb128 0x1
 11471 4077 50       		.byte	0x50
 11472 4078 02       		.uleb128 0x2
 11473 4079 08       		.byte	0x8
 11474 407a 6E       		.byte	0x6e
 11475 407b 33       		.uleb128 0x33
 11476 407c 01       		.uleb128 0x1
 11477 407d 51       		.byte	0x51
 11478 407e 02       		.uleb128 0x2
 11479 407f 09       		.byte	0x9
 11480 4080 80       		.byte	0x80
 11481 4081 33       		.uleb128 0x33
 11482 4082 01       		.uleb128 0x1
 11483 4083 52       		.byte	0x52
 11484 4084 02       		.uleb128 0x2
 11485 4085 7A       		.byte	0x7a
 11486 4086 00       		.sleb128 0
 11487 4087 00       		.byte	0
 11488 4088 32       		.uleb128 0x32
 11489 4089 DA010000 		.4byte	.LVL298
 11490 408d 14550000 		.4byte	0x5514
 11491 4091 A8400000 		.4byte	0x40a8
 11492 4095 33       		.uleb128 0x33
 11493 4096 01       		.uleb128 0x1
 11494 4097 50       		.byte	0x50
 11495 4098 02       		.uleb128 0x2
 11496 4099 08       		.byte	0x8
 11497 409a 6E       		.byte	0x6e
 11498 409b 33       		.uleb128 0x33
 11499 409c 01       		.uleb128 0x1
 11500 409d 51       		.byte	0x51
 11501 409e 02       		.uleb128 0x2
 11502 409f 09       		.byte	0x9
 11503 40a0 81       		.byte	0x81
 11504 40a1 33       		.uleb128 0x33
 11505 40a2 01       		.uleb128 0x1
 11506 40a3 52       		.byte	0x52
 11507 40a4 02       		.uleb128 0x2
 11508 40a5 7B       		.byte	0x7b
 11509 40a6 00       		.sleb128 0
 11510 40a7 00       		.byte	0
 11511 40a8 32       		.uleb128 0x32
 11512 40a9 EA010000 		.4byte	.LVL300
 11513 40ad 14550000 		.4byte	0x5514
ARM GAS  /tmp/cc5QaxCL.s 			page 203


 11514 40b1 C2400000 		.4byte	0x40c2
 11515 40b5 33       		.uleb128 0x33
 11516 40b6 01       		.uleb128 0x1
 11517 40b7 50       		.byte	0x50
 11518 40b8 02       		.uleb128 0x2
 11519 40b9 08       		.byte	0x8
 11520 40ba 6E       		.byte	0x6e
 11521 40bb 33       		.uleb128 0x33
 11522 40bc 01       		.uleb128 0x1
 11523 40bd 51       		.byte	0x51
 11524 40be 02       		.uleb128 0x2
 11525 40bf 08       		.byte	0x8
 11526 40c0 60       		.byte	0x60
 11527 40c1 00       		.byte	0
 11528 40c2 32       		.uleb128 0x32
 11529 40c3 FA010000 		.4byte	.LVL302
 11530 40c7 14550000 		.4byte	0x5514
 11531 40cb E1400000 		.4byte	0x40e1
 11532 40cf 33       		.uleb128 0x33
 11533 40d0 01       		.uleb128 0x1
 11534 40d1 50       		.byte	0x50
 11535 40d2 02       		.uleb128 0x2
 11536 40d3 08       		.byte	0x8
 11537 40d4 6E       		.byte	0x6e
 11538 40d5 33       		.uleb128 0x33
 11539 40d6 01       		.uleb128 0x1
 11540 40d7 51       		.byte	0x51
 11541 40d8 02       		.uleb128 0x2
 11542 40d9 08       		.byte	0x8
 11543 40da 61       		.byte	0x61
 11544 40db 33       		.uleb128 0x33
 11545 40dc 01       		.uleb128 0x1
 11546 40dd 52       		.byte	0x52
 11547 40de 01       		.uleb128 0x1
 11548 40df 3C       		.byte	0x3c
 11549 40e0 00       		.byte	0
 11550 40e1 32       		.uleb128 0x32
 11551 40e2 0A020000 		.4byte	.LVL304
 11552 40e6 14550000 		.4byte	0x5514
 11553 40ea 00410000 		.4byte	0x4100
 11554 40ee 33       		.uleb128 0x33
 11555 40ef 01       		.uleb128 0x1
 11556 40f0 50       		.byte	0x50
 11557 40f1 02       		.uleb128 0x2
 11558 40f2 08       		.byte	0x8
 11559 40f3 6E       		.byte	0x6e
 11560 40f4 33       		.uleb128 0x33
 11561 40f5 01       		.uleb128 0x1
 11562 40f6 51       		.byte	0x51
 11563 40f7 02       		.uleb128 0x2
 11564 40f8 08       		.byte	0x8
 11565 40f9 62       		.byte	0x62
 11566 40fa 33       		.uleb128 0x33
 11567 40fb 01       		.uleb128 0x1
 11568 40fc 52       		.byte	0x52
 11569 40fd 01       		.uleb128 0x1
 11570 40fe 31       		.byte	0x31
ARM GAS  /tmp/cc5QaxCL.s 			page 204


 11571 40ff 00       		.byte	0
 11572 4100 32       		.uleb128 0x32
 11573 4101 1A020000 		.4byte	.LVL306
 11574 4105 14550000 		.4byte	0x5514
 11575 4109 20410000 		.4byte	0x4120
 11576 410d 33       		.uleb128 0x33
 11577 410e 01       		.uleb128 0x1
 11578 410f 50       		.byte	0x50
 11579 4110 02       		.uleb128 0x2
 11580 4111 08       		.byte	0x8
 11581 4112 6E       		.byte	0x6e
 11582 4113 33       		.uleb128 0x33
 11583 4114 01       		.uleb128 0x1
 11584 4115 51       		.byte	0x51
 11585 4116 02       		.uleb128 0x2
 11586 4117 08       		.byte	0x8
 11587 4118 63       		.byte	0x63
 11588 4119 33       		.uleb128 0x33
 11589 411a 01       		.uleb128 0x1
 11590 411b 52       		.byte	0x52
 11591 411c 02       		.uleb128 0x2
 11592 411d 09       		.byte	0x9
 11593 411e EC       		.byte	0xec
 11594 411f 00       		.byte	0
 11595 4120 32       		.uleb128 0x32
 11596 4121 4A020000 		.4byte	.LVL308
 11597 4125 14550000 		.4byte	0x5514
 11598 4129 3F410000 		.4byte	0x413f
 11599 412d 33       		.uleb128 0x33
 11600 412e 01       		.uleb128 0x1
 11601 412f 50       		.byte	0x50
 11602 4130 02       		.uleb128 0x2
 11603 4131 08       		.byte	0x8
 11604 4132 6E       		.byte	0x6e
 11605 4133 33       		.uleb128 0x33
 11606 4134 01       		.uleb128 0x1
 11607 4135 51       		.byte	0x51
 11608 4136 02       		.uleb128 0x2
 11609 4137 09       		.byte	0x9
 11610 4138 82       		.byte	0x82
 11611 4139 33       		.uleb128 0x33
 11612 413a 01       		.uleb128 0x1
 11613 413b 52       		.byte	0x52
 11614 413c 01       		.uleb128 0x1
 11615 413d 31       		.byte	0x31
 11616 413e 00       		.byte	0
 11617 413f 32       		.uleb128 0x32
 11618 4140 6A020000 		.4byte	.LVL312
 11619 4144 14550000 		.4byte	0x5514
 11620 4148 61410000 		.4byte	0x4161
 11621 414c 33       		.uleb128 0x33
 11622 414d 01       		.uleb128 0x1
 11623 414e 50       		.byte	0x50
 11624 414f 02       		.uleb128 0x2
 11625 4150 08       		.byte	0x8
 11626 4151 6E       		.byte	0x6e
 11627 4152 33       		.uleb128 0x33
ARM GAS  /tmp/cc5QaxCL.s 			page 205


 11628 4153 01       		.uleb128 0x1
 11629 4154 51       		.byte	0x51
 11630 4155 01       		.uleb128 0x1
 11631 4156 40       		.byte	0x40
 11632 4157 33       		.uleb128 0x33
 11633 4158 01       		.uleb128 0x1
 11634 4159 52       		.byte	0x52
 11635 415a 05       		.uleb128 0x5
 11636 415b 91       		.byte	0x91
 11637 415c B87F     		.sleb128 -72
 11638 415e 94       		.byte	0x94
 11639 415f 01       		.byte	0x1
 11640 4160 00       		.byte	0
 11641 4161 32       		.uleb128 0x32
 11642 4162 7A020000 		.4byte	.LVL314
 11643 4166 14550000 		.4byte	0x5514
 11644 416a 83410000 		.4byte	0x4183
 11645 416e 33       		.uleb128 0x33
 11646 416f 01       		.uleb128 0x1
 11647 4170 50       		.byte	0x50
 11648 4171 02       		.uleb128 0x2
 11649 4172 08       		.byte	0x8
 11650 4173 6E       		.byte	0x6e
 11651 4174 33       		.uleb128 0x33
 11652 4175 01       		.uleb128 0x1
 11653 4176 51       		.byte	0x51
 11654 4177 01       		.uleb128 0x1
 11655 4178 41       		.byte	0x41
 11656 4179 33       		.uleb128 0x33
 11657 417a 01       		.uleb128 0x1
 11658 417b 52       		.byte	0x52
 11659 417c 05       		.uleb128 0x5
 11660 417d 91       		.byte	0x91
 11661 417e BC7F     		.sleb128 -68
 11662 4180 94       		.byte	0x94
 11663 4181 01       		.byte	0x1
 11664 4182 00       		.byte	0
 11665 4183 32       		.uleb128 0x32
 11666 4184 8A020000 		.4byte	.LVL316
 11667 4188 14550000 		.4byte	0x5514
 11668 418c A4410000 		.4byte	0x41a4
 11669 4190 33       		.uleb128 0x33
 11670 4191 01       		.uleb128 0x1
 11671 4192 50       		.byte	0x50
 11672 4193 02       		.uleb128 0x2
 11673 4194 08       		.byte	0x8
 11674 4195 6E       		.byte	0x6e
 11675 4196 33       		.uleb128 0x33
 11676 4197 01       		.uleb128 0x1
 11677 4198 51       		.byte	0x51
 11678 4199 01       		.uleb128 0x1
 11679 419a 42       		.byte	0x42
 11680 419b 33       		.uleb128 0x33
 11681 419c 01       		.uleb128 0x1
 11682 419d 52       		.byte	0x52
 11683 419e 04       		.uleb128 0x4
 11684 419f 91       		.byte	0x91
ARM GAS  /tmp/cc5QaxCL.s 			page 206


 11685 41a0 40       		.sleb128 -64
 11686 41a1 94       		.byte	0x94
 11687 41a2 01       		.byte	0x1
 11688 41a3 00       		.byte	0
 11689 41a4 32       		.uleb128 0x32
 11690 41a5 9A020000 		.4byte	.LVL318
 11691 41a9 14550000 		.4byte	0x5514
 11692 41ad C5410000 		.4byte	0x41c5
 11693 41b1 33       		.uleb128 0x33
 11694 41b2 01       		.uleb128 0x1
 11695 41b3 50       		.byte	0x50
 11696 41b4 02       		.uleb128 0x2
 11697 41b5 08       		.byte	0x8
 11698 41b6 6E       		.byte	0x6e
 11699 41b7 33       		.uleb128 0x33
 11700 41b8 01       		.uleb128 0x1
 11701 41b9 51       		.byte	0x51
 11702 41ba 01       		.uleb128 0x1
 11703 41bb 43       		.byte	0x43
 11704 41bc 33       		.uleb128 0x33
 11705 41bd 01       		.uleb128 0x1
 11706 41be 52       		.byte	0x52
 11707 41bf 04       		.uleb128 0x4
 11708 41c0 91       		.byte	0x91
 11709 41c1 44       		.sleb128 -60
 11710 41c2 94       		.byte	0x94
 11711 41c3 01       		.byte	0x1
 11712 41c4 00       		.byte	0
 11713 41c5 32       		.uleb128 0x32
 11714 41c6 AE020000 		.4byte	.LVL320
 11715 41ca 14550000 		.4byte	0x5514
 11716 41ce ED410000 		.4byte	0x41ed
 11717 41d2 33       		.uleb128 0x33
 11718 41d3 01       		.uleb128 0x1
 11719 41d4 50       		.byte	0x50
 11720 41d5 02       		.uleb128 0x2
 11721 41d6 08       		.byte	0x8
 11722 41d7 6E       		.byte	0x6e
 11723 41d8 33       		.uleb128 0x33
 11724 41d9 01       		.uleb128 0x1
 11725 41da 51       		.byte	0x51
 11726 41db 01       		.uleb128 0x1
 11727 41dc 44       		.byte	0x44
 11728 41dd 33       		.uleb128 0x33
 11729 41de 01       		.uleb128 0x1
 11730 41df 52       		.byte	0x52
 11731 41e0 0B       		.uleb128 0xb
 11732 41e1 74       		.byte	0x74
 11733 41e2 00       		.sleb128 0
 11734 41e3 76       		.byte	0x76
 11735 41e4 00       		.sleb128 0
 11736 41e5 1C       		.byte	0x1c
 11737 41e6 09       		.byte	0x9
 11738 41e7 F4       		.byte	0xf4
 11739 41e8 24       		.byte	0x24
 11740 41e9 09       		.byte	0x9
 11741 41ea FC       		.byte	0xfc
ARM GAS  /tmp/cc5QaxCL.s 			page 207


 11742 41eb 25       		.byte	0x25
 11743 41ec 00       		.byte	0
 11744 41ed 32       		.uleb128 0x32
 11745 41ee C4020000 		.4byte	.LVL322
 11746 41f2 14550000 		.4byte	0x5514
 11747 41f6 12420000 		.4byte	0x4212
 11748 41fa 33       		.uleb128 0x33
 11749 41fb 01       		.uleb128 0x1
 11750 41fc 50       		.byte	0x50
 11751 41fd 02       		.uleb128 0x2
 11752 41fe 08       		.byte	0x8
 11753 41ff 6E       		.byte	0x6e
 11754 4200 33       		.uleb128 0x33
 11755 4201 01       		.uleb128 0x1
 11756 4202 51       		.byte	0x51
 11757 4203 01       		.uleb128 0x1
 11758 4204 45       		.byte	0x45
 11759 4205 33       		.uleb128 0x33
 11760 4206 01       		.uleb128 0x1
 11761 4207 52       		.byte	0x52
 11762 4208 08       		.uleb128 0x8
 11763 4209 91       		.byte	0x91
 11764 420a 48       		.sleb128 -56
 11765 420b 06       		.byte	0x6
 11766 420c 91       		.byte	0x91
 11767 420d BC7F     		.sleb128 -68
 11768 420f 06       		.byte	0x6
 11769 4210 1C       		.byte	0x1c
 11770 4211 00       		.byte	0
 11771 4212 32       		.uleb128 0x32
 11772 4213 D8020000 		.4byte	.LVL324
 11773 4217 14550000 		.4byte	0x5514
 11774 421b 3A420000 		.4byte	0x423a
 11775 421f 33       		.uleb128 0x33
 11776 4220 01       		.uleb128 0x1
 11777 4221 50       		.byte	0x50
 11778 4222 02       		.uleb128 0x2
 11779 4223 08       		.byte	0x8
 11780 4224 6E       		.byte	0x6e
 11781 4225 33       		.uleb128 0x33
 11782 4226 01       		.uleb128 0x1
 11783 4227 51       		.byte	0x51
 11784 4228 01       		.uleb128 0x1
 11785 4229 46       		.byte	0x46
 11786 422a 33       		.uleb128 0x33
 11787 422b 01       		.uleb128 0x1
 11788 422c 52       		.byte	0x52
 11789 422d 0B       		.uleb128 0xb
 11790 422e 75       		.byte	0x75
 11791 422f 00       		.sleb128 0
 11792 4230 77       		.byte	0x77
 11793 4231 00       		.sleb128 0
 11794 4232 1C       		.byte	0x1c
 11795 4233 09       		.byte	0x9
 11796 4234 F4       		.byte	0xf4
 11797 4235 24       		.byte	0x24
 11798 4236 09       		.byte	0x9
ARM GAS  /tmp/cc5QaxCL.s 			page 208


 11799 4237 FC       		.byte	0xfc
 11800 4238 25       		.byte	0x25
 11801 4239 00       		.byte	0
 11802 423a 32       		.uleb128 0x32
 11803 423b EE020000 		.4byte	.LVL326
 11804 423f 14550000 		.4byte	0x5514
 11805 4243 5E420000 		.4byte	0x425e
 11806 4247 33       		.uleb128 0x33
 11807 4248 01       		.uleb128 0x1
 11808 4249 50       		.byte	0x50
 11809 424a 02       		.uleb128 0x2
 11810 424b 08       		.byte	0x8
 11811 424c 6E       		.byte	0x6e
 11812 424d 33       		.uleb128 0x33
 11813 424e 01       		.uleb128 0x1
 11814 424f 51       		.byte	0x51
 11815 4250 01       		.uleb128 0x1
 11816 4251 47       		.byte	0x47
 11817 4252 33       		.uleb128 0x33
 11818 4253 01       		.uleb128 0x1
 11819 4254 52       		.byte	0x52
 11820 4255 07       		.uleb128 0x7
 11821 4256 91       		.byte	0x91
 11822 4257 4C       		.sleb128 -52
 11823 4258 06       		.byte	0x6
 11824 4259 91       		.byte	0x91
 11825 425a 44       		.sleb128 -60
 11826 425b 06       		.byte	0x6
 11827 425c 1C       		.byte	0x1c
 11828 425d 00       		.byte	0
 11829 425e 32       		.uleb128 0x32
 11830 425f 02030000 		.4byte	.LVL328
 11831 4263 14550000 		.4byte	0x5514
 11832 4267 85420000 		.4byte	0x4285
 11833 426b 33       		.uleb128 0x33
 11834 426c 01       		.uleb128 0x1
 11835 426d 50       		.byte	0x50
 11836 426e 02       		.uleb128 0x2
 11837 426f 08       		.byte	0x8
 11838 4270 6E       		.byte	0x6e
 11839 4271 33       		.uleb128 0x33
 11840 4272 01       		.uleb128 0x1
 11841 4273 51       		.byte	0x51
 11842 4274 01       		.uleb128 0x1
 11843 4275 48       		.byte	0x48
 11844 4276 33       		.uleb128 0x33
 11845 4277 01       		.uleb128 0x1
 11846 4278 52       		.byte	0x52
 11847 4279 0A       		.uleb128 0xa
 11848 427a 91       		.byte	0x91
 11849 427b AC7F     		.sleb128 -84
 11850 427d 06       		.byte	0x6
 11851 427e 09       		.byte	0x9
 11852 427f F4       		.byte	0xf4
 11853 4280 24       		.byte	0x24
 11854 4281 09       		.byte	0x9
 11855 4282 FC       		.byte	0xfc
ARM GAS  /tmp/cc5QaxCL.s 			page 209


 11856 4283 25       		.byte	0x25
 11857 4284 00       		.byte	0
 11858 4285 32       		.uleb128 0x32
 11859 4286 18030000 		.4byte	.LVL330
 11860 428a 14550000 		.4byte	0x5514
 11861 428e A7420000 		.4byte	0x42a7
 11862 4292 33       		.uleb128 0x33
 11863 4293 01       		.uleb128 0x1
 11864 4294 50       		.byte	0x50
 11865 4295 02       		.uleb128 0x2
 11866 4296 08       		.byte	0x8
 11867 4297 6E       		.byte	0x6e
 11868 4298 33       		.uleb128 0x33
 11869 4299 01       		.uleb128 0x1
 11870 429a 51       		.byte	0x51
 11871 429b 01       		.uleb128 0x1
 11872 429c 49       		.byte	0x49
 11873 429d 33       		.uleb128 0x33
 11874 429e 01       		.uleb128 0x1
 11875 429f 52       		.byte	0x52
 11876 42a0 05       		.uleb128 0x5
 11877 42a1 91       		.byte	0x91
 11878 42a2 B87F     		.sleb128 -72
 11879 42a4 94       		.byte	0x94
 11880 42a5 01       		.byte	0x1
 11881 42a6 00       		.byte	0
 11882 42a7 32       		.uleb128 0x32
 11883 42a8 2C030000 		.4byte	.LVL332
 11884 42ac 14550000 		.4byte	0x5514
 11885 42b0 CE420000 		.4byte	0x42ce
 11886 42b4 33       		.uleb128 0x33
 11887 42b5 01       		.uleb128 0x1
 11888 42b6 50       		.byte	0x50
 11889 42b7 02       		.uleb128 0x2
 11890 42b8 08       		.byte	0x8
 11891 42b9 6E       		.byte	0x6e
 11892 42ba 33       		.uleb128 0x33
 11893 42bb 01       		.uleb128 0x1
 11894 42bc 51       		.byte	0x51
 11895 42bd 01       		.uleb128 0x1
 11896 42be 4A       		.byte	0x4a
 11897 42bf 33       		.uleb128 0x33
 11898 42c0 01       		.uleb128 0x1
 11899 42c1 52       		.byte	0x52
 11900 42c2 0A       		.uleb128 0xa
 11901 42c3 91       		.byte	0x91
 11902 42c4 B07F     		.sleb128 -80
 11903 42c6 06       		.byte	0x6
 11904 42c7 09       		.byte	0x9
 11905 42c8 F4       		.byte	0xf4
 11906 42c9 24       		.byte	0x24
 11907 42ca 09       		.byte	0x9
 11908 42cb FC       		.byte	0xfc
 11909 42cc 25       		.byte	0x25
 11910 42cd 00       		.byte	0
 11911 42ce 32       		.uleb128 0x32
 11912 42cf 42030000 		.4byte	.LVL334
ARM GAS  /tmp/cc5QaxCL.s 			page 210


 11913 42d3 14550000 		.4byte	0x5514
 11914 42d7 F0420000 		.4byte	0x42f0
 11915 42db 33       		.uleb128 0x33
 11916 42dc 01       		.uleb128 0x1
 11917 42dd 50       		.byte	0x50
 11918 42de 02       		.uleb128 0x2
 11919 42df 08       		.byte	0x8
 11920 42e0 6E       		.byte	0x6e
 11921 42e1 33       		.uleb128 0x33
 11922 42e2 01       		.uleb128 0x1
 11923 42e3 51       		.byte	0x51
 11924 42e4 01       		.uleb128 0x1
 11925 42e5 4B       		.byte	0x4b
 11926 42e6 33       		.uleb128 0x33
 11927 42e7 01       		.uleb128 0x1
 11928 42e8 52       		.byte	0x52
 11929 42e9 05       		.uleb128 0x5
 11930 42ea 91       		.byte	0x91
 11931 42eb BC7F     		.sleb128 -68
 11932 42ed 94       		.byte	0x94
 11933 42ee 01       		.byte	0x1
 11934 42ef 00       		.byte	0
 11935 42f0 32       		.uleb128 0x32
 11936 42f1 5A030000 		.4byte	.LVL336
 11937 42f5 14550000 		.4byte	0x5514
 11938 42f9 1A430000 		.4byte	0x431a
 11939 42fd 33       		.uleb128 0x33
 11940 42fe 01       		.uleb128 0x1
 11941 42ff 50       		.byte	0x50
 11942 4300 02       		.uleb128 0x2
 11943 4301 08       		.byte	0x8
 11944 4302 6E       		.byte	0x6e
 11945 4303 33       		.uleb128 0x33
 11946 4304 01       		.uleb128 0x1
 11947 4305 51       		.byte	0x51
 11948 4306 01       		.uleb128 0x1
 11949 4307 4C       		.byte	0x4c
 11950 4308 33       		.uleb128 0x33
 11951 4309 01       		.uleb128 0x1
 11952 430a 52       		.byte	0x52
 11953 430b 0D       		.uleb128 0xd
 11954 430c 78       		.byte	0x78
 11955 430d 00       		.sleb128 0
 11956 430e 91       		.byte	0x91
 11957 430f AC7F     		.sleb128 -84
 11958 4311 06       		.byte	0x6
 11959 4312 1C       		.byte	0x1c
 11960 4313 09       		.byte	0x9
 11961 4314 F4       		.byte	0xf4
 11962 4315 24       		.byte	0x24
 11963 4316 09       		.byte	0x9
 11964 4317 FC       		.byte	0xfc
 11965 4318 25       		.byte	0x25
 11966 4319 00       		.byte	0
 11967 431a 32       		.uleb128 0x32
 11968 431b 70030000 		.4byte	.LVL338
 11969 431f 14550000 		.4byte	0x5514
ARM GAS  /tmp/cc5QaxCL.s 			page 211


 11970 4323 3E430000 		.4byte	0x433e
 11971 4327 33       		.uleb128 0x33
 11972 4328 01       		.uleb128 0x1
 11973 4329 50       		.byte	0x50
 11974 432a 02       		.uleb128 0x2
 11975 432b 08       		.byte	0x8
 11976 432c 6E       		.byte	0x6e
 11977 432d 33       		.uleb128 0x33
 11978 432e 01       		.uleb128 0x1
 11979 432f 51       		.byte	0x51
 11980 4330 01       		.uleb128 0x1
 11981 4331 4D       		.byte	0x4d
 11982 4332 33       		.uleb128 0x33
 11983 4333 01       		.uleb128 0x1
 11984 4334 52       		.byte	0x52
 11985 4335 07       		.uleb128 0x7
 11986 4336 78       		.byte	0x78
 11987 4337 00       		.sleb128 0
 11988 4338 91       		.byte	0x91
 11989 4339 B87F     		.sleb128 -72
 11990 433b 06       		.byte	0x6
 11991 433c 1C       		.byte	0x1c
 11992 433d 00       		.byte	0
 11993 433e 32       		.uleb128 0x32
 11994 433f 88030000 		.4byte	.LVL340
 11995 4343 14550000 		.4byte	0x5514
 11996 4347 6A430000 		.4byte	0x436a
 11997 434b 33       		.uleb128 0x33
 11998 434c 01       		.uleb128 0x1
 11999 434d 50       		.byte	0x50
 12000 434e 02       		.uleb128 0x2
 12001 434f 08       		.byte	0x8
 12002 4350 6E       		.byte	0x6e
 12003 4351 33       		.uleb128 0x33
 12004 4352 01       		.uleb128 0x1
 12005 4353 51       		.byte	0x51
 12006 4354 01       		.uleb128 0x1
 12007 4355 4E       		.byte	0x4e
 12008 4356 33       		.uleb128 0x33
 12009 4357 01       		.uleb128 0x1
 12010 4358 52       		.byte	0x52
 12011 4359 0F       		.uleb128 0xf
 12012 435a 91       		.byte	0x91
 12013 435b B47F     		.sleb128 -76
 12014 435d 06       		.byte	0x6
 12015 435e 91       		.byte	0x91
 12016 435f B07F     		.sleb128 -80
 12017 4361 06       		.byte	0x6
 12018 4362 1C       		.byte	0x1c
 12019 4363 09       		.byte	0x9
 12020 4364 F4       		.byte	0xf4
 12021 4365 24       		.byte	0x24
 12022 4366 09       		.byte	0x9
 12023 4367 FC       		.byte	0xfc
 12024 4368 25       		.byte	0x25
 12025 4369 00       		.byte	0
 12026 436a 32       		.uleb128 0x32
ARM GAS  /tmp/cc5QaxCL.s 			page 212


 12027 436b 9E030000 		.4byte	.LVL342
 12028 436f 14550000 		.4byte	0x5514
 12029 4373 90430000 		.4byte	0x4390
 12030 4377 33       		.uleb128 0x33
 12031 4378 01       		.uleb128 0x1
 12032 4379 50       		.byte	0x50
 12033 437a 02       		.uleb128 0x2
 12034 437b 08       		.byte	0x8
 12035 437c 6E       		.byte	0x6e
 12036 437d 33       		.uleb128 0x33
 12037 437e 01       		.uleb128 0x1
 12038 437f 51       		.byte	0x51
 12039 4380 01       		.uleb128 0x1
 12040 4381 4F       		.byte	0x4f
 12041 4382 33       		.uleb128 0x33
 12042 4383 01       		.uleb128 0x1
 12043 4384 52       		.byte	0x52
 12044 4385 09       		.uleb128 0x9
 12045 4386 91       		.byte	0x91
 12046 4387 B47F     		.sleb128 -76
 12047 4389 06       		.byte	0x6
 12048 438a 91       		.byte	0x91
 12049 438b BC7F     		.sleb128 -68
 12050 438d 06       		.byte	0x6
 12051 438e 1C       		.byte	0x1c
 12052 438f 00       		.byte	0
 12053 4390 34       		.uleb128 0x34
 12054 4391 84040000 		.4byte	.LVL381
 12055 4395 0B550000 		.4byte	0x550b
 12056 4399 32       		.uleb128 0x32
 12057 439a 8E040000 		.4byte	.LVL383
 12058 439e 14550000 		.4byte	0x5514
 12059 43a2 B8430000 		.4byte	0x43b8
 12060 43a6 33       		.uleb128 0x33
 12061 43a7 01       		.uleb128 0x1
 12062 43a8 50       		.byte	0x50
 12063 43a9 02       		.uleb128 0x2
 12064 43aa 08       		.byte	0x8
 12065 43ab 6E       		.byte	0x6e
 12066 43ac 33       		.uleb128 0x33
 12067 43ad 01       		.uleb128 0x1
 12068 43ae 51       		.byte	0x51
 12069 43af 02       		.uleb128 0x2
 12070 43b0 08       		.byte	0x8
 12071 43b1 68       		.byte	0x68
 12072 43b2 33       		.uleb128 0x33
 12073 43b3 01       		.uleb128 0x1
 12074 43b4 52       		.byte	0x52
 12075 43b5 01       		.uleb128 0x1
 12076 43b6 30       		.byte	0x30
 12077 43b7 00       		.byte	0
 12078 43b8 32       		.uleb128 0x32
 12079 43b9 A0040000 		.4byte	.LVL385
 12080 43bd 14550000 		.4byte	0x5514
 12081 43c1 D7430000 		.4byte	0x43d7
 12082 43c5 33       		.uleb128 0x33
 12083 43c6 01       		.uleb128 0x1
ARM GAS  /tmp/cc5QaxCL.s 			page 213


 12084 43c7 50       		.byte	0x50
 12085 43c8 02       		.uleb128 0x2
 12086 43c9 08       		.byte	0x8
 12087 43ca 6E       		.byte	0x6e
 12088 43cb 33       		.uleb128 0x33
 12089 43cc 01       		.uleb128 0x1
 12090 43cd 51       		.byte	0x51
 12091 43ce 02       		.uleb128 0x2
 12092 43cf 08       		.byte	0x8
 12093 43d0 68       		.byte	0x68
 12094 43d1 33       		.uleb128 0x33
 12095 43d2 01       		.uleb128 0x1
 12096 43d3 52       		.byte	0x52
 12097 43d4 01       		.uleb128 0x1
 12098 43d5 33       		.byte	0x33
 12099 43d6 00       		.byte	0
 12100 43d7 32       		.uleb128 0x32
 12101 43d8 C6040000 		.4byte	.LVL387
 12102 43dc 14550000 		.4byte	0x5514
 12103 43e0 F6430000 		.4byte	0x43f6
 12104 43e4 33       		.uleb128 0x33
 12105 43e5 01       		.uleb128 0x1
 12106 43e6 50       		.byte	0x50
 12107 43e7 02       		.uleb128 0x2
 12108 43e8 08       		.byte	0x8
 12109 43e9 6E       		.byte	0x6e
 12110 43ea 33       		.uleb128 0x33
 12111 43eb 01       		.uleb128 0x1
 12112 43ec 51       		.byte	0x51
 12113 43ed 02       		.uleb128 0x2
 12114 43ee 08       		.byte	0x8
 12115 43ef 68       		.byte	0x68
 12116 43f0 33       		.uleb128 0x33
 12117 43f1 01       		.uleb128 0x1
 12118 43f2 52       		.byte	0x52
 12119 43f3 01       		.uleb128 0x1
 12120 43f4 31       		.byte	0x31
 12121 43f5 00       		.byte	0
 12122 43f6 38       		.uleb128 0x38
 12123 43f7 D8040000 		.4byte	.LVL389
 12124 43fb 14550000 		.4byte	0x5514
 12125 43ff 33       		.uleb128 0x33
 12126 4400 01       		.uleb128 0x1
 12127 4401 50       		.byte	0x50
 12128 4402 02       		.uleb128 0x2
 12129 4403 08       		.byte	0x8
 12130 4404 6E       		.byte	0x6e
 12131 4405 33       		.uleb128 0x33
 12132 4406 01       		.uleb128 0x1
 12133 4407 51       		.byte	0x51
 12134 4408 02       		.uleb128 0x2
 12135 4409 08       		.byte	0x8
 12136 440a 68       		.byte	0x68
 12137 440b 33       		.uleb128 0x33
 12138 440c 01       		.uleb128 0x1
 12139 440d 52       		.byte	0x52
 12140 440e 01       		.uleb128 0x1
ARM GAS  /tmp/cc5QaxCL.s 			page 214


 12141 440f 37       		.byte	0x37
 12142 4410 00       		.byte	0
 12143 4411 00       		.byte	0
 12144 4412 2F       		.uleb128 0x2f
 12145 4413 DE1B0000 		.4byte	.LASF775
 12146 4417 01       		.byte	0x1
 12147 4418 5F02     		.2byte	0x25f
 12148 441a CA000000 		.4byte	0xca
 12149 441e 00000000 		.4byte	.LFB265
 12150 4422 38000000 		.4byte	.LFE265-.LFB265
 12151 4426 01       		.uleb128 0x1
 12152 4427 9C       		.byte	0x9c
 12153 4428 78440000 		.4byte	0x4478
 12154 442c 3A       		.uleb128 0x3a
 12155 442d 666D7400 		.ascii	"fmt\000"
 12156 4431 01       		.byte	0x1
 12157 4432 5F02     		.2byte	0x25f
 12158 4434 2C370000 		.4byte	0x372c
 12159 4438 640B0000 		.4byte	.LLST20
 12160 443c 35       		.uleb128 0x35
 12161 443d 1A170000 		.4byte	.LASF776
 12162 4441 01       		.byte	0x1
 12163 4442 5F02     		.2byte	0x25f
 12164 4444 9A360000 		.4byte	0x369a
 12165 4448 850B0000 		.4byte	.LLST21
 12166 444c 31       		.uleb128 0x31
 12167 444d 65727200 		.ascii	"err\000"
 12168 4451 01       		.byte	0x1
 12169 4452 6102     		.2byte	0x261
 12170 4454 CA000000 		.4byte	0xca
 12171 4458 A60B0000 		.4byte	.LLST22
 12172 445c 34       		.uleb128 0x34
 12173 445d 10000000 		.4byte	.LVL247
 12174 4461 48450000 		.4byte	0x4548
 12175 4465 3E       		.uleb128 0x3e
 12176 4466 2E000000 		.4byte	.LVL249
 12177 446a D2440000 		.4byte	0x44d2
 12178 446e 34       		.uleb128 0x34
 12179 446f 32000000 		.4byte	.LVL250
 12180 4473 0B550000 		.4byte	0x550b
 12181 4477 00       		.byte	0
 12182 4478 3F       		.uleb128 0x3f
 12183 4479 220F0000 		.4byte	.LASF792
 12184 447d 01       		.byte	0x1
 12185 447e 5A02     		.2byte	0x25a
 12186 4480 00000000 		.4byte	.LFB264
 12187 4484 34000000 		.4byte	.LFE264-.LFB264
 12188 4488 01       		.uleb128 0x1
 12189 4489 9C       		.byte	0x9c
 12190 448a D2440000 		.4byte	0x44d2
 12191 448e 32       		.uleb128 0x32
 12192 448f 20000000 		.4byte	.LVL390
 12193 4493 BC3D0000 		.4byte	0x3dbc
 12194 4497 C8440000 		.4byte	0x44c8
 12195 449b 33       		.uleb128 0x33
 12196 449c 01       		.uleb128 0x1
 12197 449d 50       		.byte	0x50
ARM GAS  /tmp/cc5QaxCL.s 			page 215


 12198 449e 01       		.uleb128 0x1
 12199 449f 32       		.byte	0x32
 12200 44a0 33       		.uleb128 0x33
 12201 44a1 01       		.uleb128 0x1
 12202 44a2 51       		.byte	0x51
 12203 44a3 02       		.uleb128 0x2
 12204 44a4 08       		.byte	0x8
 12205 44a5 F0       		.byte	0xf0
 12206 44a6 33       		.uleb128 0x33
 12207 44a7 01       		.uleb128 0x1
 12208 44a8 52       		.byte	0x52
 12209 44a9 02       		.uleb128 0x2
 12210 44aa 08       		.byte	0x8
 12211 44ab B4       		.byte	0xb4
 12212 44ac 33       		.uleb128 0x33
 12213 44ad 01       		.uleb128 0x1
 12214 44ae 53       		.byte	0x53
 12215 44af 02       		.uleb128 0x2
 12216 44b0 08       		.byte	0x8
 12217 44b1 A0       		.byte	0xa0
 12218 44b2 33       		.uleb128 0x33
 12219 44b3 02       		.uleb128 0x2
 12220 44b4 7D       		.byte	0x7d
 12221 44b5 00       		.sleb128 0
 12222 44b6 02       		.uleb128 0x2
 12223 44b7 08       		.byte	0x8
 12224 44b8 78       		.byte	0x78
 12225 44b9 33       		.uleb128 0x33
 12226 44ba 02       		.uleb128 0x2
 12227 44bb 7D       		.byte	0x7d
 12228 44bc 04       		.sleb128 4
 12229 44bd 02       		.uleb128 0x2
 12230 44be 08       		.byte	0x8
 12231 44bf 20       		.byte	0x20
 12232 44c0 33       		.uleb128 0x33
 12233 44c1 02       		.uleb128 0x2
 12234 44c2 7D       		.byte	0x7d
 12235 44c3 08       		.sleb128 8
 12236 44c4 02       		.uleb128 0x2
 12237 44c5 08       		.byte	0x8
 12238 44c6 20       		.byte	0x20
 12239 44c7 00       		.byte	0
 12240 44c8 34       		.uleb128 0x34
 12241 44c9 30000000 		.4byte	.LVL391
 12242 44cd 0B550000 		.4byte	0x550b
 12243 44d1 00       		.byte	0
 12244 44d2 40       		.uleb128 0x40
 12245 44d3 42020000 		.4byte	.LASF777
 12246 44d7 01       		.byte	0x1
 12247 44d8 4902     		.2byte	0x249
 12248 44da CA000000 		.4byte	0xca
 12249 44de 01       		.byte	0x1
 12250 44df F0440000 		.4byte	0x44f0
 12251 44e3 41       		.uleb128 0x41
 12252 44e4 1A170000 		.4byte	.LASF776
 12253 44e8 01       		.byte	0x1
 12254 44e9 4902     		.2byte	0x249
ARM GAS  /tmp/cc5QaxCL.s 			page 216


 12255 44eb 9A360000 		.4byte	0x369a
 12256 44ef 00       		.byte	0
 12257 44f0 40       		.uleb128 0x40
 12258 44f1 570C0000 		.4byte	.LASF778
 12259 44f5 01       		.byte	0x1
 12260 44f6 BF01     		.2byte	0x1bf
 12261 44f8 CA000000 		.4byte	0xca
 12262 44fc 01       		.byte	0x1
 12263 44fd 0E450000 		.4byte	0x450e
 12264 4501 42       		.uleb128 0x42
 12265 4502 65727200 		.ascii	"err\000"
 12266 4506 01       		.byte	0x1
 12267 4507 C001     		.2byte	0x1c0
 12268 4509 CA000000 		.4byte	0xca
 12269 450d 00       		.byte	0
 12270 450e 40       		.uleb128 0x40
 12271 450f A7010000 		.4byte	.LASF780
 12272 4513 01       		.byte	0x1
 12273 4514 3301     		.2byte	0x133
 12274 4516 CA000000 		.4byte	0xca
 12275 451a 01       		.byte	0x1
 12276 451b 2C450000 		.4byte	0x452c
 12277 451f 42       		.uleb128 0x42
 12278 4520 65727200 		.ascii	"err\000"
 12279 4524 01       		.byte	0x1
 12280 4525 3401     		.2byte	0x134
 12281 4527 CA000000 		.4byte	0xca
 12282 452b 00       		.byte	0
 12283 452c 43       		.uleb128 0x43
 12284 452d A5190000 		.4byte	.LASF781
 12285 4531 01       		.byte	0x1
 12286 4532 A7       		.byte	0xa7
 12287 4533 CA000000 		.4byte	0xca
 12288 4537 01       		.byte	0x1
 12289 4538 48450000 		.4byte	0x4548
 12290 453c 44       		.uleb128 0x44
 12291 453d 65727200 		.ascii	"err\000"
 12292 4541 01       		.byte	0x1
 12293 4542 A8       		.byte	0xa8
 12294 4543 CA000000 		.4byte	0xca
 12295 4547 00       		.byte	0
 12296 4548 43       		.uleb128 0x43
 12297 4549 71030000 		.4byte	.LASF782
 12298 454d 01       		.byte	0x1
 12299 454e 8F       		.byte	0x8f
 12300 454f CA000000 		.4byte	0xca
 12301 4553 01       		.byte	0x1
 12302 4554 6F450000 		.4byte	0x456f
 12303 4558 45       		.uleb128 0x45
 12304 4559 666D7400 		.ascii	"fmt\000"
 12305 455d 01       		.byte	0x1
 12306 455e 8F       		.byte	0x8f
 12307 455f 2C370000 		.4byte	0x372c
 12308 4563 44       		.uleb128 0x44
 12309 4564 65727200 		.ascii	"err\000"
 12310 4568 01       		.byte	0x1
 12311 4569 90       		.byte	0x90
ARM GAS  /tmp/cc5QaxCL.s 			page 217


 12312 456a CA000000 		.4byte	0xca
 12313 456e 00       		.byte	0
 12314 456f 43       		.uleb128 0x43
 12315 4570 D0050000 		.4byte	.LASF783
 12316 4574 01       		.byte	0x1
 12317 4575 81       		.byte	0x81
 12318 4576 CA000000 		.4byte	0xca
 12319 457a 01       		.byte	0x1
 12320 457b 8B450000 		.4byte	0x458b
 12321 457f 46       		.uleb128 0x46
 12322 4580 69020000 		.4byte	.LASF784
 12323 4584 01       		.byte	0x1
 12324 4585 81       		.byte	0x81
 12325 4586 D5000000 		.4byte	0xd5
 12326 458a 00       		.byte	0
 12327 458b 47       		.uleb128 0x47
 12328 458c 911B0000 		.4byte	.LASF785
 12329 4590 01       		.byte	0x1
 12330 4591 68       		.byte	0x68
 12331 4592 CA000000 		.4byte	0xca
 12332 4596 00000000 		.4byte	.LFB257
 12333 459a 50000000 		.4byte	.LFE257-.LFB257
 12334 459e 01       		.uleb128 0x1
 12335 459f 9C       		.byte	0x9c
 12336 45a0 17460000 		.4byte	0x4617
 12337 45a4 48       		.uleb128 0x48
 12338 45a5 696400   		.ascii	"id\000"
 12339 45a8 01       		.byte	0x1
 12340 45a9 68       		.byte	0x68
 12341 45aa 17460000 		.4byte	0x4617
 12342 45ae D00B0000 		.4byte	.LLST0
 12343 45b2 2D       		.uleb128 0x2d
 12344 45b3 81020000 		.4byte	.LASF786
 12345 45b7 01       		.byte	0x1
 12346 45b8 69       		.byte	0x69
 12347 45b9 1D460000 		.4byte	0x461d
 12348 45bd 02       		.uleb128 0x2
 12349 45be 91       		.byte	0x91
 12350 45bf 68       		.sleb128 -24
 12351 45c0 49       		.uleb128 0x49
 12352 45c1 65727200 		.ascii	"err\000"
 12353 45c5 01       		.byte	0x1
 12354 45c6 6A       		.byte	0x6a
 12355 45c7 CA000000 		.4byte	0xca
 12356 45cb EE0B0000 		.4byte	.LLST1
 12357 45cf 32       		.uleb128 0x32
 12358 45d0 1A000000 		.4byte	.LVL3
 12359 45d4 1F550000 		.4byte	0x551f
 12360 45d8 EE450000 		.4byte	0x45ee
 12361 45dc 33       		.uleb128 0x33
 12362 45dd 01       		.uleb128 0x1
 12363 45de 50       		.byte	0x50
 12364 45df 02       		.uleb128 0x2
 12365 45e0 08       		.byte	0x8
 12366 45e1 6E       		.byte	0x6e
 12367 45e2 33       		.uleb128 0x33
 12368 45e3 01       		.uleb128 0x1
ARM GAS  /tmp/cc5QaxCL.s 			page 218


 12369 45e4 51       		.byte	0x51
 12370 45e5 01       		.uleb128 0x1
 12371 45e6 30       		.byte	0x30
 12372 45e7 33       		.uleb128 0x33
 12373 45e8 01       		.uleb128 0x1
 12374 45e9 52       		.byte	0x52
 12375 45ea 02       		.uleb128 0x2
 12376 45eb 91       		.byte	0x91
 12377 45ec 68       		.sleb128 -24
 12378 45ed 00       		.byte	0
 12379 45ee 32       		.uleb128 0x32
 12380 45ef 34000000 		.4byte	.LVL6
 12381 45f3 1F550000 		.4byte	0x551f
 12382 45f7 0D460000 		.4byte	0x460d
 12383 45fb 33       		.uleb128 0x33
 12384 45fc 01       		.uleb128 0x1
 12385 45fd 50       		.byte	0x50
 12386 45fe 02       		.uleb128 0x2
 12387 45ff 08       		.byte	0x8
 12388 4600 6E       		.byte	0x6e
 12389 4601 33       		.uleb128 0x33
 12390 4602 01       		.uleb128 0x1
 12391 4603 51       		.byte	0x51
 12392 4604 01       		.uleb128 0x1
 12393 4605 31       		.byte	0x31
 12394 4606 33       		.uleb128 0x33
 12395 4607 01       		.uleb128 0x1
 12396 4608 52       		.byte	0x52
 12397 4609 02       		.uleb128 0x2
 12398 460a 91       		.byte	0x91
 12399 460b 69       		.sleb128 -23
 12400 460c 00       		.byte	0
 12401 460d 34       		.uleb128 0x34
 12402 460e 4C000000 		.4byte	.LVL7
 12403 4612 0B550000 		.4byte	0x550b
 12404 4616 00       		.byte	0
 12405 4617 0B       		.uleb128 0xb
 12406 4618 04       		.byte	0x4
 12407 4619 F0000000 		.4byte	0xf0
 12408 461d 13       		.uleb128 0x13
 12409 461e D5000000 		.4byte	0xd5
 12410 4622 2D460000 		.4byte	0x462d
 12411 4626 14       		.uleb128 0x14
 12412 4627 37000000 		.4byte	0x37
 12413 462b 01       		.byte	0x1
 12414 462c 00       		.byte	0
 12415 462d 4A       		.uleb128 0x4a
 12416 462e 6F450000 		.4byte	0x456f
 12417 4632 00000000 		.4byte	.LFB258
 12418 4636 2C000000 		.4byte	.LFE258-.LFB258
 12419 463a 01       		.uleb128 0x1
 12420 463b 9C       		.byte	0x9c
 12421 463c 6C460000 		.4byte	0x466c
 12422 4640 37       		.uleb128 0x37
 12423 4641 7F450000 		.4byte	0x457f
 12424 4645 180C0000 		.4byte	.LLST2
 12425 4649 39       		.uleb128 0x39
ARM GAS  /tmp/cc5QaxCL.s 			page 219


 12426 464a 22000000 		.4byte	.LVL10
 12427 464e 14550000 		.4byte	0x5514
 12428 4652 62460000 		.4byte	0x4662
 12429 4656 33       		.uleb128 0x33
 12430 4657 01       		.uleb128 0x1
 12431 4658 50       		.byte	0x50
 12432 4659 02       		.uleb128 0x2
 12433 465a 08       		.byte	0x8
 12434 465b 6E       		.byte	0x6e
 12435 465c 33       		.uleb128 0x33
 12436 465d 01       		.uleb128 0x1
 12437 465e 51       		.byte	0x51
 12438 465f 01       		.uleb128 0x1
 12439 4660 33       		.byte	0x33
 12440 4661 00       		.byte	0
 12441 4662 34       		.uleb128 0x34
 12442 4663 26000000 		.4byte	.LVL11
 12443 4667 0B550000 		.4byte	0x550b
 12444 466b 00       		.byte	0
 12445 466c 4A       		.uleb128 0x4a
 12446 466d 48450000 		.4byte	0x4548
 12447 4671 00000000 		.4byte	.LFB259
 12448 4675 44000000 		.4byte	.LFE259-.LFB259
 12449 4679 01       		.uleb128 0x1
 12450 467a 9C       		.byte	0x9c
 12451 467b 18470000 		.4byte	0x4718
 12452 467f 37       		.uleb128 0x37
 12453 4680 58450000 		.4byte	0x4558
 12454 4684 520C0000 		.4byte	.LLST3
 12455 4688 4B       		.uleb128 0x4b
 12456 4689 63450000 		.4byte	0x4563
 12457 468d 730C0000 		.4byte	.LLST4
 12458 4691 4C       		.uleb128 0x4c
 12459 4692 6F450000 		.4byte	0x456f
 12460 4696 0C000000 		.4byte	.LBB62
 12461 469a 0A000000 		.4byte	.LBE62-.LBB62
 12462 469e 01       		.byte	0x1
 12463 469f 92       		.byte	0x92
 12464 46a0 C8460000 		.4byte	0x46c8
 12465 46a4 37       		.uleb128 0x37
 12466 46a5 7F450000 		.4byte	0x457f
 12467 46a9 870C0000 		.4byte	.LLST5
 12468 46ad 38       		.uleb128 0x38
 12469 46ae 16000000 		.4byte	.LVL15
 12470 46b2 14550000 		.4byte	0x5514
 12471 46b6 33       		.uleb128 0x33
 12472 46b7 01       		.uleb128 0x1
 12473 46b8 50       		.byte	0x50
 12474 46b9 02       		.uleb128 0x2
 12475 46ba 08       		.byte	0x8
 12476 46bb 6E       		.byte	0x6e
 12477 46bc 33       		.uleb128 0x33
 12478 46bd 01       		.uleb128 0x1
 12479 46be 51       		.byte	0x51
 12480 46bf 01       		.uleb128 0x1
 12481 46c0 33       		.byte	0x33
 12482 46c1 33       		.uleb128 0x33
ARM GAS  /tmp/cc5QaxCL.s 			page 220


 12483 46c2 01       		.uleb128 0x1
 12484 46c3 52       		.byte	0x52
 12485 46c4 01       		.uleb128 0x1
 12486 46c5 31       		.byte	0x31
 12487 46c6 00       		.byte	0
 12488 46c7 00       		.byte	0
 12489 46c8 4D       		.uleb128 0x4d
 12490 46c9 48450000 		.4byte	0x4548
 12491 46cd 24000000 		.4byte	.LBB64
 12492 46d1 14000000 		.4byte	.LBE64-.LBB64
 12493 46d5 0E470000 		.4byte	0x470e
 12494 46d9 37       		.uleb128 0x37
 12495 46da 58450000 		.4byte	0x4558
 12496 46de 9B0C0000 		.4byte	.LLST6
 12497 46e2 4E       		.uleb128 0x4e
 12498 46e3 24000000 		.4byte	.LBB65
 12499 46e7 14000000 		.4byte	.LBE65-.LBB65
 12500 46eb 4F       		.uleb128 0x4f
 12501 46ec 88460000 		.4byte	0x4688
 12502 46f0 38       		.uleb128 0x38
 12503 46f1 2E000000 		.4byte	.LVL17
 12504 46f5 14550000 		.4byte	0x5514
 12505 46f9 33       		.uleb128 0x33
 12506 46fa 01       		.uleb128 0x1
 12507 46fb 50       		.byte	0x50
 12508 46fc 02       		.uleb128 0x2
 12509 46fd 08       		.byte	0x8
 12510 46fe 6E       		.byte	0x6e
 12511 46ff 33       		.uleb128 0x33
 12512 4700 01       		.uleb128 0x1
 12513 4701 51       		.byte	0x51
 12514 4702 02       		.uleb128 0x2
 12515 4703 08       		.byte	0x8
 12516 4704 38       		.byte	0x38
 12517 4705 33       		.uleb128 0x33
 12518 4706 01       		.uleb128 0x1
 12519 4707 52       		.byte	0x52
 12520 4708 02       		.uleb128 0x2
 12521 4709 75       		.byte	0x75
 12522 470a 00       		.sleb128 0
 12523 470b 00       		.byte	0
 12524 470c 00       		.byte	0
 12525 470d 00       		.byte	0
 12526 470e 34       		.uleb128 0x34
 12527 470f 3C000000 		.4byte	.LVL19
 12528 4713 0B550000 		.4byte	0x550b
 12529 4717 00       		.byte	0
 12530 4718 4A       		.uleb128 0x4a
 12531 4719 2C450000 		.4byte	0x452c
 12532 471d 00000000 		.4byte	.LFB260
 12533 4721 5C020000 		.4byte	.LFE260-.LFB260
 12534 4725 01       		.uleb128 0x1
 12535 4726 9C       		.byte	0x9c
 12536 4727 B84B0000 		.4byte	0x4bb8
 12537 472b 4B       		.uleb128 0x4b
 12538 472c 3C450000 		.4byte	0x453c
 12539 4730 AE0C0000 		.4byte	.LLST7
ARM GAS  /tmp/cc5QaxCL.s 			page 221


 12540 4734 4C       		.uleb128 0x4c
 12541 4735 6F450000 		.4byte	0x456f
 12542 4739 0A000000 		.4byte	.LBB76
 12543 473d 0A000000 		.4byte	.LBE76-.LBB76
 12544 4741 01       		.byte	0x1
 12545 4742 AA       		.byte	0xaa
 12546 4743 6B470000 		.4byte	0x476b
 12547 4747 37       		.uleb128 0x37
 12548 4748 7F450000 		.4byte	0x457f
 12549 474c EE0C0000 		.4byte	.LLST8
 12550 4750 38       		.uleb128 0x38
 12551 4751 14000000 		.4byte	.LVL21
 12552 4755 14550000 		.4byte	0x5514
 12553 4759 33       		.uleb128 0x33
 12554 475a 01       		.uleb128 0x1
 12555 475b 50       		.byte	0x50
 12556 475c 02       		.uleb128 0x2
 12557 475d 08       		.byte	0x8
 12558 475e 6E       		.byte	0x6e
 12559 475f 33       		.uleb128 0x33
 12560 4760 01       		.uleb128 0x1
 12561 4761 51       		.byte	0x51
 12562 4762 01       		.uleb128 0x1
 12563 4763 33       		.byte	0x33
 12564 4764 33       		.uleb128 0x33
 12565 4765 01       		.uleb128 0x1
 12566 4766 52       		.byte	0x52
 12567 4767 01       		.uleb128 0x1
 12568 4768 31       		.byte	0x31
 12569 4769 00       		.byte	0
 12570 476a 00       		.byte	0
 12571 476b 50       		.uleb128 0x50
 12572 476c 00000000 		.4byte	.Ldebug_ranges0+0
 12573 4770 3C4B0000 		.4byte	0x4b3c
 12574 4774 4F       		.uleb128 0x4f
 12575 4775 2B470000 		.4byte	0x472b
 12576 4779 4C       		.uleb128 0x4c
 12577 477a 6F450000 		.4byte	0x456f
 12578 477e 0E010000 		.4byte	.LBB80
 12579 4782 0A000000 		.4byte	.LBE80-.LBB80
 12580 4786 01       		.byte	0x1
 12581 4787 E9       		.byte	0xe9
 12582 4788 B0470000 		.4byte	0x47b0
 12583 478c 37       		.uleb128 0x37
 12584 478d 7F450000 		.4byte	0x457f
 12585 4791 020D0000 		.4byte	.LLST9
 12586 4795 38       		.uleb128 0x38
 12587 4796 18010000 		.4byte	.LVL55
 12588 479a 14550000 		.4byte	0x5514
 12589 479e 33       		.uleb128 0x33
 12590 479f 01       		.uleb128 0x1
 12591 47a0 50       		.byte	0x50
 12592 47a1 02       		.uleb128 0x2
 12593 47a2 08       		.byte	0x8
 12594 47a3 6E       		.byte	0x6e
 12595 47a4 33       		.uleb128 0x33
 12596 47a5 01       		.uleb128 0x1
ARM GAS  /tmp/cc5QaxCL.s 			page 222


 12597 47a6 51       		.byte	0x51
 12598 47a7 01       		.uleb128 0x1
 12599 47a8 33       		.byte	0x33
 12600 47a9 33       		.uleb128 0x33
 12601 47aa 01       		.uleb128 0x1
 12602 47ab 52       		.byte	0x52
 12603 47ac 01       		.uleb128 0x1
 12604 47ad 32       		.byte	0x32
 12605 47ae 00       		.byte	0
 12606 47af 00       		.byte	0
 12607 47b0 36       		.uleb128 0x36
 12608 47b1 6F450000 		.4byte	0x456f
 12609 47b5 1E020000 		.4byte	.LBB82
 12610 47b9 0A000000 		.4byte	.LBE82-.LBB82
 12611 47bd 01       		.byte	0x1
 12612 47be 1F01     		.2byte	0x11f
 12613 47c0 E3470000 		.4byte	0x47e3
 12614 47c4 37       		.uleb128 0x37
 12615 47c5 7F450000 		.4byte	0x457f
 12616 47c9 160D0000 		.4byte	.LLST10
 12617 47cd 38       		.uleb128 0x38
 12618 47ce 28020000 		.4byte	.LVL89
 12619 47d2 14550000 		.4byte	0x5514
 12620 47d6 33       		.uleb128 0x33
 12621 47d7 01       		.uleb128 0x1
 12622 47d8 50       		.byte	0x50
 12623 47d9 02       		.uleb128 0x2
 12624 47da 08       		.byte	0x8
 12625 47db 6E       		.byte	0x6e
 12626 47dc 33       		.uleb128 0x33
 12627 47dd 01       		.uleb128 0x1
 12628 47de 51       		.byte	0x51
 12629 47df 01       		.uleb128 0x1
 12630 47e0 33       		.byte	0x33
 12631 47e1 00       		.byte	0
 12632 47e2 00       		.byte	0
 12633 47e3 32       		.uleb128 0x32
 12634 47e4 66000000 		.4byte	.LVL30
 12635 47e8 14550000 		.4byte	0x5514
 12636 47ec 02480000 		.4byte	0x4802
 12637 47f0 33       		.uleb128 0x33
 12638 47f1 01       		.uleb128 0x1
 12639 47f2 50       		.byte	0x50
 12640 47f3 02       		.uleb128 0x2
 12641 47f4 08       		.byte	0x8
 12642 47f5 6E       		.byte	0x6e
 12643 47f6 33       		.uleb128 0x33
 12644 47f7 01       		.uleb128 0x1
 12645 47f8 51       		.byte	0x51
 12646 47f9 02       		.uleb128 0x2
 12647 47fa 08       		.byte	0x8
 12648 47fb 54       		.byte	0x54
 12649 47fc 33       		.uleb128 0x33
 12650 47fd 01       		.uleb128 0x1
 12651 47fe 52       		.byte	0x52
 12652 47ff 01       		.uleb128 0x1
 12653 4800 32       		.byte	0x32
ARM GAS  /tmp/cc5QaxCL.s 			page 223


 12654 4801 00       		.byte	0
 12655 4802 32       		.uleb128 0x32
 12656 4803 74000000 		.4byte	.LVL32
 12657 4807 14550000 		.4byte	0x5514
 12658 480b 22480000 		.4byte	0x4822
 12659 480f 33       		.uleb128 0x33
 12660 4810 01       		.uleb128 0x1
 12661 4811 50       		.byte	0x50
 12662 4812 02       		.uleb128 0x2
 12663 4813 08       		.byte	0x8
 12664 4814 6E       		.byte	0x6e
 12665 4815 33       		.uleb128 0x33
 12666 4816 01       		.uleb128 0x1
 12667 4817 51       		.byte	0x51
 12668 4818 02       		.uleb128 0x2
 12669 4819 08       		.byte	0x8
 12670 481a 55       		.byte	0x55
 12671 481b 33       		.uleb128 0x33
 12672 481c 01       		.uleb128 0x1
 12673 481d 52       		.byte	0x52
 12674 481e 02       		.uleb128 0x2
 12675 481f 09       		.byte	0x9
 12676 4820 86       		.byte	0x86
 12677 4821 00       		.byte	0
 12678 4822 32       		.uleb128 0x32
 12679 4823 82000000 		.4byte	.LVL34
 12680 4827 14550000 		.4byte	0x5514
 12681 482b 41480000 		.4byte	0x4841
 12682 482f 33       		.uleb128 0x33
 12683 4830 01       		.uleb128 0x1
 12684 4831 50       		.byte	0x50
 12685 4832 02       		.uleb128 0x2
 12686 4833 08       		.byte	0x8
 12687 4834 6E       		.byte	0x6e
 12688 4835 33       		.uleb128 0x33
 12689 4836 01       		.uleb128 0x1
 12690 4837 51       		.byte	0x51
 12691 4838 02       		.uleb128 0x2
 12692 4839 08       		.byte	0x8
 12693 483a 56       		.byte	0x56
 12694 483b 33       		.uleb128 0x33
 12695 483c 01       		.uleb128 0x1
 12696 483d 52       		.byte	0x52
 12697 483e 01       		.uleb128 0x1
 12698 483f 31       		.byte	0x31
 12699 4840 00       		.byte	0
 12700 4841 32       		.uleb128 0x32
 12701 4842 90000000 		.4byte	.LVL36
 12702 4846 14550000 		.4byte	0x5514
 12703 484a 61480000 		.4byte	0x4861
 12704 484e 33       		.uleb128 0x33
 12705 484f 01       		.uleb128 0x1
 12706 4850 50       		.byte	0x50
 12707 4851 02       		.uleb128 0x2
 12708 4852 08       		.byte	0x8
 12709 4853 6E       		.byte	0x6e
 12710 4854 33       		.uleb128 0x33
ARM GAS  /tmp/cc5QaxCL.s 			page 224


 12711 4855 01       		.uleb128 0x1
 12712 4856 51       		.byte	0x51
 12713 4857 02       		.uleb128 0x2
 12714 4858 08       		.byte	0x8
 12715 4859 57       		.byte	0x57
 12716 485a 33       		.uleb128 0x33
 12717 485b 01       		.uleb128 0x1
 12718 485c 52       		.byte	0x52
 12719 485d 02       		.uleb128 0x2
 12720 485e 09       		.byte	0x9
 12721 485f E6       		.byte	0xe6
 12722 4860 00       		.byte	0
 12723 4861 32       		.uleb128 0x32
 12724 4862 9E000000 		.4byte	.LVL38
 12725 4866 14550000 		.4byte	0x5514
 12726 486a 81480000 		.4byte	0x4881
 12727 486e 33       		.uleb128 0x33
 12728 486f 01       		.uleb128 0x1
 12729 4870 50       		.byte	0x50
 12730 4871 02       		.uleb128 0x2
 12731 4872 08       		.byte	0x8
 12732 4873 6E       		.byte	0x6e
 12733 4874 33       		.uleb128 0x33
 12734 4875 01       		.uleb128 0x1
 12735 4876 51       		.byte	0x51
 12736 4877 02       		.uleb128 0x2
 12737 4878 09       		.byte	0x9
 12738 4879 80       		.byte	0x80
 12739 487a 33       		.uleb128 0x33
 12740 487b 01       		.uleb128 0x1
 12741 487c 52       		.byte	0x52
 12742 487d 02       		.uleb128 0x2
 12743 487e 08       		.byte	0x8
 12744 487f 20       		.byte	0x20
 12745 4880 00       		.byte	0
 12746 4881 32       		.uleb128 0x32
 12747 4882 AC000000 		.4byte	.LVL40
 12748 4886 14550000 		.4byte	0x5514
 12749 488a A1480000 		.4byte	0x48a1
 12750 488e 33       		.uleb128 0x33
 12751 488f 01       		.uleb128 0x1
 12752 4890 50       		.byte	0x50
 12753 4891 02       		.uleb128 0x2
 12754 4892 08       		.byte	0x8
 12755 4893 6E       		.byte	0x6e
 12756 4894 33       		.uleb128 0x33
 12757 4895 01       		.uleb128 0x1
 12758 4896 51       		.byte	0x51
 12759 4897 02       		.uleb128 0x2
 12760 4898 09       		.byte	0x9
 12761 4899 81       		.byte	0x81
 12762 489a 33       		.uleb128 0x33
 12763 489b 01       		.uleb128 0x1
 12764 489c 52       		.byte	0x52
 12765 489d 02       		.uleb128 0x2
 12766 489e 08       		.byte	0x8
 12767 489f 20       		.byte	0x20
ARM GAS  /tmp/cc5QaxCL.s 			page 225


 12768 48a0 00       		.byte	0
 12769 48a1 32       		.uleb128 0x32
 12770 48a2 BA000000 		.4byte	.LVL42
 12771 48a6 14550000 		.4byte	0x5514
 12772 48aa BB480000 		.4byte	0x48bb
 12773 48ae 33       		.uleb128 0x33
 12774 48af 01       		.uleb128 0x1
 12775 48b0 50       		.byte	0x50
 12776 48b1 02       		.uleb128 0x2
 12777 48b2 08       		.byte	0x8
 12778 48b3 6E       		.byte	0x6e
 12779 48b4 33       		.uleb128 0x33
 12780 48b5 01       		.uleb128 0x1
 12781 48b6 51       		.byte	0x51
 12782 48b7 02       		.uleb128 0x2
 12783 48b8 08       		.byte	0x8
 12784 48b9 60       		.byte	0x60
 12785 48ba 00       		.byte	0
 12786 48bb 32       		.uleb128 0x32
 12787 48bc C8000000 		.4byte	.LVL44
 12788 48c0 14550000 		.4byte	0x5514
 12789 48c4 DA480000 		.4byte	0x48da
 12790 48c8 33       		.uleb128 0x33
 12791 48c9 01       		.uleb128 0x1
 12792 48ca 50       		.byte	0x50
 12793 48cb 02       		.uleb128 0x2
 12794 48cc 08       		.byte	0x8
 12795 48cd 6E       		.byte	0x6e
 12796 48ce 33       		.uleb128 0x33
 12797 48cf 01       		.uleb128 0x1
 12798 48d0 51       		.byte	0x51
 12799 48d1 02       		.uleb128 0x2
 12800 48d2 08       		.byte	0x8
 12801 48d3 61       		.byte	0x61
 12802 48d4 33       		.uleb128 0x33
 12803 48d5 01       		.uleb128 0x1
 12804 48d6 52       		.byte	0x52
 12805 48d7 01       		.uleb128 0x1
 12806 48d8 3C       		.byte	0x3c
 12807 48d9 00       		.byte	0
 12808 48da 32       		.uleb128 0x32
 12809 48db D6000000 		.4byte	.LVL46
 12810 48df 14550000 		.4byte	0x5514
 12811 48e3 F9480000 		.4byte	0x48f9
 12812 48e7 33       		.uleb128 0x33
 12813 48e8 01       		.uleb128 0x1
 12814 48e9 50       		.byte	0x50
 12815 48ea 02       		.uleb128 0x2
 12816 48eb 08       		.byte	0x8
 12817 48ec 6E       		.byte	0x6e
 12818 48ed 33       		.uleb128 0x33
 12819 48ee 01       		.uleb128 0x1
 12820 48ef 51       		.byte	0x51
 12821 48f0 02       		.uleb128 0x2
 12822 48f1 08       		.byte	0x8
 12823 48f2 62       		.byte	0x62
 12824 48f3 33       		.uleb128 0x33
ARM GAS  /tmp/cc5QaxCL.s 			page 226


 12825 48f4 01       		.uleb128 0x1
 12826 48f5 52       		.byte	0x52
 12827 48f6 01       		.uleb128 0x1
 12828 48f7 31       		.byte	0x31
 12829 48f8 00       		.byte	0
 12830 48f9 32       		.uleb128 0x32
 12831 48fa E4000000 		.4byte	.LVL48
 12832 48fe 14550000 		.4byte	0x5514
 12833 4902 19490000 		.4byte	0x4919
 12834 4906 33       		.uleb128 0x33
 12835 4907 01       		.uleb128 0x1
 12836 4908 50       		.byte	0x50
 12837 4909 02       		.uleb128 0x2
 12838 490a 08       		.byte	0x8
 12839 490b 6E       		.byte	0x6e
 12840 490c 33       		.uleb128 0x33
 12841 490d 01       		.uleb128 0x1
 12842 490e 51       		.byte	0x51
 12843 490f 02       		.uleb128 0x2
 12844 4910 08       		.byte	0x8
 12845 4911 63       		.byte	0x63
 12846 4912 33       		.uleb128 0x33
 12847 4913 01       		.uleb128 0x1
 12848 4914 52       		.byte	0x52
 12849 4915 02       		.uleb128 0x2
 12850 4916 09       		.byte	0x9
 12851 4917 EC       		.byte	0xec
 12852 4918 00       		.byte	0
 12853 4919 32       		.uleb128 0x32
 12854 491a FC000000 		.4byte	.LVL50
 12855 491e 14550000 		.4byte	0x5514
 12856 4922 33490000 		.4byte	0x4933
 12857 4926 33       		.uleb128 0x33
 12858 4927 01       		.uleb128 0x1
 12859 4928 50       		.byte	0x50
 12860 4929 02       		.uleb128 0x2
 12861 492a 08       		.byte	0x8
 12862 492b 6E       		.byte	0x6e
 12863 492c 33       		.uleb128 0x33
 12864 492d 01       		.uleb128 0x1
 12865 492e 51       		.byte	0x51
 12866 492f 02       		.uleb128 0x2
 12867 4930 08       		.byte	0x8
 12868 4931 68       		.byte	0x68
 12869 4932 00       		.byte	0
 12870 4933 32       		.uleb128 0x32
 12871 4934 0A010000 		.4byte	.LVL52
 12872 4938 14550000 		.4byte	0x5514
 12873 493c 52490000 		.4byte	0x4952
 12874 4940 33       		.uleb128 0x33
 12875 4941 01       		.uleb128 0x1
 12876 4942 50       		.byte	0x50
 12877 4943 02       		.uleb128 0x2
 12878 4944 08       		.byte	0x8
 12879 4945 6E       		.byte	0x6e
 12880 4946 33       		.uleb128 0x33
 12881 4947 01       		.uleb128 0x1
ARM GAS  /tmp/cc5QaxCL.s 			page 227


 12882 4948 51       		.byte	0x51
 12883 4949 02       		.uleb128 0x2
 12884 494a 09       		.byte	0x9
 12885 494b 82       		.byte	0x82
 12886 494c 33       		.uleb128 0x33
 12887 494d 01       		.uleb128 0x1
 12888 494e 52       		.byte	0x52
 12889 494f 01       		.uleb128 0x1
 12890 4950 31       		.byte	0x31
 12891 4951 00       		.byte	0
 12892 4952 32       		.uleb128 0x32
 12893 4953 28010000 		.4byte	.LVL56
 12894 4957 14550000 		.4byte	0x5514
 12895 495b 6B490000 		.4byte	0x496b
 12896 495f 33       		.uleb128 0x33
 12897 4960 01       		.uleb128 0x1
 12898 4961 50       		.byte	0x50
 12899 4962 02       		.uleb128 0x2
 12900 4963 08       		.byte	0x8
 12901 4964 6E       		.byte	0x6e
 12902 4965 33       		.uleb128 0x33
 12903 4966 01       		.uleb128 0x1
 12904 4967 51       		.byte	0x51
 12905 4968 01       		.uleb128 0x1
 12906 4969 40       		.byte	0x40
 12907 496a 00       		.byte	0
 12908 496b 32       		.uleb128 0x32
 12909 496c 38010000 		.4byte	.LVL58
 12910 4970 14550000 		.4byte	0x5514
 12911 4974 8A490000 		.4byte	0x498a
 12912 4978 33       		.uleb128 0x33
 12913 4979 01       		.uleb128 0x1
 12914 497a 50       		.byte	0x50
 12915 497b 02       		.uleb128 0x2
 12916 497c 08       		.byte	0x8
 12917 497d 6E       		.byte	0x6e
 12918 497e 33       		.uleb128 0x33
 12919 497f 01       		.uleb128 0x1
 12920 4980 51       		.byte	0x51
 12921 4981 01       		.uleb128 0x1
 12922 4982 41       		.byte	0x41
 12923 4983 33       		.uleb128 0x33
 12924 4984 01       		.uleb128 0x1
 12925 4985 52       		.byte	0x52
 12926 4986 02       		.uleb128 0x2
 12927 4987 08       		.byte	0x8
 12928 4988 25       		.byte	0x25
 12929 4989 00       		.byte	0
 12930 498a 32       		.uleb128 0x32
 12931 498b 48010000 		.4byte	.LVL60
 12932 498f 14550000 		.4byte	0x5514
 12933 4993 A3490000 		.4byte	0x49a3
 12934 4997 33       		.uleb128 0x33
 12935 4998 01       		.uleb128 0x1
 12936 4999 50       		.byte	0x50
 12937 499a 02       		.uleb128 0x2
 12938 499b 08       		.byte	0x8
ARM GAS  /tmp/cc5QaxCL.s 			page 228


 12939 499c 6E       		.byte	0x6e
 12940 499d 33       		.uleb128 0x33
 12941 499e 01       		.uleb128 0x1
 12942 499f 51       		.byte	0x51
 12943 49a0 01       		.uleb128 0x1
 12944 49a1 42       		.byte	0x42
 12945 49a2 00       		.byte	0
 12946 49a3 32       		.uleb128 0x32
 12947 49a4 58010000 		.4byte	.LVL62
 12948 49a8 14550000 		.4byte	0x5514
 12949 49ac C1490000 		.4byte	0x49c1
 12950 49b0 33       		.uleb128 0x33
 12951 49b1 01       		.uleb128 0x1
 12952 49b2 50       		.byte	0x50
 12953 49b3 02       		.uleb128 0x2
 12954 49b4 08       		.byte	0x8
 12955 49b5 6E       		.byte	0x6e
 12956 49b6 33       		.uleb128 0x33
 12957 49b7 01       		.uleb128 0x1
 12958 49b8 51       		.byte	0x51
 12959 49b9 01       		.uleb128 0x1
 12960 49ba 43       		.byte	0x43
 12961 49bb 33       		.uleb128 0x33
 12962 49bc 01       		.uleb128 0x1
 12963 49bd 52       		.byte	0x52
 12964 49be 01       		.uleb128 0x1
 12965 49bf 4C       		.byte	0x4c
 12966 49c0 00       		.byte	0
 12967 49c1 32       		.uleb128 0x32
 12968 49c2 68010000 		.4byte	.LVL64
 12969 49c6 14550000 		.4byte	0x5514
 12970 49ca DF490000 		.4byte	0x49df
 12971 49ce 33       		.uleb128 0x33
 12972 49cf 01       		.uleb128 0x1
 12973 49d0 50       		.byte	0x50
 12974 49d1 02       		.uleb128 0x2
 12975 49d2 08       		.byte	0x8
 12976 49d3 6E       		.byte	0x6e
 12977 49d4 33       		.uleb128 0x33
 12978 49d5 01       		.uleb128 0x1
 12979 49d6 51       		.byte	0x51
 12980 49d7 01       		.uleb128 0x1
 12981 49d8 44       		.byte	0x44
 12982 49d9 33       		.uleb128 0x33
 12983 49da 01       		.uleb128 0x1
 12984 49db 52       		.byte	0x52
 12985 49dc 01       		.uleb128 0x1
 12986 49dd 32       		.byte	0x32
 12987 49de 00       		.byte	0
 12988 49df 32       		.uleb128 0x32
 12989 49e0 78010000 		.4byte	.LVL66
 12990 49e4 14550000 		.4byte	0x5514
 12991 49e8 FE490000 		.4byte	0x49fe
 12992 49ec 33       		.uleb128 0x33
 12993 49ed 01       		.uleb128 0x1
 12994 49ee 50       		.byte	0x50
 12995 49ef 02       		.uleb128 0x2
ARM GAS  /tmp/cc5QaxCL.s 			page 229


 12996 49f0 08       		.byte	0x8
 12997 49f1 6E       		.byte	0x6e
 12998 49f2 33       		.uleb128 0x33
 12999 49f3 01       		.uleb128 0x1
 13000 49f4 51       		.byte	0x51
 13001 49f5 01       		.uleb128 0x1
 13002 49f6 45       		.byte	0x45
 13003 49f7 33       		.uleb128 0x33
 13004 49f8 01       		.uleb128 0x1
 13005 49f9 52       		.byte	0x52
 13006 49fa 02       		.uleb128 0x2
 13007 49fb 08       		.byte	0x8
 13008 49fc 60       		.byte	0x60
 13009 49fd 00       		.byte	0
 13010 49fe 32       		.uleb128 0x32
 13011 49ff 88010000 		.4byte	.LVL68
 13012 4a03 14550000 		.4byte	0x5514
 13013 4a07 1C4A0000 		.4byte	0x4a1c
 13014 4a0b 33       		.uleb128 0x33
 13015 4a0c 01       		.uleb128 0x1
 13016 4a0d 50       		.byte	0x50
 13017 4a0e 02       		.uleb128 0x2
 13018 4a0f 08       		.byte	0x8
 13019 4a10 6E       		.byte	0x6e
 13020 4a11 33       		.uleb128 0x33
 13021 4a12 01       		.uleb128 0x1
 13022 4a13 51       		.byte	0x51
 13023 4a14 01       		.uleb128 0x1
 13024 4a15 46       		.byte	0x46
 13025 4a16 33       		.uleb128 0x33
 13026 4a17 01       		.uleb128 0x1
 13027 4a18 52       		.byte	0x52
 13028 4a19 01       		.uleb128 0x1
 13029 4a1a 31       		.byte	0x31
 13030 4a1b 00       		.byte	0
 13031 4a1c 32       		.uleb128 0x32
 13032 4a1d 98010000 		.4byte	.LVL70
 13033 4a21 14550000 		.4byte	0x5514
 13034 4a25 3B4A0000 		.4byte	0x4a3b
 13035 4a29 33       		.uleb128 0x33
 13036 4a2a 01       		.uleb128 0x1
 13037 4a2b 50       		.byte	0x50
 13038 4a2c 02       		.uleb128 0x2
 13039 4a2d 08       		.byte	0x8
 13040 4a2e 6E       		.byte	0x6e
 13041 4a2f 33       		.uleb128 0x33
 13042 4a30 01       		.uleb128 0x1
 13043 4a31 51       		.byte	0x51
 13044 4a32 01       		.uleb128 0x1
 13045 4a33 47       		.byte	0x47
 13046 4a34 33       		.uleb128 0x33
 13047 4a35 01       		.uleb128 0x1
 13048 4a36 52       		.byte	0x52
 13049 4a37 02       		.uleb128 0x2
 13050 4a38 09       		.byte	0x9
 13051 4a39 BE       		.byte	0xbe
 13052 4a3a 00       		.byte	0
ARM GAS  /tmp/cc5QaxCL.s 			page 230


 13053 4a3b 32       		.uleb128 0x32
 13054 4a3c A8010000 		.4byte	.LVL72
 13055 4a40 14550000 		.4byte	0x5514
 13056 4a44 594A0000 		.4byte	0x4a59
 13057 4a48 33       		.uleb128 0x33
 13058 4a49 01       		.uleb128 0x1
 13059 4a4a 50       		.byte	0x50
 13060 4a4b 02       		.uleb128 0x2
 13061 4a4c 08       		.byte	0x8
 13062 4a4d 6E       		.byte	0x6e
 13063 4a4e 33       		.uleb128 0x33
 13064 4a4f 01       		.uleb128 0x1
 13065 4a50 51       		.byte	0x51
 13066 4a51 01       		.uleb128 0x1
 13067 4a52 48       		.byte	0x48
 13068 4a53 33       		.uleb128 0x33
 13069 4a54 01       		.uleb128 0x1
 13070 4a55 52       		.byte	0x52
 13071 4a56 01       		.uleb128 0x1
 13072 4a57 30       		.byte	0x30
 13073 4a58 00       		.byte	0
 13074 4a59 32       		.uleb128 0x32
 13075 4a5a B8010000 		.4byte	.LVL74
 13076 4a5e 14550000 		.4byte	0x5514
 13077 4a62 784A0000 		.4byte	0x4a78
 13078 4a66 33       		.uleb128 0x33
 13079 4a67 01       		.uleb128 0x1
 13080 4a68 50       		.byte	0x50
 13081 4a69 02       		.uleb128 0x2
 13082 4a6a 08       		.byte	0x8
 13083 4a6b 6E       		.byte	0x6e
 13084 4a6c 33       		.uleb128 0x33
 13085 4a6d 01       		.uleb128 0x1
 13086 4a6e 51       		.byte	0x51
 13087 4a6f 01       		.uleb128 0x1
 13088 4a70 49       		.byte	0x49
 13089 4a71 33       		.uleb128 0x33
 13090 4a72 01       		.uleb128 0x1
 13091 4a73 52       		.byte	0x52
 13092 4a74 02       		.uleb128 0x2
 13093 4a75 09       		.byte	0x9
 13094 4a76 E5       		.byte	0xe5
 13095 4a77 00       		.byte	0
 13096 4a78 32       		.uleb128 0x32
 13097 4a79 C8010000 		.4byte	.LVL76
 13098 4a7d 14550000 		.4byte	0x5514
 13099 4a81 914A0000 		.4byte	0x4a91
 13100 4a85 33       		.uleb128 0x33
 13101 4a86 01       		.uleb128 0x1
 13102 4a87 50       		.byte	0x50
 13103 4a88 02       		.uleb128 0x2
 13104 4a89 08       		.byte	0x8
 13105 4a8a 6E       		.byte	0x6e
 13106 4a8b 33       		.uleb128 0x33
 13107 4a8c 01       		.uleb128 0x1
 13108 4a8d 51       		.byte	0x51
 13109 4a8e 01       		.uleb128 0x1
ARM GAS  /tmp/cc5QaxCL.s 			page 231


 13110 4a8f 4A       		.byte	0x4a
 13111 4a90 00       		.byte	0
 13112 4a91 32       		.uleb128 0x32
 13113 4a92 D8010000 		.4byte	.LVL78
 13114 4a96 14550000 		.4byte	0x5514
 13115 4a9a B04A0000 		.4byte	0x4ab0
 13116 4a9e 33       		.uleb128 0x33
 13117 4a9f 01       		.uleb128 0x1
 13118 4aa0 50       		.byte	0x50
 13119 4aa1 02       		.uleb128 0x2
 13120 4aa2 08       		.byte	0x8
 13121 4aa3 6E       		.byte	0x6e
 13122 4aa4 33       		.uleb128 0x33
 13123 4aa5 01       		.uleb128 0x1
 13124 4aa6 51       		.byte	0x51
 13125 4aa7 01       		.uleb128 0x1
 13126 4aa8 4B       		.byte	0x4b
 13127 4aa9 33       		.uleb128 0x33
 13128 4aaa 01       		.uleb128 0x1
 13129 4aab 52       		.byte	0x52
 13130 4aac 02       		.uleb128 0x2
 13131 4aad 09       		.byte	0x9
 13132 4aae 87       		.byte	0x87
 13133 4aaf 00       		.byte	0
 13134 4ab0 32       		.uleb128 0x32
 13135 4ab1 E8010000 		.4byte	.LVL80
 13136 4ab5 14550000 		.4byte	0x5514
 13137 4ab9 C94A0000 		.4byte	0x4ac9
 13138 4abd 33       		.uleb128 0x33
 13139 4abe 01       		.uleb128 0x1
 13140 4abf 50       		.byte	0x50
 13141 4ac0 02       		.uleb128 0x2
 13142 4ac1 08       		.byte	0x8
 13143 4ac2 6E       		.byte	0x6e
 13144 4ac3 33       		.uleb128 0x33
 13145 4ac4 01       		.uleb128 0x1
 13146 4ac5 51       		.byte	0x51
 13147 4ac6 01       		.uleb128 0x1
 13148 4ac7 4C       		.byte	0x4c
 13149 4ac8 00       		.byte	0
 13150 4ac9 32       		.uleb128 0x32
 13151 4aca F8010000 		.4byte	.LVL82
 13152 4ace 14550000 		.4byte	0x5514
 13153 4ad2 E84A0000 		.4byte	0x4ae8
 13154 4ad6 33       		.uleb128 0x33
 13155 4ad7 01       		.uleb128 0x1
 13156 4ad8 50       		.byte	0x50
 13157 4ad9 02       		.uleb128 0x2
 13158 4ada 08       		.byte	0x8
 13159 4adb 6E       		.byte	0x6e
 13160 4adc 33       		.uleb128 0x33
 13161 4add 01       		.uleb128 0x1
 13162 4ade 51       		.byte	0x51
 13163 4adf 01       		.uleb128 0x1
 13164 4ae0 4D       		.byte	0x4d
 13165 4ae1 33       		.uleb128 0x33
 13166 4ae2 01       		.uleb128 0x1
ARM GAS  /tmp/cc5QaxCL.s 			page 232


 13167 4ae3 52       		.byte	0x52
 13168 4ae4 02       		.uleb128 0x2
 13169 4ae5 09       		.byte	0x9
 13170 4ae6 A0       		.byte	0xa0
 13171 4ae7 00       		.byte	0
 13172 4ae8 32       		.uleb128 0x32
 13173 4ae9 08020000 		.4byte	.LVL84
 13174 4aed 14550000 		.4byte	0x5514
 13175 4af1 014B0000 		.4byte	0x4b01
 13176 4af5 33       		.uleb128 0x33
 13177 4af6 01       		.uleb128 0x1
 13178 4af7 50       		.byte	0x50
 13179 4af8 02       		.uleb128 0x2
 13180 4af9 08       		.byte	0x8
 13181 4afa 6E       		.byte	0x6e
 13182 4afb 33       		.uleb128 0x33
 13183 4afc 01       		.uleb128 0x1
 13184 4afd 51       		.byte	0x51
 13185 4afe 01       		.uleb128 0x1
 13186 4aff 4E       		.byte	0x4e
 13187 4b00 00       		.byte	0
 13188 4b01 32       		.uleb128 0x32
 13189 4b02 18020000 		.4byte	.LVL86
 13190 4b06 14550000 		.4byte	0x5514
 13191 4b0a 204B0000 		.4byte	0x4b20
 13192 4b0e 33       		.uleb128 0x33
 13193 4b0f 01       		.uleb128 0x1
 13194 4b10 50       		.byte	0x50
 13195 4b11 02       		.uleb128 0x2
 13196 4b12 08       		.byte	0x8
 13197 4b13 6E       		.byte	0x6e
 13198 4b14 33       		.uleb128 0x33
 13199 4b15 01       		.uleb128 0x1
 13200 4b16 51       		.byte	0x51
 13201 4b17 01       		.uleb128 0x1
 13202 4b18 4F       		.byte	0x4f
 13203 4b19 33       		.uleb128 0x33
 13204 4b1a 01       		.uleb128 0x1
 13205 4b1b 52       		.byte	0x52
 13206 4b1c 02       		.uleb128 0x2
 13207 4b1d 09       		.byte	0x9
 13208 4b1e A0       		.byte	0xa0
 13209 4b1f 00       		.byte	0
 13210 4b20 38       		.uleb128 0x38
 13211 4b21 48020000 		.4byte	.LVL92
 13212 4b25 14550000 		.4byte	0x5514
 13213 4b29 33       		.uleb128 0x33
 13214 4b2a 01       		.uleb128 0x1
 13215 4b2b 50       		.byte	0x50
 13216 4b2c 02       		.uleb128 0x2
 13217 4b2d 08       		.byte	0x8
 13218 4b2e 6E       		.byte	0x6e
 13219 4b2f 33       		.uleb128 0x33
 13220 4b30 01       		.uleb128 0x1
 13221 4b31 51       		.byte	0x51
 13222 4b32 02       		.uleb128 0x2
 13223 4b33 08       		.byte	0x8
ARM GAS  /tmp/cc5QaxCL.s 			page 233


 13224 4b34 68       		.byte	0x68
 13225 4b35 33       		.uleb128 0x33
 13226 4b36 01       		.uleb128 0x1
 13227 4b37 52       		.byte	0x52
 13228 4b38 01       		.uleb128 0x1
 13229 4b39 31       		.byte	0x31
 13230 4b3a 00       		.byte	0
 13231 4b3b 00       		.byte	0
 13232 4b3c 32       		.uleb128 0x32
 13233 4b3d 2E000000 		.4byte	.LVL22
 13234 4b41 14550000 		.4byte	0x5514
 13235 4b45 564B0000 		.4byte	0x4b56
 13236 4b49 33       		.uleb128 0x33
 13237 4b4a 01       		.uleb128 0x1
 13238 4b4b 50       		.byte	0x50
 13239 4b4c 02       		.uleb128 0x2
 13240 4b4d 08       		.byte	0x8
 13241 4b4e 6E       		.byte	0x6e
 13242 4b4f 33       		.uleb128 0x33
 13243 4b50 01       		.uleb128 0x1
 13244 4b51 51       		.byte	0x51
 13245 4b52 02       		.uleb128 0x2
 13246 4b53 08       		.byte	0x8
 13247 4b54 50       		.byte	0x50
 13248 4b55 00       		.byte	0
 13249 4b56 32       		.uleb128 0x32
 13250 4b57 3C000000 		.4byte	.LVL24
 13251 4b5b 14550000 		.4byte	0x5514
 13252 4b5f 754B0000 		.4byte	0x4b75
 13253 4b63 33       		.uleb128 0x33
 13254 4b64 01       		.uleb128 0x1
 13255 4b65 50       		.byte	0x50
 13256 4b66 02       		.uleb128 0x2
 13257 4b67 08       		.byte	0x8
 13258 4b68 6E       		.byte	0x6e
 13259 4b69 33       		.uleb128 0x33
 13260 4b6a 01       		.uleb128 0x1
 13261 4b6b 51       		.byte	0x51
 13262 4b6c 02       		.uleb128 0x2
 13263 4b6d 08       		.byte	0x8
 13264 4b6e 51       		.byte	0x51
 13265 4b6f 33       		.uleb128 0x33
 13266 4b70 01       		.uleb128 0x1
 13267 4b71 52       		.byte	0x52
 13268 4b72 01       		.uleb128 0x1
 13269 4b73 37       		.byte	0x37
 13270 4b74 00       		.byte	0
 13271 4b75 32       		.uleb128 0x32
 13272 4b76 4A000000 		.4byte	.LVL26
 13273 4b7a 14550000 		.4byte	0x5514
 13274 4b7e 8F4B0000 		.4byte	0x4b8f
 13275 4b82 33       		.uleb128 0x33
 13276 4b83 01       		.uleb128 0x1
 13277 4b84 50       		.byte	0x50
 13278 4b85 02       		.uleb128 0x2
 13279 4b86 08       		.byte	0x8
 13280 4b87 6E       		.byte	0x6e
ARM GAS  /tmp/cc5QaxCL.s 			page 234


 13281 4b88 33       		.uleb128 0x33
 13282 4b89 01       		.uleb128 0x1
 13283 4b8a 51       		.byte	0x51
 13284 4b8b 02       		.uleb128 0x2
 13285 4b8c 08       		.byte	0x8
 13286 4b8d 52       		.byte	0x52
 13287 4b8e 00       		.byte	0
 13288 4b8f 32       		.uleb128 0x32
 13289 4b90 58000000 		.4byte	.LVL28
 13290 4b94 14550000 		.4byte	0x5514
 13291 4b98 AE4B0000 		.4byte	0x4bae
 13292 4b9c 33       		.uleb128 0x33
 13293 4b9d 01       		.uleb128 0x1
 13294 4b9e 50       		.byte	0x50
 13295 4b9f 02       		.uleb128 0x2
 13296 4ba0 08       		.byte	0x8
 13297 4ba1 6E       		.byte	0x6e
 13298 4ba2 33       		.uleb128 0x33
 13299 4ba3 01       		.uleb128 0x1
 13300 4ba4 51       		.byte	0x51
 13301 4ba5 02       		.uleb128 0x2
 13302 4ba6 08       		.byte	0x8
 13303 4ba7 53       		.byte	0x53
 13304 4ba8 33       		.uleb128 0x33
 13305 4ba9 01       		.uleb128 0x1
 13306 4baa 52       		.byte	0x52
 13307 4bab 01       		.uleb128 0x1
 13308 4bac 37       		.byte	0x37
 13309 4bad 00       		.byte	0
 13310 4bae 34       		.uleb128 0x34
 13311 4baf 3E020000 		.4byte	.LVL90
 13312 4bb3 0B550000 		.4byte	0x550b
 13313 4bb7 00       		.byte	0
 13314 4bb8 4A       		.uleb128 0x4a
 13315 4bb9 0E450000 		.4byte	0x450e
 13316 4bbd 00000000 		.4byte	.LFB261
 13317 4bc1 5C020000 		.4byte	.LFE261-.LFB261
 13318 4bc5 01       		.uleb128 0x1
 13319 4bc6 9C       		.byte	0x9c
 13320 4bc7 54500000 		.4byte	0x5054
 13321 4bcb 4B       		.uleb128 0x4b
 13322 4bcc 1F450000 		.4byte	0x451f
 13323 4bd0 2A0D0000 		.4byte	.LLST11
 13324 4bd4 36       		.uleb128 0x36
 13325 4bd5 6F450000 		.4byte	0x456f
 13326 4bd9 0A000000 		.4byte	.LBB96
 13327 4bdd 0A000000 		.4byte	.LBE96-.LBB96
 13328 4be1 01       		.byte	0x1
 13329 4be2 3601     		.2byte	0x136
 13330 4be4 0C4C0000 		.4byte	0x4c0c
 13331 4be8 37       		.uleb128 0x37
 13332 4be9 7F450000 		.4byte	0x457f
 13333 4bed 6A0D0000 		.4byte	.LLST12
 13334 4bf1 38       		.uleb128 0x38
 13335 4bf2 14000000 		.4byte	.LVL94
 13336 4bf6 14550000 		.4byte	0x5514
 13337 4bfa 33       		.uleb128 0x33
ARM GAS  /tmp/cc5QaxCL.s 			page 235


 13338 4bfb 01       		.uleb128 0x1
 13339 4bfc 50       		.byte	0x50
 13340 4bfd 02       		.uleb128 0x2
 13341 4bfe 08       		.byte	0x8
 13342 4bff 6E       		.byte	0x6e
 13343 4c00 33       		.uleb128 0x33
 13344 4c01 01       		.uleb128 0x1
 13345 4c02 51       		.byte	0x51
 13346 4c03 01       		.uleb128 0x1
 13347 4c04 33       		.byte	0x33
 13348 4c05 33       		.uleb128 0x33
 13349 4c06 01       		.uleb128 0x1
 13350 4c07 52       		.byte	0x52
 13351 4c08 01       		.uleb128 0x1
 13352 4c09 31       		.byte	0x31
 13353 4c0a 00       		.byte	0
 13354 4c0b 00       		.byte	0
 13355 4c0c 50       		.uleb128 0x50
 13356 4c0d 18000000 		.4byte	.Ldebug_ranges0+0x18
 13357 4c11 D84F0000 		.4byte	0x4fd8
 13358 4c15 4F       		.uleb128 0x4f
 13359 4c16 CB4B0000 		.4byte	0x4bcb
 13360 4c1a 36       		.uleb128 0x36
 13361 4c1b 6F450000 		.4byte	0x456f
 13362 4c1f 0E010000 		.4byte	.LBB100
 13363 4c23 0A000000 		.4byte	.LBE100-.LBB100
 13364 4c27 01       		.byte	0x1
 13365 4c28 7501     		.2byte	0x175
 13366 4c2a 524C0000 		.4byte	0x4c52
 13367 4c2e 37       		.uleb128 0x37
 13368 4c2f 7F450000 		.4byte	0x457f
 13369 4c33 7E0D0000 		.4byte	.LLST13
 13370 4c37 38       		.uleb128 0x38
 13371 4c38 18010000 		.4byte	.LVL128
 13372 4c3c 14550000 		.4byte	0x5514
 13373 4c40 33       		.uleb128 0x33
 13374 4c41 01       		.uleb128 0x1
 13375 4c42 50       		.byte	0x50
 13376 4c43 02       		.uleb128 0x2
 13377 4c44 08       		.byte	0x8
 13378 4c45 6E       		.byte	0x6e
 13379 4c46 33       		.uleb128 0x33
 13380 4c47 01       		.uleb128 0x1
 13381 4c48 51       		.byte	0x51
 13382 4c49 01       		.uleb128 0x1
 13383 4c4a 33       		.byte	0x33
 13384 4c4b 33       		.uleb128 0x33
 13385 4c4c 01       		.uleb128 0x1
 13386 4c4d 52       		.byte	0x52
 13387 4c4e 01       		.uleb128 0x1
 13388 4c4f 32       		.byte	0x32
 13389 4c50 00       		.byte	0
 13390 4c51 00       		.byte	0
 13391 4c52 36       		.uleb128 0x36
 13392 4c53 6F450000 		.4byte	0x456f
 13393 4c57 1E020000 		.4byte	.LBB102
 13394 4c5b 0A000000 		.4byte	.LBE102-.LBB102
ARM GAS  /tmp/cc5QaxCL.s 			page 236


 13395 4c5f 01       		.byte	0x1
 13396 4c60 AB01     		.2byte	0x1ab
 13397 4c62 854C0000 		.4byte	0x4c85
 13398 4c66 37       		.uleb128 0x37
 13399 4c67 7F450000 		.4byte	0x457f
 13400 4c6b 920D0000 		.4byte	.LLST14
 13401 4c6f 38       		.uleb128 0x38
 13402 4c70 28020000 		.4byte	.LVL162
 13403 4c74 14550000 		.4byte	0x5514
 13404 4c78 33       		.uleb128 0x33
 13405 4c79 01       		.uleb128 0x1
 13406 4c7a 50       		.byte	0x50
 13407 4c7b 02       		.uleb128 0x2
 13408 4c7c 08       		.byte	0x8
 13409 4c7d 6E       		.byte	0x6e
 13410 4c7e 33       		.uleb128 0x33
 13411 4c7f 01       		.uleb128 0x1
 13412 4c80 51       		.byte	0x51
 13413 4c81 01       		.uleb128 0x1
 13414 4c82 33       		.byte	0x33
 13415 4c83 00       		.byte	0
 13416 4c84 00       		.byte	0
 13417 4c85 32       		.uleb128 0x32
 13418 4c86 66000000 		.4byte	.LVL103
 13419 4c8a 14550000 		.4byte	0x5514
 13420 4c8e A44C0000 		.4byte	0x4ca4
 13421 4c92 33       		.uleb128 0x33
 13422 4c93 01       		.uleb128 0x1
 13423 4c94 50       		.byte	0x50
 13424 4c95 02       		.uleb128 0x2
 13425 4c96 08       		.byte	0x8
 13426 4c97 6E       		.byte	0x6e
 13427 4c98 33       		.uleb128 0x33
 13428 4c99 01       		.uleb128 0x1
 13429 4c9a 51       		.byte	0x51
 13430 4c9b 02       		.uleb128 0x2
 13431 4c9c 08       		.byte	0x8
 13432 4c9d 54       		.byte	0x54
 13433 4c9e 33       		.uleb128 0x33
 13434 4c9f 01       		.uleb128 0x1
 13435 4ca0 52       		.byte	0x52
 13436 4ca1 01       		.uleb128 0x1
 13437 4ca2 31       		.byte	0x31
 13438 4ca3 00       		.byte	0
 13439 4ca4 32       		.uleb128 0x32
 13440 4ca5 74000000 		.4byte	.LVL105
 13441 4ca9 14550000 		.4byte	0x5514
 13442 4cad C44C0000 		.4byte	0x4cc4
 13443 4cb1 33       		.uleb128 0x33
 13444 4cb2 01       		.uleb128 0x1
 13445 4cb3 50       		.byte	0x50
 13446 4cb4 02       		.uleb128 0x2
 13447 4cb5 08       		.byte	0x8
 13448 4cb6 6E       		.byte	0x6e
 13449 4cb7 33       		.uleb128 0x33
 13450 4cb8 01       		.uleb128 0x1
 13451 4cb9 51       		.byte	0x51
ARM GAS  /tmp/cc5QaxCL.s 			page 237


 13452 4cba 02       		.uleb128 0x2
 13453 4cbb 08       		.byte	0x8
 13454 4cbc 55       		.byte	0x55
 13455 4cbd 33       		.uleb128 0x33
 13456 4cbe 01       		.uleb128 0x1
 13457 4cbf 52       		.byte	0x52
 13458 4cc0 02       		.uleb128 0x2
 13459 4cc1 08       		.byte	0x8
 13460 4cc2 43       		.byte	0x43
 13461 4cc3 00       		.byte	0
 13462 4cc4 32       		.uleb128 0x32
 13463 4cc5 82000000 		.4byte	.LVL107
 13464 4cc9 14550000 		.4byte	0x5514
 13465 4ccd DE4C0000 		.4byte	0x4cde
 13466 4cd1 33       		.uleb128 0x33
 13467 4cd2 01       		.uleb128 0x1
 13468 4cd3 50       		.byte	0x50
 13469 4cd4 02       		.uleb128 0x2
 13470 4cd5 08       		.byte	0x8
 13471 4cd6 6E       		.byte	0x6e
 13472 4cd7 33       		.uleb128 0x33
 13473 4cd8 01       		.uleb128 0x1
 13474 4cd9 51       		.byte	0x51
 13475 4cda 02       		.uleb128 0x2
 13476 4cdb 08       		.byte	0x8
 13477 4cdc 56       		.byte	0x56
 13478 4cdd 00       		.byte	0
 13479 4cde 32       		.uleb128 0x32
 13480 4cdf 90000000 		.4byte	.LVL109
 13481 4ce3 14550000 		.4byte	0x5514
 13482 4ce7 FE4C0000 		.4byte	0x4cfe
 13483 4ceb 33       		.uleb128 0x33
 13484 4cec 01       		.uleb128 0x1
 13485 4ced 50       		.byte	0x50
 13486 4cee 02       		.uleb128 0x2
 13487 4cef 08       		.byte	0x8
 13488 4cf0 6E       		.byte	0x6e
 13489 4cf1 33       		.uleb128 0x33
 13490 4cf2 01       		.uleb128 0x1
 13491 4cf3 51       		.byte	0x51
 13492 4cf4 02       		.uleb128 0x2
 13493 4cf5 08       		.byte	0x8
 13494 4cf6 57       		.byte	0x57
 13495 4cf7 33       		.uleb128 0x33
 13496 4cf8 01       		.uleb128 0x1
 13497 4cf9 52       		.byte	0x52
 13498 4cfa 02       		.uleb128 0x2
 13499 4cfb 09       		.byte	0x9
 13500 4cfc F3       		.byte	0xf3
 13501 4cfd 00       		.byte	0
 13502 4cfe 32       		.uleb128 0x32
 13503 4cff 9E000000 		.4byte	.LVL111
 13504 4d03 14550000 		.4byte	0x5514
 13505 4d07 1E4D0000 		.4byte	0x4d1e
 13506 4d0b 33       		.uleb128 0x33
 13507 4d0c 01       		.uleb128 0x1
 13508 4d0d 50       		.byte	0x50
ARM GAS  /tmp/cc5QaxCL.s 			page 238


 13509 4d0e 02       		.uleb128 0x2
 13510 4d0f 08       		.byte	0x8
 13511 4d10 6E       		.byte	0x6e
 13512 4d11 33       		.uleb128 0x33
 13513 4d12 01       		.uleb128 0x1
 13514 4d13 51       		.byte	0x51
 13515 4d14 02       		.uleb128 0x2
 13516 4d15 09       		.byte	0x9
 13517 4d16 80       		.byte	0x80
 13518 4d17 33       		.uleb128 0x33
 13519 4d18 01       		.uleb128 0x1
 13520 4d19 52       		.byte	0x52
 13521 4d1a 02       		.uleb128 0x2
 13522 4d1b 08       		.byte	0x8
 13523 4d1c 40       		.byte	0x40
 13524 4d1d 00       		.byte	0
 13525 4d1e 32       		.uleb128 0x32
 13526 4d1f AC000000 		.4byte	.LVL113
 13527 4d23 14550000 		.4byte	0x5514
 13528 4d27 3E4D0000 		.4byte	0x4d3e
 13529 4d2b 33       		.uleb128 0x33
 13530 4d2c 01       		.uleb128 0x1
 13531 4d2d 50       		.byte	0x50
 13532 4d2e 02       		.uleb128 0x2
 13533 4d2f 08       		.byte	0x8
 13534 4d30 6E       		.byte	0x6e
 13535 4d31 33       		.uleb128 0x33
 13536 4d32 01       		.uleb128 0x1
 13537 4d33 51       		.byte	0x51
 13538 4d34 02       		.uleb128 0x2
 13539 4d35 09       		.byte	0x9
 13540 4d36 81       		.byte	0x81
 13541 4d37 33       		.uleb128 0x33
 13542 4d38 01       		.uleb128 0x1
 13543 4d39 52       		.byte	0x52
 13544 4d3a 02       		.uleb128 0x2
 13545 4d3b 08       		.byte	0x8
 13546 4d3c 40       		.byte	0x40
 13547 4d3d 00       		.byte	0
 13548 4d3e 32       		.uleb128 0x32
 13549 4d3f BA000000 		.4byte	.LVL115
 13550 4d43 14550000 		.4byte	0x5514
 13551 4d47 584D0000 		.4byte	0x4d58
 13552 4d4b 33       		.uleb128 0x33
 13553 4d4c 01       		.uleb128 0x1
 13554 4d4d 50       		.byte	0x50
 13555 4d4e 02       		.uleb128 0x2
 13556 4d4f 08       		.byte	0x8
 13557 4d50 6E       		.byte	0x6e
 13558 4d51 33       		.uleb128 0x33
 13559 4d52 01       		.uleb128 0x1
 13560 4d53 51       		.byte	0x51
 13561 4d54 02       		.uleb128 0x2
 13562 4d55 08       		.byte	0x8
 13563 4d56 60       		.byte	0x60
 13564 4d57 00       		.byte	0
 13565 4d58 32       		.uleb128 0x32
ARM GAS  /tmp/cc5QaxCL.s 			page 239


 13566 4d59 C8000000 		.4byte	.LVL117
 13567 4d5d 14550000 		.4byte	0x5514
 13568 4d61 774D0000 		.4byte	0x4d77
 13569 4d65 33       		.uleb128 0x33
 13570 4d66 01       		.uleb128 0x1
 13571 4d67 50       		.byte	0x50
 13572 4d68 02       		.uleb128 0x2
 13573 4d69 08       		.byte	0x8
 13574 4d6a 6E       		.byte	0x6e
 13575 4d6b 33       		.uleb128 0x33
 13576 4d6c 01       		.uleb128 0x1
 13577 4d6d 51       		.byte	0x51
 13578 4d6e 02       		.uleb128 0x2
 13579 4d6f 08       		.byte	0x8
 13580 4d70 61       		.byte	0x61
 13581 4d71 33       		.uleb128 0x33
 13582 4d72 01       		.uleb128 0x1
 13583 4d73 52       		.byte	0x52
 13584 4d74 01       		.uleb128 0x1
 13585 4d75 3C       		.byte	0x3c
 13586 4d76 00       		.byte	0
 13587 4d77 32       		.uleb128 0x32
 13588 4d78 D6000000 		.4byte	.LVL119
 13589 4d7c 14550000 		.4byte	0x5514
 13590 4d80 964D0000 		.4byte	0x4d96
 13591 4d84 33       		.uleb128 0x33
 13592 4d85 01       		.uleb128 0x1
 13593 4d86 50       		.byte	0x50
 13594 4d87 02       		.uleb128 0x2
 13595 4d88 08       		.byte	0x8
 13596 4d89 6E       		.byte	0x6e
 13597 4d8a 33       		.uleb128 0x33
 13598 4d8b 01       		.uleb128 0x1
 13599 4d8c 51       		.byte	0x51
 13600 4d8d 02       		.uleb128 0x2
 13601 4d8e 08       		.byte	0x8
 13602 4d8f 62       		.byte	0x62
 13603 4d90 33       		.uleb128 0x33
 13604 4d91 01       		.uleb128 0x1
 13605 4d92 52       		.byte	0x52
 13606 4d93 01       		.uleb128 0x1
 13607 4d94 31       		.byte	0x31
 13608 4d95 00       		.byte	0
 13609 4d96 32       		.uleb128 0x32
 13610 4d97 E4000000 		.4byte	.LVL121
 13611 4d9b 14550000 		.4byte	0x5514
 13612 4d9f B64D0000 		.4byte	0x4db6
 13613 4da3 33       		.uleb128 0x33
 13614 4da4 01       		.uleb128 0x1
 13615 4da5 50       		.byte	0x50
 13616 4da6 02       		.uleb128 0x2
 13617 4da7 08       		.byte	0x8
 13618 4da8 6E       		.byte	0x6e
 13619 4da9 33       		.uleb128 0x33
 13620 4daa 01       		.uleb128 0x1
 13621 4dab 51       		.byte	0x51
 13622 4dac 02       		.uleb128 0x2
ARM GAS  /tmp/cc5QaxCL.s 			page 240


 13623 4dad 08       		.byte	0x8
 13624 4dae 63       		.byte	0x63
 13625 4daf 33       		.uleb128 0x33
 13626 4db0 01       		.uleb128 0x1
 13627 4db1 52       		.byte	0x52
 13628 4db2 02       		.uleb128 0x2
 13629 4db3 09       		.byte	0x9
 13630 4db4 EC       		.byte	0xec
 13631 4db5 00       		.byte	0
 13632 4db6 32       		.uleb128 0x32
 13633 4db7 FC000000 		.4byte	.LVL123
 13634 4dbb 14550000 		.4byte	0x5514
 13635 4dbf D54D0000 		.4byte	0x4dd5
 13636 4dc3 33       		.uleb128 0x33
 13637 4dc4 01       		.uleb128 0x1
 13638 4dc5 50       		.byte	0x50
 13639 4dc6 02       		.uleb128 0x2
 13640 4dc7 08       		.byte	0x8
 13641 4dc8 6E       		.byte	0x6e
 13642 4dc9 33       		.uleb128 0x33
 13643 4dca 01       		.uleb128 0x1
 13644 4dcb 51       		.byte	0x51
 13645 4dcc 02       		.uleb128 0x2
 13646 4dcd 08       		.byte	0x8
 13647 4dce 68       		.byte	0x68
 13648 4dcf 33       		.uleb128 0x33
 13649 4dd0 01       		.uleb128 0x1
 13650 4dd1 52       		.byte	0x52
 13651 4dd2 01       		.uleb128 0x1
 13652 4dd3 31       		.byte	0x31
 13653 4dd4 00       		.byte	0
 13654 4dd5 32       		.uleb128 0x32
 13655 4dd6 0A010000 		.4byte	.LVL125
 13656 4dda 14550000 		.4byte	0x5514
 13657 4dde F44D0000 		.4byte	0x4df4
 13658 4de2 33       		.uleb128 0x33
 13659 4de3 01       		.uleb128 0x1
 13660 4de4 50       		.byte	0x50
 13661 4de5 02       		.uleb128 0x2
 13662 4de6 08       		.byte	0x8
 13663 4de7 6E       		.byte	0x6e
 13664 4de8 33       		.uleb128 0x33
 13665 4de9 01       		.uleb128 0x1
 13666 4dea 51       		.byte	0x51
 13667 4deb 02       		.uleb128 0x2
 13668 4dec 09       		.byte	0x9
 13669 4ded 82       		.byte	0x82
 13670 4dee 33       		.uleb128 0x33
 13671 4def 01       		.uleb128 0x1
 13672 4df0 52       		.byte	0x52
 13673 4df1 01       		.uleb128 0x1
 13674 4df2 31       		.byte	0x31
 13675 4df3 00       		.byte	0
 13676 4df4 32       		.uleb128 0x32
 13677 4df5 28010000 		.4byte	.LVL129
 13678 4df9 14550000 		.4byte	0x5514
 13679 4dfd 0D4E0000 		.4byte	0x4e0d
ARM GAS  /tmp/cc5QaxCL.s 			page 241


 13680 4e01 33       		.uleb128 0x33
 13681 4e02 01       		.uleb128 0x1
 13682 4e03 50       		.byte	0x50
 13683 4e04 02       		.uleb128 0x2
 13684 4e05 08       		.byte	0x8
 13685 4e06 6E       		.byte	0x6e
 13686 4e07 33       		.uleb128 0x33
 13687 4e08 01       		.uleb128 0x1
 13688 4e09 51       		.byte	0x51
 13689 4e0a 01       		.uleb128 0x1
 13690 4e0b 40       		.byte	0x40
 13691 4e0c 00       		.byte	0
 13692 4e0d 32       		.uleb128 0x32
 13693 4e0e 38010000 		.4byte	.LVL131
 13694 4e12 14550000 		.4byte	0x5514
 13695 4e16 2B4E0000 		.4byte	0x4e2b
 13696 4e1a 33       		.uleb128 0x33
 13697 4e1b 01       		.uleb128 0x1
 13698 4e1c 50       		.byte	0x50
 13699 4e1d 02       		.uleb128 0x2
 13700 4e1e 08       		.byte	0x8
 13701 4e1f 6E       		.byte	0x6e
 13702 4e20 33       		.uleb128 0x33
 13703 4e21 01       		.uleb128 0x1
 13704 4e22 51       		.byte	0x51
 13705 4e23 01       		.uleb128 0x1
 13706 4e24 41       		.byte	0x41
 13707 4e25 33       		.uleb128 0x33
 13708 4e26 01       		.uleb128 0x1
 13709 4e27 52       		.byte	0x52
 13710 4e28 01       		.uleb128 0x1
 13711 4e29 42       		.byte	0x42
 13712 4e2a 00       		.byte	0
 13713 4e2b 32       		.uleb128 0x32
 13714 4e2c 48010000 		.4byte	.LVL133
 13715 4e30 14550000 		.4byte	0x5514
 13716 4e34 444E0000 		.4byte	0x4e44
 13717 4e38 33       		.uleb128 0x33
 13718 4e39 01       		.uleb128 0x1
 13719 4e3a 50       		.byte	0x50
 13720 4e3b 02       		.uleb128 0x2
 13721 4e3c 08       		.byte	0x8
 13722 4e3d 6E       		.byte	0x6e
 13723 4e3e 33       		.uleb128 0x33
 13724 4e3f 01       		.uleb128 0x1
 13725 4e40 51       		.byte	0x51
 13726 4e41 01       		.uleb128 0x1
 13727 4e42 42       		.byte	0x42
 13728 4e43 00       		.byte	0
 13729 4e44 32       		.uleb128 0x32
 13730 4e45 58010000 		.4byte	.LVL135
 13731 4e49 14550000 		.4byte	0x5514
 13732 4e4d 624E0000 		.4byte	0x4e62
 13733 4e51 33       		.uleb128 0x33
 13734 4e52 01       		.uleb128 0x1
 13735 4e53 50       		.byte	0x50
 13736 4e54 02       		.uleb128 0x2
ARM GAS  /tmp/cc5QaxCL.s 			page 242


 13737 4e55 08       		.byte	0x8
 13738 4e56 6E       		.byte	0x6e
 13739 4e57 33       		.uleb128 0x33
 13740 4e58 01       		.uleb128 0x1
 13741 4e59 51       		.byte	0x51
 13742 4e5a 01       		.uleb128 0x1
 13743 4e5b 43       		.byte	0x43
 13744 4e5c 33       		.uleb128 0x33
 13745 4e5d 01       		.uleb128 0x1
 13746 4e5e 52       		.byte	0x52
 13747 4e5f 01       		.uleb128 0x1
 13748 4e60 3E       		.byte	0x3e
 13749 4e61 00       		.byte	0
 13750 4e62 32       		.uleb128 0x32
 13751 4e63 68010000 		.4byte	.LVL137
 13752 4e67 14550000 		.4byte	0x5514
 13753 4e6b 804E0000 		.4byte	0x4e80
 13754 4e6f 33       		.uleb128 0x33
 13755 4e70 01       		.uleb128 0x1
 13756 4e71 50       		.byte	0x50
 13757 4e72 02       		.uleb128 0x2
 13758 4e73 08       		.byte	0x8
 13759 4e74 6E       		.byte	0x6e
 13760 4e75 33       		.uleb128 0x33
 13761 4e76 01       		.uleb128 0x1
 13762 4e77 51       		.byte	0x51
 13763 4e78 01       		.uleb128 0x1
 13764 4e79 44       		.byte	0x44
 13765 4e7a 33       		.uleb128 0x33
 13766 4e7b 01       		.uleb128 0x1
 13767 4e7c 52       		.byte	0x52
 13768 4e7d 01       		.uleb128 0x1
 13769 4e7e 31       		.byte	0x31
 13770 4e7f 00       		.byte	0
 13771 4e80 32       		.uleb128 0x32
 13772 4e81 78010000 		.4byte	.LVL139
 13773 4e85 14550000 		.4byte	0x5514
 13774 4e89 9F4E0000 		.4byte	0x4e9f
 13775 4e8d 33       		.uleb128 0x33
 13776 4e8e 01       		.uleb128 0x1
 13777 4e8f 50       		.byte	0x50
 13778 4e90 02       		.uleb128 0x2
 13779 4e91 08       		.byte	0x8
 13780 4e92 6E       		.byte	0x6e
 13781 4e93 33       		.uleb128 0x33
 13782 4e94 01       		.uleb128 0x1
 13783 4e95 51       		.byte	0x51
 13784 4e96 01       		.uleb128 0x1
 13785 4e97 45       		.byte	0x45
 13786 4e98 33       		.uleb128 0x33
 13787 4e99 01       		.uleb128 0x1
 13788 4e9a 52       		.byte	0x52
 13789 4e9b 02       		.uleb128 0x2
 13790 4e9c 08       		.byte	0x8
 13791 4e9d 30       		.byte	0x30
 13792 4e9e 00       		.byte	0
 13793 4e9f 32       		.uleb128 0x32
ARM GAS  /tmp/cc5QaxCL.s 			page 243


 13794 4ea0 88010000 		.4byte	.LVL141
 13795 4ea4 14550000 		.4byte	0x5514
 13796 4ea8 B84E0000 		.4byte	0x4eb8
 13797 4eac 33       		.uleb128 0x33
 13798 4ead 01       		.uleb128 0x1
 13799 4eae 50       		.byte	0x50
 13800 4eaf 02       		.uleb128 0x2
 13801 4eb0 08       		.byte	0x8
 13802 4eb1 6E       		.byte	0x6e
 13803 4eb2 33       		.uleb128 0x33
 13804 4eb3 01       		.uleb128 0x1
 13805 4eb4 51       		.byte	0x51
 13806 4eb5 01       		.uleb128 0x1
 13807 4eb6 46       		.byte	0x46
 13808 4eb7 00       		.byte	0
 13809 4eb8 32       		.uleb128 0x32
 13810 4eb9 98010000 		.4byte	.LVL143
 13811 4ebd 14550000 		.4byte	0x5514
 13812 4ec1 D74E0000 		.4byte	0x4ed7
 13813 4ec5 33       		.uleb128 0x33
 13814 4ec6 01       		.uleb128 0x1
 13815 4ec7 50       		.byte	0x50
 13816 4ec8 02       		.uleb128 0x2
 13817 4ec9 08       		.byte	0x8
 13818 4eca 6E       		.byte	0x6e
 13819 4ecb 33       		.uleb128 0x33
 13820 4ecc 01       		.uleb128 0x1
 13821 4ecd 51       		.byte	0x51
 13822 4ece 01       		.uleb128 0x1
 13823 4ecf 47       		.byte	0x47
 13824 4ed0 33       		.uleb128 0x33
 13825 4ed1 01       		.uleb128 0x1
 13826 4ed2 52       		.byte	0x52
 13827 4ed3 02       		.uleb128 0x2
 13828 4ed4 09       		.byte	0x9
 13829 4ed5 DF       		.byte	0xdf
 13830 4ed6 00       		.byte	0
 13831 4ed7 32       		.uleb128 0x32
 13832 4ed8 A8010000 		.4byte	.LVL145
 13833 4edc 14550000 		.4byte	0x5514
 13834 4ee0 F54E0000 		.4byte	0x4ef5
 13835 4ee4 33       		.uleb128 0x33
 13836 4ee5 01       		.uleb128 0x1
 13837 4ee6 50       		.byte	0x50
 13838 4ee7 02       		.uleb128 0x2
 13839 4ee8 08       		.byte	0x8
 13840 4ee9 6E       		.byte	0x6e
 13841 4eea 33       		.uleb128 0x33
 13842 4eeb 01       		.uleb128 0x1
 13843 4eec 51       		.byte	0x51
 13844 4eed 01       		.uleb128 0x1
 13845 4eee 48       		.byte	0x48
 13846 4eef 33       		.uleb128 0x33
 13847 4ef0 01       		.uleb128 0x1
 13848 4ef1 52       		.byte	0x52
 13849 4ef2 01       		.uleb128 0x1
 13850 4ef3 30       		.byte	0x30
ARM GAS  /tmp/cc5QaxCL.s 			page 244


 13851 4ef4 00       		.byte	0
 13852 4ef5 32       		.uleb128 0x32
 13853 4ef6 B8010000 		.4byte	.LVL147
 13854 4efa 14550000 		.4byte	0x5514
 13855 4efe 144F0000 		.4byte	0x4f14
 13856 4f02 33       		.uleb128 0x33
 13857 4f03 01       		.uleb128 0x1
 13858 4f04 50       		.byte	0x50
 13859 4f05 02       		.uleb128 0x2
 13860 4f06 08       		.byte	0x8
 13861 4f07 6E       		.byte	0x6e
 13862 4f08 33       		.uleb128 0x33
 13863 4f09 01       		.uleb128 0x1
 13864 4f0a 51       		.byte	0x51
 13865 4f0b 01       		.uleb128 0x1
 13866 4f0c 49       		.byte	0x49
 13867 4f0d 33       		.uleb128 0x33
 13868 4f0e 01       		.uleb128 0x1
 13869 4f0f 52       		.byte	0x52
 13870 4f10 02       		.uleb128 0x2
 13871 4f11 08       		.byte	0x8
 13872 4f12 72       		.byte	0x72
 13873 4f13 00       		.byte	0
 13874 4f14 32       		.uleb128 0x32
 13875 4f15 C8010000 		.4byte	.LVL149
 13876 4f19 14550000 		.4byte	0x5514
 13877 4f1d 2D4F0000 		.4byte	0x4f2d
 13878 4f21 33       		.uleb128 0x33
 13879 4f22 01       		.uleb128 0x1
 13880 4f23 50       		.byte	0x50
 13881 4f24 02       		.uleb128 0x2
 13882 4f25 08       		.byte	0x8
 13883 4f26 6E       		.byte	0x6e
 13884 4f27 33       		.uleb128 0x33
 13885 4f28 01       		.uleb128 0x1
 13886 4f29 51       		.byte	0x51
 13887 4f2a 01       		.uleb128 0x1
 13888 4f2b 4A       		.byte	0x4a
 13889 4f2c 00       		.byte	0
 13890 4f2d 32       		.uleb128 0x32
 13891 4f2e D8010000 		.4byte	.LVL151
 13892 4f32 14550000 		.4byte	0x5514
 13893 4f36 4C4F0000 		.4byte	0x4f4c
 13894 4f3a 33       		.uleb128 0x33
 13895 4f3b 01       		.uleb128 0x1
 13896 4f3c 50       		.byte	0x50
 13897 4f3d 02       		.uleb128 0x2
 13898 4f3e 08       		.byte	0x8
 13899 4f3f 6E       		.byte	0x6e
 13900 4f40 33       		.uleb128 0x33
 13901 4f41 01       		.uleb128 0x1
 13902 4f42 51       		.byte	0x51
 13903 4f43 01       		.uleb128 0x1
 13904 4f44 4B       		.byte	0x4b
 13905 4f45 33       		.uleb128 0x33
 13906 4f46 01       		.uleb128 0x1
 13907 4f47 52       		.byte	0x52
ARM GAS  /tmp/cc5QaxCL.s 			page 245


 13908 4f48 02       		.uleb128 0x2
 13909 4f49 08       		.byte	0x8
 13910 4f4a 43       		.byte	0x43
 13911 4f4b 00       		.byte	0
 13912 4f4c 32       		.uleb128 0x32
 13913 4f4d E8010000 		.4byte	.LVL153
 13914 4f51 14550000 		.4byte	0x5514
 13915 4f55 654F0000 		.4byte	0x4f65
 13916 4f59 33       		.uleb128 0x33
 13917 4f5a 01       		.uleb128 0x1
 13918 4f5b 50       		.byte	0x50
 13919 4f5c 02       		.uleb128 0x2
 13920 4f5d 08       		.byte	0x8
 13921 4f5e 6E       		.byte	0x6e
 13922 4f5f 33       		.uleb128 0x33
 13923 4f60 01       		.uleb128 0x1
 13924 4f61 51       		.byte	0x51
 13925 4f62 01       		.uleb128 0x1
 13926 4f63 4C       		.byte	0x4c
 13927 4f64 00       		.byte	0
 13928 4f65 32       		.uleb128 0x32
 13929 4f66 F8010000 		.4byte	.LVL155
 13930 4f6a 14550000 		.4byte	0x5514
 13931 4f6e 844F0000 		.4byte	0x4f84
 13932 4f72 33       		.uleb128 0x33
 13933 4f73 01       		.uleb128 0x1
 13934 4f74 50       		.byte	0x50
 13935 4f75 02       		.uleb128 0x2
 13936 4f76 08       		.byte	0x8
 13937 4f77 6E       		.byte	0x6e
 13938 4f78 33       		.uleb128 0x33
 13939 4f79 01       		.uleb128 0x1
 13940 4f7a 51       		.byte	0x51
 13941 4f7b 01       		.uleb128 0x1
 13942 4f7c 4D       		.byte	0x4d
 13943 4f7d 33       		.uleb128 0x33
 13944 4f7e 01       		.uleb128 0x1
 13945 4f7f 52       		.byte	0x52
 13946 4f80 02       		.uleb128 0x2
 13947 4f81 08       		.byte	0x8
 13948 4f82 50       		.byte	0x50
 13949 4f83 00       		.byte	0
 13950 4f84 32       		.uleb128 0x32
 13951 4f85 08020000 		.4byte	.LVL157
 13952 4f89 14550000 		.4byte	0x5514
 13953 4f8d 9D4F0000 		.4byte	0x4f9d
 13954 4f91 33       		.uleb128 0x33
 13955 4f92 01       		.uleb128 0x1
 13956 4f93 50       		.byte	0x50
 13957 4f94 02       		.uleb128 0x2
 13958 4f95 08       		.byte	0x8
 13959 4f96 6E       		.byte	0x6e
 13960 4f97 33       		.uleb128 0x33
 13961 4f98 01       		.uleb128 0x1
 13962 4f99 51       		.byte	0x51
 13963 4f9a 01       		.uleb128 0x1
 13964 4f9b 4E       		.byte	0x4e
ARM GAS  /tmp/cc5QaxCL.s 			page 246


 13965 4f9c 00       		.byte	0
 13966 4f9d 32       		.uleb128 0x32
 13967 4f9e 18020000 		.4byte	.LVL159
 13968 4fa2 14550000 		.4byte	0x5514
 13969 4fa6 BC4F0000 		.4byte	0x4fbc
 13970 4faa 33       		.uleb128 0x33
 13971 4fab 01       		.uleb128 0x1
 13972 4fac 50       		.byte	0x50
 13973 4fad 02       		.uleb128 0x2
 13974 4fae 08       		.byte	0x8
 13975 4faf 6E       		.byte	0x6e
 13976 4fb0 33       		.uleb128 0x33
 13977 4fb1 01       		.uleb128 0x1
 13978 4fb2 51       		.byte	0x51
 13979 4fb3 01       		.uleb128 0x1
 13980 4fb4 4F       		.byte	0x4f
 13981 4fb5 33       		.uleb128 0x33
 13982 4fb6 01       		.uleb128 0x1
 13983 4fb7 52       		.byte	0x52
 13984 4fb8 02       		.uleb128 0x2
 13985 4fb9 08       		.byte	0x8
 13986 4fba 50       		.byte	0x50
 13987 4fbb 00       		.byte	0
 13988 4fbc 38       		.uleb128 0x38
 13989 4fbd 48020000 		.4byte	.LVL165
 13990 4fc1 14550000 		.4byte	0x5514
 13991 4fc5 33       		.uleb128 0x33
 13992 4fc6 01       		.uleb128 0x1
 13993 4fc7 50       		.byte	0x50
 13994 4fc8 02       		.uleb128 0x2
 13995 4fc9 08       		.byte	0x8
 13996 4fca 6E       		.byte	0x6e
 13997 4fcb 33       		.uleb128 0x33
 13998 4fcc 01       		.uleb128 0x1
 13999 4fcd 51       		.byte	0x51
 14000 4fce 02       		.uleb128 0x2
 14001 4fcf 08       		.byte	0x8
 14002 4fd0 68       		.byte	0x68
 14003 4fd1 33       		.uleb128 0x33
 14004 4fd2 01       		.uleb128 0x1
 14005 4fd3 52       		.byte	0x52
 14006 4fd4 01       		.uleb128 0x1
 14007 4fd5 33       		.byte	0x33
 14008 4fd6 00       		.byte	0
 14009 4fd7 00       		.byte	0
 14010 4fd8 32       		.uleb128 0x32
 14011 4fd9 2E000000 		.4byte	.LVL95
 14012 4fdd 14550000 		.4byte	0x5514
 14013 4fe1 F24F0000 		.4byte	0x4ff2
 14014 4fe5 33       		.uleb128 0x33
 14015 4fe6 01       		.uleb128 0x1
 14016 4fe7 50       		.byte	0x50
 14017 4fe8 02       		.uleb128 0x2
 14018 4fe9 08       		.byte	0x8
 14019 4fea 6E       		.byte	0x6e
 14020 4feb 33       		.uleb128 0x33
 14021 4fec 01       		.uleb128 0x1
ARM GAS  /tmp/cc5QaxCL.s 			page 247


 14022 4fed 51       		.byte	0x51
 14023 4fee 02       		.uleb128 0x2
 14024 4fef 08       		.byte	0x8
 14025 4ff0 50       		.byte	0x50
 14026 4ff1 00       		.byte	0
 14027 4ff2 32       		.uleb128 0x32
 14028 4ff3 3C000000 		.4byte	.LVL97
 14029 4ff7 14550000 		.4byte	0x5514
 14030 4ffb 11500000 		.4byte	0x5011
 14031 4fff 33       		.uleb128 0x33
 14032 5000 01       		.uleb128 0x1
 14033 5001 50       		.byte	0x50
 14034 5002 02       		.uleb128 0x2
 14035 5003 08       		.byte	0x8
 14036 5004 6E       		.byte	0x6e
 14037 5005 33       		.uleb128 0x33
 14038 5006 01       		.uleb128 0x1
 14039 5007 51       		.byte	0x51
 14040 5008 02       		.uleb128 0x2
 14041 5009 08       		.byte	0x8
 14042 500a 51       		.byte	0x51
 14043 500b 33       		.uleb128 0x33
 14044 500c 01       		.uleb128 0x1
 14045 500d 52       		.byte	0x52
 14046 500e 01       		.uleb128 0x1
 14047 500f 34       		.byte	0x34
 14048 5010 00       		.byte	0
 14049 5011 32       		.uleb128 0x32
 14050 5012 4A000000 		.4byte	.LVL99
 14051 5016 14550000 		.4byte	0x5514
 14052 501a 2B500000 		.4byte	0x502b
 14053 501e 33       		.uleb128 0x33
 14054 501f 01       		.uleb128 0x1
 14055 5020 50       		.byte	0x50
 14056 5021 02       		.uleb128 0x2
 14057 5022 08       		.byte	0x8
 14058 5023 6E       		.byte	0x6e
 14059 5024 33       		.uleb128 0x33
 14060 5025 01       		.uleb128 0x1
 14061 5026 51       		.byte	0x51
 14062 5027 02       		.uleb128 0x2
 14063 5028 08       		.byte	0x8
 14064 5029 52       		.byte	0x52
 14065 502a 00       		.byte	0
 14066 502b 32       		.uleb128 0x32
 14067 502c 58000000 		.4byte	.LVL101
 14068 5030 14550000 		.4byte	0x5514
 14069 5034 4A500000 		.4byte	0x504a
 14070 5038 33       		.uleb128 0x33
 14071 5039 01       		.uleb128 0x1
 14072 503a 50       		.byte	0x50
 14073 503b 02       		.uleb128 0x2
 14074 503c 08       		.byte	0x8
 14075 503d 6E       		.byte	0x6e
 14076 503e 33       		.uleb128 0x33
 14077 503f 01       		.uleb128 0x1
 14078 5040 51       		.byte	0x51
ARM GAS  /tmp/cc5QaxCL.s 			page 248


 14079 5041 02       		.uleb128 0x2
 14080 5042 08       		.byte	0x8
 14081 5043 53       		.byte	0x53
 14082 5044 33       		.uleb128 0x33
 14083 5045 01       		.uleb128 0x1
 14084 5046 52       		.byte	0x52
 14085 5047 01       		.uleb128 0x1
 14086 5048 34       		.byte	0x34
 14087 5049 00       		.byte	0
 14088 504a 34       		.uleb128 0x34
 14089 504b 3E020000 		.4byte	.LVL163
 14090 504f 0B550000 		.4byte	0x550b
 14091 5053 00       		.byte	0
 14092 5054 4A       		.uleb128 0x4a
 14093 5055 F0440000 		.4byte	0x44f0
 14094 5059 00000000 		.4byte	.LFB262
 14095 505d 4C020000 		.4byte	.LFE262-.LFB262
 14096 5061 01       		.uleb128 0x1
 14097 5062 9C       		.byte	0x9c
 14098 5063 B3540000 		.4byte	0x54b3
 14099 5067 4B       		.uleb128 0x4b
 14100 5068 01450000 		.4byte	0x4501
 14101 506c A60D0000 		.4byte	.LLST15
 14102 5070 36       		.uleb128 0x36
 14103 5071 6F450000 		.4byte	0x456f
 14104 5075 0A000000 		.4byte	.LBB114
 14105 5079 0A000000 		.4byte	.LBE114-.LBB114
 14106 507d 01       		.byte	0x1
 14107 507e C201     		.2byte	0x1c2
 14108 5080 A8500000 		.4byte	0x50a8
 14109 5084 37       		.uleb128 0x37
 14110 5085 7F450000 		.4byte	0x457f
 14111 5089 E60D0000 		.4byte	.LLST16
 14112 508d 38       		.uleb128 0x38
 14113 508e 14000000 		.4byte	.LVL167
 14114 5092 14550000 		.4byte	0x5514
 14115 5096 33       		.uleb128 0x33
 14116 5097 01       		.uleb128 0x1
 14117 5098 50       		.byte	0x50
 14118 5099 02       		.uleb128 0x2
 14119 509a 08       		.byte	0x8
 14120 509b 6E       		.byte	0x6e
 14121 509c 33       		.uleb128 0x33
 14122 509d 01       		.uleb128 0x1
 14123 509e 51       		.byte	0x51
 14124 509f 01       		.uleb128 0x1
 14125 50a0 33       		.byte	0x33
 14126 50a1 33       		.uleb128 0x33
 14127 50a2 01       		.uleb128 0x1
 14128 50a3 52       		.byte	0x52
 14129 50a4 01       		.uleb128 0x1
 14130 50a5 31       		.byte	0x31
 14131 50a6 00       		.byte	0
 14132 50a7 00       		.byte	0
 14133 50a8 50       		.uleb128 0x50
 14134 50a9 30000000 		.4byte	.Ldebug_ranges0+0x30
 14135 50ad 37540000 		.4byte	0x5437
ARM GAS  /tmp/cc5QaxCL.s 			page 249


 14136 50b1 4F       		.uleb128 0x4f
 14137 50b2 67500000 		.4byte	0x5067
 14138 50b6 36       		.uleb128 0x36
 14139 50b7 6F450000 		.4byte	0x456f
 14140 50bb 0E010000 		.4byte	.LBB118
 14141 50bf 0A000000 		.4byte	.LBE118-.LBB118
 14142 50c3 01       		.byte	0x1
 14143 50c4 0102     		.2byte	0x201
 14144 50c6 EE500000 		.4byte	0x50ee
 14145 50ca 37       		.uleb128 0x37
 14146 50cb 7F450000 		.4byte	0x457f
 14147 50cf FA0D0000 		.4byte	.LLST17
 14148 50d3 38       		.uleb128 0x38
 14149 50d4 18010000 		.4byte	.LVL201
 14150 50d8 14550000 		.4byte	0x5514
 14151 50dc 33       		.uleb128 0x33
 14152 50dd 01       		.uleb128 0x1
 14153 50de 50       		.byte	0x50
 14154 50df 02       		.uleb128 0x2
 14155 50e0 08       		.byte	0x8
 14156 50e1 6E       		.byte	0x6e
 14157 50e2 33       		.uleb128 0x33
 14158 50e3 01       		.uleb128 0x1
 14159 50e4 51       		.byte	0x51
 14160 50e5 01       		.uleb128 0x1
 14161 50e6 33       		.byte	0x33
 14162 50e7 33       		.uleb128 0x33
 14163 50e8 01       		.uleb128 0x1
 14164 50e9 52       		.byte	0x52
 14165 50ea 01       		.uleb128 0x1
 14166 50eb 32       		.byte	0x32
 14167 50ec 00       		.byte	0
 14168 50ed 00       		.byte	0
 14169 50ee 32       		.uleb128 0x32
 14170 50ef 66000000 		.4byte	.LVL176
 14171 50f3 14550000 		.4byte	0x5514
 14172 50f7 08510000 		.4byte	0x5108
 14173 50fb 33       		.uleb128 0x33
 14174 50fc 01       		.uleb128 0x1
 14175 50fd 50       		.byte	0x50
 14176 50fe 02       		.uleb128 0x2
 14177 50ff 08       		.byte	0x8
 14178 5100 6E       		.byte	0x6e
 14179 5101 33       		.uleb128 0x33
 14180 5102 01       		.uleb128 0x1
 14181 5103 51       		.byte	0x51
 14182 5104 02       		.uleb128 0x2
 14183 5105 08       		.byte	0x8
 14184 5106 54       		.byte	0x54
 14185 5107 00       		.byte	0
 14186 5108 32       		.uleb128 0x32
 14187 5109 74000000 		.4byte	.LVL178
 14188 510d 14550000 		.4byte	0x5514
 14189 5111 28510000 		.4byte	0x5128
 14190 5115 33       		.uleb128 0x33
 14191 5116 01       		.uleb128 0x1
 14192 5117 50       		.byte	0x50
ARM GAS  /tmp/cc5QaxCL.s 			page 250


 14193 5118 02       		.uleb128 0x2
 14194 5119 08       		.byte	0x8
 14195 511a 6E       		.byte	0x6e
 14196 511b 33       		.uleb128 0x33
 14197 511c 01       		.uleb128 0x1
 14198 511d 51       		.byte	0x51
 14199 511e 02       		.uleb128 0x2
 14200 511f 08       		.byte	0x8
 14201 5120 55       		.byte	0x55
 14202 5121 33       		.uleb128 0x33
 14203 5122 01       		.uleb128 0x1
 14204 5123 52       		.byte	0x52
 14205 5124 02       		.uleb128 0x2
 14206 5125 09       		.byte	0x9
 14207 5126 A2       		.byte	0xa2
 14208 5127 00       		.byte	0
 14209 5128 32       		.uleb128 0x32
 14210 5129 82000000 		.4byte	.LVL180
 14211 512d 14550000 		.4byte	0x5514
 14212 5131 42510000 		.4byte	0x5142
 14213 5135 33       		.uleb128 0x33
 14214 5136 01       		.uleb128 0x1
 14215 5137 50       		.byte	0x50
 14216 5138 02       		.uleb128 0x2
 14217 5139 08       		.byte	0x8
 14218 513a 6E       		.byte	0x6e
 14219 513b 33       		.uleb128 0x33
 14220 513c 01       		.uleb128 0x1
 14221 513d 51       		.byte	0x51
 14222 513e 02       		.uleb128 0x2
 14223 513f 08       		.byte	0x8
 14224 5140 56       		.byte	0x56
 14225 5141 00       		.byte	0
 14226 5142 32       		.uleb128 0x32
 14227 5143 90000000 		.4byte	.LVL182
 14228 5147 14550000 		.4byte	0x5514
 14229 514b 62510000 		.4byte	0x5162
 14230 514f 33       		.uleb128 0x33
 14231 5150 01       		.uleb128 0x1
 14232 5151 50       		.byte	0x50
 14233 5152 02       		.uleb128 0x2
 14234 5153 08       		.byte	0x8
 14235 5154 6E       		.byte	0x6e
 14236 5155 33       		.uleb128 0x33
 14237 5156 01       		.uleb128 0x1
 14238 5157 51       		.byte	0x51
 14239 5158 02       		.uleb128 0x2
 14240 5159 08       		.byte	0x8
 14241 515a 57       		.byte	0x57
 14242 515b 33       		.uleb128 0x33
 14243 515c 01       		.uleb128 0x1
 14244 515d 52       		.byte	0x52
 14245 515e 02       		.uleb128 0x2
 14246 515f 08       		.byte	0x8
 14247 5160 79       		.byte	0x79
 14248 5161 00       		.byte	0
 14249 5162 32       		.uleb128 0x32
ARM GAS  /tmp/cc5QaxCL.s 			page 251


 14250 5163 9E000000 		.4byte	.LVL184
 14251 5167 14550000 		.4byte	0x5514
 14252 516b 82510000 		.4byte	0x5182
 14253 516f 33       		.uleb128 0x33
 14254 5170 01       		.uleb128 0x1
 14255 5171 50       		.byte	0x50
 14256 5172 02       		.uleb128 0x2
 14257 5173 08       		.byte	0x8
 14258 5174 6E       		.byte	0x6e
 14259 5175 33       		.uleb128 0x33
 14260 5176 01       		.uleb128 0x1
 14261 5177 51       		.byte	0x51
 14262 5178 02       		.uleb128 0x2
 14263 5179 09       		.byte	0x9
 14264 517a 80       		.byte	0x80
 14265 517b 33       		.uleb128 0x33
 14266 517c 01       		.uleb128 0x1
 14267 517d 52       		.byte	0x52
 14268 517e 02       		.uleb128 0x2
 14269 517f 09       		.byte	0x9
 14270 5180 80       		.byte	0x80
 14271 5181 00       		.byte	0
 14272 5182 32       		.uleb128 0x32
 14273 5183 AC000000 		.4byte	.LVL186
 14274 5187 14550000 		.4byte	0x5514
 14275 518b A2510000 		.4byte	0x51a2
 14276 518f 33       		.uleb128 0x33
 14277 5190 01       		.uleb128 0x1
 14278 5191 50       		.byte	0x50
 14279 5192 02       		.uleb128 0x2
 14280 5193 08       		.byte	0x8
 14281 5194 6E       		.byte	0x6e
 14282 5195 33       		.uleb128 0x33
 14283 5196 01       		.uleb128 0x1
 14284 5197 51       		.byte	0x51
 14285 5198 02       		.uleb128 0x2
 14286 5199 09       		.byte	0x9
 14287 519a 81       		.byte	0x81
 14288 519b 33       		.uleb128 0x33
 14289 519c 01       		.uleb128 0x1
 14290 519d 52       		.byte	0x52
 14291 519e 02       		.uleb128 0x2
 14292 519f 09       		.byte	0x9
 14293 51a0 80       		.byte	0x80
 14294 51a1 00       		.byte	0
 14295 51a2 32       		.uleb128 0x32
 14296 51a3 BA000000 		.4byte	.LVL188
 14297 51a7 14550000 		.4byte	0x5514
 14298 51ab BC510000 		.4byte	0x51bc
 14299 51af 33       		.uleb128 0x33
 14300 51b0 01       		.uleb128 0x1
 14301 51b1 50       		.byte	0x50
 14302 51b2 02       		.uleb128 0x2
 14303 51b3 08       		.byte	0x8
 14304 51b4 6E       		.byte	0x6e
 14305 51b5 33       		.uleb128 0x33
 14306 51b6 01       		.uleb128 0x1
ARM GAS  /tmp/cc5QaxCL.s 			page 252


 14307 51b7 51       		.byte	0x51
 14308 51b8 02       		.uleb128 0x2
 14309 51b9 08       		.byte	0x8
 14310 51ba 60       		.byte	0x60
 14311 51bb 00       		.byte	0
 14312 51bc 32       		.uleb128 0x32
 14313 51bd C8000000 		.4byte	.LVL190
 14314 51c1 14550000 		.4byte	0x5514
 14315 51c5 DB510000 		.4byte	0x51db
 14316 51c9 33       		.uleb128 0x33
 14317 51ca 01       		.uleb128 0x1
 14318 51cb 50       		.byte	0x50
 14319 51cc 02       		.uleb128 0x2
 14320 51cd 08       		.byte	0x8
 14321 51ce 6E       		.byte	0x6e
 14322 51cf 33       		.uleb128 0x33
 14323 51d0 01       		.uleb128 0x1
 14324 51d1 51       		.byte	0x51
 14325 51d2 02       		.uleb128 0x2
 14326 51d3 08       		.byte	0x8
 14327 51d4 61       		.byte	0x61
 14328 51d5 33       		.uleb128 0x33
 14329 51d6 01       		.uleb128 0x1
 14330 51d7 52       		.byte	0x52
 14331 51d8 01       		.uleb128 0x1
 14332 51d9 3C       		.byte	0x3c
 14333 51da 00       		.byte	0
 14334 51db 32       		.uleb128 0x32
 14335 51dc D6000000 		.4byte	.LVL192
 14336 51e0 14550000 		.4byte	0x5514
 14337 51e4 FA510000 		.4byte	0x51fa
 14338 51e8 33       		.uleb128 0x33
 14339 51e9 01       		.uleb128 0x1
 14340 51ea 50       		.byte	0x50
 14341 51eb 02       		.uleb128 0x2
 14342 51ec 08       		.byte	0x8
 14343 51ed 6E       		.byte	0x6e
 14344 51ee 33       		.uleb128 0x33
 14345 51ef 01       		.uleb128 0x1
 14346 51f0 51       		.byte	0x51
 14347 51f1 02       		.uleb128 0x2
 14348 51f2 08       		.byte	0x8
 14349 51f3 62       		.byte	0x62
 14350 51f4 33       		.uleb128 0x33
 14351 51f5 01       		.uleb128 0x1
 14352 51f6 52       		.byte	0x52
 14353 51f7 01       		.uleb128 0x1
 14354 51f8 31       		.byte	0x31
 14355 51f9 00       		.byte	0
 14356 51fa 32       		.uleb128 0x32
 14357 51fb E4000000 		.4byte	.LVL194
 14358 51ff 14550000 		.4byte	0x5514
 14359 5203 1A520000 		.4byte	0x521a
 14360 5207 33       		.uleb128 0x33
 14361 5208 01       		.uleb128 0x1
 14362 5209 50       		.byte	0x50
 14363 520a 02       		.uleb128 0x2
ARM GAS  /tmp/cc5QaxCL.s 			page 253


 14364 520b 08       		.byte	0x8
 14365 520c 6E       		.byte	0x6e
 14366 520d 33       		.uleb128 0x33
 14367 520e 01       		.uleb128 0x1
 14368 520f 51       		.byte	0x51
 14369 5210 02       		.uleb128 0x2
 14370 5211 08       		.byte	0x8
 14371 5212 63       		.byte	0x63
 14372 5213 33       		.uleb128 0x33
 14373 5214 01       		.uleb128 0x1
 14374 5215 52       		.byte	0x52
 14375 5216 02       		.uleb128 0x2
 14376 5217 09       		.byte	0x9
 14377 5218 EC       		.byte	0xec
 14378 5219 00       		.byte	0
 14379 521a 32       		.uleb128 0x32
 14380 521b FC000000 		.4byte	.LVL196
 14381 521f 14550000 		.4byte	0x5514
 14382 5223 39520000 		.4byte	0x5239
 14383 5227 33       		.uleb128 0x33
 14384 5228 01       		.uleb128 0x1
 14385 5229 50       		.byte	0x50
 14386 522a 02       		.uleb128 0x2
 14387 522b 08       		.byte	0x8
 14388 522c 6E       		.byte	0x6e
 14389 522d 33       		.uleb128 0x33
 14390 522e 01       		.uleb128 0x1
 14391 522f 51       		.byte	0x51
 14392 5230 02       		.uleb128 0x2
 14393 5231 08       		.byte	0x8
 14394 5232 68       		.byte	0x68
 14395 5233 33       		.uleb128 0x33
 14396 5234 01       		.uleb128 0x1
 14397 5235 52       		.byte	0x52
 14398 5236 01       		.uleb128 0x1
 14399 5237 33       		.byte	0x33
 14400 5238 00       		.byte	0
 14401 5239 32       		.uleb128 0x32
 14402 523a 0A010000 		.4byte	.LVL198
 14403 523e 14550000 		.4byte	0x5514
 14404 5242 58520000 		.4byte	0x5258
 14405 5246 33       		.uleb128 0x33
 14406 5247 01       		.uleb128 0x1
 14407 5248 50       		.byte	0x50
 14408 5249 02       		.uleb128 0x2
 14409 524a 08       		.byte	0x8
 14410 524b 6E       		.byte	0x6e
 14411 524c 33       		.uleb128 0x33
 14412 524d 01       		.uleb128 0x1
 14413 524e 51       		.byte	0x51
 14414 524f 02       		.uleb128 0x2
 14415 5250 09       		.byte	0x9
 14416 5251 82       		.byte	0x82
 14417 5252 33       		.uleb128 0x33
 14418 5253 01       		.uleb128 0x1
 14419 5254 52       		.byte	0x52
 14420 5255 01       		.uleb128 0x1
ARM GAS  /tmp/cc5QaxCL.s 			page 254


 14421 5256 31       		.byte	0x31
 14422 5257 00       		.byte	0
 14423 5258 32       		.uleb128 0x32
 14424 5259 28010000 		.4byte	.LVL202
 14425 525d 14550000 		.4byte	0x5514
 14426 5261 71520000 		.4byte	0x5271
 14427 5265 33       		.uleb128 0x33
 14428 5266 01       		.uleb128 0x1
 14429 5267 50       		.byte	0x50
 14430 5268 02       		.uleb128 0x2
 14431 5269 08       		.byte	0x8
 14432 526a 6E       		.byte	0x6e
 14433 526b 33       		.uleb128 0x33
 14434 526c 01       		.uleb128 0x1
 14435 526d 51       		.byte	0x51
 14436 526e 01       		.uleb128 0x1
 14437 526f 40       		.byte	0x40
 14438 5270 00       		.byte	0
 14439 5271 32       		.uleb128 0x32
 14440 5272 38010000 		.4byte	.LVL204
 14441 5276 14550000 		.4byte	0x5514
 14442 527a 8F520000 		.4byte	0x528f
 14443 527e 33       		.uleb128 0x33
 14444 527f 01       		.uleb128 0x1
 14445 5280 50       		.byte	0x50
 14446 5281 02       		.uleb128 0x2
 14447 5282 08       		.byte	0x8
 14448 5283 6E       		.byte	0x6e
 14449 5284 33       		.uleb128 0x33
 14450 5285 01       		.uleb128 0x1
 14451 5286 51       		.byte	0x51
 14452 5287 01       		.uleb128 0x1
 14453 5288 41       		.byte	0x41
 14454 5289 33       		.uleb128 0x33
 14455 528a 01       		.uleb128 0x1
 14456 528b 52       		.byte	0x52
 14457 528c 01       		.uleb128 0x1
 14458 528d 39       		.byte	0x39
 14459 528e 00       		.byte	0
 14460 528f 32       		.uleb128 0x32
 14461 5290 48010000 		.4byte	.LVL206
 14462 5294 14550000 		.4byte	0x5514
 14463 5298 A8520000 		.4byte	0x52a8
 14464 529c 33       		.uleb128 0x33
 14465 529d 01       		.uleb128 0x1
 14466 529e 50       		.byte	0x50
 14467 529f 02       		.uleb128 0x2
 14468 52a0 08       		.byte	0x8
 14469 52a1 6E       		.byte	0x6e
 14470 52a2 33       		.uleb128 0x33
 14471 52a3 01       		.uleb128 0x1
 14472 52a4 51       		.byte	0x51
 14473 52a5 01       		.uleb128 0x1
 14474 52a6 42       		.byte	0x42
 14475 52a7 00       		.byte	0
 14476 52a8 32       		.uleb128 0x32
 14477 52a9 58010000 		.4byte	.LVL208
ARM GAS  /tmp/cc5QaxCL.s 			page 255


 14478 52ad 14550000 		.4byte	0x5514
 14479 52b1 C6520000 		.4byte	0x52c6
 14480 52b5 33       		.uleb128 0x33
 14481 52b6 01       		.uleb128 0x1
 14482 52b7 50       		.byte	0x50
 14483 52b8 02       		.uleb128 0x2
 14484 52b9 08       		.byte	0x8
 14485 52ba 6E       		.byte	0x6e
 14486 52bb 33       		.uleb128 0x33
 14487 52bc 01       		.uleb128 0x1
 14488 52bd 51       		.byte	0x51
 14489 52be 01       		.uleb128 0x1
 14490 52bf 43       		.byte	0x43
 14491 52c0 33       		.uleb128 0x33
 14492 52c1 01       		.uleb128 0x1
 14493 52c2 52       		.byte	0x52
 14494 52c3 01       		.uleb128 0x1
 14495 52c4 37       		.byte	0x37
 14496 52c5 00       		.byte	0
 14497 52c6 32       		.uleb128 0x32
 14498 52c7 68010000 		.4byte	.LVL210
 14499 52cb 14550000 		.4byte	0x5514
 14500 52cf DF520000 		.4byte	0x52df
 14501 52d3 33       		.uleb128 0x33
 14502 52d4 01       		.uleb128 0x1
 14503 52d5 50       		.byte	0x50
 14504 52d6 02       		.uleb128 0x2
 14505 52d7 08       		.byte	0x8
 14506 52d8 6E       		.byte	0x6e
 14507 52d9 33       		.uleb128 0x33
 14508 52da 01       		.uleb128 0x1
 14509 52db 51       		.byte	0x51
 14510 52dc 01       		.uleb128 0x1
 14511 52dd 44       		.byte	0x44
 14512 52de 00       		.byte	0
 14513 52df 32       		.uleb128 0x32
 14514 52e0 78010000 		.4byte	.LVL212
 14515 52e4 14550000 		.4byte	0x5514
 14516 52e8 FE520000 		.4byte	0x52fe
 14517 52ec 33       		.uleb128 0x33
 14518 52ed 01       		.uleb128 0x1
 14519 52ee 50       		.byte	0x50
 14520 52ef 02       		.uleb128 0x2
 14521 52f0 08       		.byte	0x8
 14522 52f1 6E       		.byte	0x6e
 14523 52f2 33       		.uleb128 0x33
 14524 52f3 01       		.uleb128 0x1
 14525 52f4 51       		.byte	0x51
 14526 52f5 01       		.uleb128 0x1
 14527 52f6 45       		.byte	0x45
 14528 52f7 33       		.uleb128 0x33
 14529 52f8 01       		.uleb128 0x1
 14530 52f9 52       		.byte	0x52
 14531 52fa 02       		.uleb128 0x2
 14532 52fb 09       		.byte	0x9
 14533 52fc 98       		.byte	0x98
 14534 52fd 00       		.byte	0
ARM GAS  /tmp/cc5QaxCL.s 			page 256


 14535 52fe 32       		.uleb128 0x32
 14536 52ff 88010000 		.4byte	.LVL214
 14537 5303 14550000 		.4byte	0x5514
 14538 5307 17530000 		.4byte	0x5317
 14539 530b 33       		.uleb128 0x33
 14540 530c 01       		.uleb128 0x1
 14541 530d 50       		.byte	0x50
 14542 530e 02       		.uleb128 0x2
 14543 530f 08       		.byte	0x8
 14544 5310 6E       		.byte	0x6e
 14545 5311 33       		.uleb128 0x33
 14546 5312 01       		.uleb128 0x1
 14547 5313 51       		.byte	0x51
 14548 5314 01       		.uleb128 0x1
 14549 5315 46       		.byte	0x46
 14550 5316 00       		.byte	0
 14551 5317 32       		.uleb128 0x32
 14552 5318 98010000 		.4byte	.LVL216
 14553 531c 14550000 		.4byte	0x5514
 14554 5320 36530000 		.4byte	0x5336
 14555 5324 33       		.uleb128 0x33
 14556 5325 01       		.uleb128 0x1
 14557 5326 50       		.byte	0x50
 14558 5327 02       		.uleb128 0x2
 14559 5328 08       		.byte	0x8
 14560 5329 6E       		.byte	0x6e
 14561 532a 33       		.uleb128 0x33
 14562 532b 01       		.uleb128 0x1
 14563 532c 51       		.byte	0x51
 14564 532d 01       		.uleb128 0x1
 14565 532e 47       		.byte	0x47
 14566 532f 33       		.uleb128 0x33
 14567 5330 01       		.uleb128 0x1
 14568 5331 52       		.byte	0x52
 14569 5332 02       		.uleb128 0x2
 14570 5333 08       		.byte	0x8
 14571 5334 6F       		.byte	0x6f
 14572 5335 00       		.byte	0
 14573 5336 32       		.uleb128 0x32
 14574 5337 A8010000 		.4byte	.LVL218
 14575 533b 14550000 		.4byte	0x5514
 14576 533f 54530000 		.4byte	0x5354
 14577 5343 33       		.uleb128 0x33
 14578 5344 01       		.uleb128 0x1
 14579 5345 50       		.byte	0x50
 14580 5346 02       		.uleb128 0x2
 14581 5347 08       		.byte	0x8
 14582 5348 6E       		.byte	0x6e
 14583 5349 33       		.uleb128 0x33
 14584 534a 01       		.uleb128 0x1
 14585 534b 51       		.byte	0x51
 14586 534c 01       		.uleb128 0x1
 14587 534d 48       		.byte	0x48
 14588 534e 33       		.uleb128 0x33
 14589 534f 01       		.uleb128 0x1
 14590 5350 52       		.byte	0x52
 14591 5351 01       		.uleb128 0x1
ARM GAS  /tmp/cc5QaxCL.s 			page 257


 14592 5352 30       		.byte	0x30
 14593 5353 00       		.byte	0
 14594 5354 32       		.uleb128 0x32
 14595 5355 B8010000 		.4byte	.LVL220
 14596 5359 14550000 		.4byte	0x5514
 14597 535d 73530000 		.4byte	0x5373
 14598 5361 33       		.uleb128 0x33
 14599 5362 01       		.uleb128 0x1
 14600 5363 50       		.byte	0x50
 14601 5364 02       		.uleb128 0x2
 14602 5365 08       		.byte	0x8
 14603 5366 6E       		.byte	0x6e
 14604 5367 33       		.uleb128 0x33
 14605 5368 01       		.uleb128 0x1
 14606 5369 51       		.byte	0x51
 14607 536a 01       		.uleb128 0x1
 14608 536b 49       		.byte	0x49
 14609 536c 33       		.uleb128 0x33
 14610 536d 01       		.uleb128 0x1
 14611 536e 52       		.byte	0x52
 14612 536f 02       		.uleb128 0x2
 14613 5370 08       		.byte	0x8
 14614 5371 39       		.byte	0x39
 14615 5372 00       		.byte	0
 14616 5373 32       		.uleb128 0x32
 14617 5374 C8010000 		.4byte	.LVL222
 14618 5378 14550000 		.4byte	0x5514
 14619 537c 8C530000 		.4byte	0x538c
 14620 5380 33       		.uleb128 0x33
 14621 5381 01       		.uleb128 0x1
 14622 5382 50       		.byte	0x50
 14623 5383 02       		.uleb128 0x2
 14624 5384 08       		.byte	0x8
 14625 5385 6E       		.byte	0x6e
 14626 5386 33       		.uleb128 0x33
 14627 5387 01       		.uleb128 0x1
 14628 5388 51       		.byte	0x51
 14629 5389 01       		.uleb128 0x1
 14630 538a 4A       		.byte	0x4a
 14631 538b 00       		.byte	0
 14632 538c 32       		.uleb128 0x32
 14633 538d D8010000 		.4byte	.LVL224
 14634 5391 14550000 		.4byte	0x5514
 14635 5395 AB530000 		.4byte	0x53ab
 14636 5399 33       		.uleb128 0x33
 14637 539a 01       		.uleb128 0x1
 14638 539b 50       		.byte	0x50
 14639 539c 02       		.uleb128 0x2
 14640 539d 08       		.byte	0x8
 14641 539e 6E       		.byte	0x6e
 14642 539f 33       		.uleb128 0x33
 14643 53a0 01       		.uleb128 0x1
 14644 53a1 51       		.byte	0x51
 14645 53a2 01       		.uleb128 0x1
 14646 53a3 4B       		.byte	0x4b
 14647 53a4 33       		.uleb128 0x33
 14648 53a5 01       		.uleb128 0x1
ARM GAS  /tmp/cc5QaxCL.s 			page 258


 14649 53a6 52       		.byte	0x52
 14650 53a7 02       		.uleb128 0x2
 14651 53a8 08       		.byte	0x8
 14652 53a9 21       		.byte	0x21
 14653 53aa 00       		.byte	0
 14654 53ab 32       		.uleb128 0x32
 14655 53ac E8010000 		.4byte	.LVL226
 14656 53b0 14550000 		.4byte	0x5514
 14657 53b4 C4530000 		.4byte	0x53c4
 14658 53b8 33       		.uleb128 0x33
 14659 53b9 01       		.uleb128 0x1
 14660 53ba 50       		.byte	0x50
 14661 53bb 02       		.uleb128 0x2
 14662 53bc 08       		.byte	0x8
 14663 53bd 6E       		.byte	0x6e
 14664 53be 33       		.uleb128 0x33
 14665 53bf 01       		.uleb128 0x1
 14666 53c0 51       		.byte	0x51
 14667 53c1 01       		.uleb128 0x1
 14668 53c2 4C       		.byte	0x4c
 14669 53c3 00       		.byte	0
 14670 53c4 32       		.uleb128 0x32
 14671 53c5 F8010000 		.4byte	.LVL228
 14672 53c9 14550000 		.4byte	0x5514
 14673 53cd E3530000 		.4byte	0x53e3
 14674 53d1 33       		.uleb128 0x33
 14675 53d2 01       		.uleb128 0x1
 14676 53d3 50       		.byte	0x50
 14677 53d4 02       		.uleb128 0x2
 14678 53d5 08       		.byte	0x8
 14679 53d6 6E       		.byte	0x6e
 14680 53d7 33       		.uleb128 0x33
 14681 53d8 01       		.uleb128 0x1
 14682 53d9 51       		.byte	0x51
 14683 53da 01       		.uleb128 0x1
 14684 53db 4D       		.byte	0x4d
 14685 53dc 33       		.uleb128 0x33
 14686 53dd 01       		.uleb128 0x1
 14687 53de 52       		.byte	0x52
 14688 53df 02       		.uleb128 0x2
 14689 53e0 08       		.byte	0x8
 14690 53e1 28       		.byte	0x28
 14691 53e2 00       		.byte	0
 14692 53e3 32       		.uleb128 0x32
 14693 53e4 08020000 		.4byte	.LVL230
 14694 53e8 14550000 		.4byte	0x5514
 14695 53ec FC530000 		.4byte	0x53fc
 14696 53f0 33       		.uleb128 0x33
 14697 53f1 01       		.uleb128 0x1
 14698 53f2 50       		.byte	0x50
 14699 53f3 02       		.uleb128 0x2
 14700 53f4 08       		.byte	0x8
 14701 53f5 6E       		.byte	0x6e
 14702 53f6 33       		.uleb128 0x33
 14703 53f7 01       		.uleb128 0x1
 14704 53f8 51       		.byte	0x51
 14705 53f9 01       		.uleb128 0x1
ARM GAS  /tmp/cc5QaxCL.s 			page 259


 14706 53fa 4E       		.byte	0x4e
 14707 53fb 00       		.byte	0
 14708 53fc 32       		.uleb128 0x32
 14709 53fd 18020000 		.4byte	.LVL232
 14710 5401 14550000 		.4byte	0x5514
 14711 5405 1B540000 		.4byte	0x541b
 14712 5409 33       		.uleb128 0x33
 14713 540a 01       		.uleb128 0x1
 14714 540b 50       		.byte	0x50
 14715 540c 02       		.uleb128 0x2
 14716 540d 08       		.byte	0x8
 14717 540e 6E       		.byte	0x6e
 14718 540f 33       		.uleb128 0x33
 14719 5410 01       		.uleb128 0x1
 14720 5411 51       		.byte	0x51
 14721 5412 01       		.uleb128 0x1
 14722 5413 4F       		.byte	0x4f
 14723 5414 33       		.uleb128 0x33
 14724 5415 01       		.uleb128 0x1
 14725 5416 52       		.byte	0x52
 14726 5417 02       		.uleb128 0x2
 14727 5418 08       		.byte	0x8
 14728 5419 28       		.byte	0x28
 14729 541a 00       		.byte	0
 14730 541b 38       		.uleb128 0x38
 14731 541c 38020000 		.4byte	.LVL236
 14732 5420 14550000 		.4byte	0x5514
 14733 5424 33       		.uleb128 0x33
 14734 5425 01       		.uleb128 0x1
 14735 5426 50       		.byte	0x50
 14736 5427 02       		.uleb128 0x2
 14737 5428 08       		.byte	0x8
 14738 5429 6E       		.byte	0x6e
 14739 542a 33       		.uleb128 0x33
 14740 542b 01       		.uleb128 0x1
 14741 542c 51       		.byte	0x51
 14742 542d 02       		.uleb128 0x2
 14743 542e 08       		.byte	0x8
 14744 542f 68       		.byte	0x68
 14745 5430 33       		.uleb128 0x33
 14746 5431 01       		.uleb128 0x1
 14747 5432 52       		.byte	0x52
 14748 5433 01       		.uleb128 0x1
 14749 5434 37       		.byte	0x37
 14750 5435 00       		.byte	0
 14751 5436 00       		.byte	0
 14752 5437 32       		.uleb128 0x32
 14753 5438 2E000000 		.4byte	.LVL168
 14754 543c 14550000 		.4byte	0x5514
 14755 5440 51540000 		.4byte	0x5451
 14756 5444 33       		.uleb128 0x33
 14757 5445 01       		.uleb128 0x1
 14758 5446 50       		.byte	0x50
 14759 5447 02       		.uleb128 0x2
 14760 5448 08       		.byte	0x8
 14761 5449 6E       		.byte	0x6e
 14762 544a 33       		.uleb128 0x33
ARM GAS  /tmp/cc5QaxCL.s 			page 260


 14763 544b 01       		.uleb128 0x1
 14764 544c 51       		.byte	0x51
 14765 544d 02       		.uleb128 0x2
 14766 544e 08       		.byte	0x8
 14767 544f 50       		.byte	0x50
 14768 5450 00       		.byte	0
 14769 5451 32       		.uleb128 0x32
 14770 5452 3C000000 		.4byte	.LVL170
 14771 5456 14550000 		.4byte	0x5514
 14772 545a 70540000 		.4byte	0x5470
 14773 545e 33       		.uleb128 0x33
 14774 545f 01       		.uleb128 0x1
 14775 5460 50       		.byte	0x50
 14776 5461 02       		.uleb128 0x2
 14777 5462 08       		.byte	0x8
 14778 5463 6E       		.byte	0x6e
 14779 5464 33       		.uleb128 0x33
 14780 5465 01       		.uleb128 0x1
 14781 5466 51       		.byte	0x51
 14782 5467 02       		.uleb128 0x2
 14783 5468 08       		.byte	0x8
 14784 5469 51       		.byte	0x51
 14785 546a 33       		.uleb128 0x33
 14786 546b 01       		.uleb128 0x1
 14787 546c 52       		.byte	0x52
 14788 546d 01       		.uleb128 0x1
 14789 546e 33       		.byte	0x33
 14790 546f 00       		.byte	0
 14791 5470 32       		.uleb128 0x32
 14792 5471 4A000000 		.4byte	.LVL172
 14793 5475 14550000 		.4byte	0x5514
 14794 5479 8A540000 		.4byte	0x548a
 14795 547d 33       		.uleb128 0x33
 14796 547e 01       		.uleb128 0x1
 14797 547f 50       		.byte	0x50
 14798 5480 02       		.uleb128 0x2
 14799 5481 08       		.byte	0x8
 14800 5482 6E       		.byte	0x6e
 14801 5483 33       		.uleb128 0x33
 14802 5484 01       		.uleb128 0x1
 14803 5485 51       		.byte	0x51
 14804 5486 02       		.uleb128 0x2
 14805 5487 08       		.byte	0x8
 14806 5488 52       		.byte	0x52
 14807 5489 00       		.byte	0
 14808 548a 32       		.uleb128 0x32
 14809 548b 58000000 		.4byte	.LVL174
 14810 548f 14550000 		.4byte	0x5514
 14811 5493 A9540000 		.4byte	0x54a9
 14812 5497 33       		.uleb128 0x33
 14813 5498 01       		.uleb128 0x1
 14814 5499 50       		.byte	0x50
 14815 549a 02       		.uleb128 0x2
 14816 549b 08       		.byte	0x8
 14817 549c 6E       		.byte	0x6e
 14818 549d 33       		.uleb128 0x33
 14819 549e 01       		.uleb128 0x1
ARM GAS  /tmp/cc5QaxCL.s 			page 261


 14820 549f 51       		.byte	0x51
 14821 54a0 02       		.uleb128 0x2
 14822 54a1 08       		.byte	0x8
 14823 54a2 53       		.byte	0x53
 14824 54a3 33       		.uleb128 0x33
 14825 54a4 01       		.uleb128 0x1
 14826 54a5 52       		.byte	0x52
 14827 54a6 01       		.uleb128 0x1
 14828 54a7 32       		.byte	0x32
 14829 54a8 00       		.byte	0
 14830 54a9 34       		.uleb128 0x34
 14831 54aa 2E020000 		.4byte	.LVL234
 14832 54ae 0B550000 		.4byte	0x550b
 14833 54b2 00       		.byte	0
 14834 54b3 4A       		.uleb128 0x4a
 14835 54b4 D2440000 		.4byte	0x44d2
 14836 54b8 00000000 		.4byte	.LFB263
 14837 54bc 58000000 		.4byte	.LFE263-.LFB263
 14838 54c0 01       		.uleb128 0x1
 14839 54c1 9C       		.byte	0x9c
 14840 54c2 0B550000 		.4byte	0x550b
 14841 54c6 37       		.uleb128 0x37
 14842 54c7 E3440000 		.4byte	0x44e3
 14843 54cb 0E0E0000 		.4byte	.LLST18
 14844 54cf 51       		.uleb128 0x51
 14845 54d0 D2440000 		.4byte	0x44d2
 14846 54d4 48000000 		.4byte	.Ldebug_ranges0+0x48
 14847 54d8 EF540000 		.4byte	0x54ef
 14848 54dc 37       		.uleb128 0x37
 14849 54dd E3440000 		.4byte	0x44e3
 14850 54e1 7A0E0000 		.4byte	.LLST19
 14851 54e5 3E       		.uleb128 0x3e
 14852 54e6 26000000 		.4byte	.LVL239
 14853 54ea F0440000 		.4byte	0x44f0
 14854 54ee 00       		.byte	0
 14855 54ef 3E       		.uleb128 0x3e
 14856 54f0 34000000 		.4byte	.LVL240
 14857 54f4 2C450000 		.4byte	0x452c
 14858 54f8 3E       		.uleb128 0x3e
 14859 54f9 42000000 		.4byte	.LVL241
 14860 54fd 0E450000 		.4byte	0x450e
 14861 5501 34       		.uleb128 0x34
 14862 5502 54000000 		.4byte	.LVL244
 14863 5506 0B550000 		.4byte	0x550b
 14864 550a 00       		.byte	0
 14865 550b 52       		.uleb128 0x52
 14866 550c 16050000 		.4byte	.LASF793
 14867 5510 16050000 		.4byte	.LASF793
 14868 5514 53       		.uleb128 0x53
 14869 5515 11190000 		.4byte	.LASF787
 14870 5519 11190000 		.4byte	.LASF787
 14871 551d 36       		.byte	0x36
 14872 551e 2F       		.byte	0x2f
 14873 551f 53       		.uleb128 0x53
 14874 5520 28070000 		.4byte	.LASF788
 14875 5524 28070000 		.4byte	.LASF788
 14876 5528 36       		.byte	0x36
ARM GAS  /tmp/cc5QaxCL.s 			page 262


 14877 5529 24       		.byte	0x24
 14878 552a 00       		.byte	0
 14879              		.section	.debug_abbrev,"",%progbits
 14880              	.Ldebug_abbrev0:
 14881 0000 01       		.uleb128 0x1
 14882 0001 11       		.uleb128 0x11
 14883 0002 01       		.byte	0x1
 14884 0003 25       		.uleb128 0x25
 14885 0004 0E       		.uleb128 0xe
 14886 0005 13       		.uleb128 0x13
 14887 0006 0B       		.uleb128 0xb
 14888 0007 03       		.uleb128 0x3
 14889 0008 0E       		.uleb128 0xe
 14890 0009 1B       		.uleb128 0x1b
 14891 000a 0E       		.uleb128 0xe
 14892 000b 55       		.uleb128 0x55
 14893 000c 17       		.uleb128 0x17
 14894 000d 11       		.uleb128 0x11
 14895 000e 01       		.uleb128 0x1
 14896 000f 10       		.uleb128 0x10
 14897 0010 17       		.uleb128 0x17
 14898 0011 00       		.byte	0
 14899 0012 00       		.byte	0
 14900 0013 02       		.uleb128 0x2
 14901 0014 24       		.uleb128 0x24
 14902 0015 00       		.byte	0
 14903 0016 0B       		.uleb128 0xb
 14904 0017 0B       		.uleb128 0xb
 14905 0018 3E       		.uleb128 0x3e
 14906 0019 0B       		.uleb128 0xb
 14907 001a 03       		.uleb128 0x3
 14908 001b 08       		.uleb128 0x8
 14909 001c 00       		.byte	0
 14910 001d 00       		.byte	0
 14911 001e 03       		.uleb128 0x3
 14912 001f 16       		.uleb128 0x16
 14913 0020 00       		.byte	0
 14914 0021 03       		.uleb128 0x3
 14915 0022 0E       		.uleb128 0xe
 14916 0023 3A       		.uleb128 0x3a
 14917 0024 0B       		.uleb128 0xb
 14918 0025 3B       		.uleb128 0x3b
 14919 0026 0B       		.uleb128 0xb
 14920 0027 49       		.uleb128 0x49
 14921 0028 13       		.uleb128 0x13
 14922 0029 00       		.byte	0
 14923 002a 00       		.byte	0
 14924 002b 04       		.uleb128 0x4
 14925 002c 24       		.uleb128 0x24
 14926 002d 00       		.byte	0
 14927 002e 0B       		.uleb128 0xb
 14928 002f 0B       		.uleb128 0xb
 14929 0030 3E       		.uleb128 0x3e
 14930 0031 0B       		.uleb128 0xb
 14931 0032 03       		.uleb128 0x3
 14932 0033 0E       		.uleb128 0xe
 14933 0034 00       		.byte	0
ARM GAS  /tmp/cc5QaxCL.s 			page 263


 14934 0035 00       		.byte	0
 14935 0036 05       		.uleb128 0x5
 14936 0037 26       		.uleb128 0x26
 14937 0038 00       		.byte	0
 14938 0039 49       		.uleb128 0x49
 14939 003a 13       		.uleb128 0x13
 14940 003b 00       		.byte	0
 14941 003c 00       		.byte	0
 14942 003d 06       		.uleb128 0x6
 14943 003e 35       		.uleb128 0x35
 14944 003f 00       		.byte	0
 14945 0040 49       		.uleb128 0x49
 14946 0041 13       		.uleb128 0x13
 14947 0042 00       		.byte	0
 14948 0043 00       		.byte	0
 14949 0044 07       		.uleb128 0x7
 14950 0045 13       		.uleb128 0x13
 14951 0046 01       		.byte	0x1
 14952 0047 03       		.uleb128 0x3
 14953 0048 0E       		.uleb128 0xe
 14954 0049 0B       		.uleb128 0xb
 14955 004a 0B       		.uleb128 0xb
 14956 004b 3A       		.uleb128 0x3a
 14957 004c 0B       		.uleb128 0xb
 14958 004d 3B       		.uleb128 0x3b
 14959 004e 0B       		.uleb128 0xb
 14960 004f 01       		.uleb128 0x1
 14961 0050 13       		.uleb128 0x13
 14962 0051 00       		.byte	0
 14963 0052 00       		.byte	0
 14964 0053 08       		.uleb128 0x8
 14965 0054 0D       		.uleb128 0xd
 14966 0055 00       		.byte	0
 14967 0056 03       		.uleb128 0x3
 14968 0057 0E       		.uleb128 0xe
 14969 0058 3A       		.uleb128 0x3a
 14970 0059 0B       		.uleb128 0xb
 14971 005a 3B       		.uleb128 0x3b
 14972 005b 0B       		.uleb128 0xb
 14973 005c 49       		.uleb128 0x49
 14974 005d 13       		.uleb128 0x13
 14975 005e 38       		.uleb128 0x38
 14976 005f 0B       		.uleb128 0xb
 14977 0060 00       		.byte	0
 14978 0061 00       		.byte	0
 14979 0062 09       		.uleb128 0x9
 14980 0063 0D       		.uleb128 0xd
 14981 0064 00       		.byte	0
 14982 0065 03       		.uleb128 0x3
 14983 0066 08       		.uleb128 0x8
 14984 0067 3A       		.uleb128 0x3a
 14985 0068 0B       		.uleb128 0xb
 14986 0069 3B       		.uleb128 0x3b
 14987 006a 05       		.uleb128 0x5
 14988 006b 49       		.uleb128 0x49
 14989 006c 13       		.uleb128 0x13
 14990 006d 38       		.uleb128 0x38
ARM GAS  /tmp/cc5QaxCL.s 			page 264


 14991 006e 0B       		.uleb128 0xb
 14992 006f 00       		.byte	0
 14993 0070 00       		.byte	0
 14994 0071 0A       		.uleb128 0xa
 14995 0072 0D       		.uleb128 0xd
 14996 0073 00       		.byte	0
 14997 0074 03       		.uleb128 0x3
 14998 0075 0E       		.uleb128 0xe
 14999 0076 3A       		.uleb128 0x3a
 15000 0077 0B       		.uleb128 0xb
 15001 0078 3B       		.uleb128 0x3b
 15002 0079 05       		.uleb128 0x5
 15003 007a 49       		.uleb128 0x49
 15004 007b 13       		.uleb128 0x13
 15005 007c 38       		.uleb128 0x38
 15006 007d 0B       		.uleb128 0xb
 15007 007e 00       		.byte	0
 15008 007f 00       		.byte	0
 15009 0080 0B       		.uleb128 0xb
 15010 0081 0F       		.uleb128 0xf
 15011 0082 00       		.byte	0
 15012 0083 0B       		.uleb128 0xb
 15013 0084 0B       		.uleb128 0xb
 15014 0085 49       		.uleb128 0x49
 15015 0086 13       		.uleb128 0x13
 15016 0087 00       		.byte	0
 15017 0088 00       		.byte	0
 15018 0089 0C       		.uleb128 0xc
 15019 008a 13       		.uleb128 0x13
 15020 008b 01       		.byte	0x1
 15021 008c 03       		.uleb128 0x3
 15022 008d 0E       		.uleb128 0xe
 15023 008e 0B       		.uleb128 0xb
 15024 008f 0B       		.uleb128 0xb
 15025 0090 3A       		.uleb128 0x3a
 15026 0091 0B       		.uleb128 0xb
 15027 0092 3B       		.uleb128 0x3b
 15028 0093 05       		.uleb128 0x5
 15029 0094 01       		.uleb128 0x1
 15030 0095 13       		.uleb128 0x13
 15031 0096 00       		.byte	0
 15032 0097 00       		.byte	0
 15033 0098 0D       		.uleb128 0xd
 15034 0099 15       		.uleb128 0x15
 15035 009a 01       		.byte	0x1
 15036 009b 27       		.uleb128 0x27
 15037 009c 19       		.uleb128 0x19
 15038 009d 01       		.uleb128 0x1
 15039 009e 13       		.uleb128 0x13
 15040 009f 00       		.byte	0
 15041 00a0 00       		.byte	0
 15042 00a1 0E       		.uleb128 0xe
 15043 00a2 05       		.uleb128 0x5
 15044 00a3 00       		.byte	0
 15045 00a4 49       		.uleb128 0x49
 15046 00a5 13       		.uleb128 0x13
 15047 00a6 00       		.byte	0
ARM GAS  /tmp/cc5QaxCL.s 			page 265


 15048 00a7 00       		.byte	0
 15049 00a8 0F       		.uleb128 0xf
 15050 00a9 0F       		.uleb128 0xf
 15051 00aa 00       		.byte	0
 15052 00ab 0B       		.uleb128 0xb
 15053 00ac 0B       		.uleb128 0xb
 15054 00ad 00       		.byte	0
 15055 00ae 00       		.byte	0
 15056 00af 10       		.uleb128 0x10
 15057 00b0 13       		.uleb128 0x13
 15058 00b1 01       		.byte	0x1
 15059 00b2 03       		.uleb128 0x3
 15060 00b3 0E       		.uleb128 0xe
 15061 00b4 0B       		.uleb128 0xb
 15062 00b5 05       		.uleb128 0x5
 15063 00b6 3A       		.uleb128 0x3a
 15064 00b7 0B       		.uleb128 0xb
 15065 00b8 3B       		.uleb128 0x3b
 15066 00b9 05       		.uleb128 0x5
 15067 00ba 01       		.uleb128 0x1
 15068 00bb 13       		.uleb128 0x13
 15069 00bc 00       		.byte	0
 15070 00bd 00       		.byte	0
 15071 00be 11       		.uleb128 0x11
 15072 00bf 0D       		.uleb128 0xd
 15073 00c0 00       		.byte	0
 15074 00c1 03       		.uleb128 0x3
 15075 00c2 0E       		.uleb128 0xe
 15076 00c3 3A       		.uleb128 0x3a
 15077 00c4 0B       		.uleb128 0xb
 15078 00c5 3B       		.uleb128 0x3b
 15079 00c6 05       		.uleb128 0x5
 15080 00c7 49       		.uleb128 0x49
 15081 00c8 13       		.uleb128 0x13
 15082 00c9 38       		.uleb128 0x38
 15083 00ca 05       		.uleb128 0x5
 15084 00cb 00       		.byte	0
 15085 00cc 00       		.byte	0
 15086 00cd 12       		.uleb128 0x12
 15087 00ce 0D       		.uleb128 0xd
 15088 00cf 00       		.byte	0
 15089 00d0 03       		.uleb128 0x3
 15090 00d1 08       		.uleb128 0x8
 15091 00d2 3A       		.uleb128 0x3a
 15092 00d3 0B       		.uleb128 0xb
 15093 00d4 3B       		.uleb128 0x3b
 15094 00d5 05       		.uleb128 0x5
 15095 00d6 49       		.uleb128 0x49
 15096 00d7 13       		.uleb128 0x13
 15097 00d8 38       		.uleb128 0x38
 15098 00d9 05       		.uleb128 0x5
 15099 00da 00       		.byte	0
 15100 00db 00       		.byte	0
 15101 00dc 13       		.uleb128 0x13
 15102 00dd 01       		.uleb128 0x1
 15103 00de 01       		.byte	0x1
 15104 00df 49       		.uleb128 0x49
ARM GAS  /tmp/cc5QaxCL.s 			page 266


 15105 00e0 13       		.uleb128 0x13
 15106 00e1 01       		.uleb128 0x1
 15107 00e2 13       		.uleb128 0x13
 15108 00e3 00       		.byte	0
 15109 00e4 00       		.byte	0
 15110 00e5 14       		.uleb128 0x14
 15111 00e6 21       		.uleb128 0x21
 15112 00e7 00       		.byte	0
 15113 00e8 49       		.uleb128 0x49
 15114 00e9 13       		.uleb128 0x13
 15115 00ea 2F       		.uleb128 0x2f
 15116 00eb 0B       		.uleb128 0xb
 15117 00ec 00       		.byte	0
 15118 00ed 00       		.byte	0
 15119 00ee 15       		.uleb128 0x15
 15120 00ef 34       		.uleb128 0x34
 15121 00f0 00       		.byte	0
 15122 00f1 03       		.uleb128 0x3
 15123 00f2 0E       		.uleb128 0xe
 15124 00f3 3A       		.uleb128 0x3a
 15125 00f4 0B       		.uleb128 0xb
 15126 00f5 3B       		.uleb128 0x3b
 15127 00f6 05       		.uleb128 0x5
 15128 00f7 49       		.uleb128 0x49
 15129 00f8 13       		.uleb128 0x13
 15130 00f9 3F       		.uleb128 0x3f
 15131 00fa 19       		.uleb128 0x19
 15132 00fb 3C       		.uleb128 0x3c
 15133 00fc 19       		.uleb128 0x19
 15134 00fd 00       		.byte	0
 15135 00fe 00       		.byte	0
 15136 00ff 16       		.uleb128 0x16
 15137 0100 34       		.uleb128 0x34
 15138 0101 00       		.byte	0
 15139 0102 03       		.uleb128 0x3
 15140 0103 0E       		.uleb128 0xe
 15141 0104 3A       		.uleb128 0x3a
 15142 0105 0B       		.uleb128 0xb
 15143 0106 3B       		.uleb128 0x3b
 15144 0107 0B       		.uleb128 0xb
 15145 0108 49       		.uleb128 0x49
 15146 0109 13       		.uleb128 0x13
 15147 010a 3F       		.uleb128 0x3f
 15148 010b 19       		.uleb128 0x19
 15149 010c 3C       		.uleb128 0x3c
 15150 010d 19       		.uleb128 0x19
 15151 010e 00       		.byte	0
 15152 010f 00       		.byte	0
 15153 0110 17       		.uleb128 0x17
 15154 0111 13       		.uleb128 0x13
 15155 0112 01       		.byte	0x1
 15156 0113 0B       		.uleb128 0xb
 15157 0114 0B       		.uleb128 0xb
 15158 0115 3A       		.uleb128 0x3a
 15159 0116 0B       		.uleb128 0xb
 15160 0117 3B       		.uleb128 0x3b
 15161 0118 0B       		.uleb128 0xb
ARM GAS  /tmp/cc5QaxCL.s 			page 267


 15162 0119 01       		.uleb128 0x1
 15163 011a 13       		.uleb128 0x13
 15164 011b 00       		.byte	0
 15165 011c 00       		.byte	0
 15166 011d 18       		.uleb128 0x18
 15167 011e 0D       		.uleb128 0xd
 15168 011f 00       		.byte	0
 15169 0120 03       		.uleb128 0x3
 15170 0121 08       		.uleb128 0x8
 15171 0122 3A       		.uleb128 0x3a
 15172 0123 0B       		.uleb128 0xb
 15173 0124 3B       		.uleb128 0x3b
 15174 0125 0B       		.uleb128 0xb
 15175 0126 49       		.uleb128 0x49
 15176 0127 13       		.uleb128 0x13
 15177 0128 38       		.uleb128 0x38
 15178 0129 0B       		.uleb128 0xb
 15179 012a 00       		.byte	0
 15180 012b 00       		.byte	0
 15181 012c 19       		.uleb128 0x19
 15182 012d 13       		.uleb128 0x13
 15183 012e 01       		.byte	0x1
 15184 012f 0B       		.uleb128 0xb
 15185 0130 0B       		.uleb128 0xb
 15186 0131 3A       		.uleb128 0x3a
 15187 0132 0B       		.uleb128 0xb
 15188 0133 3B       		.uleb128 0x3b
 15189 0134 05       		.uleb128 0x5
 15190 0135 01       		.uleb128 0x1
 15191 0136 13       		.uleb128 0x13
 15192 0137 00       		.byte	0
 15193 0138 00       		.byte	0
 15194 0139 1A       		.uleb128 0x1a
 15195 013a 16       		.uleb128 0x16
 15196 013b 00       		.byte	0
 15197 013c 03       		.uleb128 0x3
 15198 013d 0E       		.uleb128 0xe
 15199 013e 3A       		.uleb128 0x3a
 15200 013f 0B       		.uleb128 0xb
 15201 0140 3B       		.uleb128 0x3b
 15202 0141 05       		.uleb128 0x5
 15203 0142 49       		.uleb128 0x49
 15204 0143 13       		.uleb128 0x13
 15205 0144 00       		.byte	0
 15206 0145 00       		.byte	0
 15207 0146 1B       		.uleb128 0x1b
 15208 0147 13       		.uleb128 0x13
 15209 0148 01       		.byte	0x1
 15210 0149 0B       		.uleb128 0xb
 15211 014a 05       		.uleb128 0x5
 15212 014b 3A       		.uleb128 0x3a
 15213 014c 0B       		.uleb128 0xb
 15214 014d 3B       		.uleb128 0x3b
 15215 014e 05       		.uleb128 0x5
 15216 014f 01       		.uleb128 0x1
 15217 0150 13       		.uleb128 0x13
 15218 0151 00       		.byte	0
ARM GAS  /tmp/cc5QaxCL.s 			page 268


 15219 0152 00       		.byte	0
 15220 0153 1C       		.uleb128 0x1c
 15221 0154 13       		.uleb128 0x13
 15222 0155 01       		.byte	0x1
 15223 0156 0B       		.uleb128 0xb
 15224 0157 05       		.uleb128 0x5
 15225 0158 3A       		.uleb128 0x3a
 15226 0159 0B       		.uleb128 0xb
 15227 015a 3B       		.uleb128 0x3b
 15228 015b 0B       		.uleb128 0xb
 15229 015c 01       		.uleb128 0x1
 15230 015d 13       		.uleb128 0x13
 15231 015e 00       		.byte	0
 15232 015f 00       		.byte	0
 15233 0160 1D       		.uleb128 0x1d
 15234 0161 17       		.uleb128 0x17
 15235 0162 01       		.byte	0x1
 15236 0163 0B       		.uleb128 0xb
 15237 0164 0B       		.uleb128 0xb
 15238 0165 3A       		.uleb128 0x3a
 15239 0166 0B       		.uleb128 0xb
 15240 0167 3B       		.uleb128 0x3b
 15241 0168 0B       		.uleb128 0xb
 15242 0169 01       		.uleb128 0x1
 15243 016a 13       		.uleb128 0x13
 15244 016b 00       		.byte	0
 15245 016c 00       		.byte	0
 15246 016d 1E       		.uleb128 0x1e
 15247 016e 0D       		.uleb128 0xd
 15248 016f 00       		.byte	0
 15249 0170 03       		.uleb128 0x3
 15250 0171 0E       		.uleb128 0xe
 15251 0172 3A       		.uleb128 0x3a
 15252 0173 0B       		.uleb128 0xb
 15253 0174 3B       		.uleb128 0x3b
 15254 0175 05       		.uleb128 0x5
 15255 0176 49       		.uleb128 0x49
 15256 0177 13       		.uleb128 0x13
 15257 0178 00       		.byte	0
 15258 0179 00       		.byte	0
 15259 017a 1F       		.uleb128 0x1f
 15260 017b 34       		.uleb128 0x34
 15261 017c 00       		.byte	0
 15262 017d 03       		.uleb128 0x3
 15263 017e 08       		.uleb128 0x8
 15264 017f 3A       		.uleb128 0x3a
 15265 0180 0B       		.uleb128 0xb
 15266 0181 3B       		.uleb128 0x3b
 15267 0182 05       		.uleb128 0x5
 15268 0183 49       		.uleb128 0x49
 15269 0184 13       		.uleb128 0x13
 15270 0185 3F       		.uleb128 0x3f
 15271 0186 19       		.uleb128 0x19
 15272 0187 3C       		.uleb128 0x3c
 15273 0188 19       		.uleb128 0x19
 15274 0189 00       		.byte	0
 15275 018a 00       		.byte	0
ARM GAS  /tmp/cc5QaxCL.s 			page 269


 15276 018b 20       		.uleb128 0x20
 15277 018c 15       		.uleb128 0x15
 15278 018d 01       		.byte	0x1
 15279 018e 27       		.uleb128 0x27
 15280 018f 19       		.uleb128 0x19
 15281 0190 49       		.uleb128 0x49
 15282 0191 13       		.uleb128 0x13
 15283 0192 01       		.uleb128 0x1
 15284 0193 13       		.uleb128 0x13
 15285 0194 00       		.byte	0
 15286 0195 00       		.byte	0
 15287 0196 21       		.uleb128 0x21
 15288 0197 04       		.uleb128 0x4
 15289 0198 01       		.byte	0x1
 15290 0199 3E       		.uleb128 0x3e
 15291 019a 0B       		.uleb128 0xb
 15292 019b 0B       		.uleb128 0xb
 15293 019c 0B       		.uleb128 0xb
 15294 019d 49       		.uleb128 0x49
 15295 019e 13       		.uleb128 0x13
 15296 019f 3A       		.uleb128 0x3a
 15297 01a0 0B       		.uleb128 0xb
 15298 01a1 3B       		.uleb128 0x3b
 15299 01a2 0B       		.uleb128 0xb
 15300 01a3 01       		.uleb128 0x1
 15301 01a4 13       		.uleb128 0x13
 15302 01a5 00       		.byte	0
 15303 01a6 00       		.byte	0
 15304 01a7 22       		.uleb128 0x22
 15305 01a8 28       		.uleb128 0x28
 15306 01a9 00       		.byte	0
 15307 01aa 03       		.uleb128 0x3
 15308 01ab 0E       		.uleb128 0xe
 15309 01ac 1C       		.uleb128 0x1c
 15310 01ad 0B       		.uleb128 0xb
 15311 01ae 00       		.byte	0
 15312 01af 00       		.byte	0
 15313 01b0 23       		.uleb128 0x23
 15314 01b1 0D       		.uleb128 0xd
 15315 01b2 00       		.byte	0
 15316 01b3 03       		.uleb128 0x3
 15317 01b4 08       		.uleb128 0x8
 15318 01b5 3A       		.uleb128 0x3a
 15319 01b6 0B       		.uleb128 0xb
 15320 01b7 3B       		.uleb128 0x3b
 15321 01b8 0B       		.uleb128 0xb
 15322 01b9 49       		.uleb128 0x49
 15323 01ba 13       		.uleb128 0x13
 15324 01bb 00       		.byte	0
 15325 01bc 00       		.byte	0
 15326 01bd 24       		.uleb128 0x24
 15327 01be 04       		.uleb128 0x4
 15328 01bf 01       		.byte	0x1
 15329 01c0 3E       		.uleb128 0x3e
 15330 01c1 0B       		.uleb128 0xb
 15331 01c2 0B       		.uleb128 0xb
 15332 01c3 0B       		.uleb128 0xb
ARM GAS  /tmp/cc5QaxCL.s 			page 270


 15333 01c4 49       		.uleb128 0x49
 15334 01c5 13       		.uleb128 0x13
 15335 01c6 3A       		.uleb128 0x3a
 15336 01c7 0B       		.uleb128 0xb
 15337 01c8 3B       		.uleb128 0x3b
 15338 01c9 05       		.uleb128 0x5
 15339 01ca 01       		.uleb128 0x1
 15340 01cb 13       		.uleb128 0x13
 15341 01cc 00       		.byte	0
 15342 01cd 00       		.byte	0
 15343 01ce 25       		.uleb128 0x25
 15344 01cf 26       		.uleb128 0x26
 15345 01d0 00       		.byte	0
 15346 01d1 00       		.byte	0
 15347 01d2 00       		.byte	0
 15348 01d3 26       		.uleb128 0x26
 15349 01d4 13       		.uleb128 0x13
 15350 01d5 01       		.byte	0x1
 15351 01d6 03       		.uleb128 0x3
 15352 01d7 0E       		.uleb128 0xe
 15353 01d8 0B       		.uleb128 0xb
 15354 01d9 05       		.uleb128 0x5
 15355 01da 3A       		.uleb128 0x3a
 15356 01db 0B       		.uleb128 0xb
 15357 01dc 3B       		.uleb128 0x3b
 15358 01dd 0B       		.uleb128 0xb
 15359 01de 01       		.uleb128 0x1
 15360 01df 13       		.uleb128 0x13
 15361 01e0 00       		.byte	0
 15362 01e1 00       		.byte	0
 15363 01e2 27       		.uleb128 0x27
 15364 01e3 0D       		.uleb128 0xd
 15365 01e4 00       		.byte	0
 15366 01e5 03       		.uleb128 0x3
 15367 01e6 0E       		.uleb128 0xe
 15368 01e7 3A       		.uleb128 0x3a
 15369 01e8 0B       		.uleb128 0xb
 15370 01e9 3B       		.uleb128 0x3b
 15371 01ea 0B       		.uleb128 0xb
 15372 01eb 49       		.uleb128 0x49
 15373 01ec 13       		.uleb128 0x13
 15374 01ed 38       		.uleb128 0x38
 15375 01ee 05       		.uleb128 0x5
 15376 01ef 00       		.byte	0
 15377 01f0 00       		.byte	0
 15378 01f1 28       		.uleb128 0x28
 15379 01f2 13       		.uleb128 0x13
 15380 01f3 01       		.byte	0x1
 15381 01f4 0B       		.uleb128 0xb
 15382 01f5 06       		.uleb128 0x6
 15383 01f6 3A       		.uleb128 0x3a
 15384 01f7 0B       		.uleb128 0xb
 15385 01f8 3B       		.uleb128 0x3b
 15386 01f9 0B       		.uleb128 0xb
 15387 01fa 01       		.uleb128 0x1
 15388 01fb 13       		.uleb128 0x13
 15389 01fc 00       		.byte	0
ARM GAS  /tmp/cc5QaxCL.s 			page 271


 15390 01fd 00       		.byte	0
 15391 01fe 29       		.uleb128 0x29
 15392 01ff 0D       		.uleb128 0xd
 15393 0200 00       		.byte	0
 15394 0201 03       		.uleb128 0x3
 15395 0202 08       		.uleb128 0x8
 15396 0203 3A       		.uleb128 0x3a
 15397 0204 0B       		.uleb128 0xb
 15398 0205 3B       		.uleb128 0x3b
 15399 0206 0B       		.uleb128 0xb
 15400 0207 49       		.uleb128 0x49
 15401 0208 13       		.uleb128 0x13
 15402 0209 38       		.uleb128 0x38
 15403 020a 05       		.uleb128 0x5
 15404 020b 00       		.byte	0
 15405 020c 00       		.byte	0
 15406 020d 2A       		.uleb128 0x2a
 15407 020e 21       		.uleb128 0x21
 15408 020f 00       		.byte	0
 15409 0210 49       		.uleb128 0x49
 15410 0211 13       		.uleb128 0x13
 15411 0212 2F       		.uleb128 0x2f
 15412 0213 05       		.uleb128 0x5
 15413 0214 00       		.byte	0
 15414 0215 00       		.byte	0
 15415 0216 2B       		.uleb128 0x2b
 15416 0217 0D       		.uleb128 0xd
 15417 0218 00       		.byte	0
 15418 0219 03       		.uleb128 0x3
 15419 021a 0E       		.uleb128 0xe
 15420 021b 3A       		.uleb128 0x3a
 15421 021c 0B       		.uleb128 0xb
 15422 021d 3B       		.uleb128 0x3b
 15423 021e 0B       		.uleb128 0xb
 15424 021f 49       		.uleb128 0x49
 15425 0220 13       		.uleb128 0x13
 15426 0221 00       		.byte	0
 15427 0222 00       		.byte	0
 15428 0223 2C       		.uleb128 0x2c
 15429 0224 17       		.uleb128 0x17
 15430 0225 01       		.byte	0x1
 15431 0226 0B       		.uleb128 0xb
 15432 0227 0B       		.uleb128 0xb
 15433 0228 3A       		.uleb128 0x3a
 15434 0229 0B       		.uleb128 0xb
 15435 022a 3B       		.uleb128 0x3b
 15436 022b 05       		.uleb128 0x5
 15437 022c 01       		.uleb128 0x1
 15438 022d 13       		.uleb128 0x13
 15439 022e 00       		.byte	0
 15440 022f 00       		.byte	0
 15441 0230 2D       		.uleb128 0x2d
 15442 0231 34       		.uleb128 0x34
 15443 0232 00       		.byte	0
 15444 0233 03       		.uleb128 0x3
 15445 0234 0E       		.uleb128 0xe
 15446 0235 3A       		.uleb128 0x3a
ARM GAS  /tmp/cc5QaxCL.s 			page 272


 15447 0236 0B       		.uleb128 0xb
 15448 0237 3B       		.uleb128 0x3b
 15449 0238 0B       		.uleb128 0xb
 15450 0239 49       		.uleb128 0x49
 15451 023a 13       		.uleb128 0x13
 15452 023b 02       		.uleb128 0x2
 15453 023c 18       		.uleb128 0x18
 15454 023d 00       		.byte	0
 15455 023e 00       		.byte	0
 15456 023f 2E       		.uleb128 0x2e
 15457 0240 34       		.uleb128 0x34
 15458 0241 00       		.byte	0
 15459 0242 03       		.uleb128 0x3
 15460 0243 0E       		.uleb128 0xe
 15461 0244 3A       		.uleb128 0x3a
 15462 0245 0B       		.uleb128 0xb
 15463 0246 3B       		.uleb128 0x3b
 15464 0247 0B       		.uleb128 0xb
 15465 0248 49       		.uleb128 0x49
 15466 0249 13       		.uleb128 0x13
 15467 024a 00       		.byte	0
 15468 024b 00       		.byte	0
 15469 024c 2F       		.uleb128 0x2f
 15470 024d 2E       		.uleb128 0x2e
 15471 024e 01       		.byte	0x1
 15472 024f 3F       		.uleb128 0x3f
 15473 0250 19       		.uleb128 0x19
 15474 0251 03       		.uleb128 0x3
 15475 0252 0E       		.uleb128 0xe
 15476 0253 3A       		.uleb128 0x3a
 15477 0254 0B       		.uleb128 0xb
 15478 0255 3B       		.uleb128 0x3b
 15479 0256 05       		.uleb128 0x5
 15480 0257 27       		.uleb128 0x27
 15481 0258 19       		.uleb128 0x19
 15482 0259 49       		.uleb128 0x49
 15483 025a 13       		.uleb128 0x13
 15484 025b 11       		.uleb128 0x11
 15485 025c 01       		.uleb128 0x1
 15486 025d 12       		.uleb128 0x12
 15487 025e 06       		.uleb128 0x6
 15488 025f 40       		.uleb128 0x40
 15489 0260 18       		.uleb128 0x18
 15490 0261 9742     		.uleb128 0x2117
 15491 0263 19       		.uleb128 0x19
 15492 0264 01       		.uleb128 0x1
 15493 0265 13       		.uleb128 0x13
 15494 0266 00       		.byte	0
 15495 0267 00       		.byte	0
 15496 0268 30       		.uleb128 0x30
 15497 0269 34       		.uleb128 0x34
 15498 026a 00       		.byte	0
 15499 026b 03       		.uleb128 0x3
 15500 026c 08       		.uleb128 0x8
 15501 026d 3A       		.uleb128 0x3a
 15502 026e 0B       		.uleb128 0xb
 15503 026f 3B       		.uleb128 0x3b
ARM GAS  /tmp/cc5QaxCL.s 			page 273


 15504 0270 05       		.uleb128 0x5
 15505 0271 49       		.uleb128 0x49
 15506 0272 13       		.uleb128 0x13
 15507 0273 02       		.uleb128 0x2
 15508 0274 18       		.uleb128 0x18
 15509 0275 00       		.byte	0
 15510 0276 00       		.byte	0
 15511 0277 31       		.uleb128 0x31
 15512 0278 34       		.uleb128 0x34
 15513 0279 00       		.byte	0
 15514 027a 03       		.uleb128 0x3
 15515 027b 08       		.uleb128 0x8
 15516 027c 3A       		.uleb128 0x3a
 15517 027d 0B       		.uleb128 0xb
 15518 027e 3B       		.uleb128 0x3b
 15519 027f 05       		.uleb128 0x5
 15520 0280 49       		.uleb128 0x49
 15521 0281 13       		.uleb128 0x13
 15522 0282 02       		.uleb128 0x2
 15523 0283 17       		.uleb128 0x17
 15524 0284 00       		.byte	0
 15525 0285 00       		.byte	0
 15526 0286 32       		.uleb128 0x32
 15527 0287 898201   		.uleb128 0x4109
 15528 028a 01       		.byte	0x1
 15529 028b 11       		.uleb128 0x11
 15530 028c 01       		.uleb128 0x1
 15531 028d 31       		.uleb128 0x31
 15532 028e 13       		.uleb128 0x13
 15533 028f 01       		.uleb128 0x1
 15534 0290 13       		.uleb128 0x13
 15535 0291 00       		.byte	0
 15536 0292 00       		.byte	0
 15537 0293 33       		.uleb128 0x33
 15538 0294 8A8201   		.uleb128 0x410a
 15539 0297 00       		.byte	0
 15540 0298 02       		.uleb128 0x2
 15541 0299 18       		.uleb128 0x18
 15542 029a 9142     		.uleb128 0x2111
 15543 029c 18       		.uleb128 0x18
 15544 029d 00       		.byte	0
 15545 029e 00       		.byte	0
 15546 029f 34       		.uleb128 0x34
 15547 02a0 898201   		.uleb128 0x4109
 15548 02a3 00       		.byte	0
 15549 02a4 11       		.uleb128 0x11
 15550 02a5 01       		.uleb128 0x1
 15551 02a6 31       		.uleb128 0x31
 15552 02a7 13       		.uleb128 0x13
 15553 02a8 00       		.byte	0
 15554 02a9 00       		.byte	0
 15555 02aa 35       		.uleb128 0x35
 15556 02ab 05       		.uleb128 0x5
 15557 02ac 00       		.byte	0
 15558 02ad 03       		.uleb128 0x3
 15559 02ae 0E       		.uleb128 0xe
 15560 02af 3A       		.uleb128 0x3a
ARM GAS  /tmp/cc5QaxCL.s 			page 274


 15561 02b0 0B       		.uleb128 0xb
 15562 02b1 3B       		.uleb128 0x3b
 15563 02b2 05       		.uleb128 0x5
 15564 02b3 49       		.uleb128 0x49
 15565 02b4 13       		.uleb128 0x13
 15566 02b5 02       		.uleb128 0x2
 15567 02b6 17       		.uleb128 0x17
 15568 02b7 00       		.byte	0
 15569 02b8 00       		.byte	0
 15570 02b9 36       		.uleb128 0x36
 15571 02ba 1D       		.uleb128 0x1d
 15572 02bb 01       		.byte	0x1
 15573 02bc 31       		.uleb128 0x31
 15574 02bd 13       		.uleb128 0x13
 15575 02be 11       		.uleb128 0x11
 15576 02bf 01       		.uleb128 0x1
 15577 02c0 12       		.uleb128 0x12
 15578 02c1 06       		.uleb128 0x6
 15579 02c2 58       		.uleb128 0x58
 15580 02c3 0B       		.uleb128 0xb
 15581 02c4 59       		.uleb128 0x59
 15582 02c5 05       		.uleb128 0x5
 15583 02c6 01       		.uleb128 0x1
 15584 02c7 13       		.uleb128 0x13
 15585 02c8 00       		.byte	0
 15586 02c9 00       		.byte	0
 15587 02ca 37       		.uleb128 0x37
 15588 02cb 05       		.uleb128 0x5
 15589 02cc 00       		.byte	0
 15590 02cd 31       		.uleb128 0x31
 15591 02ce 13       		.uleb128 0x13
 15592 02cf 02       		.uleb128 0x2
 15593 02d0 17       		.uleb128 0x17
 15594 02d1 00       		.byte	0
 15595 02d2 00       		.byte	0
 15596 02d3 38       		.uleb128 0x38
 15597 02d4 898201   		.uleb128 0x4109
 15598 02d7 01       		.byte	0x1
 15599 02d8 11       		.uleb128 0x11
 15600 02d9 01       		.uleb128 0x1
 15601 02da 31       		.uleb128 0x31
 15602 02db 13       		.uleb128 0x13
 15603 02dc 00       		.byte	0
 15604 02dd 00       		.byte	0
 15605 02de 39       		.uleb128 0x39
 15606 02df 898201   		.uleb128 0x4109
 15607 02e2 01       		.byte	0x1
 15608 02e3 11       		.uleb128 0x11
 15609 02e4 01       		.uleb128 0x1
 15610 02e5 9542     		.uleb128 0x2115
 15611 02e7 19       		.uleb128 0x19
 15612 02e8 31       		.uleb128 0x31
 15613 02e9 13       		.uleb128 0x13
 15614 02ea 01       		.uleb128 0x1
 15615 02eb 13       		.uleb128 0x13
 15616 02ec 00       		.byte	0
 15617 02ed 00       		.byte	0
ARM GAS  /tmp/cc5QaxCL.s 			page 275


 15618 02ee 3A       		.uleb128 0x3a
 15619 02ef 05       		.uleb128 0x5
 15620 02f0 00       		.byte	0
 15621 02f1 03       		.uleb128 0x3
 15622 02f2 08       		.uleb128 0x8
 15623 02f3 3A       		.uleb128 0x3a
 15624 02f4 0B       		.uleb128 0xb
 15625 02f5 3B       		.uleb128 0x3b
 15626 02f6 05       		.uleb128 0x5
 15627 02f7 49       		.uleb128 0x49
 15628 02f8 13       		.uleb128 0x13
 15629 02f9 02       		.uleb128 0x2
 15630 02fa 17       		.uleb128 0x17
 15631 02fb 00       		.byte	0
 15632 02fc 00       		.byte	0
 15633 02fd 3B       		.uleb128 0x3b
 15634 02fe 34       		.uleb128 0x34
 15635 02ff 00       		.byte	0
 15636 0300 03       		.uleb128 0x3
 15637 0301 0E       		.uleb128 0xe
 15638 0302 3A       		.uleb128 0x3a
 15639 0303 0B       		.uleb128 0xb
 15640 0304 3B       		.uleb128 0x3b
 15641 0305 05       		.uleb128 0x5
 15642 0306 49       		.uleb128 0x49
 15643 0307 13       		.uleb128 0x13
 15644 0308 02       		.uleb128 0x2
 15645 0309 18       		.uleb128 0x18
 15646 030a 00       		.byte	0
 15647 030b 00       		.byte	0
 15648 030c 3C       		.uleb128 0x3c
 15649 030d 1D       		.uleb128 0x1d
 15650 030e 01       		.byte	0x1
 15651 030f 31       		.uleb128 0x31
 15652 0310 13       		.uleb128 0x13
 15653 0311 52       		.uleb128 0x52
 15654 0312 01       		.uleb128 0x1
 15655 0313 55       		.uleb128 0x55
 15656 0314 17       		.uleb128 0x17
 15657 0315 58       		.uleb128 0x58
 15658 0316 0B       		.uleb128 0xb
 15659 0317 59       		.uleb128 0x59
 15660 0318 05       		.uleb128 0x5
 15661 0319 01       		.uleb128 0x1
 15662 031a 13       		.uleb128 0x13
 15663 031b 00       		.byte	0
 15664 031c 00       		.byte	0
 15665 031d 3D       		.uleb128 0x3d
 15666 031e 34       		.uleb128 0x34
 15667 031f 00       		.byte	0
 15668 0320 03       		.uleb128 0x3
 15669 0321 0E       		.uleb128 0xe
 15670 0322 3A       		.uleb128 0x3a
 15671 0323 0B       		.uleb128 0xb
 15672 0324 3B       		.uleb128 0x3b
 15673 0325 05       		.uleb128 0x5
 15674 0326 49       		.uleb128 0x49
ARM GAS  /tmp/cc5QaxCL.s 			page 276


 15675 0327 13       		.uleb128 0x13
 15676 0328 02       		.uleb128 0x2
 15677 0329 17       		.uleb128 0x17
 15678 032a 00       		.byte	0
 15679 032b 00       		.byte	0
 15680 032c 3E       		.uleb128 0x3e
 15681 032d 898201   		.uleb128 0x4109
 15682 0330 00       		.byte	0
 15683 0331 11       		.uleb128 0x11
 15684 0332 01       		.uleb128 0x1
 15685 0333 9542     		.uleb128 0x2115
 15686 0335 19       		.uleb128 0x19
 15687 0336 31       		.uleb128 0x31
 15688 0337 13       		.uleb128 0x13
 15689 0338 00       		.byte	0
 15690 0339 00       		.byte	0
 15691 033a 3F       		.uleb128 0x3f
 15692 033b 2E       		.uleb128 0x2e
 15693 033c 01       		.byte	0x1
 15694 033d 3F       		.uleb128 0x3f
 15695 033e 19       		.uleb128 0x19
 15696 033f 03       		.uleb128 0x3
 15697 0340 0E       		.uleb128 0xe
 15698 0341 3A       		.uleb128 0x3a
 15699 0342 0B       		.uleb128 0xb
 15700 0343 3B       		.uleb128 0x3b
 15701 0344 05       		.uleb128 0x5
 15702 0345 27       		.uleb128 0x27
 15703 0346 19       		.uleb128 0x19
 15704 0347 11       		.uleb128 0x11
 15705 0348 01       		.uleb128 0x1
 15706 0349 12       		.uleb128 0x12
 15707 034a 06       		.uleb128 0x6
 15708 034b 40       		.uleb128 0x40
 15709 034c 18       		.uleb128 0x18
 15710 034d 9742     		.uleb128 0x2117
 15711 034f 19       		.uleb128 0x19
 15712 0350 01       		.uleb128 0x1
 15713 0351 13       		.uleb128 0x13
 15714 0352 00       		.byte	0
 15715 0353 00       		.byte	0
 15716 0354 40       		.uleb128 0x40
 15717 0355 2E       		.uleb128 0x2e
 15718 0356 01       		.byte	0x1
 15719 0357 3F       		.uleb128 0x3f
 15720 0358 19       		.uleb128 0x19
 15721 0359 03       		.uleb128 0x3
 15722 035a 0E       		.uleb128 0xe
 15723 035b 3A       		.uleb128 0x3a
 15724 035c 0B       		.uleb128 0xb
 15725 035d 3B       		.uleb128 0x3b
 15726 035e 05       		.uleb128 0x5
 15727 035f 27       		.uleb128 0x27
 15728 0360 19       		.uleb128 0x19
 15729 0361 49       		.uleb128 0x49
 15730 0362 13       		.uleb128 0x13
 15731 0363 20       		.uleb128 0x20
ARM GAS  /tmp/cc5QaxCL.s 			page 277


 15732 0364 0B       		.uleb128 0xb
 15733 0365 01       		.uleb128 0x1
 15734 0366 13       		.uleb128 0x13
 15735 0367 00       		.byte	0
 15736 0368 00       		.byte	0
 15737 0369 41       		.uleb128 0x41
 15738 036a 05       		.uleb128 0x5
 15739 036b 00       		.byte	0
 15740 036c 03       		.uleb128 0x3
 15741 036d 0E       		.uleb128 0xe
 15742 036e 3A       		.uleb128 0x3a
 15743 036f 0B       		.uleb128 0xb
 15744 0370 3B       		.uleb128 0x3b
 15745 0371 05       		.uleb128 0x5
 15746 0372 49       		.uleb128 0x49
 15747 0373 13       		.uleb128 0x13
 15748 0374 00       		.byte	0
 15749 0375 00       		.byte	0
 15750 0376 42       		.uleb128 0x42
 15751 0377 34       		.uleb128 0x34
 15752 0378 00       		.byte	0
 15753 0379 03       		.uleb128 0x3
 15754 037a 08       		.uleb128 0x8
 15755 037b 3A       		.uleb128 0x3a
 15756 037c 0B       		.uleb128 0xb
 15757 037d 3B       		.uleb128 0x3b
 15758 037e 05       		.uleb128 0x5
 15759 037f 49       		.uleb128 0x49
 15760 0380 13       		.uleb128 0x13
 15761 0381 00       		.byte	0
 15762 0382 00       		.byte	0
 15763 0383 43       		.uleb128 0x43
 15764 0384 2E       		.uleb128 0x2e
 15765 0385 01       		.byte	0x1
 15766 0386 3F       		.uleb128 0x3f
 15767 0387 19       		.uleb128 0x19
 15768 0388 03       		.uleb128 0x3
 15769 0389 0E       		.uleb128 0xe
 15770 038a 3A       		.uleb128 0x3a
 15771 038b 0B       		.uleb128 0xb
 15772 038c 3B       		.uleb128 0x3b
 15773 038d 0B       		.uleb128 0xb
 15774 038e 27       		.uleb128 0x27
 15775 038f 19       		.uleb128 0x19
 15776 0390 49       		.uleb128 0x49
 15777 0391 13       		.uleb128 0x13
 15778 0392 20       		.uleb128 0x20
 15779 0393 0B       		.uleb128 0xb
 15780 0394 01       		.uleb128 0x1
 15781 0395 13       		.uleb128 0x13
 15782 0396 00       		.byte	0
 15783 0397 00       		.byte	0
 15784 0398 44       		.uleb128 0x44
 15785 0399 34       		.uleb128 0x34
 15786 039a 00       		.byte	0
 15787 039b 03       		.uleb128 0x3
 15788 039c 08       		.uleb128 0x8
ARM GAS  /tmp/cc5QaxCL.s 			page 278


 15789 039d 3A       		.uleb128 0x3a
 15790 039e 0B       		.uleb128 0xb
 15791 039f 3B       		.uleb128 0x3b
 15792 03a0 0B       		.uleb128 0xb
 15793 03a1 49       		.uleb128 0x49
 15794 03a2 13       		.uleb128 0x13
 15795 03a3 00       		.byte	0
 15796 03a4 00       		.byte	0
 15797 03a5 45       		.uleb128 0x45
 15798 03a6 05       		.uleb128 0x5
 15799 03a7 00       		.byte	0
 15800 03a8 03       		.uleb128 0x3
 15801 03a9 08       		.uleb128 0x8
 15802 03aa 3A       		.uleb128 0x3a
 15803 03ab 0B       		.uleb128 0xb
 15804 03ac 3B       		.uleb128 0x3b
 15805 03ad 0B       		.uleb128 0xb
 15806 03ae 49       		.uleb128 0x49
 15807 03af 13       		.uleb128 0x13
 15808 03b0 00       		.byte	0
 15809 03b1 00       		.byte	0
 15810 03b2 46       		.uleb128 0x46
 15811 03b3 05       		.uleb128 0x5
 15812 03b4 00       		.byte	0
 15813 03b5 03       		.uleb128 0x3
 15814 03b6 0E       		.uleb128 0xe
 15815 03b7 3A       		.uleb128 0x3a
 15816 03b8 0B       		.uleb128 0xb
 15817 03b9 3B       		.uleb128 0x3b
 15818 03ba 0B       		.uleb128 0xb
 15819 03bb 49       		.uleb128 0x49
 15820 03bc 13       		.uleb128 0x13
 15821 03bd 00       		.byte	0
 15822 03be 00       		.byte	0
 15823 03bf 47       		.uleb128 0x47
 15824 03c0 2E       		.uleb128 0x2e
 15825 03c1 01       		.byte	0x1
 15826 03c2 3F       		.uleb128 0x3f
 15827 03c3 19       		.uleb128 0x19
 15828 03c4 03       		.uleb128 0x3
 15829 03c5 0E       		.uleb128 0xe
 15830 03c6 3A       		.uleb128 0x3a
 15831 03c7 0B       		.uleb128 0xb
 15832 03c8 3B       		.uleb128 0x3b
 15833 03c9 0B       		.uleb128 0xb
 15834 03ca 27       		.uleb128 0x27
 15835 03cb 19       		.uleb128 0x19
 15836 03cc 49       		.uleb128 0x49
 15837 03cd 13       		.uleb128 0x13
 15838 03ce 11       		.uleb128 0x11
 15839 03cf 01       		.uleb128 0x1
 15840 03d0 12       		.uleb128 0x12
 15841 03d1 06       		.uleb128 0x6
 15842 03d2 40       		.uleb128 0x40
 15843 03d3 18       		.uleb128 0x18
 15844 03d4 9742     		.uleb128 0x2117
 15845 03d6 19       		.uleb128 0x19
ARM GAS  /tmp/cc5QaxCL.s 			page 279


 15846 03d7 01       		.uleb128 0x1
 15847 03d8 13       		.uleb128 0x13
 15848 03d9 00       		.byte	0
 15849 03da 00       		.byte	0
 15850 03db 48       		.uleb128 0x48
 15851 03dc 05       		.uleb128 0x5
 15852 03dd 00       		.byte	0
 15853 03de 03       		.uleb128 0x3
 15854 03df 08       		.uleb128 0x8
 15855 03e0 3A       		.uleb128 0x3a
 15856 03e1 0B       		.uleb128 0xb
 15857 03e2 3B       		.uleb128 0x3b
 15858 03e3 0B       		.uleb128 0xb
 15859 03e4 49       		.uleb128 0x49
 15860 03e5 13       		.uleb128 0x13
 15861 03e6 02       		.uleb128 0x2
 15862 03e7 17       		.uleb128 0x17
 15863 03e8 00       		.byte	0
 15864 03e9 00       		.byte	0
 15865 03ea 49       		.uleb128 0x49
 15866 03eb 34       		.uleb128 0x34
 15867 03ec 00       		.byte	0
 15868 03ed 03       		.uleb128 0x3
 15869 03ee 08       		.uleb128 0x8
 15870 03ef 3A       		.uleb128 0x3a
 15871 03f0 0B       		.uleb128 0xb
 15872 03f1 3B       		.uleb128 0x3b
 15873 03f2 0B       		.uleb128 0xb
 15874 03f3 49       		.uleb128 0x49
 15875 03f4 13       		.uleb128 0x13
 15876 03f5 02       		.uleb128 0x2
 15877 03f6 17       		.uleb128 0x17
 15878 03f7 00       		.byte	0
 15879 03f8 00       		.byte	0
 15880 03f9 4A       		.uleb128 0x4a
 15881 03fa 2E       		.uleb128 0x2e
 15882 03fb 01       		.byte	0x1
 15883 03fc 31       		.uleb128 0x31
 15884 03fd 13       		.uleb128 0x13
 15885 03fe 11       		.uleb128 0x11
 15886 03ff 01       		.uleb128 0x1
 15887 0400 12       		.uleb128 0x12
 15888 0401 06       		.uleb128 0x6
 15889 0402 40       		.uleb128 0x40
 15890 0403 18       		.uleb128 0x18
 15891 0404 9742     		.uleb128 0x2117
 15892 0406 19       		.uleb128 0x19
 15893 0407 01       		.uleb128 0x1
 15894 0408 13       		.uleb128 0x13
 15895 0409 00       		.byte	0
 15896 040a 00       		.byte	0
 15897 040b 4B       		.uleb128 0x4b
 15898 040c 34       		.uleb128 0x34
 15899 040d 00       		.byte	0
 15900 040e 31       		.uleb128 0x31
 15901 040f 13       		.uleb128 0x13
 15902 0410 02       		.uleb128 0x2
ARM GAS  /tmp/cc5QaxCL.s 			page 280


 15903 0411 17       		.uleb128 0x17
 15904 0412 00       		.byte	0
 15905 0413 00       		.byte	0
 15906 0414 4C       		.uleb128 0x4c
 15907 0415 1D       		.uleb128 0x1d
 15908 0416 01       		.byte	0x1
 15909 0417 31       		.uleb128 0x31
 15910 0418 13       		.uleb128 0x13
 15911 0419 11       		.uleb128 0x11
 15912 041a 01       		.uleb128 0x1
 15913 041b 12       		.uleb128 0x12
 15914 041c 06       		.uleb128 0x6
 15915 041d 58       		.uleb128 0x58
 15916 041e 0B       		.uleb128 0xb
 15917 041f 59       		.uleb128 0x59
 15918 0420 0B       		.uleb128 0xb
 15919 0421 01       		.uleb128 0x1
 15920 0422 13       		.uleb128 0x13
 15921 0423 00       		.byte	0
 15922 0424 00       		.byte	0
 15923 0425 4D       		.uleb128 0x4d
 15924 0426 0B       		.uleb128 0xb
 15925 0427 01       		.byte	0x1
 15926 0428 31       		.uleb128 0x31
 15927 0429 13       		.uleb128 0x13
 15928 042a 11       		.uleb128 0x11
 15929 042b 01       		.uleb128 0x1
 15930 042c 12       		.uleb128 0x12
 15931 042d 06       		.uleb128 0x6
 15932 042e 01       		.uleb128 0x1
 15933 042f 13       		.uleb128 0x13
 15934 0430 00       		.byte	0
 15935 0431 00       		.byte	0
 15936 0432 4E       		.uleb128 0x4e
 15937 0433 0B       		.uleb128 0xb
 15938 0434 01       		.byte	0x1
 15939 0435 11       		.uleb128 0x11
 15940 0436 01       		.uleb128 0x1
 15941 0437 12       		.uleb128 0x12
 15942 0438 06       		.uleb128 0x6
 15943 0439 00       		.byte	0
 15944 043a 00       		.byte	0
 15945 043b 4F       		.uleb128 0x4f
 15946 043c 34       		.uleb128 0x34
 15947 043d 00       		.byte	0
 15948 043e 31       		.uleb128 0x31
 15949 043f 13       		.uleb128 0x13
 15950 0440 00       		.byte	0
 15951 0441 00       		.byte	0
 15952 0442 50       		.uleb128 0x50
 15953 0443 0B       		.uleb128 0xb
 15954 0444 01       		.byte	0x1
 15955 0445 55       		.uleb128 0x55
 15956 0446 17       		.uleb128 0x17
 15957 0447 01       		.uleb128 0x1
 15958 0448 13       		.uleb128 0x13
 15959 0449 00       		.byte	0
ARM GAS  /tmp/cc5QaxCL.s 			page 281


 15960 044a 00       		.byte	0
 15961 044b 51       		.uleb128 0x51
 15962 044c 0B       		.uleb128 0xb
 15963 044d 01       		.byte	0x1
 15964 044e 31       		.uleb128 0x31
 15965 044f 13       		.uleb128 0x13
 15966 0450 55       		.uleb128 0x55
 15967 0451 17       		.uleb128 0x17
 15968 0452 01       		.uleb128 0x1
 15969 0453 13       		.uleb128 0x13
 15970 0454 00       		.byte	0
 15971 0455 00       		.byte	0
 15972 0456 52       		.uleb128 0x52
 15973 0457 2E       		.uleb128 0x2e
 15974 0458 00       		.byte	0
 15975 0459 3F       		.uleb128 0x3f
 15976 045a 19       		.uleb128 0x19
 15977 045b 3C       		.uleb128 0x3c
 15978 045c 19       		.uleb128 0x19
 15979 045d 6E       		.uleb128 0x6e
 15980 045e 0E       		.uleb128 0xe
 15981 045f 03       		.uleb128 0x3
 15982 0460 0E       		.uleb128 0xe
 15983 0461 00       		.byte	0
 15984 0462 00       		.byte	0
 15985 0463 53       		.uleb128 0x53
 15986 0464 2E       		.uleb128 0x2e
 15987 0465 00       		.byte	0
 15988 0466 3F       		.uleb128 0x3f
 15989 0467 19       		.uleb128 0x19
 15990 0468 3C       		.uleb128 0x3c
 15991 0469 19       		.uleb128 0x19
 15992 046a 6E       		.uleb128 0x6e
 15993 046b 0E       		.uleb128 0xe
 15994 046c 03       		.uleb128 0x3
 15995 046d 0E       		.uleb128 0xe
 15996 046e 3A       		.uleb128 0x3a
 15997 046f 0B       		.uleb128 0xb
 15998 0470 3B       		.uleb128 0x3b
 15999 0471 0B       		.uleb128 0xb
 16000 0472 00       		.byte	0
 16001 0473 00       		.byte	0
 16002 0474 00       		.byte	0
 16003              		.section	.debug_loc,"",%progbits
 16004              	.Ldebug_loc0:
 16005              	.LLST65:
 16006 0000 16000000 		.4byte	.LVL463
 16007 0004 1C000000 		.4byte	.LVL464
 16008 0008 0100     		.2byte	0x1
 16009 000a 50       		.byte	0x50
 16010 000b 34000000 		.4byte	.LVL465
 16011 000f 36000000 		.4byte	.LVL466
 16012 0013 0100     		.2byte	0x1
 16013 0015 50       		.byte	0x50
 16014 0016 00000000 		.4byte	0
 16015 001a 00000000 		.4byte	0
 16016              	.LLST61:
ARM GAS  /tmp/cc5QaxCL.s 			page 282


 16017 001e 00000000 		.4byte	.LVL446
 16018 0022 0E000000 		.4byte	.LVL448
 16019 0026 0100     		.2byte	0x1
 16020 0028 50       		.byte	0x50
 16021 0029 0E000000 		.4byte	.LVL448
 16022 002d 7C000000 		.4byte	.LFE273
 16023 0031 0400     		.2byte	0x4
 16024 0033 F3       		.byte	0xf3
 16025 0034 01       		.uleb128 0x1
 16026 0035 50       		.byte	0x50
 16027 0036 9F       		.byte	0x9f
 16028 0037 00000000 		.4byte	0
 16029 003b 00000000 		.4byte	0
 16030              	.LLST62:
 16031 003f 00000000 		.4byte	.LVL446
 16032 0043 13000000 		.4byte	.LVL449-1
 16033 0047 0100     		.2byte	0x1
 16034 0049 51       		.byte	0x51
 16035 004a 13000000 		.4byte	.LVL449-1
 16036 004e 7C000000 		.4byte	.LFE273
 16037 0052 0400     		.2byte	0x4
 16038 0054 F3       		.byte	0xf3
 16039 0055 01       		.uleb128 0x1
 16040 0056 51       		.byte	0x51
 16041 0057 9F       		.byte	0x9f
 16042 0058 00000000 		.4byte	0
 16043 005c 00000000 		.4byte	0
 16044              	.LLST63:
 16045 0060 0C000000 		.4byte	.LVL447
 16046 0064 14000000 		.4byte	.LVL449
 16047 0068 0200     		.2byte	0x2
 16048 006a 30       		.byte	0x30
 16049 006b 9F       		.byte	0x9f
 16050 006c 14000000 		.4byte	.LVL449
 16051 0070 16000000 		.4byte	.LVL450
 16052 0074 0100     		.2byte	0x1
 16053 0076 50       		.byte	0x50
 16054 0077 22000000 		.4byte	.LVL451
 16055 007b 28000000 		.4byte	.LVL452
 16056 007f 0100     		.2byte	0x1
 16057 0081 50       		.byte	0x50
 16058 0082 3A000000 		.4byte	.LVL454
 16059 0086 44000000 		.4byte	.LVL455
 16060 008a 0100     		.2byte	0x1
 16061 008c 50       		.byte	0x50
 16062 008d 48000000 		.4byte	.LVL456
 16063 0091 52000000 		.4byte	.LVL457
 16064 0095 0100     		.2byte	0x1
 16065 0097 50       		.byte	0x50
 16066 0098 56000000 		.4byte	.LVL458
 16067 009c 68000000 		.4byte	.LVL459
 16068 00a0 0100     		.2byte	0x1
 16069 00a2 50       		.byte	0x50
 16070 00a3 00000000 		.4byte	0
 16071 00a7 00000000 		.4byte	0
 16072              	.LLST64:
 16073 00ab 22000000 		.4byte	.LVL451
ARM GAS  /tmp/cc5QaxCL.s 			page 283


 16074 00af 2C000000 		.4byte	.LVL453
 16075 00b3 0200     		.2byte	0x2
 16076 00b5 32       		.byte	0x32
 16077 00b6 9F       		.byte	0x9f
 16078 00b7 00000000 		.4byte	0
 16079 00bb 00000000 		.4byte	0
 16080              	.LLST58:
 16081 00bf 00000000 		.4byte	.LVL437
 16082 00c3 14000000 		.4byte	.LVL439
 16083 00c7 0100     		.2byte	0x1
 16084 00c9 50       		.byte	0x50
 16085 00ca 14000000 		.4byte	.LVL439
 16086 00ce 60000000 		.4byte	.LFE272
 16087 00d2 0400     		.2byte	0x4
 16088 00d4 F3       		.byte	0xf3
 16089 00d5 01       		.uleb128 0x1
 16090 00d6 50       		.byte	0x50
 16091 00d7 9F       		.byte	0x9f
 16092 00d8 00000000 		.4byte	0
 16093 00dc 00000000 		.4byte	0
 16094              	.LLST59:
 16095 00e0 0A000000 		.4byte	.LVL438
 16096 00e4 1C000000 		.4byte	.LVL441
 16097 00e8 0200     		.2byte	0x2
 16098 00ea 30       		.byte	0x30
 16099 00eb 9F       		.byte	0x9f
 16100 00ec 36000000 		.4byte	.LVL442
 16101 00f0 4E000000 		.4byte	.LVL443
 16102 00f4 0100     		.2byte	0x1
 16103 00f6 50       		.byte	0x50
 16104 00f7 00000000 		.4byte	0
 16105 00fb 00000000 		.4byte	0
 16106              	.LLST60:
 16107 00ff 18000000 		.4byte	.LVL440
 16108 0103 1C000000 		.4byte	.LVL441
 16109 0107 0200     		.2byte	0x2
 16110 0109 32       		.byte	0x32
 16111 010a 9F       		.byte	0x9f
 16112 010b 00000000 		.4byte	0
 16113 010f 00000000 		.4byte	0
 16114              	.LLST53:
 16115 0113 00000000 		.4byte	.LVL423
 16116 0117 0E000000 		.4byte	.LVL425
 16117 011b 0100     		.2byte	0x1
 16118 011d 50       		.byte	0x50
 16119 011e 0E000000 		.4byte	.LVL425
 16120 0122 70000000 		.4byte	.LFE271
 16121 0126 0400     		.2byte	0x4
 16122 0128 F3       		.byte	0xf3
 16123 0129 01       		.uleb128 0x1
 16124 012a 50       		.byte	0x50
 16125 012b 9F       		.byte	0x9f
 16126 012c 00000000 		.4byte	0
 16127 0130 00000000 		.4byte	0
 16128              	.LLST54:
 16129 0134 00000000 		.4byte	.LVL423
 16130 0138 15000000 		.4byte	.LVL426-1
ARM GAS  /tmp/cc5QaxCL.s 			page 284


 16131 013c 0100     		.2byte	0x1
 16132 013e 51       		.byte	0x51
 16133 013f 15000000 		.4byte	.LVL426-1
 16134 0143 70000000 		.4byte	.LFE271
 16135 0147 0400     		.2byte	0x4
 16136 0149 F3       		.byte	0xf3
 16137 014a 01       		.uleb128 0x1
 16138 014b 51       		.byte	0x51
 16139 014c 9F       		.byte	0x9f
 16140 014d 00000000 		.4byte	0
 16141 0151 00000000 		.4byte	0
 16142              	.LLST55:
 16143 0155 00000000 		.4byte	.LVL423
 16144 0159 15000000 		.4byte	.LVL426-1
 16145 015d 0100     		.2byte	0x1
 16146 015f 52       		.byte	0x52
 16147 0160 15000000 		.4byte	.LVL426-1
 16148 0164 70000000 		.4byte	.LFE271
 16149 0168 0400     		.2byte	0x4
 16150 016a F3       		.byte	0xf3
 16151 016b 01       		.uleb128 0x1
 16152 016c 52       		.byte	0x52
 16153 016d 9F       		.byte	0x9f
 16154 016e 00000000 		.4byte	0
 16155 0172 00000000 		.4byte	0
 16156              	.LLST56:
 16157 0176 0C000000 		.4byte	.LVL424
 16158 017a 16000000 		.4byte	.LVL426
 16159 017e 0200     		.2byte	0x2
 16160 0180 30       		.byte	0x30
 16161 0181 9F       		.byte	0x9f
 16162 0182 16000000 		.4byte	.LVL426
 16163 0186 18000000 		.4byte	.LVL427
 16164 018a 0100     		.2byte	0x1
 16165 018c 50       		.byte	0x50
 16166 018d 24000000 		.4byte	.LVL428
 16167 0191 2A000000 		.4byte	.LVL429
 16168 0195 0100     		.2byte	0x1
 16169 0197 50       		.byte	0x50
 16170 0198 3C000000 		.4byte	.LVL431
 16171 019c 46000000 		.4byte	.LVL432
 16172 01a0 0100     		.2byte	0x1
 16173 01a2 50       		.byte	0x50
 16174 01a3 4A000000 		.4byte	.LVL433
 16175 01a7 5C000000 		.4byte	.LVL434
 16176 01ab 0100     		.2byte	0x1
 16177 01ad 50       		.byte	0x50
 16178 01ae 00000000 		.4byte	0
 16179 01b2 00000000 		.4byte	0
 16180              	.LLST57:
 16181 01b6 24000000 		.4byte	.LVL428
 16182 01ba 2E000000 		.4byte	.LVL430
 16183 01be 0200     		.2byte	0x2
 16184 01c0 32       		.byte	0x32
 16185 01c1 9F       		.byte	0x9f
 16186 01c2 00000000 		.4byte	0
 16187 01c6 00000000 		.4byte	0
ARM GAS  /tmp/cc5QaxCL.s 			page 285


 16188              	.LLST50:
 16189 01ca 00000000 		.4byte	.LVL414
 16190 01ce 14000000 		.4byte	.LVL416
 16191 01d2 0100     		.2byte	0x1
 16192 01d4 50       		.byte	0x50
 16193 01d5 14000000 		.4byte	.LVL416
 16194 01d9 60000000 		.4byte	.LFE270
 16195 01dd 0400     		.2byte	0x4
 16196 01df F3       		.byte	0xf3
 16197 01e0 01       		.uleb128 0x1
 16198 01e1 50       		.byte	0x50
 16199 01e2 9F       		.byte	0x9f
 16200 01e3 00000000 		.4byte	0
 16201 01e7 00000000 		.4byte	0
 16202              	.LLST51:
 16203 01eb 0A000000 		.4byte	.LVL415
 16204 01ef 1C000000 		.4byte	.LVL418
 16205 01f3 0200     		.2byte	0x2
 16206 01f5 30       		.byte	0x30
 16207 01f6 9F       		.byte	0x9f
 16208 01f7 36000000 		.4byte	.LVL419
 16209 01fb 4E000000 		.4byte	.LVL420
 16210 01ff 0100     		.2byte	0x1
 16211 0201 50       		.byte	0x50
 16212 0202 00000000 		.4byte	0
 16213 0206 00000000 		.4byte	0
 16214              	.LLST52:
 16215 020a 18000000 		.4byte	.LVL417
 16216 020e 1C000000 		.4byte	.LVL418
 16217 0212 0200     		.2byte	0x2
 16218 0214 32       		.byte	0x32
 16219 0215 9F       		.byte	0x9f
 16220 0216 00000000 		.4byte	0
 16221 021a 00000000 		.4byte	0
 16222              	.LLST45:
 16223 021e 00000000 		.4byte	.LVL404
 16224 0222 14000000 		.4byte	.LVL407
 16225 0226 0100     		.2byte	0x1
 16226 0228 50       		.byte	0x50
 16227 0229 14000000 		.4byte	.LVL407
 16228 022d 54000000 		.4byte	.LFE269
 16229 0231 0400     		.2byte	0x4
 16230 0233 F3       		.byte	0xf3
 16231 0234 01       		.uleb128 0x1
 16232 0235 50       		.byte	0x50
 16233 0236 9F       		.byte	0x9f
 16234 0237 00000000 		.4byte	0
 16235 023b 00000000 		.4byte	0
 16236              	.LLST46:
 16237 023f 00000000 		.4byte	.LVL404
 16238 0243 12000000 		.4byte	.LVL406
 16239 0247 0100     		.2byte	0x1
 16240 0249 51       		.byte	0x51
 16241 024a 12000000 		.4byte	.LVL406
 16242 024e 54000000 		.4byte	.LFE269
 16243 0252 0400     		.2byte	0x4
 16244 0254 F3       		.byte	0xf3
ARM GAS  /tmp/cc5QaxCL.s 			page 286


 16245 0255 01       		.uleb128 0x1
 16246 0256 51       		.byte	0x51
 16247 0257 9F       		.byte	0x9f
 16248 0258 00000000 		.4byte	0
 16249 025c 00000000 		.4byte	0
 16250              	.LLST47:
 16251 0260 0E000000 		.4byte	.LVL405
 16252 0264 18000000 		.4byte	.LVL408
 16253 0268 0200     		.2byte	0x2
 16254 026a 30       		.byte	0x30
 16255 026b 9F       		.byte	0x9f
 16256 026c 00000000 		.4byte	0
 16257 0270 00000000 		.4byte	0
 16258              	.LLST48:
 16259 0274 0E000000 		.4byte	.LVL405
 16260 0278 26000000 		.4byte	.LVL409
 16261 027c 0300     		.2byte	0x3
 16262 027e 08       		.byte	0x8
 16263 027f 35       		.byte	0x35
 16264 0280 9F       		.byte	0x9f
 16265 0281 26000000 		.4byte	.LVL409
 16266 0285 3F000000 		.4byte	.LVL411-1
 16267 0289 0100     		.2byte	0x1
 16268 028b 52       		.byte	0x52
 16269 028c 40000000 		.4byte	.LVL411
 16270 0290 4C000000 		.4byte	.LVL412
 16271 0294 0300     		.2byte	0x3
 16272 0296 08       		.byte	0x8
 16273 0297 35       		.byte	0x35
 16274 0298 9F       		.byte	0x9f
 16275 0299 00000000 		.4byte	0
 16276 029d 00000000 		.4byte	0
 16277              	.LLST42:
 16278 02a1 00000000 		.4byte	.LVL398
 16279 02a5 12000000 		.4byte	.LVL400
 16280 02a9 0100     		.2byte	0x1
 16281 02ab 50       		.byte	0x50
 16282 02ac 12000000 		.4byte	.LVL400
 16283 02b0 40000000 		.4byte	.LFE268
 16284 02b4 0400     		.2byte	0x4
 16285 02b6 F3       		.byte	0xf3
 16286 02b7 01       		.uleb128 0x1
 16287 02b8 50       		.byte	0x50
 16288 02b9 9F       		.byte	0x9f
 16289 02ba 00000000 		.4byte	0
 16290 02be 00000000 		.4byte	0
 16291              	.LLST43:
 16292 02c2 0A000000 		.4byte	.LVL399
 16293 02c6 16000000 		.4byte	.LVL401
 16294 02ca 0200     		.2byte	0x2
 16295 02cc 30       		.byte	0x30
 16296 02cd 9F       		.byte	0x9f
 16297 02ce 00000000 		.4byte	0
 16298 02d2 00000000 		.4byte	0
 16299              	.LLST44:
 16300 02d6 0A000000 		.4byte	.LVL399
 16301 02da 16000000 		.4byte	.LVL401
ARM GAS  /tmp/cc5QaxCL.s 			page 287


 16302 02de 0200     		.2byte	0x2
 16303 02e0 31       		.byte	0x31
 16304 02e1 9F       		.byte	0x9f
 16305 02e2 00000000 		.4byte	0
 16306 02e6 00000000 		.4byte	0
 16307              	.LLST39:
 16308 02ea 00000000 		.4byte	.LVL392
 16309 02ee 12000000 		.4byte	.LVL394
 16310 02f2 0100     		.2byte	0x1
 16311 02f4 50       		.byte	0x50
 16312 02f5 12000000 		.4byte	.LVL394
 16313 02f9 40000000 		.4byte	.LFE267
 16314 02fd 0400     		.2byte	0x4
 16315 02ff F3       		.byte	0xf3
 16316 0300 01       		.uleb128 0x1
 16317 0301 50       		.byte	0x50
 16318 0302 9F       		.byte	0x9f
 16319 0303 00000000 		.4byte	0
 16320 0307 00000000 		.4byte	0
 16321              	.LLST40:
 16322 030b 0A000000 		.4byte	.LVL393
 16323 030f 16000000 		.4byte	.LVL395
 16324 0313 0200     		.2byte	0x2
 16325 0315 30       		.byte	0x30
 16326 0316 9F       		.byte	0x9f
 16327 0317 00000000 		.4byte	0
 16328 031b 00000000 		.4byte	0
 16329              	.LLST41:
 16330 031f 0A000000 		.4byte	.LVL393
 16331 0323 16000000 		.4byte	.LVL395
 16332 0327 0200     		.2byte	0x2
 16333 0329 31       		.byte	0x31
 16334 032a 9F       		.byte	0x9f
 16335 032b 00000000 		.4byte	0
 16336 032f 00000000 		.4byte	0
 16337              	.LLST23:
 16338 0333 00000000 		.4byte	.LVL251
 16339 0337 A6000000 		.4byte	.LVL259
 16340 033b 0100     		.2byte	0x1
 16341 033d 50       		.byte	0x50
 16342 033e A6000000 		.4byte	.LVL259
 16343 0342 C0000000 		.4byte	.LVL262
 16344 0346 0400     		.2byte	0x4
 16345 0348 F3       		.byte	0xf3
 16346 0349 01       		.uleb128 0x1
 16347 034a 50       		.byte	0x50
 16348 034b 9F       		.byte	0x9f
 16349 034c C0000000 		.4byte	.LVL262
 16350 0350 F8000000 		.4byte	.LVL271
 16351 0354 0100     		.2byte	0x1
 16352 0356 50       		.byte	0x50
 16353 0357 F8000000 		.4byte	.LVL271
 16354 035b C2030000 		.4byte	.LVL347
 16355 035f 0400     		.2byte	0x4
 16356 0361 F3       		.byte	0xf3
 16357 0362 01       		.uleb128 0x1
 16358 0363 50       		.byte	0x50
ARM GAS  /tmp/cc5QaxCL.s 			page 288


 16359 0364 9F       		.byte	0x9f
 16360 0365 C2030000 		.4byte	.LVL347
 16361 0369 5A040000 		.4byte	.LVL367
 16362 036d 0100     		.2byte	0x1
 16363 036f 50       		.byte	0x50
 16364 0370 5A040000 		.4byte	.LVL367
 16365 0374 5C040000 		.4byte	.LVL368
 16366 0378 0400     		.2byte	0x4
 16367 037a F3       		.byte	0xf3
 16368 037b 01       		.uleb128 0x1
 16369 037c 50       		.byte	0x50
 16370 037d 9F       		.byte	0x9f
 16371 037e 5C040000 		.4byte	.LVL368
 16372 0382 60040000 		.4byte	.LVL369
 16373 0386 0100     		.2byte	0x1
 16374 0388 50       		.byte	0x50
 16375 0389 60040000 		.4byte	.LVL369
 16376 038d 62040000 		.4byte	.LVL370
 16377 0391 0400     		.2byte	0x4
 16378 0393 F3       		.byte	0xf3
 16379 0394 01       		.uleb128 0x1
 16380 0395 50       		.byte	0x50
 16381 0396 9F       		.byte	0x9f
 16382 0397 62040000 		.4byte	.LVL370
 16383 039b 66040000 		.4byte	.LVL371
 16384 039f 0100     		.2byte	0x1
 16385 03a1 50       		.byte	0x50
 16386 03a2 66040000 		.4byte	.LVL371
 16387 03a6 68040000 		.4byte	.LVL372
 16388 03aa 0400     		.2byte	0x4
 16389 03ac F3       		.byte	0xf3
 16390 03ad 01       		.uleb128 0x1
 16391 03ae 50       		.byte	0x50
 16392 03af 9F       		.byte	0x9f
 16393 03b0 68040000 		.4byte	.LVL372
 16394 03b4 6C040000 		.4byte	.LVL373
 16395 03b8 0100     		.2byte	0x1
 16396 03ba 50       		.byte	0x50
 16397 03bb 6C040000 		.4byte	.LVL373
 16398 03bf 6E040000 		.4byte	.LVL374
 16399 03c3 0400     		.2byte	0x4
 16400 03c5 F3       		.byte	0xf3
 16401 03c6 01       		.uleb128 0x1
 16402 03c7 50       		.byte	0x50
 16403 03c8 9F       		.byte	0x9f
 16404 03c9 6E040000 		.4byte	.LVL374
 16405 03cd 72040000 		.4byte	.LVL375
 16406 03d1 0100     		.2byte	0x1
 16407 03d3 50       		.byte	0x50
 16408 03d4 72040000 		.4byte	.LVL375
 16409 03d8 74040000 		.4byte	.LVL376
 16410 03dc 0400     		.2byte	0x4
 16411 03de F3       		.byte	0xf3
 16412 03df 01       		.uleb128 0x1
 16413 03e0 50       		.byte	0x50
 16414 03e1 9F       		.byte	0x9f
 16415 03e2 74040000 		.4byte	.LVL376
ARM GAS  /tmp/cc5QaxCL.s 			page 289


 16416 03e6 78040000 		.4byte	.LVL377
 16417 03ea 0100     		.2byte	0x1
 16418 03ec 50       		.byte	0x50
 16419 03ed 78040000 		.4byte	.LVL377
 16420 03f1 7A040000 		.4byte	.LVL378
 16421 03f5 0400     		.2byte	0x4
 16422 03f7 F3       		.byte	0xf3
 16423 03f8 01       		.uleb128 0x1
 16424 03f9 50       		.byte	0x50
 16425 03fa 9F       		.byte	0x9f
 16426 03fb 7A040000 		.4byte	.LVL378
 16427 03ff 7E040000 		.4byte	.LVL379
 16428 0403 0100     		.2byte	0x1
 16429 0405 50       		.byte	0x50
 16430 0406 7E040000 		.4byte	.LVL379
 16431 040a E4040000 		.4byte	.LFE266
 16432 040e 0400     		.2byte	0x4
 16433 0410 F3       		.byte	0xf3
 16434 0411 01       		.uleb128 0x1
 16435 0412 50       		.byte	0x50
 16436 0413 9F       		.byte	0x9f
 16437 0414 00000000 		.4byte	0
 16438 0418 00000000 		.4byte	0
 16439              	.LLST24:
 16440 041c 00000000 		.4byte	.LVL251
 16441 0420 18000000 		.4byte	.LVL253
 16442 0424 0100     		.2byte	0x1
 16443 0426 51       		.byte	0x51
 16444 0427 18000000 		.4byte	.LVL253
 16445 042b AE000000 		.4byte	.LVL261
 16446 042f 0100     		.2byte	0x1
 16447 0431 56       		.byte	0x56
 16448 0432 C0000000 		.4byte	.LVL262
 16449 0436 CA000000 		.4byte	.LVL263
 16450 043a 0100     		.2byte	0x1
 16451 043c 56       		.byte	0x56
 16452 043d CA000000 		.4byte	.LVL263
 16453 0441 D0000000 		.4byte	.LVL264
 16454 0445 0300     		.2byte	0x3
 16455 0447 74       		.byte	0x74
 16456 0448 01       		.sleb128 1
 16457 0449 9F       		.byte	0x9f
 16458 044a D0000000 		.4byte	.LVL264
 16459 044e B2030000 		.4byte	.LVL345
 16460 0452 0100     		.2byte	0x1
 16461 0454 56       		.byte	0x56
 16462 0455 C2030000 		.4byte	.LVL347
 16463 0459 E4030000 		.4byte	.LVL352
 16464 045d 0100     		.2byte	0x1
 16465 045f 56       		.byte	0x56
 16466 0460 E4030000 		.4byte	.LVL352
 16467 0464 EA030000 		.4byte	.LVL353
 16468 0468 0300     		.2byte	0x3
 16469 046a 74       		.byte	0x74
 16470 046b 01       		.sleb128 1
 16471 046c 9F       		.byte	0x9f
 16472 046d EA030000 		.4byte	.LVL353
ARM GAS  /tmp/cc5QaxCL.s 			page 290


 16473 0471 80040000 		.4byte	.LVL380
 16474 0475 0100     		.2byte	0x1
 16475 0477 56       		.byte	0x56
 16476 0478 84040000 		.4byte	.LVL381
 16477 047c E4040000 		.4byte	.LFE266
 16478 0480 0100     		.2byte	0x1
 16479 0482 56       		.byte	0x56
 16480 0483 00000000 		.4byte	0
 16481 0487 00000000 		.4byte	0
 16482              	.LLST25:
 16483 048b 00000000 		.4byte	.LVL251
 16484 048f 1A000000 		.4byte	.LVL254
 16485 0493 0100     		.2byte	0x1
 16486 0495 52       		.byte	0x52
 16487 0496 1A000000 		.4byte	.LVL254
 16488 049a AE000000 		.4byte	.LVL261
 16489 049e 0100     		.2byte	0x1
 16490 04a0 57       		.byte	0x57
 16491 04a1 C0000000 		.4byte	.LVL262
 16492 04a5 FA000000 		.4byte	.LVL272
 16493 04a9 0100     		.2byte	0x1
 16494 04ab 57       		.byte	0x57
 16495 04ac FA000000 		.4byte	.LVL272
 16496 04b0 00010000 		.4byte	.LVL273
 16497 04b4 0300     		.2byte	0x3
 16498 04b6 75       		.byte	0x75
 16499 04b7 01       		.sleb128 1
 16500 04b8 9F       		.byte	0x9f
 16501 04b9 00010000 		.4byte	.LVL273
 16502 04bd B4030000 		.4byte	.LVL346
 16503 04c1 0100     		.2byte	0x1
 16504 04c3 57       		.byte	0x57
 16505 04c4 C2030000 		.4byte	.LVL347
 16506 04c8 36040000 		.4byte	.LVL362
 16507 04cc 0100     		.2byte	0x1
 16508 04ce 57       		.byte	0x57
 16509 04cf 36040000 		.4byte	.LVL362
 16510 04d3 3C040000 		.4byte	.LVL363
 16511 04d7 0300     		.2byte	0x3
 16512 04d9 75       		.byte	0x75
 16513 04da 01       		.sleb128 1
 16514 04db 9F       		.byte	0x9f
 16515 04dc 3C040000 		.4byte	.LVL363
 16516 04e0 80040000 		.4byte	.LVL380
 16517 04e4 0100     		.2byte	0x1
 16518 04e6 57       		.byte	0x57
 16519 04e7 84040000 		.4byte	.LVL381
 16520 04eb E4040000 		.4byte	.LFE266
 16521 04ef 0100     		.2byte	0x1
 16522 04f1 57       		.byte	0x57
 16523 04f2 00000000 		.4byte	0
 16524 04f6 00000000 		.4byte	0
 16525              	.LLST26:
 16526 04fa 00000000 		.4byte	.LVL251
 16527 04fe 88000000 		.4byte	.LVL257
 16528 0502 0100     		.2byte	0x1
 16529 0504 53       		.byte	0x53
ARM GAS  /tmp/cc5QaxCL.s 			page 291


 16530 0505 88000000 		.4byte	.LVL257
 16531 0509 C0000000 		.4byte	.LVL262
 16532 050d 0400     		.2byte	0x4
 16533 050f F3       		.byte	0xf3
 16534 0510 01       		.uleb128 0x1
 16535 0511 53       		.byte	0x53
 16536 0512 9F       		.byte	0x9f
 16537 0513 C0000000 		.4byte	.LVL262
 16538 0517 E4000000 		.4byte	.LVL267
 16539 051b 0100     		.2byte	0x1
 16540 051d 53       		.byte	0x53
 16541 051e E4000000 		.4byte	.LVL267
 16542 0522 C2030000 		.4byte	.LVL347
 16543 0526 0400     		.2byte	0x4
 16544 0528 F3       		.byte	0xf3
 16545 0529 01       		.uleb128 0x1
 16546 052a 53       		.byte	0x53
 16547 052b 9F       		.byte	0x9f
 16548 052c C2030000 		.4byte	.LVL347
 16549 0530 CC030000 		.4byte	.LVL348
 16550 0534 0100     		.2byte	0x1
 16551 0536 53       		.byte	0x53
 16552 0537 CC030000 		.4byte	.LVL348
 16553 053b DC030000 		.4byte	.LVL351
 16554 053f 0400     		.2byte	0x4
 16555 0541 F3       		.byte	0xf3
 16556 0542 01       		.uleb128 0x1
 16557 0543 53       		.byte	0x53
 16558 0544 9F       		.byte	0x9f
 16559 0545 DC030000 		.4byte	.LVL351
 16560 0549 FA030000 		.4byte	.LVL355
 16561 054d 0100     		.2byte	0x1
 16562 054f 53       		.byte	0x53
 16563 0550 FA030000 		.4byte	.LVL355
 16564 0554 56040000 		.4byte	.LVL366
 16565 0558 0400     		.2byte	0x4
 16566 055a F3       		.byte	0xf3
 16567 055b 01       		.uleb128 0x1
 16568 055c 53       		.byte	0x53
 16569 055d 9F       		.byte	0x9f
 16570 055e 56040000 		.4byte	.LVL366
 16571 0562 7A040000 		.4byte	.LVL378
 16572 0566 0100     		.2byte	0x1
 16573 0568 53       		.byte	0x53
 16574 0569 7A040000 		.4byte	.LVL378
 16575 056d E4040000 		.4byte	.LFE266
 16576 0571 0400     		.2byte	0x4
 16577 0573 F3       		.byte	0xf3
 16578 0574 01       		.uleb128 0x1
 16579 0575 53       		.byte	0x53
 16580 0576 9F       		.byte	0x9f
 16581 0577 00000000 		.4byte	0
 16582 057b 00000000 		.4byte	0
 16583              	.LLST27:
 16584 057f 00000000 		.4byte	.LVL251
 16585 0583 C0000000 		.4byte	.LVL262
 16586 0587 0200     		.2byte	0x2
ARM GAS  /tmp/cc5QaxCL.s 			page 292


 16587 0589 91       		.byte	0x91
 16588 058a 00       		.sleb128 0
 16589 058b C0000000 		.4byte	.LVL262
 16590 058f E4040000 		.4byte	.LFE266
 16591 0593 0200     		.2byte	0x2
 16592 0595 91       		.byte	0x91
 16593 0596 00       		.sleb128 0
 16594 0597 00000000 		.4byte	0
 16595 059b 00000000 		.4byte	0
 16596              	.LLST28:
 16597 059f 00000000 		.4byte	.LVL251
 16598 05a3 C0000000 		.4byte	.LVL262
 16599 05a7 0200     		.2byte	0x2
 16600 05a9 91       		.byte	0x91
 16601 05aa 04       		.sleb128 4
 16602 05ab C0000000 		.4byte	.LVL262
 16603 05af E4040000 		.4byte	.LFE266
 16604 05b3 0200     		.2byte	0x2
 16605 05b5 91       		.byte	0x91
 16606 05b6 04       		.sleb128 4
 16607 05b7 00000000 		.4byte	0
 16608 05bb 00000000 		.4byte	0
 16609              	.LLST29:
 16610 05bf 00000000 		.4byte	.LVL251
 16611 05c3 C0000000 		.4byte	.LVL262
 16612 05c7 0200     		.2byte	0x2
 16613 05c9 91       		.byte	0x91
 16614 05ca 08       		.sleb128 8
 16615 05cb C0000000 		.4byte	.LVL262
 16616 05cf E4040000 		.4byte	.LFE266
 16617 05d3 0200     		.2byte	0x2
 16618 05d5 91       		.byte	0x91
 16619 05d6 08       		.sleb128 8
 16620 05d7 00000000 		.4byte	0
 16621 05db 00000000 		.4byte	0
 16622              	.LLST30:
 16623 05df 14000000 		.4byte	.LVL252
 16624 05e3 AA000000 		.4byte	.LVL260
 16625 05e7 0200     		.2byte	0x2
 16626 05e9 30       		.byte	0x30
 16627 05ea 9F       		.byte	0x9f
 16628 05eb AA000000 		.4byte	.LVL260
 16629 05ef AE000000 		.4byte	.LVL261
 16630 05f3 0100     		.2byte	0x1
 16631 05f5 50       		.byte	0x50
 16632 05f6 C0000000 		.4byte	.LVL262
 16633 05fa 1C010000 		.4byte	.LVL276
 16634 05fe 0200     		.2byte	0x2
 16635 0600 30       		.byte	0x30
 16636 0601 9F       		.byte	0x9f
 16637 0602 1C010000 		.4byte	.LVL276
 16638 0606 26010000 		.4byte	.LVL278
 16639 060a 0100     		.2byte	0x1
 16640 060c 50       		.byte	0x50
 16641 060d 3E010000 		.4byte	.LVL280
 16642 0611 4A010000 		.4byte	.LVL281
 16643 0615 0100     		.2byte	0x1
ARM GAS  /tmp/cc5QaxCL.s 			page 293


 16644 0617 50       		.byte	0x50
 16645 0618 50010000 		.4byte	.LVL282
 16646 061c 5E010000 		.4byte	.LVL283
 16647 0620 0100     		.2byte	0x1
 16648 0622 50       		.byte	0x50
 16649 0623 64010000 		.4byte	.LVL284
 16650 0627 70010000 		.4byte	.LVL285
 16651 062b 0100     		.2byte	0x1
 16652 062d 50       		.byte	0x50
 16653 062e 76010000 		.4byte	.LVL286
 16654 0632 82010000 		.4byte	.LVL287
 16655 0636 0100     		.2byte	0x1
 16656 0638 50       		.byte	0x50
 16657 0639 86010000 		.4byte	.LVL288
 16658 063d 92010000 		.4byte	.LVL289
 16659 0641 0100     		.2byte	0x1
 16660 0643 50       		.byte	0x50
 16661 0644 98010000 		.4byte	.LVL290
 16662 0648 A4010000 		.4byte	.LVL291
 16663 064c 0100     		.2byte	0x1
 16664 064e 50       		.byte	0x50
 16665 064f A8010000 		.4byte	.LVL292
 16666 0653 B4010000 		.4byte	.LVL293
 16667 0657 0100     		.2byte	0x1
 16668 0659 50       		.byte	0x50
 16669 065a BA010000 		.4byte	.LVL294
 16670 065e C6010000 		.4byte	.LVL295
 16671 0662 0100     		.2byte	0x1
 16672 0664 50       		.byte	0x50
 16673 0665 CA010000 		.4byte	.LVL296
 16674 0669 D6010000 		.4byte	.LVL297
 16675 066d 0100     		.2byte	0x1
 16676 066f 50       		.byte	0x50
 16677 0670 DA010000 		.4byte	.LVL298
 16678 0674 E6010000 		.4byte	.LVL299
 16679 0678 0100     		.2byte	0x1
 16680 067a 50       		.byte	0x50
 16681 067b EA010000 		.4byte	.LVL300
 16682 067f F6010000 		.4byte	.LVL301
 16683 0683 0100     		.2byte	0x1
 16684 0685 50       		.byte	0x50
 16685 0686 FA010000 		.4byte	.LVL302
 16686 068a 06020000 		.4byte	.LVL303
 16687 068e 0100     		.2byte	0x1
 16688 0690 50       		.byte	0x50
 16689 0691 0A020000 		.4byte	.LVL304
 16690 0695 16020000 		.4byte	.LVL305
 16691 0699 0100     		.2byte	0x1
 16692 069b 50       		.byte	0x50
 16693 069c 1A020000 		.4byte	.LVL306
 16694 06a0 46020000 		.4byte	.LVL307
 16695 06a4 0100     		.2byte	0x1
 16696 06a6 50       		.byte	0x50
 16697 06a7 4A020000 		.4byte	.LVL308
 16698 06ab 56020000 		.4byte	.LVL310
 16699 06af 0100     		.2byte	0x1
 16700 06b1 50       		.byte	0x50
ARM GAS  /tmp/cc5QaxCL.s 			page 294


 16701 06b2 6A020000 		.4byte	.LVL312
 16702 06b6 76020000 		.4byte	.LVL313
 16703 06ba 0100     		.2byte	0x1
 16704 06bc 50       		.byte	0x50
 16705 06bd 7A020000 		.4byte	.LVL314
 16706 06c1 86020000 		.4byte	.LVL315
 16707 06c5 0100     		.2byte	0x1
 16708 06c7 50       		.byte	0x50
 16709 06c8 8A020000 		.4byte	.LVL316
 16710 06cc 96020000 		.4byte	.LVL317
 16711 06d0 0100     		.2byte	0x1
 16712 06d2 50       		.byte	0x50
 16713 06d3 9A020000 		.4byte	.LVL318
 16714 06d7 AA020000 		.4byte	.LVL319
 16715 06db 0100     		.2byte	0x1
 16716 06dd 50       		.byte	0x50
 16717 06de AE020000 		.4byte	.LVL320
 16718 06e2 C0020000 		.4byte	.LVL321
 16719 06e6 0100     		.2byte	0x1
 16720 06e8 50       		.byte	0x50
 16721 06e9 C4020000 		.4byte	.LVL322
 16722 06ed D4020000 		.4byte	.LVL323
 16723 06f1 0100     		.2byte	0x1
 16724 06f3 50       		.byte	0x50
 16725 06f4 D8020000 		.4byte	.LVL324
 16726 06f8 EA020000 		.4byte	.LVL325
 16727 06fc 0100     		.2byte	0x1
 16728 06fe 50       		.byte	0x50
 16729 06ff EE020000 		.4byte	.LVL326
 16730 0703 FE020000 		.4byte	.LVL327
 16731 0707 0100     		.2byte	0x1
 16732 0709 50       		.byte	0x50
 16733 070a 02030000 		.4byte	.LVL328
 16734 070e 14030000 		.4byte	.LVL329
 16735 0712 0100     		.2byte	0x1
 16736 0714 50       		.byte	0x50
 16737 0715 18030000 		.4byte	.LVL330
 16738 0719 28030000 		.4byte	.LVL331
 16739 071d 0100     		.2byte	0x1
 16740 071f 50       		.byte	0x50
 16741 0720 2C030000 		.4byte	.LVL332
 16742 0724 3E030000 		.4byte	.LVL333
 16743 0728 0100     		.2byte	0x1
 16744 072a 50       		.byte	0x50
 16745 072b 42030000 		.4byte	.LVL334
 16746 072f 56030000 		.4byte	.LVL335
 16747 0733 0100     		.2byte	0x1
 16748 0735 50       		.byte	0x50
 16749 0736 5A030000 		.4byte	.LVL336
 16750 073a 6C030000 		.4byte	.LVL337
 16751 073e 0100     		.2byte	0x1
 16752 0740 50       		.byte	0x50
 16753 0741 70030000 		.4byte	.LVL338
 16754 0745 84030000 		.4byte	.LVL339
 16755 0749 0100     		.2byte	0x1
 16756 074b 50       		.byte	0x50
 16757 074c 88030000 		.4byte	.LVL340
ARM GAS  /tmp/cc5QaxCL.s 			page 295


 16758 0750 9A030000 		.4byte	.LVL341
 16759 0754 0100     		.2byte	0x1
 16760 0756 50       		.byte	0x50
 16761 0757 9E030000 		.4byte	.LVL342
 16762 075b C2030000 		.4byte	.LVL347
 16763 075f 0100     		.2byte	0x1
 16764 0761 50       		.byte	0x50
 16765 0762 C2030000 		.4byte	.LVL347
 16766 0766 80040000 		.4byte	.LVL380
 16767 076a 0200     		.2byte	0x2
 16768 076c 30       		.byte	0x30
 16769 076d 9F       		.byte	0x9f
 16770 076e 84040000 		.4byte	.LVL381
 16771 0772 8A040000 		.4byte	.LVL382
 16772 0776 0100     		.2byte	0x1
 16773 0778 50       		.byte	0x50
 16774 0779 8E040000 		.4byte	.LVL383
 16775 077d 9C040000 		.4byte	.LVL384
 16776 0781 0100     		.2byte	0x1
 16777 0783 50       		.byte	0x50
 16778 0784 A0040000 		.4byte	.LVL385
 16779 0788 C2040000 		.4byte	.LVL386
 16780 078c 0100     		.2byte	0x1
 16781 078e 50       		.byte	0x50
 16782 078f C6040000 		.4byte	.LVL387
 16783 0793 D4040000 		.4byte	.LVL388
 16784 0797 0100     		.2byte	0x1
 16785 0799 50       		.byte	0x50
 16786 079a D8040000 		.4byte	.LVL389
 16787 079e E4040000 		.4byte	.LFE266
 16788 07a2 0100     		.2byte	0x1
 16789 07a4 50       		.byte	0x50
 16790 07a5 00000000 		.4byte	0
 16791 07a9 00000000 		.4byte	0
 16792              	.LLST31:
 16793 07ad 2C000000 		.4byte	.LVL255
 16794 07b1 AE000000 		.4byte	.LVL261
 16795 07b5 0100     		.2byte	0x1
 16796 07b7 54       		.byte	0x54
 16797 07b8 C0000000 		.4byte	.LVL262
 16798 07bc CA000000 		.4byte	.LVL263
 16799 07c0 0100     		.2byte	0x1
 16800 07c2 54       		.byte	0x54
 16801 07c3 CA000000 		.4byte	.LVL263
 16802 07c7 D0000000 		.4byte	.LVL264
 16803 07cb 0800     		.2byte	0x8
 16804 07cd 73       		.byte	0x73
 16805 07ce 00       		.sleb128 0
 16806 07cf 76       		.byte	0x76
 16807 07d0 00       		.sleb128 0
 16808 07d1 22       		.byte	0x22
 16809 07d2 31       		.byte	0x31
 16810 07d3 1C       		.byte	0x1c
 16811 07d4 9F       		.byte	0x9f
 16812 07d5 D0000000 		.4byte	.LVL264
 16813 07d9 D4000000 		.4byte	.LVL265
 16814 07dd 0800     		.2byte	0x8
ARM GAS  /tmp/cc5QaxCL.s 			page 296


 16815 07df 71       		.byte	0x71
 16816 07e0 00       		.sleb128 0
 16817 07e1 73       		.byte	0x73
 16818 07e2 00       		.sleb128 0
 16819 07e3 22       		.byte	0x22
 16820 07e4 23       		.byte	0x23
 16821 07e5 07       		.uleb128 0x7
 16822 07e6 9F       		.byte	0x9f
 16823 07e7 D4000000 		.4byte	.LVL265
 16824 07eb DC000000 		.4byte	.LVL266
 16825 07ef 0900     		.2byte	0x9
 16826 07f1 73       		.byte	0x73
 16827 07f2 00       		.sleb128 0
 16828 07f3 F3       		.byte	0xf3
 16829 07f4 01       		.uleb128 0x1
 16830 07f5 51       		.byte	0x51
 16831 07f6 22       		.byte	0x22
 16832 07f7 23       		.byte	0x23
 16833 07f8 07       		.uleb128 0x7
 16834 07f9 9F       		.byte	0x9f
 16835 07fa DC000000 		.4byte	.LVL266
 16836 07fe AE030000 		.4byte	.LVL343
 16837 0802 0100     		.2byte	0x1
 16838 0804 54       		.byte	0x54
 16839 0805 AE030000 		.4byte	.LVL343
 16840 0809 C2030000 		.4byte	.LVL347
 16841 080d 0300     		.2byte	0x3
 16842 080f 74       		.byte	0x74
 16843 0810 7F       		.sleb128 -1
 16844 0811 9F       		.byte	0x9f
 16845 0812 C2030000 		.4byte	.LVL347
 16846 0816 E4030000 		.4byte	.LVL352
 16847 081a 0100     		.2byte	0x1
 16848 081c 54       		.byte	0x54
 16849 081d E4030000 		.4byte	.LVL352
 16850 0821 EA030000 		.4byte	.LVL353
 16851 0825 0800     		.2byte	0x8
 16852 0827 73       		.byte	0x73
 16853 0828 00       		.sleb128 0
 16854 0829 76       		.byte	0x76
 16855 082a 00       		.sleb128 0
 16856 082b 22       		.byte	0x22
 16857 082c 31       		.byte	0x31
 16858 082d 1C       		.byte	0x1c
 16859 082e 9F       		.byte	0x9f
 16860 082f EA030000 		.4byte	.LVL353
 16861 0833 F6030000 		.4byte	.LVL354
 16862 0837 0900     		.2byte	0x9
 16863 0839 73       		.byte	0x73
 16864 083a 00       		.sleb128 0
 16865 083b F3       		.byte	0xf3
 16866 083c 01       		.uleb128 0x1
 16867 083d 51       		.byte	0x51
 16868 083e 22       		.byte	0x22
 16869 083f 23       		.byte	0x23
 16870 0840 07       		.uleb128 0x7
 16871 0841 9F       		.byte	0x9f
ARM GAS  /tmp/cc5QaxCL.s 			page 297


 16872 0842 F6030000 		.4byte	.LVL354
 16873 0846 80040000 		.4byte	.LVL380
 16874 084a 0100     		.2byte	0x1
 16875 084c 54       		.byte	0x54
 16876 084d 84040000 		.4byte	.LVL381
 16877 0851 E4040000 		.4byte	.LFE266
 16878 0855 0100     		.2byte	0x1
 16879 0857 54       		.byte	0x54
 16880 0858 00000000 		.4byte	0
 16881 085c 00000000 		.4byte	0
 16882              	.LLST32:
 16883 0860 2E000000 		.4byte	.LVL256
 16884 0864 AE000000 		.4byte	.LVL261
 16885 0868 0100     		.2byte	0x1
 16886 086a 55       		.byte	0x55
 16887 086b C0000000 		.4byte	.LVL262
 16888 086f FA000000 		.4byte	.LVL272
 16889 0873 0100     		.2byte	0x1
 16890 0875 55       		.byte	0x55
 16891 0876 FA000000 		.4byte	.LVL272
 16892 087a 00010000 		.4byte	.LVL273
 16893 087e 0800     		.2byte	0x8
 16894 0880 77       		.byte	0x77
 16895 0881 00       		.sleb128 0
 16896 0882 7C       		.byte	0x7c
 16897 0883 00       		.sleb128 0
 16898 0884 22       		.byte	0x22
 16899 0885 31       		.byte	0x31
 16900 0886 1C       		.byte	0x1c
 16901 0887 9F       		.byte	0x9f
 16902 0888 00010000 		.4byte	.LVL273
 16903 088c 16010000 		.4byte	.LVL274
 16904 0890 0900     		.2byte	0x9
 16905 0892 7C       		.byte	0x7c
 16906 0893 00       		.sleb128 0
 16907 0894 F3       		.byte	0xf3
 16908 0895 01       		.uleb128 0x1
 16909 0896 52       		.byte	0x52
 16910 0897 22       		.byte	0x22
 16911 0898 23       		.byte	0x23
 16912 0899 03       		.uleb128 0x3
 16913 089a 9F       		.byte	0x9f
 16914 089b 16010000 		.4byte	.LVL274
 16915 089f B0030000 		.4byte	.LVL344
 16916 08a3 0100     		.2byte	0x1
 16917 08a5 55       		.byte	0x55
 16918 08a6 B0030000 		.4byte	.LVL344
 16919 08aa C2030000 		.4byte	.LVL347
 16920 08ae 0300     		.2byte	0x3
 16921 08b0 75       		.byte	0x75
 16922 08b1 7F       		.sleb128 -1
 16923 08b2 9F       		.byte	0x9f
 16924 08b3 C2030000 		.4byte	.LVL347
 16925 08b7 36040000 		.4byte	.LVL362
 16926 08bb 0100     		.2byte	0x1
 16927 08bd 55       		.byte	0x55
 16928 08be 36040000 		.4byte	.LVL362
ARM GAS  /tmp/cc5QaxCL.s 			page 298


 16929 08c2 3C040000 		.4byte	.LVL363
 16930 08c6 0800     		.2byte	0x8
 16931 08c8 77       		.byte	0x77
 16932 08c9 00       		.sleb128 0
 16933 08ca 7C       		.byte	0x7c
 16934 08cb 00       		.sleb128 0
 16935 08cc 22       		.byte	0x22
 16936 08cd 31       		.byte	0x31
 16937 08ce 1C       		.byte	0x1c
 16938 08cf 9F       		.byte	0x9f
 16939 08d0 3C040000 		.4byte	.LVL363
 16940 08d4 52040000 		.4byte	.LVL364
 16941 08d8 0900     		.2byte	0x9
 16942 08da 7C       		.byte	0x7c
 16943 08db 00       		.sleb128 0
 16944 08dc F3       		.byte	0xf3
 16945 08dd 01       		.uleb128 0x1
 16946 08de 52       		.byte	0x52
 16947 08df 22       		.byte	0x22
 16948 08e0 23       		.byte	0x23
 16949 08e1 03       		.uleb128 0x3
 16950 08e2 9F       		.byte	0x9f
 16951 08e3 52040000 		.4byte	.LVL364
 16952 08e7 80040000 		.4byte	.LVL380
 16953 08eb 0100     		.2byte	0x1
 16954 08ed 55       		.byte	0x55
 16955 08ee 84040000 		.4byte	.LVL381
 16956 08f2 E4040000 		.4byte	.LFE266
 16957 08f6 0100     		.2byte	0x1
 16958 08f8 55       		.byte	0x55
 16959 08f9 00000000 		.4byte	0
 16960 08fd 00000000 		.4byte	0
 16961              	.LLST33:
 16962 0901 2E000000 		.4byte	.LVL256
 16963 0905 88000000 		.4byte	.LVL257
 16964 0909 0200     		.2byte	0x2
 16965 090b 30       		.byte	0x30
 16966 090c 9F       		.byte	0x9f
 16967 090d 88000000 		.4byte	.LVL257
 16968 0911 AE000000 		.4byte	.LVL261
 16969 0915 0300     		.2byte	0x3
 16970 0917 91       		.byte	0x91
 16971 0918 AC7F     		.sleb128 -84
 16972 091a C0000000 		.4byte	.LVL262
 16973 091e E6000000 		.4byte	.LVL268
 16974 0922 0200     		.2byte	0x2
 16975 0924 30       		.byte	0x30
 16976 0925 9F       		.byte	0x9f
 16977 0926 E6000000 		.4byte	.LVL268
 16978 092a EC000000 		.4byte	.LVL270
 16979 092e 0100     		.2byte	0x1
 16980 0930 53       		.byte	0x53
 16981 0931 EC000000 		.4byte	.LVL270
 16982 0935 C2030000 		.4byte	.LVL347
 16983 0939 0300     		.2byte	0x3
 16984 093b 91       		.byte	0x91
 16985 093c AC7F     		.sleb128 -84
ARM GAS  /tmp/cc5QaxCL.s 			page 299


 16986 093e C2030000 		.4byte	.LVL347
 16987 0942 D6030000 		.4byte	.LVL349
 16988 0946 0200     		.2byte	0x2
 16989 0948 30       		.byte	0x30
 16990 0949 9F       		.byte	0x9f
 16991 094a D6030000 		.4byte	.LVL349
 16992 094e DC030000 		.4byte	.LVL351
 16993 0952 0100     		.2byte	0x1
 16994 0954 53       		.byte	0x53
 16995 0955 DC030000 		.4byte	.LVL351
 16996 0959 FC030000 		.4byte	.LVL356
 16997 095d 0200     		.2byte	0x2
 16998 095f 30       		.byte	0x30
 16999 0960 9F       		.byte	0x9f
 17000 0961 FC030000 		.4byte	.LVL356
 17001 0965 10040000 		.4byte	.LVL358
 17002 0969 0100     		.2byte	0x1
 17003 096b 53       		.byte	0x53
 17004 096c 10040000 		.4byte	.LVL358
 17005 0970 56040000 		.4byte	.LVL366
 17006 0974 0300     		.2byte	0x3
 17007 0976 91       		.byte	0x91
 17008 0977 AC7F     		.sleb128 -84
 17009 0979 56040000 		.4byte	.LVL366
 17010 097d 7A040000 		.4byte	.LVL378
 17011 0981 0200     		.2byte	0x2
 17012 0983 30       		.byte	0x30
 17013 0984 9F       		.byte	0x9f
 17014 0985 7A040000 		.4byte	.LVL378
 17015 0989 80040000 		.4byte	.LVL380
 17016 098d 0300     		.2byte	0x3
 17017 098f 91       		.byte	0x91
 17018 0990 AC7F     		.sleb128 -84
 17019 0992 84040000 		.4byte	.LVL381
 17020 0996 E4040000 		.4byte	.LFE266
 17021 099a 0300     		.2byte	0x3
 17022 099c 91       		.byte	0x91
 17023 099d AC7F     		.sleb128 -84
 17024 099f 00000000 		.4byte	0
 17025 09a3 00000000 		.4byte	0
 17026              	.LLST34:
 17027 09a7 2E000000 		.4byte	.LVL256
 17028 09ab 88000000 		.4byte	.LVL257
 17029 09af 0200     		.2byte	0x2
 17030 09b1 30       		.byte	0x30
 17031 09b2 9F       		.byte	0x9f
 17032 09b3 88000000 		.4byte	.LVL257
 17033 09b7 AE000000 		.4byte	.LVL261
 17034 09bb 0100     		.2byte	0x1
 17035 09bd 58       		.byte	0x58
 17036 09be C0000000 		.4byte	.LVL262
 17037 09c2 EA000000 		.4byte	.LVL269
 17038 09c6 0200     		.2byte	0x2
 17039 09c8 30       		.byte	0x30
 17040 09c9 9F       		.byte	0x9f
 17041 09ca EA000000 		.4byte	.LVL269
 17042 09ce C2030000 		.4byte	.LVL347
ARM GAS  /tmp/cc5QaxCL.s 			page 300


 17043 09d2 0100     		.2byte	0x1
 17044 09d4 58       		.byte	0x58
 17045 09d5 C2030000 		.4byte	.LVL347
 17046 09d9 DA030000 		.4byte	.LVL350
 17047 09dd 0200     		.2byte	0x2
 17048 09df 30       		.byte	0x30
 17049 09e0 9F       		.byte	0x9f
 17050 09e1 DA030000 		.4byte	.LVL350
 17051 09e5 DC030000 		.4byte	.LVL351
 17052 09e9 0100     		.2byte	0x1
 17053 09eb 58       		.byte	0x58
 17054 09ec DC030000 		.4byte	.LVL351
 17055 09f0 00040000 		.4byte	.LVL357
 17056 09f4 0200     		.2byte	0x2
 17057 09f6 30       		.byte	0x30
 17058 09f7 9F       		.byte	0x9f
 17059 09f8 00040000 		.4byte	.LVL357
 17060 09fc 56040000 		.4byte	.LVL366
 17061 0a00 0100     		.2byte	0x1
 17062 0a02 58       		.byte	0x58
 17063 0a03 56040000 		.4byte	.LVL366
 17064 0a07 7A040000 		.4byte	.LVL378
 17065 0a0b 0200     		.2byte	0x2
 17066 0a0d 30       		.byte	0x30
 17067 0a0e 9F       		.byte	0x9f
 17068 0a0f 7A040000 		.4byte	.LVL378
 17069 0a13 80040000 		.4byte	.LVL380
 17070 0a17 0100     		.2byte	0x1
 17071 0a19 58       		.byte	0x58
 17072 0a1a 84040000 		.4byte	.LVL381
 17073 0a1e E4040000 		.4byte	.LFE266
 17074 0a22 0100     		.2byte	0x1
 17075 0a24 58       		.byte	0x58
 17076 0a25 00000000 		.4byte	0
 17077 0a29 00000000 		.4byte	0
 17078              	.LLST35:
 17079 0a2d 2E000000 		.4byte	.LVL256
 17080 0a31 A4000000 		.4byte	.LVL258
 17081 0a35 0200     		.2byte	0x2
 17082 0a37 30       		.byte	0x30
 17083 0a38 9F       		.byte	0x9f
 17084 0a39 A4000000 		.4byte	.LVL258
 17085 0a3d AE000000 		.4byte	.LVL261
 17086 0a41 0300     		.2byte	0x3
 17087 0a43 91       		.byte	0x91
 17088 0a44 B07F     		.sleb128 -80
 17089 0a46 C0000000 		.4byte	.LVL262
 17090 0a4a 16010000 		.4byte	.LVL274
 17091 0a4e 0200     		.2byte	0x2
 17092 0a50 30       		.byte	0x30
 17093 0a51 9F       		.byte	0x9f
 17094 0a52 16010000 		.4byte	.LVL274
 17095 0a56 C2030000 		.4byte	.LVL347
 17096 0a5a 0300     		.2byte	0x3
 17097 0a5c 91       		.byte	0x91
 17098 0a5d B07F     		.sleb128 -80
 17099 0a5f C2030000 		.4byte	.LVL347
ARM GAS  /tmp/cc5QaxCL.s 			page 301


 17100 0a63 28040000 		.4byte	.LVL359
 17101 0a67 0200     		.2byte	0x2
 17102 0a69 30       		.byte	0x30
 17103 0a6a 9F       		.byte	0x9f
 17104 0a6b 28040000 		.4byte	.LVL359
 17105 0a6f 2C040000 		.4byte	.LVL361
 17106 0a73 0100     		.2byte	0x1
 17107 0a75 52       		.byte	0x52
 17108 0a76 2C040000 		.4byte	.LVL361
 17109 0a7a 52040000 		.4byte	.LVL364
 17110 0a7e 0200     		.2byte	0x2
 17111 0a80 30       		.byte	0x30
 17112 0a81 9F       		.byte	0x9f
 17113 0a82 52040000 		.4byte	.LVL364
 17114 0a86 56040000 		.4byte	.LVL366
 17115 0a8a 0300     		.2byte	0x3
 17116 0a8c 91       		.byte	0x91
 17117 0a8d B07F     		.sleb128 -80
 17118 0a8f 56040000 		.4byte	.LVL366
 17119 0a93 80040000 		.4byte	.LVL380
 17120 0a97 0200     		.2byte	0x2
 17121 0a99 30       		.byte	0x30
 17122 0a9a 9F       		.byte	0x9f
 17123 0a9b 84040000 		.4byte	.LVL381
 17124 0a9f E4040000 		.4byte	.LFE266
 17125 0aa3 0300     		.2byte	0x3
 17126 0aa5 91       		.byte	0x91
 17127 0aa6 B07F     		.sleb128 -80
 17128 0aa8 00000000 		.4byte	0
 17129 0aac 00000000 		.4byte	0
 17130              	.LLST36:
 17131 0ab0 2E000000 		.4byte	.LVL256
 17132 0ab4 A4000000 		.4byte	.LVL258
 17133 0ab8 0200     		.2byte	0x2
 17134 0aba 30       		.byte	0x30
 17135 0abb 9F       		.byte	0x9f
 17136 0abc A4000000 		.4byte	.LVL258
 17137 0ac0 AE000000 		.4byte	.LVL261
 17138 0ac4 0300     		.2byte	0x3
 17139 0ac6 91       		.byte	0x91
 17140 0ac7 B47F     		.sleb128 -76
 17141 0ac9 C0000000 		.4byte	.LVL262
 17142 0acd 18010000 		.4byte	.LVL275
 17143 0ad1 0200     		.2byte	0x2
 17144 0ad3 30       		.byte	0x30
 17145 0ad4 9F       		.byte	0x9f
 17146 0ad5 18010000 		.4byte	.LVL275
 17147 0ad9 1B010000 		.4byte	.LVL276-1
 17148 0add 0100     		.2byte	0x1
 17149 0adf 53       		.byte	0x53
 17150 0ae0 1B010000 		.4byte	.LVL276-1
 17151 0ae4 C2030000 		.4byte	.LVL347
 17152 0ae8 0300     		.2byte	0x3
 17153 0aea 91       		.byte	0x91
 17154 0aeb B47F     		.sleb128 -76
 17155 0aed C2030000 		.4byte	.LVL347
 17156 0af1 2A040000 		.4byte	.LVL360
ARM GAS  /tmp/cc5QaxCL.s 			page 302


 17157 0af5 0200     		.2byte	0x2
 17158 0af7 30       		.byte	0x30
 17159 0af8 9F       		.byte	0x9f
 17160 0af9 2A040000 		.4byte	.LVL360
 17161 0afd 2C040000 		.4byte	.LVL361
 17162 0b01 0100     		.2byte	0x1
 17163 0b03 53       		.byte	0x53
 17164 0b04 2C040000 		.4byte	.LVL361
 17165 0b08 54040000 		.4byte	.LVL365
 17166 0b0c 0200     		.2byte	0x2
 17167 0b0e 30       		.byte	0x30
 17168 0b0f 9F       		.byte	0x9f
 17169 0b10 54040000 		.4byte	.LVL365
 17170 0b14 56040000 		.4byte	.LVL366
 17171 0b18 0100     		.2byte	0x1
 17172 0b1a 53       		.byte	0x53
 17173 0b1b 56040000 		.4byte	.LVL366
 17174 0b1f 80040000 		.4byte	.LVL380
 17175 0b23 0200     		.2byte	0x2
 17176 0b25 30       		.byte	0x30
 17177 0b26 9F       		.byte	0x9f
 17178 0b27 84040000 		.4byte	.LVL381
 17179 0b2b E4040000 		.4byte	.LFE266
 17180 0b2f 0300     		.2byte	0x3
 17181 0b31 91       		.byte	0x91
 17182 0b32 B47F     		.sleb128 -76
 17183 0b34 00000000 		.4byte	0
 17184 0b38 00000000 		.4byte	0
 17185              	.LLST37:
 17186 0b3c 20010000 		.4byte	.LVL277
 17187 0b40 2A010000 		.4byte	.LVL279
 17188 0b44 0200     		.2byte	0x2
 17189 0b46 31       		.byte	0x31
 17190 0b47 9F       		.byte	0x9f
 17191 0b48 00000000 		.4byte	0
 17192 0b4c 00000000 		.4byte	0
 17193              	.LLST38:
 17194 0b50 50020000 		.4byte	.LVL309
 17195 0b54 5A020000 		.4byte	.LVL311
 17196 0b58 0200     		.2byte	0x2
 17197 0b5a 32       		.byte	0x32
 17198 0b5b 9F       		.byte	0x9f
 17199 0b5c 00000000 		.4byte	0
 17200 0b60 00000000 		.4byte	0
 17201              	.LLST20:
 17202 0b64 00000000 		.4byte	.LVL245
 17203 0b68 0F000000 		.4byte	.LVL247-1
 17204 0b6c 0100     		.2byte	0x1
 17205 0b6e 50       		.byte	0x50
 17206 0b6f 0F000000 		.4byte	.LVL247-1
 17207 0b73 38000000 		.4byte	.LFE265
 17208 0b77 0400     		.2byte	0x4
 17209 0b79 F3       		.byte	0xf3
 17210 0b7a 01       		.uleb128 0x1
 17211 0b7b 50       		.byte	0x50
 17212 0b7c 9F       		.byte	0x9f
 17213 0b7d 00000000 		.4byte	0
ARM GAS  /tmp/cc5QaxCL.s 			page 303


 17214 0b81 00000000 		.4byte	0
 17215              	.LLST21:
 17216 0b85 00000000 		.4byte	.LVL245
 17217 0b89 0F000000 		.4byte	.LVL247-1
 17218 0b8d 0100     		.2byte	0x1
 17219 0b8f 51       		.byte	0x51
 17220 0b90 0F000000 		.4byte	.LVL247-1
 17221 0b94 38000000 		.4byte	.LFE265
 17222 0b98 0400     		.2byte	0x4
 17223 0b9a F3       		.byte	0xf3
 17224 0b9b 01       		.uleb128 0x1
 17225 0b9c 51       		.byte	0x51
 17226 0b9d 9F       		.byte	0x9f
 17227 0b9e 00000000 		.4byte	0
 17228 0ba2 00000000 		.4byte	0
 17229              	.LLST22:
 17230 0ba6 0A000000 		.4byte	.LVL246
 17231 0baa 10000000 		.4byte	.LVL247
 17232 0bae 0200     		.2byte	0x2
 17233 0bb0 30       		.byte	0x30
 17234 0bb1 9F       		.byte	0x9f
 17235 0bb2 10000000 		.4byte	.LVL247
 17236 0bb6 24000000 		.4byte	.LVL248
 17237 0bba 0100     		.2byte	0x1
 17238 0bbc 50       		.byte	0x50
 17239 0bbd 2E000000 		.4byte	.LVL249
 17240 0bc1 31000000 		.4byte	.LVL250-1
 17241 0bc5 0100     		.2byte	0x1
 17242 0bc7 50       		.byte	0x50
 17243 0bc8 00000000 		.4byte	0
 17244 0bcc 00000000 		.4byte	0
 17245              	.LLST0:
 17246 0bd0 00000000 		.4byte	.LVL0
 17247 0bd4 14000000 		.4byte	.LVL2
 17248 0bd8 0100     		.2byte	0x1
 17249 0bda 50       		.byte	0x50
 17250 0bdb 14000000 		.4byte	.LVL2
 17251 0bdf 50000000 		.4byte	.LFE257
 17252 0be3 0100     		.2byte	0x1
 17253 0be5 55       		.byte	0x55
 17254 0be6 00000000 		.4byte	0
 17255 0bea 00000000 		.4byte	0
 17256              	.LLST1:
 17257 0bee 12000000 		.4byte	.LVL1
 17258 0bf2 1A000000 		.4byte	.LVL3
 17259 0bf6 0200     		.2byte	0x2
 17260 0bf8 30       		.byte	0x30
 17261 0bf9 9F       		.byte	0x9f
 17262 0bfa 1A000000 		.4byte	.LVL3
 17263 0bfe 30000000 		.4byte	.LVL5
 17264 0c02 0100     		.2byte	0x1
 17265 0c04 50       		.byte	0x50
 17266 0c05 34000000 		.4byte	.LVL6
 17267 0c09 4B000000 		.4byte	.LVL7-1
 17268 0c0d 0100     		.2byte	0x1
 17269 0c0f 50       		.byte	0x50
 17270 0c10 00000000 		.4byte	0
ARM GAS  /tmp/cc5QaxCL.s 			page 304


 17271 0c14 00000000 		.4byte	0
 17272              	.LLST2:
 17273 0c18 00000000 		.4byte	.LVL8
 17274 0c1c 18000000 		.4byte	.LVL9
 17275 0c20 0100     		.2byte	0x1
 17276 0c22 50       		.byte	0x50
 17277 0c23 18000000 		.4byte	.LVL9
 17278 0c27 22000000 		.4byte	.LVL10
 17279 0c2b 0400     		.2byte	0x4
 17280 0c2d F3       		.byte	0xf3
 17281 0c2e 01       		.uleb128 0x1
 17282 0c2f 50       		.byte	0x50
 17283 0c30 9F       		.byte	0x9f
 17284 0c31 22000000 		.4byte	.LVL10
 17285 0c35 25000000 		.4byte	.LVL11-1
 17286 0c39 0100     		.2byte	0x1
 17287 0c3b 50       		.byte	0x50
 17288 0c3c 25000000 		.4byte	.LVL11-1
 17289 0c40 2C000000 		.4byte	.LFE258
 17290 0c44 0400     		.2byte	0x4
 17291 0c46 F3       		.byte	0xf3
 17292 0c47 01       		.uleb128 0x1
 17293 0c48 50       		.byte	0x50
 17294 0c49 9F       		.byte	0x9f
 17295 0c4a 00000000 		.4byte	0
 17296 0c4e 00000000 		.4byte	0
 17297              	.LLST3:
 17298 0c52 00000000 		.4byte	.LVL12
 17299 0c56 12000000 		.4byte	.LVL14
 17300 0c5a 0100     		.2byte	0x1
 17301 0c5c 50       		.byte	0x50
 17302 0c5d 12000000 		.4byte	.LVL14
 17303 0c61 44000000 		.4byte	.LFE259
 17304 0c65 0400     		.2byte	0x4
 17305 0c67 F3       		.byte	0xf3
 17306 0c68 01       		.uleb128 0x1
 17307 0c69 50       		.byte	0x50
 17308 0c6a 9F       		.byte	0x9f
 17309 0c6b 00000000 		.4byte	0
 17310 0c6f 00000000 		.4byte	0
 17311              	.LLST4:
 17312 0c73 0C000000 		.4byte	.LVL13
 17313 0c77 16000000 		.4byte	.LVL15
 17314 0c7b 0200     		.2byte	0x2
 17315 0c7d 30       		.byte	0x30
 17316 0c7e 9F       		.byte	0x9f
 17317 0c7f 00000000 		.4byte	0
 17318 0c83 00000000 		.4byte	0
 17319              	.LLST5:
 17320 0c87 0C000000 		.4byte	.LVL13
 17321 0c8b 16000000 		.4byte	.LVL15
 17322 0c8f 0200     		.2byte	0x2
 17323 0c91 31       		.byte	0x31
 17324 0c92 9F       		.byte	0x9f
 17325 0c93 00000000 		.4byte	0
 17326 0c97 00000000 		.4byte	0
 17327              	.LLST6:
ARM GAS  /tmp/cc5QaxCL.s 			page 305


 17328 0c9b 24000000 		.4byte	.LVL16
 17329 0c9f 38000000 		.4byte	.LVL18
 17330 0ca3 0100     		.2byte	0x1
 17331 0ca5 55       		.byte	0x55
 17332 0ca6 00000000 		.4byte	0
 17333 0caa 00000000 		.4byte	0
 17334              	.LLST7:
 17335 0cae 0A000000 		.4byte	.LVL20
 17336 0cb2 14000000 		.4byte	.LVL21
 17337 0cb6 0200     		.2byte	0x2
 17338 0cb8 30       		.byte	0x30
 17339 0cb9 9F       		.byte	0x9f
 17340 0cba 2E000000 		.4byte	.LVL22
 17341 0cbe 38000000 		.4byte	.LVL23
 17342 0cc2 0100     		.2byte	0x1
 17343 0cc4 50       		.byte	0x50
 17344 0cc5 3C000000 		.4byte	.LVL24
 17345 0cc9 46000000 		.4byte	.LVL25
 17346 0ccd 0100     		.2byte	0x1
 17347 0ccf 50       		.byte	0x50
 17348 0cd0 4A000000 		.4byte	.LVL26
 17349 0cd4 54000000 		.4byte	.LVL27
 17350 0cd8 0100     		.2byte	0x1
 17351 0cda 50       		.byte	0x50
 17352 0cdb 58000000 		.4byte	.LVL28
 17353 0cdf 62000000 		.4byte	.LVL29
 17354 0ce3 0100     		.2byte	0x1
 17355 0ce5 50       		.byte	0x50
 17356 0ce6 00000000 		.4byte	0
 17357 0cea 00000000 		.4byte	0
 17358              	.LLST8:
 17359 0cee 0A000000 		.4byte	.LVL20
 17360 0cf2 14000000 		.4byte	.LVL21
 17361 0cf6 0200     		.2byte	0x2
 17362 0cf8 31       		.byte	0x31
 17363 0cf9 9F       		.byte	0x9f
 17364 0cfa 00000000 		.4byte	0
 17365 0cfe 00000000 		.4byte	0
 17366              	.LLST9:
 17367 0d02 0E010000 		.4byte	.LVL53
 17368 0d06 18010000 		.4byte	.LVL55
 17369 0d0a 0200     		.2byte	0x2
 17370 0d0c 32       		.byte	0x32
 17371 0d0d 9F       		.byte	0x9f
 17372 0d0e 00000000 		.4byte	0
 17373 0d12 00000000 		.4byte	0
 17374              	.LLST10:
 17375 0d16 1E020000 		.4byte	.LVL87
 17376 0d1a 28020000 		.4byte	.LVL89
 17377 0d1e 0200     		.2byte	0x2
 17378 0d20 30       		.byte	0x30
 17379 0d21 9F       		.byte	0x9f
 17380 0d22 00000000 		.4byte	0
 17381 0d26 00000000 		.4byte	0
 17382              	.LLST11:
 17383 0d2a 0A000000 		.4byte	.LVL93
 17384 0d2e 14000000 		.4byte	.LVL94
ARM GAS  /tmp/cc5QaxCL.s 			page 306


 17385 0d32 0200     		.2byte	0x2
 17386 0d34 30       		.byte	0x30
 17387 0d35 9F       		.byte	0x9f
 17388 0d36 2E000000 		.4byte	.LVL95
 17389 0d3a 38000000 		.4byte	.LVL96
 17390 0d3e 0100     		.2byte	0x1
 17391 0d40 50       		.byte	0x50
 17392 0d41 3C000000 		.4byte	.LVL97
 17393 0d45 46000000 		.4byte	.LVL98
 17394 0d49 0100     		.2byte	0x1
 17395 0d4b 50       		.byte	0x50
 17396 0d4c 4A000000 		.4byte	.LVL99
 17397 0d50 54000000 		.4byte	.LVL100
 17398 0d54 0100     		.2byte	0x1
 17399 0d56 50       		.byte	0x50
 17400 0d57 58000000 		.4byte	.LVL101
 17401 0d5b 62000000 		.4byte	.LVL102
 17402 0d5f 0100     		.2byte	0x1
 17403 0d61 50       		.byte	0x50
 17404 0d62 00000000 		.4byte	0
 17405 0d66 00000000 		.4byte	0
 17406              	.LLST12:
 17407 0d6a 0A000000 		.4byte	.LVL93
 17408 0d6e 14000000 		.4byte	.LVL94
 17409 0d72 0200     		.2byte	0x2
 17410 0d74 31       		.byte	0x31
 17411 0d75 9F       		.byte	0x9f
 17412 0d76 00000000 		.4byte	0
 17413 0d7a 00000000 		.4byte	0
 17414              	.LLST13:
 17415 0d7e 0E010000 		.4byte	.LVL126
 17416 0d82 18010000 		.4byte	.LVL128
 17417 0d86 0200     		.2byte	0x2
 17418 0d88 32       		.byte	0x32
 17419 0d89 9F       		.byte	0x9f
 17420 0d8a 00000000 		.4byte	0
 17421 0d8e 00000000 		.4byte	0
 17422              	.LLST14:
 17423 0d92 1E020000 		.4byte	.LVL160
 17424 0d96 28020000 		.4byte	.LVL162
 17425 0d9a 0200     		.2byte	0x2
 17426 0d9c 30       		.byte	0x30
 17427 0d9d 9F       		.byte	0x9f
 17428 0d9e 00000000 		.4byte	0
 17429 0da2 00000000 		.4byte	0
 17430              	.LLST15:
 17431 0da6 0A000000 		.4byte	.LVL166
 17432 0daa 14000000 		.4byte	.LVL167
 17433 0dae 0200     		.2byte	0x2
 17434 0db0 30       		.byte	0x30
 17435 0db1 9F       		.byte	0x9f
 17436 0db2 2E000000 		.4byte	.LVL168
 17437 0db6 38000000 		.4byte	.LVL169
 17438 0dba 0100     		.2byte	0x1
 17439 0dbc 50       		.byte	0x50
 17440 0dbd 3C000000 		.4byte	.LVL170
 17441 0dc1 46000000 		.4byte	.LVL171
ARM GAS  /tmp/cc5QaxCL.s 			page 307


 17442 0dc5 0100     		.2byte	0x1
 17443 0dc7 50       		.byte	0x50
 17444 0dc8 4A000000 		.4byte	.LVL172
 17445 0dcc 54000000 		.4byte	.LVL173
 17446 0dd0 0100     		.2byte	0x1
 17447 0dd2 50       		.byte	0x50
 17448 0dd3 58000000 		.4byte	.LVL174
 17449 0dd7 62000000 		.4byte	.LVL175
 17450 0ddb 0100     		.2byte	0x1
 17451 0ddd 50       		.byte	0x50
 17452 0dde 00000000 		.4byte	0
 17453 0de2 00000000 		.4byte	0
 17454              	.LLST16:
 17455 0de6 0A000000 		.4byte	.LVL166
 17456 0dea 14000000 		.4byte	.LVL167
 17457 0dee 0200     		.2byte	0x2
 17458 0df0 31       		.byte	0x31
 17459 0df1 9F       		.byte	0x9f
 17460 0df2 00000000 		.4byte	0
 17461 0df6 00000000 		.4byte	0
 17462              	.LLST17:
 17463 0dfa 0E010000 		.4byte	.LVL199
 17464 0dfe 18010000 		.4byte	.LVL201
 17465 0e02 0200     		.2byte	0x2
 17466 0e04 32       		.byte	0x32
 17467 0e05 9F       		.byte	0x9f
 17468 0e06 00000000 		.4byte	0
 17469 0e0a 00000000 		.4byte	0
 17470              	.LLST18:
 17471 0e0e 00000000 		.4byte	.LVL237
 17472 0e12 25000000 		.4byte	.LVL239-1
 17473 0e16 0100     		.2byte	0x1
 17474 0e18 50       		.byte	0x50
 17475 0e19 25000000 		.4byte	.LVL239-1
 17476 0e1d 26000000 		.4byte	.LVL239
 17477 0e21 0400     		.2byte	0x4
 17478 0e23 F3       		.byte	0xf3
 17479 0e24 01       		.uleb128 0x1
 17480 0e25 50       		.byte	0x50
 17481 0e26 9F       		.byte	0x9f
 17482 0e27 26000000 		.4byte	.LVL239
 17483 0e2b 33000000 		.4byte	.LVL240-1
 17484 0e2f 0100     		.2byte	0x1
 17485 0e31 50       		.byte	0x50
 17486 0e32 33000000 		.4byte	.LVL240-1
 17487 0e36 34000000 		.4byte	.LVL240
 17488 0e3a 0400     		.2byte	0x4
 17489 0e3c F3       		.byte	0xf3
 17490 0e3d 01       		.uleb128 0x1
 17491 0e3e 50       		.byte	0x50
 17492 0e3f 9F       		.byte	0x9f
 17493 0e40 34000000 		.4byte	.LVL240
 17494 0e44 41000000 		.4byte	.LVL241-1
 17495 0e48 0100     		.2byte	0x1
 17496 0e4a 50       		.byte	0x50
 17497 0e4b 41000000 		.4byte	.LVL241-1
 17498 0e4f 42000000 		.4byte	.LVL241
ARM GAS  /tmp/cc5QaxCL.s 			page 308


 17499 0e53 0400     		.2byte	0x4
 17500 0e55 F3       		.byte	0xf3
 17501 0e56 01       		.uleb128 0x1
 17502 0e57 50       		.byte	0x50
 17503 0e58 9F       		.byte	0x9f
 17504 0e59 42000000 		.4byte	.LVL241
 17505 0e5d 48000000 		.4byte	.LVL242
 17506 0e61 0100     		.2byte	0x1
 17507 0e63 50       		.byte	0x50
 17508 0e64 48000000 		.4byte	.LVL242
 17509 0e68 58000000 		.4byte	.LFE263
 17510 0e6c 0400     		.2byte	0x4
 17511 0e6e F3       		.byte	0xf3
 17512 0e6f 01       		.uleb128 0x1
 17513 0e70 50       		.byte	0x50
 17514 0e71 9F       		.byte	0x9f
 17515 0e72 00000000 		.4byte	0
 17516 0e76 00000000 		.4byte	0
 17517              	.LLST19:
 17518 0e7a 14000000 		.4byte	.LVL238
 17519 0e7e 25000000 		.4byte	.LVL239-1
 17520 0e82 0100     		.2byte	0x1
 17521 0e84 50       		.byte	0x50
 17522 0e85 25000000 		.4byte	.LVL239-1
 17523 0e89 26000000 		.4byte	.LVL239
 17524 0e8d 0400     		.2byte	0x4
 17525 0e8f F3       		.byte	0xf3
 17526 0e90 01       		.uleb128 0x1
 17527 0e91 50       		.byte	0x50
 17528 0e92 9F       		.byte	0x9f
 17529 0e93 42000000 		.4byte	.LVL241
 17530 0e97 48000000 		.4byte	.LVL242
 17531 0e9b 0100     		.2byte	0x1
 17532 0e9d 50       		.byte	0x50
 17533 0e9e 48000000 		.4byte	.LVL242
 17534 0ea2 50000000 		.4byte	.LVL243
 17535 0ea6 0400     		.2byte	0x4
 17536 0ea8 F3       		.byte	0xf3
 17537 0ea9 01       		.uleb128 0x1
 17538 0eaa 50       		.byte	0x50
 17539 0eab 9F       		.byte	0x9f
 17540 0eac 00000000 		.4byte	0
 17541 0eb0 00000000 		.4byte	0
 17542              		.section	.debug_aranges,"",%progbits
 17543 0000 AC000000 		.4byte	0xac
 17544 0004 0200     		.2byte	0x2
 17545 0006 00000000 		.4byte	.Ldebug_info0
 17546 000a 04       		.byte	0x4
 17547 000b 00       		.byte	0
 17548 000c 0000     		.2byte	0
 17549 000e 0000     		.2byte	0
 17550 0010 00000000 		.4byte	.LFB257
 17551 0014 50000000 		.4byte	.LFE257-.LFB257
 17552 0018 00000000 		.4byte	.LFB258
 17553 001c 2C000000 		.4byte	.LFE258-.LFB258
 17554 0020 00000000 		.4byte	.LFB259
 17555 0024 44000000 		.4byte	.LFE259-.LFB259
ARM GAS  /tmp/cc5QaxCL.s 			page 309


 17556 0028 00000000 		.4byte	.LFB260
 17557 002c 5C020000 		.4byte	.LFE260-.LFB260
 17558 0030 00000000 		.4byte	.LFB261
 17559 0034 5C020000 		.4byte	.LFE261-.LFB261
 17560 0038 00000000 		.4byte	.LFB262
 17561 003c 4C020000 		.4byte	.LFE262-.LFB262
 17562 0040 00000000 		.4byte	.LFB263
 17563 0044 58000000 		.4byte	.LFE263-.LFB263
 17564 0048 00000000 		.4byte	.LFB265
 17565 004c 38000000 		.4byte	.LFE265-.LFB265
 17566 0050 00000000 		.4byte	.LFB266
 17567 0054 E4040000 		.4byte	.LFE266-.LFB266
 17568 0058 00000000 		.4byte	.LFB264
 17569 005c 34000000 		.4byte	.LFE264-.LFB264
 17570 0060 00000000 		.4byte	.LFB267
 17571 0064 40000000 		.4byte	.LFE267-.LFB267
 17572 0068 00000000 		.4byte	.LFB268
 17573 006c 40000000 		.4byte	.LFE268-.LFB268
 17574 0070 00000000 		.4byte	.LFB269
 17575 0074 54000000 		.4byte	.LFE269-.LFB269
 17576 0078 00000000 		.4byte	.LFB270
 17577 007c 60000000 		.4byte	.LFE270-.LFB270
 17578 0080 00000000 		.4byte	.LFB271
 17579 0084 70000000 		.4byte	.LFE271-.LFB271
 17580 0088 00000000 		.4byte	.LFB272
 17581 008c 60000000 		.4byte	.LFE272-.LFB272
 17582 0090 00000000 		.4byte	.LFB273
 17583 0094 7C000000 		.4byte	.LFE273-.LFB273
 17584 0098 00000000 		.4byte	.LFB274
 17585 009c 34000000 		.4byte	.LFE274-.LFB274
 17586 00a0 00000000 		.4byte	.LFB275
 17587 00a4 40000000 		.4byte	.LFE275-.LFB275
 17588 00a8 00000000 		.4byte	0
 17589 00ac 00000000 		.4byte	0
 17590              		.section	.debug_ranges,"",%progbits
 17591              	.Ldebug_ranges0:
 17592 0000 5C000000 		.4byte	.LBB79
 17593 0004 3A020000 		.4byte	.LBE79
 17594 0008 3E020000 		.4byte	.LBB84
 17595 000c 5C020000 		.4byte	.LBE84
 17596 0010 00000000 		.4byte	0
 17597 0014 00000000 		.4byte	0
 17598 0018 5C000000 		.4byte	.LBB99
 17599 001c 3A020000 		.4byte	.LBE99
 17600 0020 3E020000 		.4byte	.LBB104
 17601 0024 5C020000 		.4byte	.LBE104
 17602 0028 00000000 		.4byte	0
 17603 002c 00000000 		.4byte	0
 17604 0030 5C000000 		.4byte	.LBB117
 17605 0034 2A020000 		.4byte	.LBE117
 17606 0038 2E020000 		.4byte	.LBB120
 17607 003c 4C020000 		.4byte	.LBE120
 17608 0040 00000000 		.4byte	0
 17609 0044 00000000 		.4byte	0
 17610 0048 14000000 		.4byte	.LBB124
 17611 004c 1C000000 		.4byte	.LBE124
 17612 0050 22000000 		.4byte	.LBB127
ARM GAS  /tmp/cc5QaxCL.s 			page 310


 17613 0054 26000000 		.4byte	.LBE127
 17614 0058 00000000 		.4byte	0
 17615 005c 00000000 		.4byte	0
 17616 0060 0A000000 		.4byte	.LBB132
 17617 0064 0C000000 		.4byte	.LBE132
 17618 0068 0E000000 		.4byte	.LBB135
 17619 006c 16000000 		.4byte	.LBE135
 17620 0070 00000000 		.4byte	0
 17621 0074 00000000 		.4byte	0
 17622 0078 0A000000 		.4byte	.LBB136
 17623 007c 0C000000 		.4byte	.LBE136
 17624 0080 0E000000 		.4byte	.LBB139
 17625 0084 16000000 		.4byte	.LBE139
 17626 0088 00000000 		.4byte	0
 17627 008c 00000000 		.4byte	0
 17628 0090 0E000000 		.4byte	.LBB142
 17629 0094 14000000 		.4byte	.LBE142
 17630 0098 18000000 		.4byte	.LBB145
 17631 009c 1C000000 		.4byte	.LBE145
 17632 00a0 00000000 		.4byte	0
 17633 00a4 00000000 		.4byte	0
 17634 00a8 0E000000 		.4byte	.LBB148
 17635 00ac 14000000 		.4byte	.LBE148
 17636 00b0 18000000 		.4byte	.LBB151
 17637 00b4 1C000000 		.4byte	.LBE151
 17638 00b8 00000000 		.4byte	0
 17639 00bc 00000000 		.4byte	0
 17640 00c0 00000000 		.4byte	.LFB257
 17641 00c4 50000000 		.4byte	.LFE257
 17642 00c8 00000000 		.4byte	.LFB258
 17643 00cc 2C000000 		.4byte	.LFE258
 17644 00d0 00000000 		.4byte	.LFB259
 17645 00d4 44000000 		.4byte	.LFE259
 17646 00d8 00000000 		.4byte	.LFB260
 17647 00dc 5C020000 		.4byte	.LFE260
 17648 00e0 00000000 		.4byte	.LFB261
 17649 00e4 5C020000 		.4byte	.LFE261
 17650 00e8 00000000 		.4byte	.LFB262
 17651 00ec 4C020000 		.4byte	.LFE262
 17652 00f0 00000000 		.4byte	.LFB263
 17653 00f4 58000000 		.4byte	.LFE263
 17654 00f8 00000000 		.4byte	.LFB265
 17655 00fc 38000000 		.4byte	.LFE265
 17656 0100 00000000 		.4byte	.LFB266
 17657 0104 E4040000 		.4byte	.LFE266
 17658 0108 00000000 		.4byte	.LFB264
 17659 010c 34000000 		.4byte	.LFE264
 17660 0110 00000000 		.4byte	.LFB267
 17661 0114 40000000 		.4byte	.LFE267
 17662 0118 00000000 		.4byte	.LFB268
 17663 011c 40000000 		.4byte	.LFE268
 17664 0120 00000000 		.4byte	.LFB269
 17665 0124 54000000 		.4byte	.LFE269
 17666 0128 00000000 		.4byte	.LFB270
 17667 012c 60000000 		.4byte	.LFE270
 17668 0130 00000000 		.4byte	.LFB271
 17669 0134 70000000 		.4byte	.LFE271
ARM GAS  /tmp/cc5QaxCL.s 			page 311


 17670 0138 00000000 		.4byte	.LFB272
 17671 013c 60000000 		.4byte	.LFE272
 17672 0140 00000000 		.4byte	.LFB273
 17673 0144 7C000000 		.4byte	.LFE273
 17674 0148 00000000 		.4byte	.LFB274
 17675 014c 34000000 		.4byte	.LFE274
 17676 0150 00000000 		.4byte	.LFB275
 17677 0154 40000000 		.4byte	.LFE275
 17678 0158 00000000 		.4byte	0
 17679 015c 00000000 		.4byte	0
 17680              		.section	.debug_line,"",%progbits
 17681              	.Ldebug_line0:
 17682 0000 350C0000 		.section	.debug_str,"MS",%progbits,1
 17682      02002308 
 17682      00000201 
 17682      FB0E0D00 
 17682      01010101 
 17683              	.LASF575:
 17684 0000 5553425F 		.ascii	"USB_STOP\000"
 17684      53544F50 
 17684      00
 17685              	.LASF188:
 17686 0009 706F7274 		.ascii	"port_intctx\000"
 17686      5F696E74 
 17686      63747800 
 17687              	.LASF197:
 17688 0015 63685F74 		.ascii	"ch_trace_buffer_t\000"
 17688      72616365 
 17688      5F627566 
 17688      6665725F 
 17688      7400
 17689              	.LASF230:
 17690 0027 63685F70 		.ascii	"ch_ptrsize\000"
 17690      74727369 
 17690      7A6500
 17691              	.LASF511:
 17692 0032 6576656E 		.ascii	"event\000"
 17692      7400
 17693              	.LASF361:
 17694 0038 43414E5F 		.ascii	"CAN_STARTING\000"
 17694      53544152 
 17694      54494E47 
 17694      00
 17695              	.LASF32:
 17696 0045 6D73675F 		.ascii	"msg_t\000"
 17696      7400
 17697              	.LASF306:
 17698 004b 61667268 		.ascii	"afrh\000"
 17698      00
 17699              	.LASF454:
 17700 0050 4F504D4F 		.ascii	"OPMODE_SMBUS_DEVICE\000"
 17700      44455F53 
 17700      4D425553 
 17700      5F444556 
 17700      49434500 
 17701              	.LASF208:
 17702 0064 6D5F6372 		.ascii	"m_crit_isr\000"
ARM GAS  /tmp/cc5QaxCL.s 			page 312


 17702      69745F69 
 17702      737200
 17703              	.LASF634:
 17704 006f 44494550 		.ascii	"DIEPTXF0\000"
 17704      54584630 
 17704      00
 17705              	.LASF710:
 17706 0078 55534244 		.ascii	"USBD1\000"
 17706      3100
 17707              	.LASF360:
 17708 007e 43414E5F 		.ascii	"CAN_STOP\000"
 17708      53544F50 
 17708      00
 17709              	.LASF243:
 17710 0087 63665F6F 		.ascii	"cf_off_time\000"
 17710      66665F74 
 17710      696D6500 
 17711              	.LASF91:
 17712 0093 63685F73 		.ascii	"ch_system_t\000"
 17712      79737465 
 17712      6D5F7400 
 17713              	.LASF6:
 17714 009f 5F5F7569 		.ascii	"__uint8_t\000"
 17714      6E74385F 
 17714      7400
 17715              	.LASF214:
 17716 00a9 77747365 		.ascii	"wtsemp\000"
 17716      6D7000
 17717              	.LASF290:
 17718 00b0 5F426F6F 		.ascii	"_Bool\000"
 17718      6C00
 17719              	.LASF402:
 17720 00b6 64617461 		.ascii	"datamode\000"
 17720      6D6F6465 
 17720      00
 17721              	.LASF470:
 17722 00bf 646D6172 		.ascii	"dmarx\000"
 17722      7800
 17723              	.LASF475:
 17724 00c5 4932535F 		.ascii	"I2S_READY\000"
 17724      52454144 
 17724      5900
 17725              	.LASF350:
 17726 00cf 73717231 		.ascii	"sqr1\000"
 17726      00
 17727              	.LASF277:
 17728 00d4 424C4B5F 		.ascii	"BLK_UNINIT\000"
 17728      554E494E 
 17728      495400
 17729              	.LASF482:
 17730 00df 72785F62 		.ascii	"rx_buffer\000"
 17730      75666665 
 17730      7200
 17731              	.LASF466:
 17732 00e9 6572726F 		.ascii	"errors\000"
 17732      727300
 17733              	.LASF201:
ARM GAS  /tmp/cc5QaxCL.s 			page 313


 17734 00f0 776F7273 		.ascii	"worst\000"
 17734      7400
 17735              	.LASF84:
 17736 00f6 76745F73 		.ascii	"vt_systime\000"
 17736      79737469 
 17736      6D6500
 17737              	.LASF150:
 17738 0101 444F5231 		.ascii	"DOR1\000"
 17738      00
 17739              	.LASF151:
 17740 0106 444F5232 		.ascii	"DOR2\000"
 17740      00
 17741              	.LASF481:
 17742 010b 74785F62 		.ascii	"tx_buffer\000"
 17742      75666665 
 17742      7200
 17743              	.LASF223:
 17744 0115 6D5F6E65 		.ascii	"m_next\000"
 17744      787400
 17745              	.LASF310:
 17746 011c 50434461 		.ascii	"PCData\000"
 17746      746100
 17747              	.LASF173:
 17748 0123 4D41534B 		.ascii	"MASK\000"
 17748      00
 17749              	.LASF335:
 17750 0128 73616D70 		.ascii	"samples\000"
 17750      6C657300 
 17751              	.LASF638:
 17752 0130 47434346 		.ascii	"GCCFG\000"
 17752      4700
 17753              	.LASF431:
 17754 0136 42445452 		.ascii	"BDTR\000"
 17754      00
 17755              	.LASF384:
 17756 013b 7265676D 		.ascii	"regmask\000"
 17756      61736B00 
 17757              	.LASF464:
 17758 0143 49324343 		.ascii	"I2CConfig\000"
 17758      6F6E6669 
 17758      6700
 17759              	.LASF21:
 17760 014d 75696E74 		.ascii	"uint16_t\000"
 17760      31365F74 
 17760      00
 17761              	.LASF471:
 17762 0156 646D6174 		.ascii	"dmatx\000"
 17762      7800
 17763              	.LASF708:
 17764 015c 736F665F 		.ascii	"sof_cb\000"
 17764      636200
 17765              	.LASF407:
 17766 0163 4558545F 		.ascii	"EXT_ACTIVE\000"
 17766      41435449 
 17766      564500
 17767              	.LASF303:
 17768 016e 6F737065 		.ascii	"ospeedr\000"
ARM GAS  /tmp/cc5QaxCL.s 			page 314


 17768      65647200 
 17769              	.LASF641:
 17770 0176 44494550 		.ascii	"DIEPTXF\000"
 17770      54584600 
 17771              	.LASF249:
 17772 017e 656C5F6E 		.ascii	"el_next\000"
 17772      65787400 
 17773              	.LASF330:
 17774 0186 4144435F 		.ascii	"ADC_ERR_OVERFLOW\000"
 17774      4552525F 
 17774      4F564552 
 17774      464C4F57 
 17774      00
 17775              	.LASF715:
 17776 0197 53657269 		.ascii	"SerialUSBDriver\000"
 17776      616C5553 
 17776      42447269 
 17776      76657200 
 17777              	.LASF780:
 17778 01a7 706F3630 		.ascii	"po6030_set_qvga\000"
 17778      33305F73 
 17778      65745F71 
 17778      76676100 
 17779              	.LASF89:
 17780 01b7 6C6F636B 		.ascii	"lock_cnt\000"
 17780      5F636E74 
 17780      00
 17781              	.LASF65:
 17782 01c0 63685F74 		.ascii	"ch_threads_queue\000"
 17782      68726561 
 17782      64735F71 
 17782      75657565 
 17782      00
 17783              	.LASF43:
 17784 01d1 705F6E65 		.ascii	"p_newer\000"
 17784      77657200 
 17785              	.LASF651:
 17786 01d9 48505254 		.ascii	"HPRT\000"
 17786      00
 17787              	.LASF726:
 17788 01de 53554253 		.ascii	"SUBSAMPLING_X1\000"
 17788      414D504C 
 17788      494E475F 
 17788      583100
 17789              	.LASF737:
 17790 01ed 504F3630 		.ascii	"PO6030_FORMAT_BGGR\000"
 17790      33305F46 
 17790      4F524D41 
 17790      545F4247 
 17790      475200
 17791              	.LASF605:
 17792 0200 4843494E 		.ascii	"HCINT\000"
 17792      5400
 17793              	.LASF746:
 17794 0206 68656967 		.ascii	"height\000"
 17794      687400
 17795              	.LASF100:
ARM GAS  /tmp/cc5QaxCL.s 			page 315


 17796 020d 534D5052 		.ascii	"SMPR1\000"
 17796      3100
 17797              	.LASF101:
 17798 0213 534D5052 		.ascii	"SMPR2\000"
 17798      3200
 17799              	.LASF240:
 17800 0219 63665F6F 		.ascii	"cf_off_flags\000"
 17800      66665F66 
 17800      6C616773 
 17800      00
 17801              	.LASF544:
 17802 0226 5350495F 		.ascii	"SPI_STOP\000"
 17802      53544F50 
 17802      00
 17803              	.LASF498:
 17804 022f 70776D63 		.ascii	"pwmchnmsk_t\000"
 17804      686E6D73 
 17804      6B5F7400 
 17805              	.LASF309:
 17806 023b 50424461 		.ascii	"PBData\000"
 17806      746100
 17807              	.LASF777:
 17808 0242 706F3630 		.ascii	"po6030_set_size\000"
 17808      33305F73 
 17808      65745F73 
 17808      697A6500 
 17809              	.LASF228:
 17810 0252 63685F73 		.ascii	"ch_size\000"
 17810      697A6500 
 17811              	.LASF647:
 17812 025a 48505458 		.ascii	"HPTXSTS\000"
 17812      53545300 
 17813              	.LASF302:
 17814 0262 6F747970 		.ascii	"otyper\000"
 17814      657200
 17815              	.LASF784:
 17816 0269 62616E6B 		.ascii	"bank\000"
 17816      00
 17817              	.LASF293:
 17818 026e 4F545950 		.ascii	"OTYPER\000"
 17818      455200
 17819              	.LASF386:
 17820 0275 64616370 		.ascii	"dacparams_t\000"
 17820      6172616D 
 17820      735F7400 
 17821              	.LASF786:
 17822 0281 72656756 		.ascii	"regValue\000"
 17822      616C7565 
 17822      00
 17823              	.LASF522:
 17824 028a 5344435F 		.ascii	"SDC_MODE_1BIT\000"
 17824      4D4F4445 
 17824      5F314249 
 17824      5400
 17825              	.LASF603:
 17826 0298 48434348 		.ascii	"HCCHAR\000"
 17826      415200
ARM GAS  /tmp/cc5QaxCL.s 			page 316


 17827              	.LASF448:
 17828 029f 4932435F 		.ascii	"I2C_ACTIVE_RX\000"
 17828      41435449 
 17828      56455F52 
 17828      5800
 17829              	.LASF38:
 17830 02ad 74687265 		.ascii	"thread_t\000"
 17830      61645F74 
 17830      00
 17831              	.LASF251:
 17832 02b6 656C5F65 		.ascii	"el_events\000"
 17832      76656E74 
 17832      7300
 17833              	.LASF491:
 17834 02c0 70776D73 		.ascii	"pwmstate_t\000"
 17834      74617465 
 17834      5F7400
 17835              	.LASF371:
 17836 02cb 736C6565 		.ascii	"sleep_event\000"
 17836      705F6576 
 17836      656E7400 
 17837              	.LASF83:
 17838 02d7 63685F76 		.ascii	"ch_virtual_timers_list\000"
 17838      69727475 
 17838      616C5F74 
 17838      696D6572 
 17838      735F6C69 
 17839              	.LASF274:
 17840 02ee 76656374 		.ascii	"vector\000"
 17840      6F7200
 17841              	.LASF22:
 17842 02f5 696E7433 		.ascii	"int32_t\000"
 17842      325F7400 
 17843              	.LASF462:
 17844 02fd 636C6F63 		.ascii	"clock_speed\000"
 17844      6B5F7370 
 17844      65656400 
 17845              	.LASF37:
 17846 0309 73797374 		.ascii	"systime_t\000"
 17846      696D655F 
 17846      7400
 17847              	.LASF404:
 17848 0313 44414344 		.ascii	"DACD2\000"
 17848      3200
 17849              	.LASF373:
 17850 0319 43414E44 		.ascii	"CANDriver\000"
 17850      72697665 
 17850      7200
 17851              	.LASF238:
 17852 0323 63665F6F 		.ascii	"cf_off_stklimit\000"
 17852      66665F73 
 17852      746B6C69 
 17852      6D697400 
 17853              	.LASF154:
 17854 0333 4D304152 		.ascii	"M0AR\000"
 17854      00
 17855              	.LASF610:
ARM GAS  /tmp/cc5QaxCL.s 			page 317


 17856 0338 72657376 		.ascii	"resvd1c\000"
 17856      64316300 
 17857              	.LASF452:
 17858 0340 69326366 		.ascii	"i2cflags_t\000"
 17858      6C616773 
 17858      5F7400
 17859              	.LASF648:
 17860 034b 4841494E 		.ascii	"HAINT\000"
 17860      5400
 17861              	.LASF136:
 17862 0351 46413152 		.ascii	"FA1R\000"
 17862      00
 17863              	.LASF645:
 17864 0356 48464E55 		.ascii	"HFNUM\000"
 17864      4D00
 17865              	.LASF267:
 17866 035c 716E6F74 		.ascii	"qnotify_t\000"
 17866      6966795F 
 17866      7400
 17867              	.LASF326:
 17868 0366 61646373 		.ascii	"adcstate_t\000"
 17868      74617465 
 17868      5F7400
 17869              	.LASF782:
 17870 0371 706F3630 		.ascii	"po6030_set_format\000"
 17870      33305F73 
 17870      65745F66 
 17870      6F726D61 
 17870      7400
 17871              	.LASF272:
 17872 0383 69736869 		.ascii	"ishift\000"
 17872      667400
 17873              	.LASF421:
 17874 038a 4750545F 		.ascii	"GPT_ONESHOT\000"
 17874      4F4E4553 
 17874      484F5400 
 17875              	.LASF262:
 17876 0396 715F746F 		.ascii	"q_top\000"
 17876      7000
 17877              	.LASF596:
 17878 039c 75645F73 		.ascii	"ud_string\000"
 17878      7472696E 
 17878      6700
 17879              	.LASF465:
 17880 03a6 49324344 		.ascii	"I2CDriver\000"
 17880      72697665 
 17880      7200
 17881              	.LASF447:
 17882 03b0 4932435F 		.ascii	"I2C_ACTIVE_TX\000"
 17882      41435449 
 17882      56455F54 
 17882      5800
 17883              	.LASF517:
 17884 03be 72656164 		.ascii	"read\000"
 17884      00
 17885              	.LASF453:
 17886 03c3 4F504D4F 		.ascii	"OPMODE_I2C\000"
ARM GAS  /tmp/cc5QaxCL.s 			page 318


 17886      44455F49 
 17886      324300
 17887              	.LASF657:
 17888 03ce 72657376 		.ascii	"resvd80C\000"
 17888      64383043 
 17888      00
 17889              	.LASF705:
 17890 03d7 6576656E 		.ascii	"event_cb\000"
 17890      745F6362 
 17890      00
 17891              	.LASF624:
 17892 03e0 474F5447 		.ascii	"GOTGCTL\000"
 17892      43544C00 
 17893              	.LASF718:
 17894 03e8 62756C6B 		.ascii	"bulk_out\000"
 17894      5F6F7574 
 17894      00
 17895              	.LASF599:
 17896 03f1 75736265 		.ascii	"usbepcallback_t\000"
 17896      7063616C 
 17896      6C626163 
 17896      6B5F7400 
 17897              	.LASF451:
 17898 0401 69326361 		.ascii	"i2caddr_t\000"
 17898      6464725F 
 17898      7400
 17899              	.LASF94:
 17900 040b 76746C69 		.ascii	"vtlist\000"
 17900      737400
 17901              	.LASF159:
 17902 0412 54524953 		.ascii	"TRISE\000"
 17902      4500
 17903              	.LASF663:
 17904 0418 72657376 		.ascii	"resvd824\000"
 17904      64383234 
 17904      00
 17905              	.LASF52:
 17906 0421 705F7761 		.ascii	"p_waiting\000"
 17906      6974696E 
 17906      6700
 17907              	.LASF209:
 17908 042b 6B65726E 		.ascii	"kernel_stats_t\000"
 17908      656C5F73 
 17908      74617473 
 17908      5F7400
 17909              	.LASF259:
 17910 043a 715F7761 		.ascii	"q_waiting\000"
 17910      6974696E 
 17910      6700
 17911              	.LASF118:
 17912 0444 43414E5F 		.ascii	"CAN_TxMailBox_TypeDef\000"
 17912      54784D61 
 17912      696C426F 
 17912      785F5479 
 17912      70654465 
 17913              	.LASF93:
 17914 045a 726C6973 		.ascii	"rlist\000"
ARM GAS  /tmp/cc5QaxCL.s 			page 319


 17914      7400
 17915              	.LASF61:
 17916 0460 74687265 		.ascii	"threads_list_t\000"
 17916      6164735F 
 17916      6C697374 
 17916      5F7400
 17917              	.LASF234:
 17918 046f 63665F6F 		.ascii	"cf_off_ctx\000"
 17918      66665F63 
 17918      747800
 17919              	.LASF268:
 17920 047a 696E7075 		.ascii	"input_queue_t\000"
 17920      745F7175 
 17920      6575655F 
 17920      7400
 17921              	.LASF353:
 17922 0488 41444343 		.ascii	"ADCConversionGroup\000"
 17922      6F6E7665 
 17922      7273696F 
 17922      6E47726F 
 17922      757000
 17923              	.LASF656:
 17924 049b 44535453 		.ascii	"DSTS\000"
 17924      00
 17925              	.LASF457:
 17926 04a0 5354445F 		.ascii	"STD_DUTY_CYCLE\000"
 17926      44555459 
 17926      5F435943 
 17926      4C4500
 17927              	.LASF362:
 17928 04af 43414E5F 		.ascii	"CAN_READY\000"
 17928      52454144 
 17928      5900
 17929              	.LASF236:
 17930 04b9 63665F6F 		.ascii	"cf_off_older\000"
 17930      66665F6F 
 17930      6C646572 
 17930      00
 17931              	.LASF26:
 17932 04c6 72747469 		.ascii	"rttime_t\000"
 17932      6D655F74 
 17932      00
 17933              	.LASF416:
 17934 04cf 45585444 		.ascii	"EXTD1\000"
 17934      3100
 17935              	.LASF690:
 17936 04d5 72787175 		.ascii	"rxqueued\000"
 17936      65756564 
 17936      00
 17937              	.LASF364:
 17938 04de 63616E73 		.ascii	"canstate_t\000"
 17938      74617465 
 17938      5F7400
 17939              	.LASF766:
 17940 04e9 706F3630 		.ascii	"po6030_set_contrast\000"
 17940      33305F73 
 17940      65745F63 
ARM GAS  /tmp/cc5QaxCL.s 			page 320


 17940      6F6E7472 
 17940      61737400 
 17941              	.LASF138:
 17942 04fd 7346696C 		.ascii	"sFilterRegister\000"
 17942      74657252 
 17942      65676973 
 17942      74657200 
 17943              	.LASF662:
 17944 050d 72657376 		.ascii	"resvd820\000"
 17944      64383230 
 17944      00
 17945              	.LASF793:
 17946 0516 5F5F7374 		.ascii	"__stack_chk_fail\000"
 17946      61636B5F 
 17946      63686B5F 
 17946      6661696C 
 17946      00
 17947              	.LASF165:
 17948 0527 52455350 		.ascii	"RESP1\000"
 17948      3100
 17949              	.LASF166:
 17950 052d 52455350 		.ascii	"RESP2\000"
 17950      3200
 17951              	.LASF167:
 17952 0533 52455350 		.ascii	"RESP3\000"
 17952      3300
 17953              	.LASF168:
 17954 0539 52455350 		.ascii	"RESP4\000"
 17954      3400
 17955              	.LASF758:
 17956 053f 66726163 		.ascii	"fractional\000"
 17956      74696F6E 
 17956      616C00
 17957              	.LASF444:
 17958 054a 4932435F 		.ascii	"I2C_UNINIT\000"
 17958      554E494E 
 17958      495400
 17959              	.LASF601:
 17960 0555 75736272 		.ascii	"usbreqhandler_t\000"
 17960      65716861 
 17960      6E646C65 
 17960      725F7400 
 17961              	.LASF324:
 17962 0565 4144435F 		.ascii	"ADC_COMPLETE\000"
 17962      434F4D50 
 17962      4C455445 
 17962      00
 17963              	.LASF440:
 17964 0572 47505443 		.ascii	"GPTConfig\000"
 17964      6F6E6669 
 17964      6700
 17965              	.LASF506:
 17966 057c 53445F55 		.ascii	"SD_UNINIT\000"
 17966      4E494E49 
 17966      5400
 17967              	.LASF31:
 17968 0586 74707269 		.ascii	"tprio_t\000"
ARM GAS  /tmp/cc5QaxCL.s 			page 321


 17968      6F5F7400 
 17969              	.LASF205:
 17970 058e 6E5F6972 		.ascii	"n_irq\000"
 17970      7100
 17971              	.LASF485:
 17972 0594 69327370 		.ascii	"i2spr\000"
 17972      7200
 17973              	.LASF666:
 17974 059a 72657376 		.ascii	"resvd830\000"
 17974      64383330 
 17974      00
 17975              	.LASF446:
 17976 05a3 4932435F 		.ascii	"I2C_READY\000"
 17976      52454144 
 17976      5900
 17977              	.LASF668:
 17978 05ad 72657376 		.ascii	"resvd838\000"
 17978      64383338 
 17978      00
 17979              	.LASF460:
 17980 05b6 69326364 		.ascii	"i2cdutycycle_t\000"
 17980      75747963 
 17980      79636C65 
 17980      5F7400
 17981              	.LASF714:
 17982 05c5 73647573 		.ascii	"sdustate_t\000"
 17982      74617465 
 17982      5F7400
 17983              	.LASF783:
 17984 05d0 706F3630 		.ascii	"po6030_set_bank\000"
 17984      33305F73 
 17984      65745F62 
 17984      616E6B00 
 17985              	.LASF669:
 17986 05e0 72657376 		.ascii	"resvd83C\000"
 17986      64383343 
 17986      00
 17987              	.LASF723:
 17988 05e9 53495A45 		.ascii	"SIZE_QVGA\000"
 17988      5F515647 
 17988      4100
 17989              	.LASF338:
 17990 05f3 74687265 		.ascii	"thread\000"
 17990      616400
 17991              	.LASF383:
 17992 05fa 72656773 		.ascii	"regshift\000"
 17992      68696674 
 17992      00
 17993              	.LASF564:
 17994 0603 73657475 		.ascii	"setup\000"
 17994      7000
 17995              	.LASF543:
 17996 0609 5350495F 		.ascii	"SPI_UNINIT\000"
 17996      554E494E 
 17996      495400
 17997              	.LASF617:
 17998 0614 44545846 		.ascii	"DTXFSTS\000"
ARM GAS  /tmp/cc5QaxCL.s 			page 322


 17998      53545300 
 17999              	.LASF287:
 18000 061c 626C6B5F 		.ascii	"blk_size\000"
 18000      73697A65 
 18000      00
 18001              	.LASF558:
 18002 0625 696E5F70 		.ascii	"in_params\000"
 18002      6172616D 
 18002      7300
 18003              	.LASF430:
 18004 062f 43434552 		.ascii	"CCER\000"
 18004      00
 18005              	.LASF181:
 18006 0634 49325350 		.ascii	"I2SPR\000"
 18006      5200
 18007              	.LASF488:
 18008 063a 50574D5F 		.ascii	"PWM_UNINIT\000"
 18008      554E494E 
 18008      495400
 18009              	.LASF200:
 18010 0645 62657374 		.ascii	"best\000"
 18010      00
 18011              	.LASF626:
 18012 064a 47414842 		.ascii	"GAHBCFG\000"
 18012      43464700 
 18013              	.LASF393:
 18014 0652 64616363 		.ascii	"daccallback_t\000"
 18014      616C6C62 
 18014      61636B5F 
 18014      7400
 18015              	.LASF713:
 18016 0660 5344555F 		.ascii	"SDU_READY\000"
 18016      52454144 
 18016      5900
 18017              	.LASF670:
 18018 066a 72657376 		.ascii	"resvd840\000"
 18018      64383430 
 18018      00
 18019              	.LASF177:
 18020 0673 43524350 		.ascii	"CRCPR\000"
 18020      5200
 18021              	.LASF282:
 18022 0679 424C4B5F 		.ascii	"BLK_READY\000"
 18022      52454144 
 18022      5900
 18023              	.LASF8:
 18024 0683 5F5F696E 		.ascii	"__int16_t\000"
 18024      7431365F 
 18024      7400
 18025              	.LASF10:
 18026 068d 5F5F7569 		.ascii	"__uint16_t\000"
 18026      6E743136 
 18026      5F7400
 18027              	.LASF420:
 18028 0698 4750545F 		.ascii	"GPT_CONTINUOUS\000"
 18028      434F4E54 
 18028      494E554F 
ARM GAS  /tmp/cc5QaxCL.s 			page 323


 18028      555300
 18029              	.LASF684:
 18030 06a7 74787175 		.ascii	"txqueued\000"
 18030      65756564 
 18030      00
 18031              	.LASF54:
 18032 06b0 705F6D73 		.ascii	"p_msg\000"
 18032      6700
 18033              	.LASF623:
 18034 06b6 73746D33 		.ascii	"stm32_otg_out_ep_t\000"
 18034      325F6F74 
 18034      675F6F75 
 18034      745F6570 
 18034      5F7400
 18035              	.LASF632:
 18036 06c9 47525853 		.ascii	"GRXSTSP\000"
 18036      54535000 
 18037              	.LASF631:
 18038 06d1 47525853 		.ascii	"GRXSTSR\000"
 18038      54535200 
 18039              	.LASF211:
 18040 06d9 65786974 		.ascii	"exitcode\000"
 18040      636F6465 
 18040      00
 18041              	.LASF155:
 18042 06e2 4D314152 		.ascii	"M1AR\000"
 18042      00
 18043              	.LASF571:
 18044 06e7 77616974 		.ascii	"wait\000"
 18044      00
 18045              	.LASF741:
 18046 06ec 504F3630 		.ascii	"PO6030_FORMAT_YYYY\000"
 18046      33305F46 
 18046      4F524D41 
 18046      545F5959 
 18046      595900
 18047              	.LASF156:
 18048 06ff 444D415F 		.ascii	"DMA_Stream_TypeDef\000"
 18048      53747265 
 18048      616D5F54 
 18048      79706544 
 18048      656600
 18049              	.LASF755:
 18050 0712 706F3630 		.ascii	"po6030_get_image_size\000"
 18050      33305F67 
 18050      65745F69 
 18050      6D616765 
 18050      5F73697A 
 18051              	.LASF788:
 18052 0728 72656164 		.ascii	"read_reg\000"
 18052      5F726567 
 18052      00
 18053              	.LASF578:
 18054 0731 5553425F 		.ascii	"USB_ACTIVE\000"
 18054      41435449 
 18054      564500
 18055              	.LASF619:
ARM GAS  /tmp/cc5QaxCL.s 			page 324


 18056 073c 73746D33 		.ascii	"stm32_otg_in_ep_t\000"
 18056      325F6F74 
 18056      675F696E 
 18056      5F65705F 
 18056      7400
 18057              	.LASF692:
 18058 074e 7278636E 		.ascii	"rxcnt\000"
 18058      7400
 18059              	.LASF320:
 18060 0754 4144435F 		.ascii	"ADC_UNINIT\000"
 18060      554E494E 
 18060      495400
 18061              	.LASF468:
 18062 075f 7278646D 		.ascii	"rxdmamode\000"
 18062      616D6F64 
 18062      6500
 18063              	.LASF412:
 18064 0769 6D6F6465 		.ascii	"mode\000"
 18064      00
 18065              	.LASF224:
 18066 076e 6D5F636E 		.ascii	"m_cnt\000"
 18066      7400
 18067              	.LASF409:
 18068 0774 45585444 		.ascii	"EXTDriver\000"
 18068      72697665 
 18068      7200
 18069              	.LASF239:
 18070 077e 63665F6F 		.ascii	"cf_off_state\000"
 18070      66665F73 
 18070      74617465 
 18070      00
 18071              	.LASF480:
 18072 078b 69327363 		.ascii	"i2scallback_t\000"
 18072      616C6C62 
 18072      61636B5F 
 18072      7400
 18073              	.LASF552:
 18074 0799 73737061 		.ascii	"sspad\000"
 18074      6400
 18075              	.LASF469:
 18076 079f 7478646D 		.ascii	"txdmamode\000"
 18076      616D6F64 
 18076      6500
 18077              	.LASF436:
 18078 07a9 67707466 		.ascii	"gptfreq_t\000"
 18078      7265715F 
 18078      7400
 18079              	.LASF779:
 18080 07b3 63616D5F 		.ascii	"cam_configured\000"
 18080      636F6E66 
 18080      69677572 
 18080      656400
 18081              	.LASF750:
 18082 07c2 75736263 		.ascii	"usbcfg\000"
 18082      666700
 18083              	.LASF677:
 18084 07c9 72785F66 		.ascii	"rx_fifo_size\000"
ARM GAS  /tmp/cc5QaxCL.s 			page 325


 18084      69666F5F 
 18084      73697A65 
 18084      00
 18085              	.LASF186:
 18086 07d6 73746B61 		.ascii	"stkalign_t\000"
 18086      6C69676E 
 18086      5F7400
 18087              	.LASF391:
 18088 07e1 4441435F 		.ascii	"DAC_ERR_UNDERFLOW\000"
 18088      4552525F 
 18088      554E4445 
 18088      52464C4F 
 18088      5700
 18089              	.LASF372:
 18090 07f3 77616B65 		.ascii	"wakeup_event\000"
 18090      75705F65 
 18090      76656E74 
 18090      00
 18091              	.LASF78:
 18092 0800 76745F70 		.ascii	"vt_prev\000"
 18092      72657600 
 18093              	.LASF346:
 18094 0808 656E645F 		.ascii	"end_cb\000"
 18094      636200
 18095              	.LASF695:
 18096 080f 73657475 		.ascii	"setup_cb\000"
 18096      705F6362 
 18096      00
 18097              	.LASF7:
 18098 0818 756E7369 		.ascii	"unsigned char\000"
 18098      676E6564 
 18098      20636861 
 18098      7200
 18099              	.LASF722:
 18100 0826 53495A45 		.ascii	"SIZE_VGA\000"
 18100      5F564741 
 18100      00
 18101              	.LASF175:
 18102 082f 4649464F 		.ascii	"FIFO\000"
 18102      00
 18103              	.LASF196:
 18104 0834 74625F62 		.ascii	"tb_buffer\000"
 18104      75666665 
 18104      7200
 18105              	.LASF366:
 18106 083e 74787175 		.ascii	"txqueue\000"
 18106      65756500 
 18107              	.LASF219:
 18108 0846 735F636E 		.ascii	"s_cnt\000"
 18108      7400
 18109              	.LASF66:
 18110 084c 72656164 		.ascii	"ready_list_t\000"
 18110      795F6C69 
 18110      73745F74 
 18110      00
 18111              	.LASF62:
 18112 0859 63685F74 		.ascii	"ch_thread\000"
ARM GAS  /tmp/cc5QaxCL.s 			page 326


 18112      68726561 
 18112      6400
 18113              	.LASF455:
 18114 0863 4F504D4F 		.ascii	"OPMODE_SMBUS_HOST\000"
 18114      44455F53 
 18114      4D425553 
 18114      5F484F53 
 18114      5400
 18115              	.LASF753:
 18116 0875 706F3630 		.ascii	"po6030_conf\000"
 18116      33305F63 
 18116      6F6E6600 
 18117              	.LASF573:
 18118 0881 75736265 		.ascii	"usbep_t\000"
 18118      705F7400 
 18119              	.LASF744:
 18120 0889 706F3630 		.ascii	"po6030_configuration\000"
 18120      33305F63 
 18120      6F6E6669 
 18120      67757261 
 18120      74696F6E 
 18121              	.LASF739:
 18122 089e 504F3630 		.ascii	"PO6030_FORMAT_BGR565\000"
 18122      33305F46 
 18122      4F524D41 
 18122      545F4247 
 18122      52353635 
 18123              	.LASF405:
 18124 08b3 4558545F 		.ascii	"EXT_UNINIT\000"
 18124      554E494E 
 18124      495400
 18125              	.LASF363:
 18126 08be 43414E5F 		.ascii	"CAN_SLEEP\000"
 18126      534C4545 
 18126      5000
 18127              	.LASF192:
 18128 08c8 73655F73 		.ascii	"se_state\000"
 18128      74617465 
 18128      00
 18129              	.LASF359:
 18130 08d1 43414E5F 		.ascii	"CAN_UNINIT\000"
 18130      554E494E 
 18130      495400
 18131              	.LASF542:
 18132 08dc 53444344 		.ascii	"SDCD1\000"
 18132      3100
 18133              	.LASF85:
 18134 08e2 73797374 		.ascii	"system_debug_t\000"
 18134      656D5F64 
 18134      65627567 
 18134      5F7400
 18135              	.LASF143:
 18136 08f1 44485238 		.ascii	"DHR8R1\000"
 18136      523100
 18137              	.LASF146:
 18138 08f8 44485238 		.ascii	"DHR8R2\000"
 18138      523200
ARM GAS  /tmp/cc5QaxCL.s 			page 327


 18139              	.LASF427:
 18140 08ff 44494552 		.ascii	"DIER\000"
 18140      00
 18141              	.LASF42:
 18142 0904 705F6374 		.ascii	"p_ctx\000"
 18142      7800
 18143              	.LASF81:
 18144 090a 76745F70 		.ascii	"vt_par\000"
 18144      617200
 18145              	.LASF102:
 18146 0911 4A4F4652 		.ascii	"JOFR1\000"
 18146      3100
 18147              	.LASF103:
 18148 0917 4A4F4652 		.ascii	"JOFR2\000"
 18148      3200
 18149              	.LASF104:
 18150 091d 4A4F4652 		.ascii	"JOFR3\000"
 18150      3300
 18151              	.LASF105:
 18152 0923 4A4F4652 		.ascii	"JOFR4\000"
 18152      3400
 18153              	.LASF73:
 18154 0929 725F6375 		.ascii	"r_current\000"
 18154      7272656E 
 18154      7400
 18155              	.LASF179:
 18156 0933 54584352 		.ascii	"TXCRCR\000"
 18156      435200
 18157              	.LASF398:
 18158 093a 64616364 		.ascii	"dacdhrmode_t\000"
 18158      68726D6F 
 18158      64655F74 
 18158      00
 18159              	.LASF340:
 18160 0947 646D6173 		.ascii	"dmastp\000"
 18160      747000
 18161              	.LASF459:
 18162 094e 46415354 		.ascii	"FAST_DUTY_CYCLE_16_9\000"
 18162      5F445554 
 18162      595F4359 
 18162      434C455F 
 18162      31365F39 
 18163              	.LASF24:
 18164 0963 75696E74 		.ascii	"uint64_t\000"
 18164      36345F74 
 18164      00
 18165              	.LASF206:
 18166 096c 6E5F6374 		.ascii	"n_ctxswc\000"
 18166      78737763 
 18166      00
 18167              	.LASF245:
 18168 0975 63685F64 		.ascii	"ch_debug\000"
 18168      65627567 
 18168      00
 18169              	.LASF401:
 18170 097e 696E6974 		.ascii	"init\000"
 18170      00
ARM GAS  /tmp/cc5QaxCL.s 			page 328


 18171              	.LASF130:
 18172 0983 464D3152 		.ascii	"FM1R\000"
 18172      00
 18173              	.LASF317:
 18174 0988 50414C43 		.ascii	"PALConfig\000"
 18174      6F6E6669 
 18174      6700
 18175              	.LASF772:
 18176 0992 6175746F 		.ascii	"auto_cw_x2\000"
 18176      5F63775F 
 18176      783200
 18177              	.LASF686:
 18178 099d 7478636E 		.ascii	"txcnt\000"
 18178      7400
 18179              	.LASF600:
 18180 09a3 75736265 		.ascii	"usbeventcb_t\000"
 18180      76656E74 
 18180      63625F74 
 18180      00
 18181              	.LASF279:
 18182 09b0 424C4B5F 		.ascii	"BLK_ACTIVE\000"
 18182      41435449 
 18182      564500
 18183              	.LASF247:
 18184 09bb 6576656E 		.ascii	"event_listener_t\000"
 18184      745F6C69 
 18184      7374656E 
 18184      65725F74 
 18184      00
 18185              	.LASF678:
 18186 09cc 6F74675F 		.ascii	"otg_ram_size\000"
 18186      72616D5F 
 18186      73697A65 
 18186      00
 18187              	.LASF680:
 18188 09d9 73746D33 		.ascii	"stm32_otg_params_t\000"
 18188      325F6F74 
 18188      675F7061 
 18188      72616D73 
 18188      5F7400
 18189              	.LASF673:
 18190 09ec 72657376 		.ascii	"resvdD00\000"
 18190      64443030 
 18190      00
 18191              	.LASF178:
 18192 09f5 52584352 		.ascii	"RXCRCR\000"
 18192      435200
 18193              	.LASF689:
 18194 09fc 72786275 		.ascii	"rxbuf\000"
 18194      6600
 18195              	.LASF629:
 18196 0a02 47494E54 		.ascii	"GINTSTS\000"
 18196      53545300 
 18197              	.LASF220:
 18198 0a0a 63685F6D 		.ascii	"ch_mutex\000"
 18198      75746578 
 18198      00
ARM GAS  /tmp/cc5QaxCL.s 			page 329


 18199              	.LASF369:
 18200 0a13 7478656D 		.ascii	"txempty_event\000"
 18200      7074795F 
 18200      6576656E 
 18200      7400
 18201              	.LASF711:
 18202 0a21 5344555F 		.ascii	"SDU_UNINIT\000"
 18202      554E494E 
 18202      495400
 18203              	.LASF492:
 18204 0a2c 50574D44 		.ascii	"PWMDriver\000"
 18204      72697665 
 18204      7200
 18205              	.LASF314:
 18206 0a36 50474461 		.ascii	"PGData\000"
 18206      746100
 18207              	.LASF501:
 18208 0a3d 50574D43 		.ascii	"PWMConfig\000"
 18208      6F6E6669 
 18208      6700
 18209              	.LASF751:
 18210 0a47 73657275 		.ascii	"serusbcfg\000"
 18210      73626366 
 18210      6700
 18211              	.LASF760:
 18212 0a51 76616C75 		.ascii	"value\000"
 18212      6500
 18213              	.LASF235:
 18214 0a57 63665F6F 		.ascii	"cf_off_newer\000"
 18214      66665F6E 
 18214      65776572 
 18214      00
 18215              	.LASF658:
 18216 0a64 44494550 		.ascii	"DIEPMSK\000"
 18216      4D534B00 
 18217              	.LASF625:
 18218 0a6c 474F5447 		.ascii	"GOTGINT\000"
 18218      494E5400 
 18219              	.LASF697:
 18220 0a74 6F75745F 		.ascii	"out_cb\000"
 18220      636200
 18221              	.LASF649:
 18222 0a7b 4841494E 		.ascii	"HAINTMSK\000"
 18222      544D534B 
 18222      00
 18223              	.LASF559:
 18224 0a84 6F75745F 		.ascii	"out_params\000"
 18224      70617261 
 18224      6D7300
 18225              	.LASF191:
 18226 0a8f 73655F77 		.ascii	"se_wtobjp\000"
 18226      746F626A 
 18226      7000
 18227              	.LASF109:
 18228 0a99 4A535152 		.ascii	"JSQR\000"
 18228      00
 18229              	.LASF773:
ARM GAS  /tmp/cc5QaxCL.s 			page 330


 18230 0a9e 6175746F 		.ascii	"auto_cw_y1\000"
 18230      5F63775F 
 18230      793100
 18231              	.LASF439:
 18232 0aa9 64696572 		.ascii	"dier\000"
 18232      00
 18233              	.LASF537:
 18234 0aae 69735F70 		.ascii	"is_protected\000"
 18234      726F7465 
 18234      63746564 
 18234      00
 18235              	.LASF75:
 18236 0abb 76697274 		.ascii	"virtual_timer_t\000"
 18236      75616C5F 
 18236      74696D65 
 18236      725F7400 
 18237              	.LASF699:
 18238 0acb 6F75745F 		.ascii	"out_maxsize\000"
 18238      6D617873 
 18238      697A6500 
 18239              	.LASF70:
 18240 0ad7 725F6374 		.ascii	"r_ctx\000"
 18240      7800
 18241              	.LASF77:
 18242 0add 76745F6E 		.ascii	"vt_next\000"
 18242      65787400 
 18243              	.LASF474:
 18244 0ae5 4932535F 		.ascii	"I2S_STOP\000"
 18244      53544F50 
 18244      00
 18245              	.LASF489:
 18246 0aee 50574D5F 		.ascii	"PWM_STOP\000"
 18246      53544F50 
 18246      00
 18247              	.LASF25:
 18248 0af7 7274636E 		.ascii	"rtcnt_t\000"
 18248      745F7400 
 18249              	.LASF339:
 18250 0aff 6D757465 		.ascii	"mutex\000"
 18250      7800
 18251              	.LASF483:
 18252 0b05 73697A65 		.ascii	"size\000"
 18252      00
 18253              	.LASF387:
 18254 0b0a 44414344 		.ascii	"DACDriver\000"
 18254      72697665 
 18254      7200
 18255              	.LASF403:
 18256 0b14 44414343 		.ascii	"DACConfig\000"
 18256      6F6E6669 
 18256      6700
 18257              	.LASF570:
 18258 0b1e 74787065 		.ascii	"txpending\000"
 18258      6E64696E 
 18258      6700
 18259              	.LASF424:
 18260 0b28 636C6F63 		.ascii	"clock\000"
ARM GAS  /tmp/cc5QaxCL.s 			page 331


 18260      6B00
 18261              	.LASF291:
 18262 0b2e 636C6561 		.ascii	"clear\000"
 18262      7200
 18263              	.LASF434:
 18264 0b34 43435852 		.ascii	"CCXR\000"
 18264      00
 18265              	.LASF139:
 18266 0b39 43414E5F 		.ascii	"CAN_TypeDef\000"
 18266      54797065 
 18266      44656600 
 18267              	.LASF756:
 18268 0b45 706F3630 		.ascii	"po6030_set_exposure\000"
 18268      33305F73 
 18268      65745F65 
 18268      78706F73 
 18268      75726500 
 18269              	.LASF193:
 18270 0b59 63685F73 		.ascii	"ch_swc_event_t\000"
 18270      77635F65 
 18270      76656E74 
 18270      5F7400
 18271              	.LASF507:
 18272 0b68 53445F53 		.ascii	"SD_STOP\000"
 18272      544F5000 
 18273              	.LASF604:
 18274 0b70 72657376 		.ascii	"resvd8\000"
 18274      643800
 18275              	.LASF3:
 18276 0b77 73697A65 		.ascii	"size_t\000"
 18276      5F7400
 18277              	.LASF96:
 18278 0b7e 6B65726E 		.ascii	"kernel_stats\000"
 18278      656C5F73 
 18278      74617473 
 18278      00
 18279              	.LASF671:
 18280 0b8b 72657376 		.ascii	"resvd880\000"
 18280      64383830 
 18280      00
 18281              	.LASF19:
 18282 0b94 75696E74 		.ascii	"uint8_t\000"
 18282      385F7400 
 18283              	.LASF608:
 18284 0b9c 72657376 		.ascii	"resvd14\000"
 18284      64313400 
 18285              	.LASF609:
 18286 0ba4 72657376 		.ascii	"resvd18\000"
 18286      64313800 
 18287              	.LASF72:
 18288 0bac 725F6F6C 		.ascii	"r_older\000"
 18288      64657200 
 18289              	.LASF40:
 18290 0bb4 705F7072 		.ascii	"p_prev\000"
 18290      657600
 18291              	.LASF237:
 18292 0bbb 63665F6F 		.ascii	"cf_off_name\000"
ARM GAS  /tmp/cc5QaxCL.s 			page 332


 18292      66665F6E 
 18292      616D6500 
 18293              	.LASF500:
 18294 0bc7 50574D43 		.ascii	"PWMChannelConfig\000"
 18294      68616E6E 
 18294      656C436F 
 18294      6E666967 
 18294      00
 18295              	.LASF499:
 18296 0bd8 70776D63 		.ascii	"pwmcnt_t\000"
 18296      6E745F74 
 18296      00
 18297              	.LASF742:
 18298 0be1 504F3630 		.ascii	"PO6030_FORMAT_RGB444\000"
 18298      33305F46 
 18298      4F524D41 
 18298      545F5247 
 18298      42343434 
 18299              	.LASF667:
 18300 0bf6 44494550 		.ascii	"DIEPEMPMSK\000"
 18300      454D504D 
 18300      534B00
 18301              	.LASF612:
 18302 0c01 44494550 		.ascii	"DIEPCTL\000"
 18302      43544C00 
 18303              	.LASF253:
 18304 0c09 656C5F77 		.ascii	"el_wflags\000"
 18304      666C6167 
 18304      7300
 18305              	.LASF568:
 18306 0c13 6F746770 		.ascii	"otgparams\000"
 18306      6172616D 
 18306      7300
 18307              	.LASF194:
 18308 0c1d 74625F73 		.ascii	"tb_size\000"
 18308      697A6500 
 18309              	.LASF311:
 18310 0c25 50444461 		.ascii	"PDData\000"
 18310      746100
 18311              	.LASF532:
 18312 0c2c 73637261 		.ascii	"scratchpad\000"
 18312      74636870 
 18312      616400
 18313              	.LASF701:
 18314 0c37 6F75745F 		.ascii	"out_state\000"
 18314      73746174 
 18314      6500
 18315              	.LASF257:
 18316 0c41 696F5F71 		.ascii	"io_queue_t\000"
 18316      75657565 
 18316      5F7400
 18317              	.LASF548:
 18318 0c4c 73706973 		.ascii	"spistate_t\000"
 18318      74617465 
 18318      5F7400
 18319              	.LASF778:
 18320 0c57 706F3630 		.ascii	"po6030_set_qqvga\000"
ARM GAS  /tmp/cc5QaxCL.s 			page 333


 18320      33305F73 
 18320      65745F71 
 18320      71766761 
 18320      00
 18321              	.LASF445:
 18322 0c68 4932435F 		.ascii	"I2C_STOP\000"
 18322      53544F50 
 18322      00
 18323              	.LASF467:
 18324 0c71 61646472 		.ascii	"addr\000"
 18324      00
 18325              	.LASF124:
 18326 0c76 52463052 		.ascii	"RF0R\000"
 18326      00
 18327              	.LASF329:
 18328 0c7b 4144435F 		.ascii	"ADC_ERR_DMAFAILURE\000"
 18328      4552525F 
 18328      444D4146 
 18328      41494C55 
 18328      524500
 18329              	.LASF546:
 18330 0c8e 5350495F 		.ascii	"SPI_ACTIVE\000"
 18330      41435449 
 18330      564500
 18331              	.LASF413:
 18332 0c99 45585443 		.ascii	"EXTChannelConfig\000"
 18332      68616E6E 
 18332      656C436F 
 18332      6E666967 
 18332      00
 18333              	.LASF294:
 18334 0caa 4F535045 		.ascii	"OSPEEDR\000"
 18334      45445200 
 18335              	.LASF377:
 18336 0cb2 4441435F 		.ascii	"DAC_READY\000"
 18336      52454144 
 18336      5900
 18337              	.LASF636:
 18338 0cbc 72657376 		.ascii	"resvd30\000"
 18338      64333000 
 18339              	.LASF637:
 18340 0cc4 72657376 		.ascii	"resvd34\000"
 18340      64333400 
 18341              	.LASF665:
 18342 0ccc 44564255 		.ascii	"DVBUSPULSE\000"
 18342      5350554C 
 18342      534500
 18343              	.LASF278:
 18344 0cd7 424C4B5F 		.ascii	"BLK_STOP\000"
 18344      53544F50 
 18344      00
 18345              	.LASF515:
 18346 0ce0 53657269 		.ascii	"SerialDriverVMT\000"
 18346      616C4472 
 18346      69766572 
 18346      564D5400 
 18347              	.LASF586:
ARM GAS  /tmp/cc5QaxCL.s 			page 334


 18348 0cf0 5553425F 		.ascii	"USB_EP0_ERROR\000"
 18348      4550305F 
 18348      4552524F 
 18348      5200
 18349              	.LASF538:
 18350 0cfe 636F6E6E 		.ascii	"connect\000"
 18350      65637400 
 18351              	.LASF125:
 18352 0d06 52463152 		.ascii	"RF1R\000"
 18352      00
 18353              	.LASF332:
 18354 0d0b 41444344 		.ascii	"ADCDriver\000"
 18354      72697665 
 18354      7200
 18355              	.LASF679:
 18356 0d15 6E756D5F 		.ascii	"num_endpoints\000"
 18356      656E6470 
 18356      6F696E74 
 18356      7300
 18357              	.LASF355:
 18358 0d23 41444343 		.ascii	"ADCConfig\000"
 18358      6F6E6669 
 18358      6700
 18359              	.LASF687:
 18360 0d2d 746F7473 		.ascii	"totsize\000"
 18360      697A6500 
 18361              	.LASF508:
 18362 0d35 53445F52 		.ascii	"SD_READY\000"
 18362      45414459 
 18362      00
 18363              	.LASF602:
 18364 0d3e 75736267 		.ascii	"usbgetdescriptor_t\000"
 18364      65746465 
 18364      73637269 
 18364      70746F72 
 18364      5F7400
 18365              	.LASF789:
 18366 0d51 474E5520 		.ascii	"GNU C11 7.2.1 20170904 (release) [ARM/embedded-7-br"
 18366      43313120 
 18366      372E322E 
 18366      31203230 
 18366      31373039 
 18367 0d84 616E6368 		.ascii	"anch revision 255204] -mcpu=cortex-m4 -mfloat-abi=h"
 18367      20726576 
 18367      6973696F 
 18367      6E203235 
 18367      35323034 
 18368 0db7 61726420 		.ascii	"ard -mfpu=fpv4-sp-d16 -mno-thumb-interwork -mthumb "
 18368      2D6D6670 
 18368      753D6670 
 18368      76342D73 
 18368      702D6431 
 18369 0dea 2D676764 		.ascii	"-ggdb -O2 -fomit-frame-pointer -falign-functions=16"
 18369      62202D4F 
 18369      32202D66 
 18369      6F6D6974 
 18369      2D667261 
ARM GAS  /tmp/cc5QaxCL.s 			page 335


 18370 0e1d 202D666E 		.ascii	" -fno-strict-aliasing -fstack-protector-all -ffunct"
 18370      6F2D7374 
 18370      72696374 
 18370      2D616C69 
 18370      6173696E 
 18371 0e50 696F6E2D 		.ascii	"ion-sections -fdata-sections -fno-common -fsingle-p"
 18371      73656374 
 18371      696F6E73 
 18371      202D6664 
 18371      6174612D 
 18372 0e83 72656369 		.ascii	"recision-constant\000"
 18372      73696F6E 
 18372      2D636F6E 
 18372      7374616E 
 18372      7400
 18373              	.LASF380:
 18374 0e95 4441435F 		.ascii	"DAC_ERROR\000"
 18374      4552524F 
 18374      5200
 18375              	.LASF581:
 18376 0e9f 5553425F 		.ascii	"USB_EP0_TX\000"
 18376      4550305F 
 18376      545800
 18377              	.LASF560:
 18378 0eaa 65703073 		.ascii	"ep0state\000"
 18378      74617465 
 18378      00
 18379              	.LASF271:
 18380 0eb3 69666372 		.ascii	"ifcr\000"
 18380      00
 18381              	.LASF473:
 18382 0eb8 4932535F 		.ascii	"I2S_UNINIT\000"
 18382      554E494E 
 18382      495400
 18383              	.LASF717:
 18384 0ec3 62756C6B 		.ascii	"bulk_in\000"
 18384      5F696E00 
 18385              	.LASF300:
 18386 0ecb 73746D33 		.ascii	"stm32_gpio_t\000"
 18386      325F6770 
 18386      696F5F74 
 18386      00
 18387              	.LASF210:
 18388 0ed8 7264796D 		.ascii	"rdymsg\000"
 18388      736700
 18389              	.LASF490:
 18390 0edf 50574D5F 		.ascii	"PWM_READY\000"
 18390      52454144 
 18390      5900
 18391              	.LASF115:
 18392 0ee9 54445452 		.ascii	"TDTR\000"
 18392      00
 18393              	.LASF123:
 18394 0eee 43414E5F 		.ascii	"CAN_FilterRegister_TypeDef\000"
 18394      46696C74 
 18394      65725265 
 18394      67697374 
ARM GAS  /tmp/cc5QaxCL.s 			page 336


 18394      65725F54 
 18395              	.LASF370:
 18396 0f09 6572726F 		.ascii	"error_event\000"
 18396      725F6576 
 18396      656E7400 
 18397              	.LASF345:
 18398 0f15 6E756D5F 		.ascii	"num_channels\000"
 18398      6368616E 
 18398      6E656C73 
 18398      00
 18399              	.LASF792:
 18400 0f22 706F3630 		.ascii	"po6030_start\000"
 18400      33305F73 
 18400      74617274 
 18400      00
 18401              	.LASF639:
 18402 0f2f 72657376 		.ascii	"resvd58\000"
 18402      64353800 
 18403              	.LASF688:
 18404 0f37 55534249 		.ascii	"USBInEndpointState\000"
 18404      6E456E64 
 18404      706F696E 
 18404      74537461 
 18404      746500
 18405              	.LASF41:
 18406 0f4a 705F7072 		.ascii	"p_prio\000"
 18406      696F00
 18407              	.LASF258:
 18408 0f51 696F5F71 		.ascii	"io_queue\000"
 18408      75657565 
 18408      00
 18409              	.LASF729:
 18410 0f5a 73756273 		.ascii	"subsampling_t\000"
 18410      616D706C 
 18410      696E675F 
 18410      7400
 18411              	.LASF769:
 18412 0f68 73756273 		.ascii	"subsampling_x\000"
 18412      616D706C 
 18412      696E675F 
 18412      7800
 18413              	.LASF770:
 18414 0f76 73756273 		.ascii	"subsampling_y\000"
 18414      616D706C 
 18414      696E675F 
 18414      7900
 18415              	.LASF733:
 18416 0f84 504F3630 		.ascii	"PO6030_FORMAT_YCRYCB\000"
 18416      33305F46 
 18416      4F524D41 
 18416      545F5943 
 18416      52594342 
 18417              	.LASF308:
 18418 0f99 50414461 		.ascii	"PAData\000"
 18418      746100
 18419              	.LASF16:
 18420 0fa0 5F5F7569 		.ascii	"__uint64_t\000"
ARM GAS  /tmp/cc5QaxCL.s 			page 337


 18420      6E743634 
 18420      5F7400
 18421              	.LASF768:
 18422 0fab 706F3630 		.ascii	"po6030_advanced_config\000"
 18422      33305F61 
 18422      6476616E 
 18422      6365645F 
 18422      636F6E66 
 18423              	.LASF752:
 18424 0fc2 53445531 		.ascii	"SDU1\000"
 18424      00
 18425              	.LASF495:
 18426 0fc7 70776D63 		.ascii	"pwmcallback_t\000"
 18426      616C6C62 
 18426      61636B5F 
 18426      7400
 18427              	.LASF740:
 18428 0fd5 504F3630 		.ascii	"PO6030_FORMAT_MONO_SENSOR\000"
 18428      33305F46 
 18428      4F524D41 
 18428      545F4D4F 
 18428      4E4F5F53 
 18429              	.LASF388:
 18430 0fef 70617261 		.ascii	"params\000"
 18430      6D7300
 18431              	.LASF585:
 18432 0ff6 5553425F 		.ascii	"USB_EP0_SENDING_STS\000"
 18432      4550305F 
 18432      53454E44 
 18432      494E475F 
 18432      53545300 
 18433              	.LASF719:
 18434 100a 696E745F 		.ascii	"int_in\000"
 18434      696E00
 18435              	.LASF450:
 18436 1011 69326373 		.ascii	"i2cstate_t\000"
 18436      74617465 
 18436      5F7400
 18437              	.LASF587:
 18438 101c 75736265 		.ascii	"usbep0state_t\000"
 18438      70307374 
 18438      6174655F 
 18438      7400
 18439              	.LASF392:
 18440 102a 64616365 		.ascii	"dacerror_t\000"
 18440      72726F72 
 18440      5F7400
 18441              	.LASF127:
 18442 1035 7354784D 		.ascii	"sTxMailBox\000"
 18442      61696C42 
 18442      6F7800
 18443              	.LASF327:
 18444 1040 61646373 		.ascii	"adcsample_t\000"
 18444      616D706C 
 18444      655F7400 
 18445              	.LASF425:
 18446 104c 67707463 		.ascii	"gptcallback_t\000"
ARM GAS  /tmp/cc5QaxCL.s 			page 338


 18446      616C6C62 
 18446      61636B5F 
 18446      7400
 18447              	.LASF261:
 18448 105a 715F6275 		.ascii	"q_buffer\000"
 18448      66666572 
 18448      00
 18449              	.LASF39:
 18450 1063 705F6E65 		.ascii	"p_next\000"
 18450      787400
 18451              	.LASF472:
 18452 106a 49324344 		.ascii	"I2CD1\000"
 18452      3100
 18453              	.LASF613:
 18454 1070 72657376 		.ascii	"resvd4\000"
 18454      643400
 18455              	.LASF555:
 18456 1077 55534244 		.ascii	"USBDriver\000"
 18456      72697665 
 18456      7200
 18457              	.LASF672:
 18458 1081 72657376 		.ascii	"resvd8C0\000"
 18458      64384330 
 18458      00
 18459              	.LASF709:
 18460 108a 55534243 		.ascii	"USBConfig\000"
 18460      6F6E6669 
 18460      6700
 18461              	.LASF615:
 18462 1094 72657376 		.ascii	"resvdC\000"
 18462      644300
 18463              	.LASF502:
 18464 109b 50574D44 		.ascii	"PWMD2\000"
 18464      3200
 18465              	.LASF503:
 18466 10a1 50574D44 		.ascii	"PWMD3\000"
 18466      3300
 18467              	.LASF504:
 18468 10a7 50574D44 		.ascii	"PWMD4\000"
 18468      3400
 18469              	.LASF505:
 18470 10ad 50574D44 		.ascii	"PWMD5\000"
 18470      3500
 18471              	.LASF731:
 18472 10b3 504F3630 		.ascii	"PO6030_FORMAT_CRYCBY\000"
 18472      33305F46 
 18472      4F524D41 
 18472      545F4352 
 18472      59434259 
 18473              	.LASF513:
 18474 10c8 6F717565 		.ascii	"oqueue\000"
 18474      756500
 18475              	.LASF29:
 18476 10cf 74726566 		.ascii	"trefs_t\000"
 18476      735F7400 
 18477              	.LASF58:
 18478 10d7 705F6D70 		.ascii	"p_mpool\000"
ARM GAS  /tmp/cc5QaxCL.s 			page 339


 18478      6F6F6C00 
 18479              	.LASF400:
 18480 10df 44414343 		.ascii	"DACConversionGroup\000"
 18480      6F6E7665 
 18480      7273696F 
 18480      6E47726F 
 18480      757000
 18481              	.LASF702:
 18482 10f2 696E5F6D 		.ascii	"in_multiplier\000"
 18482      756C7469 
 18482      706C6965 
 18482      7200
 18483              	.LASF325:
 18484 1100 4144435F 		.ascii	"ADC_ERROR\000"
 18484      4552524F 
 18484      5200
 18485              	.LASF27:
 18486 110a 746D6F64 		.ascii	"tmode_t\000"
 18486      655F7400 
 18487              	.LASF323:
 18488 1112 4144435F 		.ascii	"ADC_ACTIVE\000"
 18488      41435449 
 18488      564500
 18489              	.LASF106:
 18490 111d 53515231 		.ascii	"SQR1\000"
 18490      00
 18491              	.LASF107:
 18492 1122 53515232 		.ascii	"SQR2\000"
 18492      00
 18493              	.LASF108:
 18494 1127 53515233 		.ascii	"SQR3\000"
 18494      00
 18495              	.LASF754:
 18496 112c 706F3630 		.ascii	"po6030_is_connected\000"
 18496      33305F69 
 18496      735F636F 
 18496      6E6E6563 
 18496      74656400 
 18497              	.LASF736:
 18498 1140 504F3630 		.ascii	"PO6030_FORMAT_GRBG\000"
 18498      33305F46 
 18498      4F524D41 
 18498      545F4752 
 18498      424700
 18499              	.LASF296:
 18500 1153 42535252 		.ascii	"BSRR\000"
 18500      00
 18501              	.LASF275:
 18502 1158 73746D33 		.ascii	"stm32_dma_stream_t\000"
 18502      325F646D 
 18502      615F7374 
 18502      7265616D 
 18502      5F7400
 18503              	.LASF707:
 18504 116b 72657175 		.ascii	"requests_hook_cb\000"
 18504      65737473 
 18504      5F686F6F 
ARM GAS  /tmp/cc5QaxCL.s 			page 340


 18504      6B5F6362 
 18504      00
 18505              	.LASF524:
 18506 117c 5344435F 		.ascii	"SDC_MODE_8BIT\000"
 18506      4D4F4445 
 18506      5F384249 
 18506      5400
 18507              	.LASF685:
 18508 118a 74787369 		.ascii	"txsize\000"
 18508      7A6500
 18509              	.LASF396:
 18510 1191 4441435F 		.ascii	"DAC_DHRM_12BIT_LEFT\000"
 18510      4448524D 
 18510      5F313242 
 18510      49545F4C 
 18510      45465400 
 18511              	.LASF738:
 18512 11a5 504F3630 		.ascii	"PO6030_FORMAT_RGB565\000"
 18512      33305F46 
 18512      4F524D41 
 18512      545F5247 
 18512      42353635 
 18513              	.LASF493:
 18514 11ba 70657269 		.ascii	"period\000"
 18514      6F6400
 18515              	.LASF449:
 18516 11c1 4932435F 		.ascii	"I2C_LOCKED\000"
 18516      4C4F434B 
 18516      454400
 18517              	.LASF88:
 18518 11cc 6973725F 		.ascii	"isr_cnt\000"
 18518      636E7400 
 18519              	.LASF576:
 18520 11d4 5553425F 		.ascii	"USB_READY\000"
 18520      52454144 
 18520      5900
 18521              	.LASF521:
 18522 11de 72656164 		.ascii	"readt\000"
 18522      7400
 18523              	.LASF628:
 18524 11e4 47525354 		.ascii	"GRSTCTL\000"
 18524      43544C00 
 18525              	.LASF422:
 18526 11ec 67707473 		.ascii	"gptstate_t\000"
 18526      74617465 
 18526      5F7400
 18527              	.LASF18:
 18528 11f7 696E7438 		.ascii	"int8_t\000"
 18528      5F7400
 18529              	.LASF87:
 18530 11fe 70616E69 		.ascii	"panic_msg\000"
 18530      635F6D73 
 18530      6700
 18531              	.LASF547:
 18532 1208 5350495F 		.ascii	"SPI_COMPLETE\000"
 18532      434F4D50 
 18532      4C455445 
ARM GAS  /tmp/cc5QaxCL.s 			page 341


 18532      00
 18533              	.LASF169:
 18534 1215 4454494D 		.ascii	"DTIMER\000"
 18534      455200
 18535              	.LASF71:
 18536 121c 725F6E65 		.ascii	"r_newer\000"
 18536      77657200 
 18537              	.LASF593:
 18538 1224 5553425F 		.ascii	"USB_EVENT_STALLED\000"
 18538      4556454E 
 18538      545F5354 
 18538      414C4C45 
 18538      4400
 18539              	.LASF244:
 18540 1236 63686465 		.ascii	"chdebug_t\000"
 18540      6275675F 
 18540      7400
 18541              	.LASF691:
 18542 1240 72787369 		.ascii	"rxsize\000"
 18542      7A6500
 18543              	.LASF607:
 18544 1247 48435453 		.ascii	"HCTSIZ\000"
 18544      495A00
 18545              	.LASF590:
 18546 124e 5553425F 		.ascii	"USB_EVENT_CONFIGURED\000"
 18546      4556454E 
 18546      545F434F 
 18546      4E464947 
 18546      55524544 
 18547              	.LASF539:
 18548 1263 64697363 		.ascii	"disconnect\000"
 18548      6F6E6E65 
 18548      637400
 18549              	.LASF518:
 18550 126e 70757474 		.ascii	"putt\000"
 18550      00
 18551              	.LASF30:
 18552 1273 74736C69 		.ascii	"tslices_t\000"
 18552      6365735F 
 18552      7400
 18553              	.LASF231:
 18554 127d 63685F74 		.ascii	"ch_timesize\000"
 18554      696D6573 
 18554      697A6500 
 18555              	.LASF572:
 18556 1289 77615F70 		.ascii	"wa_pump\000"
 18556      756D7000 
 18557              	.LASF174:
 18558 1291 4649464F 		.ascii	"FIFOCNT\000"
 18558      434E5400 
 18559              	.LASF256:
 18560 1299 6576656E 		.ascii	"event_source_t\000"
 18560      745F736F 
 18560      75726365 
 18560      5F7400
 18561              	.LASF642:
 18562 12a8 72657376 		.ascii	"resvd140\000"
ARM GAS  /tmp/cc5QaxCL.s 			page 342


 18562      64313430 
 18562      00
 18563              	.LASF79:
 18564 12b1 76745F64 		.ascii	"vt_delta\000"
 18564      656C7461 
 18564      00
 18565              	.LASF195:
 18566 12ba 74625F70 		.ascii	"tb_ptr\000"
 18566      747200
 18567              	.LASF399:
 18568 12c1 74726967 		.ascii	"trigger\000"
 18568      67657200 
 18569              	.LASF591:
 18570 12c9 5553425F 		.ascii	"USB_EVENT_SUSPEND\000"
 18570      4556454E 
 18570      545F5355 
 18570      5350454E 
 18570      4400
 18571              	.LASF20:
 18572 12db 696E7431 		.ascii	"int16_t\000"
 18572      365F7400 
 18573              	.LASF418:
 18574 12e3 4750545F 		.ascii	"GPT_STOP\000"
 18574      53544F50 
 18574      00
 18575              	.LASF114:
 18576 12ec 4144435F 		.ascii	"ADC_TypeDef\000"
 18576      54797065 
 18576      44656600 
 18577              	.LASF11:
 18578 12f8 73686F72 		.ascii	"short unsigned int\000"
 18578      7420756E 
 18578      7369676E 
 18578      65642069 
 18578      6E7400
 18579              	.LASF461:
 18580 130b 6F705F6D 		.ascii	"op_mode\000"
 18580      6F646500 
 18581              	.LASF5:
 18582 1313 7369676E 		.ascii	"signed char\000"
 18582      65642063 
 18582      68617200 
 18583              	.LASF530:
 18584 131f 63617264 		.ascii	"cardmode\000"
 18584      6D6F6465 
 18584      00
 18585              	.LASF50:
 18586 1328 705F7072 		.ascii	"p_preempt\000"
 18586      65656D70 
 18586      7400
 18587              	.LASF36:
 18588 1332 75636E74 		.ascii	"ucnt_t\000"
 18588      5F7400
 18589              	.LASF117:
 18590 1339 54444852 		.ascii	"TDHR\000"
 18590      00
 18591              	.LASF321:
ARM GAS  /tmp/cc5QaxCL.s 			page 343


 18592 133e 4144435F 		.ascii	"ADC_STOP\000"
 18592      53544F50 
 18592      00
 18593              	.LASF584:
 18594 1347 5553425F 		.ascii	"USB_EP0_RX\000"
 18594      4550305F 
 18594      525800
 18595              	.LASF496:
 18596 1352 70776D6D 		.ascii	"pwmmode_t\000"
 18596      6F64655F 
 18596      7400
 18597              	.LASF565:
 18598 135c 73746174 		.ascii	"status\000"
 18598      757300
 18599              	.LASF170:
 18600 1363 444C454E 		.ascii	"DLEN\000"
 18600      00
 18601              	.LASF523:
 18602 1368 5344435F 		.ascii	"SDC_MODE_4BIT\000"
 18602      4D4F4445 
 18602      5F344249 
 18602      5400
 18603              	.LASF597:
 18604 1376 55534244 		.ascii	"USBDescriptor\000"
 18604      65736372 
 18604      6970746F 
 18604      7200
 18605              	.LASF550:
 18606 1384 73706963 		.ascii	"spicallback_t\000"
 18606      616C6C62 
 18606      61636B5F 
 18606      7400
 18607              	.LASF566:
 18608 1392 61646472 		.ascii	"address\000"
 18608      65737300 
 18609              	.LASF53:
 18610 139a 705F6D73 		.ascii	"p_msgqueue\000"
 18610      67717565 
 18610      756500
 18611              	.LASF241:
 18612 13a5 63665F6F 		.ascii	"cf_off_refs\000"
 18612      66665F72 
 18612      65667300 
 18613              	.LASF534:
 18614 13b1 53444343 		.ascii	"SDCConfig\000"
 18614      6F6E6669 
 18614      6700
 18615              	.LASF222:
 18616 13bb 6D5F6F77 		.ascii	"m_owner\000"
 18616      6E657200 
 18617              	.LASF99:
 18618 13c3 53797374 		.ascii	"SystemCoreClock\000"
 18618      656D436F 
 18618      7265436C 
 18618      6F636B00 
 18619              	.LASF343:
 18620 13d3 61646365 		.ascii	"adcerrorcallback_t\000"
ARM GAS  /tmp/cc5QaxCL.s 			page 344


 18620      72726F72 
 18620      63616C6C 
 18620      6261636B 
 18620      5F7400
 18621              	.LASF378:
 18622 13e6 4441435F 		.ascii	"DAC_ACTIVE\000"
 18622      41435449 
 18622      564500
 18623              	.LASF333:
 18624 13f1 73746174 		.ascii	"state\000"
 18624      6500
 18625              	.LASF229:
 18626 13f7 63685F76 		.ascii	"ch_version\000"
 18626      65727369 
 18626      6F6E00
 18627              	.LASF531:
 18628 1402 7364696F 		.ascii	"sdio\000"
 18628      00
 18629              	.LASF140:
 18630 1407 53575452 		.ascii	"SWTRIGR\000"
 18630      49475200 
 18631              	.LASF583:
 18632 140f 5553425F 		.ascii	"USB_EP0_WAITING_STS\000"
 18632      4550305F 
 18632      57414954 
 18632      494E475F 
 18632      53545300 
 18633              	.LASF161:
 18634 1423 4932435F 		.ascii	"I2C_TypeDef\000"
 18634      54797065 
 18634      44656600 
 18635              	.LASF121:
 18636 142f 52444852 		.ascii	"RDHR\000"
 18636      00
 18637              	.LASF432:
 18638 1434 444D4152 		.ascii	"DMAR\000"
 18638      00
 18639              	.LASF438:
 18640 1439 63616C6C 		.ascii	"callback\000"
 18640      6261636B 
 18640      00
 18641              	.LASF92:
 18642 1442 63685F73 		.ascii	"ch_system\000"
 18642      79737465 
 18642      6D00
 18643              	.LASF162:
 18644 144c 504F5745 		.ascii	"POWER\000"
 18644      5200
 18645              	.LASF90:
 18646 1452 74726163 		.ascii	"trace_buffer\000"
 18646      655F6275 
 18646      66666572 
 18646      00
 18647              	.LASF397:
 18648 145f 4441435F 		.ascii	"DAC_DHRM_8BIT_RIGHT\000"
 18648      4448524D 
 18648      5F384249 
ARM GAS  /tmp/cc5QaxCL.s 			page 345


 18648      545F5249 
 18648      47485400 
 18649              	.LASF417:
 18650 1473 4750545F 		.ascii	"GPT_UNINIT\000"
 18650      554E494E 
 18650      495400
 18651              	.LASF761:
 18652 147e 706F3630 		.ascii	"po6030_set_rgb_gain\000"
 18652      33305F73 
 18652      65745F72 
 18652      67625F67 
 18652      61696E00 
 18653              	.LASF217:
 18654 1492 63685F73 		.ascii	"ch_semaphore\000"
 18654      656D6170 
 18654      686F7265 
 18654      00
 18655              	.LASF721:
 18656 149f 53657269 		.ascii	"SerialUSBDriverVMT\000"
 18656      616C5553 
 18656      42447269 
 18656      76657256 
 18656      4D5400
 18657              	.LASF616:
 18658 14b2 44494550 		.ascii	"DIEPTSIZ\000"
 18658      5453495A 
 18658      00
 18659              	.LASF348:
 18660 14bb 736D7072 		.ascii	"smpr1\000"
 18660      3100
 18661              	.LASF349:
 18662 14c1 736D7072 		.ascii	"smpr2\000"
 18662      3200
 18663              	.LASF64:
 18664 14c7 74687265 		.ascii	"threads_queue_t\000"
 18664      6164735F 
 18664      71756575 
 18664      655F7400 
 18665              	.LASF286:
 18666 14d7 626C6B73 		.ascii	"blkstate_t\000"
 18666      74617465 
 18666      5F7400
 18667              	.LASF51:
 18668 14e2 705F7469 		.ascii	"p_time\000"
 18668      6D6500
 18669              	.LASF49:
 18670 14e9 705F7265 		.ascii	"p_refs\000"
 18670      667300
 18671              	.LASF694:
 18672 14f0 65705F6D 		.ascii	"ep_mode\000"
 18672      6F646500 
 18673              	.LASF497:
 18674 14f8 70776D63 		.ascii	"pwmchannel_t\000"
 18674      68616E6E 
 18674      656C5F74 
 18674      00
 18675              	.LASF116:
ARM GAS  /tmp/cc5QaxCL.s 			page 346


 18676 1505 54444C52 		.ascii	"TDLR\000"
 18676      00
 18677              	.LASF13:
 18678 150a 6C6F6E67 		.ascii	"long int\000"
 18678      20696E74 
 18678      00
 18679              	.LASF95:
 18680 1513 6D61696E 		.ascii	"mainthread\000"
 18680      74687265 
 18680      616400
 18681              	.LASF562:
 18682 151e 6570306E 		.ascii	"ep0n\000"
 18682      00
 18683              	.LASF675:
 18684 1523 72657376 		.ascii	"resvdE04\000"
 18684      64453034 
 18684      00
 18685              	.LASF221:
 18686 152c 6D5F7175 		.ascii	"m_queue\000"
 18686      65756500 
 18687              	.LASF385:
 18688 1534 646D6169 		.ascii	"dmairqprio\000"
 18688      72717072 
 18688      696F00
 18689              	.LASF423:
 18690 153f 47505444 		.ascii	"GPTDriver\000"
 18690      72697665 
 18690      7200
 18691              	.LASF527:
 18692 1549 73646366 		.ascii	"sdcflags_t\000"
 18692      6C616773 
 18692      5F7400
 18693              	.LASF315:
 18694 1554 50484461 		.ascii	"PHData\000"
 18694      746100
 18695              	.LASF318:
 18696 155b 696F706F 		.ascii	"ioportid_t\000"
 18696      72746964 
 18696      5F7400
 18697              	.LASF356:
 18698 1566 41444344 		.ascii	"ADCD1\000"
 18698      3100
 18699              	.LASF357:
 18700 156c 41444344 		.ascii	"ADCD2\000"
 18700      3200
 18701              	.LASF358:
 18702 1572 41444344 		.ascii	"ADCD3\000"
 18702      3300
 18703              	.LASF643:
 18704 1578 48434647 		.ascii	"HCFG\000"
 18704      00
 18705              	.LASF341:
 18706 157d 646D616D 		.ascii	"dmamode\000"
 18706      6F646500 
 18707              	.LASF203:
 18708 1585 63756D75 		.ascii	"cumulative\000"
 18708      6C617469 
ARM GAS  /tmp/cc5QaxCL.s 			page 347


 18708      766500
 18709              	.LASF554:
 18710 1590 53504944 		.ascii	"SPID1\000"
 18710      3100
 18711              	.LASF519:
 18712 1596 67657474 		.ascii	"gett\000"
 18712      00
 18713              	.LASF213:
 18714 159b 77747472 		.ascii	"wttrp\000"
 18714      7000
 18715              	.LASF264:
 18716 15a1 715F7264 		.ascii	"q_rdptr\000"
 18716      70747200 
 18717              	.LASF187:
 18718 15a9 636F6E74 		.ascii	"context\000"
 18718      65787400 
 18719              	.LASF516:
 18720 15b1 77726974 		.ascii	"write\000"
 18720      6500
 18721              	.LASF512:
 18722 15b7 69717565 		.ascii	"iqueue\000"
 18722      756500
 18723              	.LASF696:
 18724 15be 696E5F63 		.ascii	"in_cb\000"
 18724      6200
 18725              	.LASF621:
 18726 15c4 444F4550 		.ascii	"DOEPINT\000"
 18726      494E5400 
 18727              	.LASF202:
 18728 15cc 6C617374 		.ascii	"last\000"
 18728      00
 18729              	.LASF297:
 18730 15d1 4C434B52 		.ascii	"LCKR\000"
 18730      00
 18731              	.LASF509:
 18732 15d6 73647374 		.ascii	"sdstate_t\000"
 18732      6174655F 
 18732      7400
 18733              	.LASF23:
 18734 15e0 75696E74 		.ascii	"uint32_t\000"
 18734      33325F74 
 18734      00
 18735              	.LASF382:
 18736 15e9 64617461 		.ascii	"dataoffset\000"
 18736      6F666673 
 18736      657400
 18737              	.LASF284:
 18738 15f4 424C4B5F 		.ascii	"BLK_WRITING\000"
 18738      57524954 
 18738      494E4700 
 18739              	.LASF120:
 18740 1600 52444C52 		.ascii	"RDLR\000"
 18740      00
 18741              	.LASF2:
 18742 1605 6C6F6E67 		.ascii	"long double\000"
 18742      20646F75 
 18742      626C6500 
ARM GAS  /tmp/cc5QaxCL.s 			page 348


 18743              	.LASF185:
 18744 1611 72656761 		.ascii	"regarm_t\000"
 18744      726D5F74 
 18744      00
 18745              	.LASF33:
 18746 161a 6576656E 		.ascii	"eventmask_t\000"
 18746      746D6173 
 18746      6B5F7400 
 18747              	.LASF336:
 18748 1626 64657074 		.ascii	"depth\000"
 18748      6800
 18749              	.LASF134:
 18750 162c 46464131 		.ascii	"FFA1R\000"
 18750      5200
 18751              	.LASF577:
 18752 1632 5553425F 		.ascii	"USB_SELECTED\000"
 18752      53454C45 
 18752      43544544 
 18752      00
 18753              	.LASF15:
 18754 163f 6C6F6E67 		.ascii	"long unsigned int\000"
 18754      20756E73 
 18754      69676E65 
 18754      6420696E 
 18754      7400
 18755              	.LASF476:
 18756 1651 4932535F 		.ascii	"I2S_ACTIVE\000"
 18756      41435449 
 18756      564500
 18757              	.LASF419:
 18758 165c 4750545F 		.ascii	"GPT_READY\000"
 18758      52454144 
 18758      5900
 18759              	.LASF381:
 18760 1666 64616373 		.ascii	"dacstate_t\000"
 18760      74617465 
 18760      5F7400
 18761              	.LASF190:
 18762 1671 73655F74 		.ascii	"se_tp\000"
 18762      7000
 18763              	.LASF263:
 18764 1677 715F7772 		.ascii	"q_wrptr\000"
 18764      70747200 
 18765              	.LASF389:
 18766 167f 64616373 		.ascii	"dacsample_t\000"
 18766      616D706C 
 18766      655F7400 
 18767              	.LASF589:
 18768 168b 5553425F 		.ascii	"USB_EVENT_ADDRESS\000"
 18768      4556454E 
 18768      545F4144 
 18768      44524553 
 18768      5300
 18769              	.LASF484:
 18770 169d 69327363 		.ascii	"i2scfgr\000"
 18770      66677200 
 18771              	.LASF712:
ARM GAS  /tmp/cc5QaxCL.s 			page 349


 18772 16a5 5344555F 		.ascii	"SDU_STOP\000"
 18772      53544F50 
 18772      00
 18773              	.LASF164:
 18774 16ae 52455350 		.ascii	"RESPCMD\000"
 18774      434D4400 
 18775              	.LASF368:
 18776 16b6 72786675 		.ascii	"rxfull_event\000"
 18776      6C6C5F65 
 18776      76656E74 
 18776      00
 18777              	.LASF790:
 18778 16c3 2E2E2F65 		.ascii	"../e-puck2_main-processor/src/camera/po6030.c\000"
 18778      2D707563 
 18778      6B325F6D 
 18778      61696E2D 
 18778      70726F63 
 18779              	.LASF594:
 18780 16f1 75736265 		.ascii	"usbevent_t\000"
 18780      76656E74 
 18780      5F7400
 18781              	.LASF225:
 18782 16fc 63686172 		.ascii	"char\000"
 18782      00
 18783              	.LASF365:
 18784 1701 43414E43 		.ascii	"CANConfig\000"
 18784      6F6E6669 
 18784      6700
 18785              	.LASF312:
 18786 170b 50454461 		.ascii	"PEData\000"
 18786      746100
 18787              	.LASF68:
 18788 1712 725F7175 		.ascii	"r_queue\000"
 18788      65756500 
 18789              	.LASF776:
 18790 171a 696D6773 		.ascii	"imgsize\000"
 18790      697A6500 
 18791              	.LASF494:
 18792 1722 656E6162 		.ascii	"enabled\000"
 18792      6C656400 
 18793              	.LASF390:
 18794 172a 4441435F 		.ascii	"DAC_ERR_DMAFAILURE\000"
 18794      4552525F 
 18794      444D4146 
 18794      41494C55 
 18794      524500
 18795              	.LASF633:
 18796 173d 47525846 		.ascii	"GRXFSIZ\000"
 18796      53495A00 
 18797              	.LASF540:
 18798 1745 73796E63 		.ascii	"sync\000"
 18798      00
 18799              	.LASF514:
 18800 174a 75736172 		.ascii	"usart\000"
 18800      7400
 18801              	.LASF724:
 18802 1750 53495A45 		.ascii	"SIZE_QQVGA\000"
ARM GAS  /tmp/cc5QaxCL.s 			page 350


 18802      5F515156 
 18802      474100
 18803              	.LASF526:
 18804 175b 7364636D 		.ascii	"sdcmode_t\000"
 18804      6F64655F 
 18804      7400
 18805              	.LASF266:
 18806 1765 715F6C69 		.ascii	"q_link\000"
 18806      6E6B00
 18807              	.LASF654:
 18808 176c 44434647 		.ascii	"DCFG\000"
 18808      00
 18809              	.LASF664:
 18810 1771 44564255 		.ascii	"DVBUSDIS\000"
 18810      53444953 
 18810      00
 18811              	.LASF630:
 18812 177a 47494E54 		.ascii	"GINTMSK\000"
 18812      4D534B00 
 18813              	.LASF635:
 18814 1782 484E5054 		.ascii	"HNPTXSTS\000"
 18814      58535453 
 18814      00
 18815              	.LASF567:
 18816 178b 636F6E66 		.ascii	"configuration\000"
 18816      69677572 
 18816      6174696F 
 18816      6E00
 18817              	.LASF771:
 18818 1799 6175746F 		.ascii	"auto_cw_x1\000"
 18818      5F63775F 
 18818      783100
 18819              	.LASF307:
 18820 17a4 73746D33 		.ascii	"stm32_gpio_setup_t\000"
 18820      325F6770 
 18820      696F5F73 
 18820      65747570 
 18820      5F7400
 18821              	.LASF732:
 18822 17b7 504F3630 		.ascii	"PO6030_FORMAT_YCBYCR\000"
 18822      33305F46 
 18822      4F524D41 
 18822      545F5943 
 18822      42594352 
 18823              	.LASF276:
 18824 17cc 5F73746D 		.ascii	"_stm32_dma_streams\000"
 18824      33325F64 
 18824      6D615F73 
 18824      74726561 
 18824      6D7300
 18825              	.LASF142:
 18826 17df 44485231 		.ascii	"DHR12L1\000"
 18826      324C3100 
 18827              	.LASF145:
 18828 17e7 44485231 		.ascii	"DHR12L2\000"
 18828      324C3200 
 18829              	.LASF525:
ARM GAS  /tmp/cc5QaxCL.s 			page 351


 18830 17ef 73646362 		.ascii	"sdcbusmode_t\000"
 18830      75736D6F 
 18830      64655F74 
 18830      00
 18831              	.LASF791:
 18832 17fc 2F686F6D 		.ascii	"/home/leander/uos_codes/epuck2_lab/Task1/\000"
 18832      652F6C65 
 18832      616E6465 
 18832      722F756F 
 18832      735F636F 
 18833              	.LASF747:
 18834 1826 63757272 		.ascii	"curr_format\000"
 18834      5F666F72 
 18834      6D617400 
 18835              	.LASF148:
 18836 1832 44485231 		.ascii	"DHR12LD\000"
 18836      324C4400 
 18837              	.LASF342:
 18838 183a 61646363 		.ascii	"adccallback_t\000"
 18838      616C6C62 
 18838      61636B5F 
 18838      7400
 18839              	.LASF46:
 18840 1848 705F7374 		.ascii	"p_stklimit\000"
 18840      6B6C696D 
 18840      697400
 18841              	.LASF35:
 18842 1853 636E745F 		.ascii	"cnt_t\000"
 18842      7400
 18843              	.LASF774:
 18844 1859 6175746F 		.ascii	"auto_cw_y2\000"
 18844      5F63775F 
 18844      793200
 18845              	.LASF408:
 18846 1864 65787473 		.ascii	"extstate_t\000"
 18846      74617465 
 18846      5F7400
 18847              	.LASF735:
 18848 186f 504F3630 		.ascii	"PO6030_FORMAT_GBRG\000"
 18848      33305F46 
 18848      4F524D41 
 18848      545F4742 
 18848      524700
 18849              	.LASF582:
 18850 1882 5553425F 		.ascii	"USB_EP0_WAITING_TX0\000"
 18850      4550305F 
 18850      57414954 
 18850      494E475F 
 18850      54583000 
 18851              	.LASF561:
 18852 1896 6570306E 		.ascii	"ep0next\000"
 18852      65787400 
 18853              	.LASF611:
 18854 189e 73746D33 		.ascii	"stm32_otg_host_chn_t\000"
 18854      325F6F74 
 18854      675F686F 
 18854      73745F63 
ARM GAS  /tmp/cc5QaxCL.s 			page 352


 18854      686E5F74 
 18855              	.LASF299:
 18856 18b3 41465248 		.ascii	"AFRH\000"
 18856      00
 18857              	.LASF298:
 18858 18b8 4146524C 		.ascii	"AFRL\000"
 18858      00
 18859              	.LASF763:
 18860 18bd 706F3630 		.ascii	"po6030_set_mirror\000"
 18860      33305F73 
 18860      65745F6D 
 18860      6972726F 
 18860      7200
 18861              	.LASF242:
 18862 18cf 63665F6F 		.ascii	"cf_off_preempt\000"
 18862      66665F70 
 18862      7265656D 
 18862      707400
 18863              	.LASF379:
 18864 18de 4441435F 		.ascii	"DAC_COMPLETE\000"
 18864      434F4D50 
 18864      4C455445 
 18864      00
 18865              	.LASF620:
 18866 18eb 444F4550 		.ascii	"DOEPCTL\000"
 18866      43544C00 
 18867              	.LASF606:
 18868 18f3 4843494E 		.ascii	"HCINTMSK\000"
 18868      544D534B 
 18868      00
 18869              	.LASF334:
 18870 18fc 636F6E66 		.ascii	"config\000"
 18870      696700
 18871              	.LASF442:
 18872 1903 47505444 		.ascii	"GPTD11\000"
 18872      313100
 18873              	.LASF443:
 18874 190a 47505444 		.ascii	"GPTD14\000"
 18874      313400
 18875              	.LASF787:
 18876 1911 77726974 		.ascii	"write_reg\000"
 18876      655F7265 
 18876      6700
 18877              	.LASF280:
 18878 191b 424C4B5F 		.ascii	"BLK_CONNECTING\000"
 18878      434F4E4E 
 18878      45435449 
 18878      4E4700
 18879              	.LASF375:
 18880 192a 4441435F 		.ascii	"DAC_UNINIT\000"
 18880      554E494E 
 18880      495400
 18881              	.LASF328:
 18882 1935 6164635F 		.ascii	"adc_channels_num_t\000"
 18882      6368616E 
 18882      6E656C73 
 18882      5F6E756D 
ARM GAS  /tmp/cc5QaxCL.s 			page 353


 18882      5F7400
 18883              	.LASF74:
 18884 1948 76746675 		.ascii	"vtfunc_t\000"
 18884      6E635F74 
 18884      00
 18885              	.LASF122:
 18886 1951 43414E5F 		.ascii	"CAN_FIFOMailBox_TypeDef\000"
 18886      4649464F 
 18886      4D61696C 
 18886      426F785F 
 18886      54797065 
 18887              	.LASF152:
 18888 1969 4441435F 		.ascii	"DAC_TypeDef\000"
 18888      54797065 
 18888      44656600 
 18889              	.LASF212:
 18890 1975 77746F62 		.ascii	"wtobjp\000"
 18890      6A7000
 18891              	.LASF395:
 18892 197c 4441435F 		.ascii	"DAC_DHRM_12BIT_RIGHT\000"
 18892      4448524D 
 18892      5F313242 
 18892      49545F52 
 18892      49474854 
 18893              	.LASF57:
 18894 1991 705F7265 		.ascii	"p_realprio\000"
 18894      616C7072 
 18894      696F00
 18895              	.LASF529:
 18896 199c 63617061 		.ascii	"capacity\000"
 18896      63697479 
 18896      00
 18897              	.LASF781:
 18898 19a5 706F3630 		.ascii	"po6030_set_vga\000"
 18898      33305F73 
 18898      65745F76 
 18898      676100
 18899              	.LASF720:
 18900 19b4 53657269 		.ascii	"SerialUSBConfig\000"
 18900      616C5553 
 18900      42436F6E 
 18900      66696700 
 18901              	.LASF265:
 18902 19c4 715F6E6F 		.ascii	"q_notify\000"
 18902      74696679 
 18902      00
 18903              	.LASF215:
 18904 19cd 77746D74 		.ascii	"wtmtxp\000"
 18904      787000
 18905              	.LASF693:
 18906 19d4 5553424F 		.ascii	"USBOutEndpointState\000"
 18906      7574456E 
 18906      64706F69 
 18906      6E745374 
 18906      61746500 
 18907              	.LASF650:
 18908 19e8 72657376 		.ascii	"resvd41C\000"
ARM GAS  /tmp/cc5QaxCL.s 			page 354


 18908      64343143 
 18908      00
 18909              	.LASF119:
 18910 19f1 52445452 		.ascii	"RDTR\000"
 18910      00
 18911              	.LASF288:
 18912 19f6 626C6B5F 		.ascii	"blk_num\000"
 18912      6E756D00 
 18913              	.LASF588:
 18914 19fe 5553425F 		.ascii	"USB_EVENT_RESET\000"
 18914      4556454E 
 18914      545F5245 
 18914      53455400 
 18915              	.LASF67:
 18916 1a0e 63685F72 		.ascii	"ch_ready_list\000"
 18916      65616479 
 18916      5F6C6973 
 18916      7400
 18917              	.LASF295:
 18918 1a1c 50555044 		.ascii	"PUPDR\000"
 18918      5200
 18919              	.LASF12:
 18920 1a22 5F5F696E 		.ascii	"__int32_t\000"
 18920      7433325F 
 18920      7400
 18921              	.LASF767:
 18922 1a2c 706F3630 		.ascii	"po6030_set_brightness\000"
 18922      33305F73 
 18922      65745F62 
 18922      72696768 
 18922      746E6573 
 18923              	.LASF14:
 18924 1a42 5F5F7569 		.ascii	"__uint32_t\000"
 18924      6E743332 
 18924      5F7400
 18925              	.LASF86:
 18926 1a4d 63685F73 		.ascii	"ch_system_debug\000"
 18926      79737465 
 18926      6D5F6465 
 18926      62756700 
 18927              	.LASF661:
 18928 1a5d 4441494E 		.ascii	"DAINTMSK\000"
 18928      544D534B 
 18928      00
 18929              	.LASF415:
 18930 1a66 45585443 		.ascii	"EXTConfig\000"
 18930      6F6E6669 
 18930      6700
 18931              	.LASF260:
 18932 1a70 715F636F 		.ascii	"q_counter\000"
 18932      756E7465 
 18932      7200
 18933              	.LASF580:
 18934 1a7a 5553425F 		.ascii	"USB_EP0_WAITING_SETUP\000"
 18934      4550305F 
 18934      57414954 
 18934      494E475F 
ARM GAS  /tmp/cc5QaxCL.s 			page 355


 18934      53455455 
 18935              	.LASF283:
 18936 1a90 424C4B5F 		.ascii	"BLK_READING\000"
 18936      52454144 
 18936      494E4700 
 18937              	.LASF305:
 18938 1a9c 6166726C 		.ascii	"afrl\000"
 18938      00
 18939              	.LASF734:
 18940 1aa1 504F3630 		.ascii	"PO6030_FORMAT_RGGB\000"
 18940      33305F46 
 18940      4F524D41 
 18940      545F5247 
 18940      474200
 18941              	.LASF683:
 18942 1ab4 71756575 		.ascii	"queue\000"
 18942      6500
 18943              	.LASF563:
 18944 1aba 65703065 		.ascii	"ep0endcb\000"
 18944      6E646362 
 18944      00
 18945              	.LASF273:
 18946 1ac3 73656C66 		.ascii	"selfindex\000"
 18946      696E6465 
 18946      7800
 18947              	.LASF246:
 18948 1acd 6D757465 		.ascii	"mutex_t\000"
 18948      785F7400 
 18949              	.LASF55:
 18950 1ad5 705F6570 		.ascii	"p_epending\000"
 18950      656E6469 
 18950      6E6700
 18951              	.LASF292:
 18952 1ae0 4D4F4445 		.ascii	"MODER\000"
 18952      5200
 18953              	.LASF745:
 18954 1ae6 77696474 		.ascii	"width\000"
 18954      6800
 18955              	.LASF477:
 18956 1aec 4932535F 		.ascii	"I2S_COMPLETE\000"
 18956      434F4D50 
 18956      4C455445 
 18956      00
 18957              	.LASF126:
 18958 1af9 52455345 		.ascii	"RESERVED0\000"
 18958      52564544 
 18958      3000
 18959              	.LASF129:
 18960 1b03 52455345 		.ascii	"RESERVED1\000"
 18960      52564544 
 18960      3100
 18961              	.LASF131:
 18962 1b0d 52455345 		.ascii	"RESERVED2\000"
 18962      52564544 
 18962      3200
 18963              	.LASF133:
 18964 1b17 52455345 		.ascii	"RESERVED3\000"
ARM GAS  /tmp/cc5QaxCL.s 			page 356


 18964      52564544 
 18964      3300
 18965              	.LASF135:
 18966 1b21 52455345 		.ascii	"RESERVED4\000"
 18966      52564544 
 18966      3400
 18967              	.LASF137:
 18968 1b2b 52455345 		.ascii	"RESERVED5\000"
 18968      52564544 
 18968      3500
 18969              	.LASF704:
 18970 1b35 55534245 		.ascii	"USBEndpointConfig\000"
 18970      6E64706F 
 18970      696E7443 
 18970      6F6E6669 
 18970      6700
 18971              	.LASF141:
 18972 1b47 44485231 		.ascii	"DHR12R1\000"
 18972      32523100 
 18973              	.LASF144:
 18974 1b4f 44485231 		.ascii	"DHR12R2\000"
 18974      32523200 
 18975              	.LASF411:
 18976 1b57 65787463 		.ascii	"extcallback_t\000"
 18976      616C6C62 
 18976      61636B5F 
 18976      7400
 18977              	.LASF367:
 18978 1b65 72787175 		.ascii	"rxqueue\000"
 18978      65756500 
 18979              	.LASF189:
 18980 1b6d 73655F74 		.ascii	"se_time\000"
 18980      696D6500 
 18981              	.LASF652:
 18982 1b75 72657376 		.ascii	"resvd444\000"
 18982      64343434 
 18982      00
 18983              	.LASF319:
 18984 1b7e 70616C5F 		.ascii	"pal_default_config\000"
 18984      64656661 
 18984      756C745F 
 18984      636F6E66 
 18984      696700
 18985              	.LASF785:
 18986 1b91 706F3630 		.ascii	"po6030_read_id\000"
 18986      33305F72 
 18986      6561645F 
 18986      696400
 18987              	.LASF337:
 18988 1ba0 67727070 		.ascii	"grpp\000"
 18988      00
 18989              	.LASF147:
 18990 1ba5 44485231 		.ascii	"DHR12RD\000"
 18990      32524400 
 18991              	.LASF250:
 18992 1bad 656C5F6C 		.ascii	"el_listener\000"
 18992      69737465 
ARM GAS  /tmp/cc5QaxCL.s 			page 357


 18992      6E657200 
 18993              	.LASF682:
 18994 1bb9 6C696E65 		.ascii	"linear\000"
 18994      617200
 18995              	.LASF435:
 18996 1bc0 73746D33 		.ascii	"stm32_tim_t\000"
 18996      325F7469 
 18996      6D5F7400 
 18997              	.LASF765:
 18998 1bcc 686F7269 		.ascii	"horizontal\000"
 18998      7A6F6E74 
 18998      616C00
 18999              	.LASF69:
 19000 1bd7 725F7072 		.ascii	"r_prio\000"
 19000      696F00
 19001              	.LASF775:
 19002 1bde 706F3630 		.ascii	"po6030_config\000"
 19002      33305F63 
 19002      6F6E6669 
 19002      6700
 19003              	.LASF569:
 19004 1bec 706D6E65 		.ascii	"pmnext\000"
 19004      787400
 19005              	.LASF98:
 19006 1bf3 49544D5F 		.ascii	"ITM_RxBuffer\000"
 19006      52784275 
 19006      66666572 
 19006      00
 19007              	.LASF289:
 19008 1c00 426C6F63 		.ascii	"BlockDeviceInfo\000"
 19008      6B446576 
 19008      69636549 
 19008      6E666F00 
 19009              	.LASF17:
 19010 1c10 6C6F6E67 		.ascii	"long long unsigned int\000"
 19010      206C6F6E 
 19010      6720756E 
 19010      7369676E 
 19010      65642069 
 19011              	.LASF176:
 19012 1c27 5344494F 		.ascii	"SDIO_TypeDef\000"
 19012      5F547970 
 19012      65446566 
 19012      00
 19013              	.LASF198:
 19014 1c34 6F666673 		.ascii	"offset\000"
 19014      657400
 19015              	.LASF153:
 19016 1c3b 4E445452 		.ascii	"NDTR\000"
 19016      00
 19017              	.LASF255:
 19018 1c40 65735F6E 		.ascii	"es_next\000"
 19018      65787400 
 19019              	.LASF618:
 19020 1c48 72657376 		.ascii	"resvd1C\000"
 19020      64314300 
 19021              	.LASF97:
ARM GAS  /tmp/cc5QaxCL.s 			page 358


 19022 1c50 69646C65 		.ascii	"idle_thread_wa\000"
 19022      5F746872 
 19022      6561645F 
 19022      776100
 19023              	.LASF614:
 19024 1c5f 44494550 		.ascii	"DIEPINT\000"
 19024      494E5400 
 19025              	.LASF182:
 19026 1c67 5350495F 		.ascii	"SPI_TypeDef\000"
 19026      54797065 
 19026      44656600 
 19027              	.LASF80:
 19028 1c73 76745F66 		.ascii	"vt_func\000"
 19028      756E6300 
 19029              	.LASF426:
 19030 1c7b 534D4352 		.ascii	"SMCR\000"
 19030      00
 19031              	.LASF659:
 19032 1c80 444F4550 		.ascii	"DOEPMSK\000"
 19032      4D534B00 
 19033              	.LASF727:
 19034 1c88 53554253 		.ascii	"SUBSAMPLING_X2\000"
 19034      414D504C 
 19034      494E475F 
 19034      583200
 19035              	.LASF728:
 19036 1c97 53554253 		.ascii	"SUBSAMPLING_X4\000"
 19036      414D504C 
 19036      494E475F 
 19036      583400
 19037              	.LASF743:
 19038 1ca6 706F3630 		.ascii	"po6030_format_t\000"
 19038      33305F66 
 19038      6F726D61 
 19038      745F7400 
 19039              	.LASF76:
 19040 1cb6 63685F76 		.ascii	"ch_virtual_timer\000"
 19040      69727475 
 19040      616C5F74 
 19040      696D6572 
 19040      00
 19041              	.LASF48:
 19042 1cc7 705F666C 		.ascii	"p_flags\000"
 19042      61677300 
 19043              	.LASF216:
 19044 1ccf 65776D61 		.ascii	"ewmask\000"
 19044      736B00
 19045              	.LASF252:
 19046 1cd6 656C5F66 		.ascii	"el_flags\000"
 19046      6C616773 
 19046      00
 19047              	.LASF254:
 19048 1cdf 6576656E 		.ascii	"event_source\000"
 19048      745F736F 
 19048      75726365 
 19048      00
 19049              	.LASF56:
ARM GAS  /tmp/cc5QaxCL.s 			page 359


 19050 1cec 705F6D74 		.ascii	"p_mtxlist\000"
 19050      786C6973 
 19050      7400
 19051              	.LASF374:
 19052 1cf6 43414E44 		.ascii	"CAND1\000"
 19052      3100
 19053              	.LASF132:
 19054 1cfc 46533152 		.ascii	"FS1R\000"
 19054      00
 19055              	.LASF28:
 19056 1d01 74737461 		.ascii	"tstate_t\000"
 19056      74655F74 
 19056      00
 19057              	.LASF549:
 19058 1d0a 53504944 		.ascii	"SPIDriver\000"
 19058      72697665 
 19058      7200
 19059              	.LASF660:
 19060 1d14 4441494E 		.ascii	"DAINT\000"
 19060      5400
 19061              	.LASF553:
 19062 1d1a 53504943 		.ascii	"SPIConfig\000"
 19062      6F6E6669 
 19062      6700
 19063              	.LASF730:
 19064 1d24 504F3630 		.ascii	"PO6030_FORMAT_CBYCRY\000"
 19064      33305F46 
 19064      4F524D41 
 19064      545F4342 
 19064      59435259 
 19065              	.LASF304:
 19066 1d39 70757064 		.ascii	"pupdr\000"
 19066      7200
 19067              	.LASF394:
 19068 1d3f 64616365 		.ascii	"dacerrorcallback_t\000"
 19068      72726F72 
 19068      63616C6C 
 19068      6261636B 
 19068      5F7400
 19069              	.LASF556:
 19070 1d52 7472616E 		.ascii	"transmitting\000"
 19070      736D6974 
 19070      74696E67 
 19070      00
 19071              	.LASF414:
 19072 1d5f 6368616E 		.ascii	"channels\000"
 19072      6E656C73 
 19072      00
 19073              	.LASF163:
 19074 1d68 434C4B43 		.ascii	"CLKCR\000"
 19074      5200
 19075              	.LASF528:
 19076 1d6e 53444344 		.ascii	"SDCDriver\000"
 19076      72697665 
 19076      7200
 19077              	.LASF45:
 19078 1d78 705F6E61 		.ascii	"p_name\000"
ARM GAS  /tmp/cc5QaxCL.s 			page 360


 19078      6D6500
 19079              	.LASF510:
 19080 1d7f 53657269 		.ascii	"SerialDriver\000"
 19080      616C4472 
 19080      69766572 
 19080      00
 19081              	.LASF110:
 19082 1d8c 4A445231 		.ascii	"JDR1\000"
 19082      00
 19083              	.LASF111:
 19084 1d91 4A445232 		.ascii	"JDR2\000"
 19084      00
 19085              	.LASF112:
 19086 1d96 4A445233 		.ascii	"JDR3\000"
 19086      00
 19087              	.LASF113:
 19088 1d9b 4A445234 		.ascii	"JDR4\000"
 19088      00
 19089              	.LASF622:
 19090 1da0 444F4550 		.ascii	"DOEPTSIZ\000"
 19090      5453495A 
 19090      00
 19091              	.LASF322:
 19092 1da9 4144435F 		.ascii	"ADC_READY\000"
 19092      52454144 
 19092      5900
 19093              	.LASF82:
 19094 1db3 76697274 		.ascii	"virtual_timers_list_t\000"
 19094      75616C5F 
 19094      74696D65 
 19094      72735F6C 
 19094      6973745F 
 19095              	.LASF646:
 19096 1dc9 72657376 		.ascii	"resvd40C\000"
 19096      64343043 
 19096      00
 19097              	.LASF344:
 19098 1dd2 63697263 		.ascii	"circular\000"
 19098      756C6172 
 19098      00
 19099              	.LASF478:
 19100 1ddb 69327373 		.ascii	"i2sstate_t\000"
 19100      74617465 
 19100      5F7400
 19101              	.LASF301:
 19102 1de6 6D6F6465 		.ascii	"moder\000"
 19102      7200
 19103              	.LASF218:
 19104 1dec 735F7175 		.ascii	"s_queue\000"
 19104      65756500 
 19105              	.LASF207:
 19106 1df4 6D5F6372 		.ascii	"m_crit_thd\000"
 19106      69745F74 
 19106      686400
 19107              	.LASF376:
 19108 1dff 4441435F 		.ascii	"DAC_STOP\000"
 19108      53544F50 
ARM GAS  /tmp/cc5QaxCL.s 			page 361


 19108      00
 19109              	.LASF653:
 19110 1e08 72657376 		.ascii	"resvd700\000"
 19110      64373030 
 19110      00
 19111              	.LASF180:
 19112 1e11 49325343 		.ascii	"I2SCFGR\000"
 19112      46475200 
 19113              	.LASF716:
 19114 1e19 75736270 		.ascii	"usbp\000"
 19114      00
 19115              	.LASF226:
 19116 1e1e 63685F69 		.ascii	"ch_identifier\000"
 19116      64656E74 
 19116      69666965 
 19116      7200
 19117              	.LASF520:
 19118 1e2c 77726974 		.ascii	"writet\000"
 19118      657400
 19119              	.LASF1:
 19120 1e33 6C6F6E67 		.ascii	"long long int\000"
 19120      206C6F6E 
 19120      6720696E 
 19120      7400
 19121              	.LASF640:
 19122 1e41 48505458 		.ascii	"HPTXFSIZ\000"
 19122      4653495A 
 19122      00
 19123              	.LASF233:
 19124 1e4a 63665F6F 		.ascii	"cf_off_prio\000"
 19124      66665F70 
 19124      72696F00 
 19125              	.LASF759:
 19126 1e56 706F3630 		.ascii	"po6030_set_ae\000"
 19126      33305F73 
 19126      65745F61 
 19126      6500
 19127              	.LASF204:
 19128 1e64 74696D65 		.ascii	"time_measurement_t\000"
 19128      5F6D6561 
 19128      73757265 
 19128      6D656E74 
 19128      5F7400
 19129              	.LASF541:
 19130 1e77 6765745F 		.ascii	"get_info\000"
 19130      696E666F 
 19130      00
 19131              	.LASF331:
 19132 1e80 61646365 		.ascii	"adcerror_t\000"
 19132      72726F72 
 19132      5F7400
 19133              	.LASF706:
 19134 1e8b 6765745F 		.ascii	"get_descriptor_cb\000"
 19134      64657363 
 19134      72697074 
 19134      6F725F63 
 19134      6200
ARM GAS  /tmp/cc5QaxCL.s 			page 362


 19135              	.LASF34:
 19136 1e9d 6576656E 		.ascii	"eventflags_t\000"
 19136      74666C61 
 19136      67735F74 
 19136      00
 19137              	.LASF545:
 19138 1eaa 5350495F 		.ascii	"SPI_READY\000"
 19138      52454144 
 19138      5900
 19139              	.LASF128:
 19140 1eb4 73464946 		.ascii	"sFIFOMailBox\000"
 19140      4F4D6169 
 19140      6C426F78 
 19140      00
 19141              	.LASF533:
 19142 1ec1 6275735F 		.ascii	"bus_width\000"
 19142      77696474 
 19142      6800
 19143              	.LASF149:
 19144 1ecb 44485238 		.ascii	"DHR8RD\000"
 19144      524400
 19145              	.LASF655:
 19146 1ed2 4443544C 		.ascii	"DCTL\000"
 19146      00
 19147              	.LASF535:
 19148 1ed7 53444344 		.ascii	"SDCDriverVMT\000"
 19148      72697665 
 19148      72564D54 
 19148      00
 19149              	.LASF764:
 19150 1ee4 76657274 		.ascii	"vertical\000"
 19150      6963616C 
 19150      00
 19151              	.LASF681:
 19152 1eed 74786275 		.ascii	"txbuf\000"
 19152      6600
 19153              	.LASF674:
 19154 1ef3 50434743 		.ascii	"PCGCCTL\000"
 19154      43544C00 
 19155              	.LASF592:
 19156 1efb 5553425F 		.ascii	"USB_EVENT_WAKEUP\000"
 19156      4556454E 
 19156      545F5741 
 19156      4B455550 
 19156      00
 19157              	.LASF748:
 19158 1f0c 63757272 		.ascii	"curr_subsampling_x\000"
 19158      5F737562 
 19158      73616D70 
 19158      6C696E67 
 19158      5F7800
 19159              	.LASF749:
 19160 1f1f 63757272 		.ascii	"curr_subsampling_y\000"
 19160      5F737562 
 19160      73616D70 
 19160      6C696E67 
 19160      5F7900
ARM GAS  /tmp/cc5QaxCL.s 			page 363


 19161              	.LASF44:
 19162 1f32 705F6F6C 		.ascii	"p_older\000"
 19162      64657200 
 19163              	.LASF285:
 19164 1f3a 424C4B5F 		.ascii	"BLK_SYNCING\000"
 19164      53594E43 
 19164      494E4700 
 19165              	.LASF316:
 19166 1f46 50494461 		.ascii	"PIData\000"
 19166      746100
 19167              	.LASF703:
 19168 1f4d 73657475 		.ascii	"setup_buf\000"
 19168      705F6275 
 19168      6600
 19169              	.LASF441:
 19170 1f57 47505444 		.ascii	"GPTD6\000"
 19170      3600
 19171              	.LASF347:
 19172 1f5d 6572726F 		.ascii	"error_cb\000"
 19172      725F6362 
 19172      00
 19173              	.LASF725:
 19174 1f66 696D6167 		.ascii	"image_size_t\000"
 19174      655F7369 
 19174      7A655F74 
 19174      00
 19175              	.LASF281:
 19176 1f73 424C4B5F 		.ascii	"BLK_DISCONNECTING\000"
 19176      44495343 
 19176      4F4E4E45 
 19176      4354494E 
 19176      4700
 19177              	.LASF551:
 19178 1f85 7373706F 		.ascii	"ssport\000"
 19178      727400
 19179              	.LASF60:
 19180 1f8c 74687265 		.ascii	"thread_reference_t\000"
 19180      61645F72 
 19180      65666572 
 19180      656E6365 
 19180      5F7400
 19181              	.LASF410:
 19182 1f9f 65787063 		.ascii	"expchannel_t\000"
 19182      68616E6E 
 19182      656C5F74 
 19182      00
 19183              	.LASF557:
 19184 1fac 72656365 		.ascii	"receiving\000"
 19184      6976696E 
 19184      6700
 19185              	.LASF437:
 19186 1fb6 66726571 		.ascii	"frequency\000"
 19186      75656E63 
 19186      7900
 19187              	.LASF199:
 19188 1fc0 746D5F63 		.ascii	"tm_calibration_t\000"
 19188      616C6962 
ARM GAS  /tmp/cc5QaxCL.s 			page 364


 19188      72617469 
 19188      6F6E5F74 
 19188      00
 19189              	.LASF4:
 19190 1fd1 5F5F696E 		.ascii	"__int8_t\000"
 19190      74385F74 
 19190      00
 19191              	.LASF700:
 19192 1fda 696E5F73 		.ascii	"in_state\000"
 19192      74617465 
 19192      00
 19193              	.LASF757:
 19194 1fe3 696E7465 		.ascii	"integral\000"
 19194      6772616C 
 19194      00
 19195              	.LASF183:
 19196 1fec 47545052 		.ascii	"GTPR\000"
 19196      00
 19197              	.LASF227:
 19198 1ff1 63685F7A 		.ascii	"ch_zero\000"
 19198      65726F00 
 19199              	.LASF458:
 19200 1ff9 46415354 		.ascii	"FAST_DUTY_CYCLE_2\000"
 19200      5F445554 
 19200      595F4359 
 19200      434C455F 
 19200      3200
 19201              	.LASF171:
 19202 200b 44435452 		.ascii	"DCTRL\000"
 19202      4C00
 19203              	.LASF232:
 19204 2011 63685F74 		.ascii	"ch_threadsize\000"
 19204      68726561 
 19204      6473697A 
 19204      6500
 19205              	.LASF160:
 19206 201f 464C5452 		.ascii	"FLTR\000"
 19206      00
 19207              	.LASF428:
 19208 2024 43434D52 		.ascii	"CCMR1\000"
 19208      3100
 19209              	.LASF429:
 19210 202a 43434D52 		.ascii	"CCMR2\000"
 19210      3200
 19211              	.LASF433:
 19212 2030 43434D52 		.ascii	"CCMR3\000"
 19212      3300
 19213              	.LASF0:
 19214 2036 756E7369 		.ascii	"unsigned int\000"
 19214      676E6564 
 19214      20696E74 
 19214      00
 19215              	.LASF351:
 19216 2043 73717232 		.ascii	"sqr2\000"
 19216      00
 19217              	.LASF352:
 19218 2048 73717233 		.ascii	"sqr3\000"
ARM GAS  /tmp/cc5QaxCL.s 			page 365


 19218      00
 19219              	.LASF644:
 19220 204d 48464952 		.ascii	"HFIR\000"
 19220      00
 19221              	.LASF574:
 19222 2052 5553425F 		.ascii	"USB_UNINIT\000"
 19222      554E494E 
 19222      495400
 19223              	.LASF270:
 19224 205d 73747265 		.ascii	"stream\000"
 19224      616D00
 19225              	.LASF354:
 19226 2064 64756D6D 		.ascii	"dummy\000"
 19226      7900
 19227              	.LASF456:
 19228 206a 6932636F 		.ascii	"i2copmode_t\000"
 19228      706D6F64 
 19228      655F7400 
 19229              	.LASF248:
 19230 2076 6576656E 		.ascii	"event_listener\000"
 19230      745F6C69 
 19230      7374656E 
 19230      657200
 19231              	.LASF9:
 19232 2085 73686F72 		.ascii	"short int\000"
 19232      7420696E 
 19232      7400
 19233              	.LASF598:
 19234 208f 75736263 		.ascii	"usbcallback_t\000"
 19234      616C6C62 
 19234      61636B5F 
 19234      7400
 19235              	.LASF627:
 19236 209d 47555342 		.ascii	"GUSBCFG\000"
 19236      43464700 
 19237              	.LASF184:
 19238 20a5 55534152 		.ascii	"USART_TypeDef\000"
 19238      545F5479 
 19238      70654465 
 19238      6600
 19239              	.LASF269:
 19240 20b3 6F757470 		.ascii	"output_queue_t\000"
 19240      75745F71 
 19240      75657565 
 19240      5F7400
 19241              	.LASF676:
 19242 20c2 73746D33 		.ascii	"stm32_otg_t\000"
 19242      325F6F74 
 19242      675F7400 
 19243              	.LASF479:
 19244 20ce 49325344 		.ascii	"I2SDriver\000"
 19244      72697665 
 19244      7200
 19245              	.LASF463:
 19246 20d8 64757479 		.ascii	"duty_cycle\000"
 19246      5F637963 
 19246      6C6500
ARM GAS  /tmp/cc5QaxCL.s 			page 366


 19247              	.LASF486:
 19248 20e3 49325343 		.ascii	"I2SConfig\000"
 19248      6F6E6669 
 19248      6700
 19249              	.LASF595:
 19250 20ed 75645F73 		.ascii	"ud_size\000"
 19250      697A6500 
 19251              	.LASF698:
 19252 20f5 696E5F6D 		.ascii	"in_maxsize\000"
 19252      61787369 
 19252      7A6500
 19253              	.LASF313:
 19254 2100 50464461 		.ascii	"PFData\000"
 19254      746100
 19255              	.LASF762:
 19256 2107 706F3630 		.ascii	"po6030_set_awb\000"
 19256      33305F73 
 19256      65745F61 
 19256      776200
 19257              	.LASF406:
 19258 2116 4558545F 		.ascii	"EXT_STOP\000"
 19258      53544F50 
 19258      00
 19259              	.LASF47:
 19260 211f 705F7374 		.ascii	"p_state\000"
 19260      61746500 
 19261              	.LASF487:
 19262 2127 49325344 		.ascii	"I2SD2\000"
 19262      3200
 19263              	.LASF536:
 19264 212d 69735F69 		.ascii	"is_inserted\000"
 19264      6E736572 
 19264      74656400 
 19265              	.LASF63:
 19266 2139 63685F74 		.ascii	"ch_threads_list\000"
 19266      68726561 
 19266      64735F6C 
 19266      69737400 
 19267              	.LASF172:
 19268 2149 44434F55 		.ascii	"DCOUNT\000"
 19268      4E5400
 19269              	.LASF157:
 19270 2150 4F415231 		.ascii	"OAR1\000"
 19270      00
 19271              	.LASF158:
 19272 2155 4F415232 		.ascii	"OAR2\000"
 19272      00
 19273              	.LASF59:
 19274 215a 705F7374 		.ascii	"p_stats\000"
 19274      61747300 
 19275              	.LASF579:
 19276 2162 75736273 		.ascii	"usbstate_t\000"
 19276      74617465 
 19276      5F7400
 19277              		.ident	"GCC: (GNU Tools for Arm Embedded Processors 7-2017-q4-major) 7.2.1 20170904 (release) [ARM
ARM GAS  /tmp/cc5QaxCL.s 			page 367


DEFINED SYMBOLS
                            *ABS*:0000000000000000 po6030.c
     /tmp/cc5QaxCL.s:18     .text.po6030_read_id:0000000000000000 $t
     /tmp/cc5QaxCL.s:26     .text.po6030_read_id:0000000000000000 po6030_read_id
     /tmp/cc5QaxCL.s:99     .text.po6030_read_id:000000000000004c $d
     /tmp/cc5QaxCL.s:104    .text.po6030_set_bank:0000000000000000 $t
     /tmp/cc5QaxCL.s:112    .text.po6030_set_bank:0000000000000000 po6030_set_bank
     /tmp/cc5QaxCL.s:155    .text.po6030_set_bank:0000000000000028 $d
     /tmp/cc5QaxCL.s:160    .text.po6030_set_format:0000000000000000 $t
     /tmp/cc5QaxCL.s:168    .text.po6030_set_format:0000000000000000 po6030_set_format
     /tmp/cc5QaxCL.s:239    .text.po6030_set_format:000000000000003c $d
     /tmp/cc5QaxCL.s:245    .text.po6030_set_vga:0000000000000000 $t
     /tmp/cc5QaxCL.s:253    .text.po6030_set_vga:0000000000000000 po6030_set_vga
     /tmp/cc5QaxCL.s:651    .text.po6030_set_vga:0000000000000250 $d
     /tmp/cc5QaxCL.s:660    .text.po6030_set_qvga:0000000000000000 $t
     /tmp/cc5QaxCL.s:668    .text.po6030_set_qvga:0000000000000000 po6030_set_qvga
     /tmp/cc5QaxCL.s:1066   .text.po6030_set_qvga:0000000000000250 $d
     /tmp/cc5QaxCL.s:1075   .text.po6030_set_qqvga:0000000000000000 $t
     /tmp/cc5QaxCL.s:1083   .text.po6030_set_qqvga:0000000000000000 po6030_set_qqvga
     /tmp/cc5QaxCL.s:1467   .text.po6030_set_qqvga:0000000000000240 $d
     /tmp/cc5QaxCL.s:1476   .text.po6030_set_size:0000000000000000 $t
     /tmp/cc5QaxCL.s:1484   .text.po6030_set_size:0000000000000000 po6030_set_size
     /tmp/cc5QaxCL.s:1586   .text.po6030_set_size:0000000000000054 $d
     /tmp/cc5QaxCL.s:1591   .text.po6030_config:0000000000000000 $t
     /tmp/cc5QaxCL.s:1599   .text.po6030_config:0000000000000000 po6030_config
     /tmp/cc5QaxCL.s:1663   .text.po6030_config:0000000000000034 $d
     /tmp/cc5QaxCL.s:1668   .text.po6030_advanced_config:0000000000000000 $t
     /tmp/cc5QaxCL.s:1676   .text.po6030_advanced_config:0000000000000000 po6030_advanced_config
     /tmp/cc5QaxCL.s:2302   .text.po6030_advanced_config:0000000000000404 $d
     /tmp/cc5QaxCL.s:2308   .text.po6030_advanced_config:0000000000000410 $t
     /tmp/cc5QaxCL.s:2458   .text.po6030_advanced_config:00000000000004e0 $d
     /tmp/cc5QaxCL.s:2463   .text.po6030_start:0000000000000000 $t
     /tmp/cc5QaxCL.s:2471   .text.po6030_start:0000000000000000 po6030_start
     /tmp/cc5QaxCL.s:2519   .text.po6030_start:0000000000000030 $d
     /tmp/cc5QaxCL.s:2524   .text.po6030_set_brightness:0000000000000000 $t
     /tmp/cc5QaxCL.s:2532   .text.po6030_set_brightness:0000000000000000 po6030_set_brightness
     /tmp/cc5QaxCL.s:2611   .text.po6030_set_brightness:000000000000003c $d
     /tmp/cc5QaxCL.s:2616   .text.po6030_set_contrast:0000000000000000 $t
     /tmp/cc5QaxCL.s:2624   .text.po6030_set_contrast:0000000000000000 po6030_set_contrast
     /tmp/cc5QaxCL.s:2703   .text.po6030_set_contrast:000000000000003c $d
     /tmp/cc5QaxCL.s:2708   .text.po6030_set_mirror:0000000000000000 $t
     /tmp/cc5QaxCL.s:2716   .text.po6030_set_mirror:0000000000000000 po6030_set_mirror
     /tmp/cc5QaxCL.s:2807   .text.po6030_set_mirror:0000000000000050 $d
     /tmp/cc5QaxCL.s:2812   .text.po6030_set_awb:0000000000000000 $t
     /tmp/cc5QaxCL.s:2820   .text.po6030_set_awb:0000000000000000 po6030_set_awb
     /tmp/cc5QaxCL.s:2909   .text.po6030_set_awb:000000000000005c $d
     /tmp/cc5QaxCL.s:2914   .text.po6030_set_rgb_gain:0000000000000000 $t
     /tmp/cc5QaxCL.s:2922   .text.po6030_set_rgb_gain:0000000000000000 po6030_set_rgb_gain
     /tmp/cc5QaxCL.s:3032   .text.po6030_set_rgb_gain:000000000000006c $d
     /tmp/cc5QaxCL.s:3037   .text.po6030_set_ae:0000000000000000 $t
     /tmp/cc5QaxCL.s:3045   .text.po6030_set_ae:0000000000000000 po6030_set_ae
     /tmp/cc5QaxCL.s:3134   .text.po6030_set_ae:000000000000005c $d
     /tmp/cc5QaxCL.s:3139   .text.po6030_set_exposure:0000000000000000 $t
     /tmp/cc5QaxCL.s:3147   .text.po6030_set_exposure:0000000000000000 po6030_set_exposure
     /tmp/cc5QaxCL.s:3263   .text.po6030_set_exposure:0000000000000078 $d
     /tmp/cc5QaxCL.s:3268   .text.po6030_get_image_size:0000000000000000 $t
     /tmp/cc5QaxCL.s:3276   .text.po6030_get_image_size:0000000000000000 po6030_get_image_size
ARM GAS  /tmp/cc5QaxCL.s 			page 368


     /tmp/cc5QaxCL.s:3322   .text.po6030_get_image_size:000000000000002c $d
     /tmp/cc5QaxCL.s:3328   .text.po6030_is_connected:0000000000000000 $t
     /tmp/cc5QaxCL.s:3336   .text.po6030_is_connected:0000000000000000 po6030_is_connected
     /tmp/cc5QaxCL.s:3399   .text.po6030_is_connected:000000000000003c $d
     /tmp/cc5QaxCL.s:3404   .bss.po6030_conf:0000000000000000 $d
     /tmp/cc5QaxCL.s:3408   .bss.po6030_conf:0000000000000000 po6030_conf

UNDEFINED SYMBOLS
read_reg
__stack_chk_fail
__stack_chk_guard
write_reg
