ARM GAS  /tmp/cckuMF9K.s 			page 1


   1              		.cpu cortex-m4
   2              		.eabi_attribute 27, 1
   3              		.eabi_attribute 28, 1
   4              		.eabi_attribute 20, 1
   5              		.eabi_attribute 21, 1
   6              		.eabi_attribute 23, 3
   7              		.eabi_attribute 24, 1
   8              		.eabi_attribute 25, 1
   9              		.eabi_attribute 26, 1
  10              		.eabi_attribute 30, 2
  11              		.eabi_attribute 34, 1
  12              		.eabi_attribute 18, 4
  13              		.file	"proximity.c"
  14              		.text
  15              	.Ltext0:
  16              		.cfi_sections	.debug_frame
  17              		.section	.text.pwm_reset_cb,"ax",%progbits
  18              		.align	1
  19              		.p2align 4,,15
  20              		.syntax unified
  21              		.thumb
  22              		.thumb_func
  23              		.fpu fpv4-sp-d16
  24              		.type	pwm_reset_cb, %function
  25              	pwm_reset_cb:
  26              	.LFB261:
  27              		.file 1 "../e-puck2_main-processor/src/sensors/proximity.c"
  28              		.loc 1 244 0
  29              		.cfi_startproc
  30              		@ args = 0, pretend = 0, frame = 8
  31              		@ frame_needed = 0, uses_anonymous_args = 0
  32              	.LVL0:
  33 0000 10B5     		push	{r4, lr}
  34              		.cfi_def_cfa_offset 8
  35              		.cfi_offset 4, -8
  36              		.cfi_offset 14, -4
  37              		.loc 1 246 0
  38 0002 1E49     		ldr	r1, .L16
  39              		.loc 1 244 0
  40 0004 1E4A     		ldr	r2, .L16+4
  41              		.loc 1 246 0
  42 0006 0B78     		ldrb	r3, [r1]	@ zero_extendqisi2
  43              		.loc 1 244 0
  44 0008 1068     		ldr	r0, [r2]
  45              	.LVL1:
  46 000a 82B0     		sub	sp, sp, #8
  47              		.cfi_def_cfa_offset 16
  48              		.loc 1 246 0
  49 000c 013B     		subs	r3, r3, #1
  50              		.loc 1 244 0
  51 000e 0190     		str	r0, [sp, #4]
  52              		.loc 1 246 0
  53 0010 072B     		cmp	r3, #7
  54 0012 0AD8     		bhi	.L1
  55 0014 DFE803F0 		tbb	[pc, r3]
  56              	.L4:
  57 0018 12       		.byte	(.L3-.L4)/2
ARM GAS  /tmp/cckuMF9K.s 			page 2


  58 0019 15       		.byte	(.L5-.L4)/2
  59 001a 1C       		.byte	(.L6-.L4)/2
  60 001b 1F       		.byte	(.L7-.L4)/2
  61 001c 26       		.byte	(.L8-.L4)/2
  62 001d 29       		.byte	(.L9-.L4)/2
  63 001e 0F       		.byte	(.L10-.L4)/2
  64 001f 04       		.byte	(.L11-.L4)/2
  65              		.p2align 1
  66              	.L11:
  67              		.loc 1 274 0
  68 0020 1848     		ldr	r0, .L16+8
  69 0022 0824     		movs	r4, #8
  70              		.loc 1 275 0
  71 0024 0123     		movs	r3, #1
  72              		.loc 1 274 0
  73 0026 0483     		strh	r4, [r0, #24]	@ movhi
  74              		.loc 1 275 0
  75 0028 0B70     		strb	r3, [r1]
  76              	.L1:
  77              		.loc 1 278 0
  78 002a 0199     		ldr	r1, [sp, #4]
  79 002c 1368     		ldr	r3, [r2]
  80 002e 9942     		cmp	r1, r3
  81 0030 21D1     		bne	.L15
  82 0032 02B0     		add	sp, sp, #8
  83              		.cfi_remember_state
  84              		.cfi_def_cfa_offset 8
  85              		@ sp needed
  86 0034 10BD     		pop	{r4, pc}
  87              	.L10:
  88              		.cfi_restore_state
  89              		.loc 1 271 0
  90 0036 0823     		movs	r3, #8
  91 0038 0B70     		strb	r3, [r1]
  92              		.loc 1 272 0
  93 003a F6E7     		b	.L1
  94              	.L3:
  95              		.loc 1 250 0
  96 003c 0223     		movs	r3, #2
  97 003e 0B70     		strb	r3, [r1]
  98              		.loc 1 251 0
  99 0040 F3E7     		b	.L1
 100              	.L5:
 101              		.loc 1 253 0
 102 0042 1148     		ldr	r0, .L16+12
 103 0044 4FF48054 		mov	r4, #4096
 104              		.loc 1 254 0
 105 0048 0323     		movs	r3, #3
 106              		.loc 1 253 0
 107 004a 0483     		strh	r4, [r0, #24]	@ movhi
 108              		.loc 1 254 0
 109 004c 0B70     		strb	r3, [r1]
 110              		.loc 1 255 0
 111 004e ECE7     		b	.L1
 112              	.L6:
 113              		.loc 1 257 0
 114 0050 0423     		movs	r3, #4
ARM GAS  /tmp/cckuMF9K.s 			page 3


 115 0052 0B70     		strb	r3, [r1]
 116              		.loc 1 258 0
 117 0054 E9E7     		b	.L1
 118              	.L7:
 119              		.loc 1 260 0
 120 0056 0C48     		ldr	r0, .L16+12
 121 0058 4FF48044 		mov	r4, #16384
 122              		.loc 1 261 0
 123 005c 0523     		movs	r3, #5
 124              		.loc 1 260 0
 125 005e 0483     		strh	r4, [r0, #24]	@ movhi
 126              		.loc 1 261 0
 127 0060 0B70     		strb	r3, [r1]
 128              		.loc 1 262 0
 129 0062 E2E7     		b	.L1
 130              	.L8:
 131              		.loc 1 264 0
 132 0064 0623     		movs	r3, #6
 133 0066 0B70     		strb	r3, [r1]
 134              		.loc 1 265 0
 135 0068 DFE7     		b	.L1
 136              	.L9:
 137              		.loc 1 267 0
 138 006a 0648     		ldr	r0, .L16+8
 139 006c 0424     		movs	r4, #4
 140              		.loc 1 268 0
 141 006e 0723     		movs	r3, #7
 142              		.loc 1 267 0
 143 0070 0483     		strh	r4, [r0, #24]	@ movhi
 144              		.loc 1 268 0
 145 0072 0B70     		strb	r3, [r1]
 146              		.loc 1 269 0
 147 0074 D9E7     		b	.L1
 148              	.L15:
 149              		.loc 1 278 0
 150 0076 FFF7FEFF 		bl	__stack_chk_fail
 151              	.LVL2:
 152              	.L17:
 153 007a 00BF     		.align	2
 154              	.L16:
 155 007c 00000000 		.word	.LANCHOR0
 156 0080 00000000 		.word	__stack_chk_guard
 157 0084 00100240 		.word	1073876992
 158 0088 00040240 		.word	1073873920
 159              		.cfi_endproc
 160              	.LFE261:
 161              		.size	pwm_reset_cb, .-pwm_reset_cb
 162              		.section	.text.pwm_ch1_cb,"ax",%progbits
 163              		.align	1
 164              		.p2align 4,,15
 165              		.syntax unified
 166              		.thumb
 167              		.thumb_func
 168              		.fpu fpv4-sp-d16
 169              		.type	pwm_ch1_cb, %function
 170              	pwm_ch1_cb:
 171              	.LFB262:
ARM GAS  /tmp/cckuMF9K.s 			page 4


 172              		.loc 1 287 0
 173              		.cfi_startproc
 174              		@ args = 0, pretend = 0, frame = 8
 175              		@ frame_needed = 0, uses_anonymous_args = 0
 176              	.LVL3:
 177 0000 30B5     		push	{r4, r5, lr}
 178              		.cfi_def_cfa_offset 12
 179              		.cfi_offset 4, -12
 180              		.cfi_offset 5, -8
 181              		.cfi_offset 14, -4
 182 0002 0C4B     		ldr	r3, .L22
 183              		.loc 1 290 0
 184 0004 0C49     		ldr	r1, .L22+4
 185              		.loc 1 287 0
 186 0006 1868     		ldr	r0, [r3]
 187              	.LVL4:
 188              		.loc 1 292 0
 189 0008 0C4A     		ldr	r2, .L22+8
 190              		.loc 1 287 0
 191 000a 83B0     		sub	sp, sp, #12
 192              		.cfi_def_cfa_offset 24
 193              		.loc 1 291 0
 194 000c 4FF48045 		mov	r5, #16384
 195              		.loc 1 287 0
 196 0010 0190     		str	r0, [sp, #4]
 197              		.loc 1 290 0
 198 0012 4FF48050 		mov	r0, #4096
 199 0016 4883     		strh	r0, [r1, #26]	@ movhi
 200              		.loc 1 292 0
 201 0018 0424     		movs	r4, #4
 202              		.loc 1 293 0
 203 001a 0820     		movs	r0, #8
 204              		.loc 1 291 0
 205 001c 4D83     		strh	r5, [r1, #26]	@ movhi
 206              		.loc 1 292 0
 207 001e 5483     		strh	r4, [r2, #26]	@ movhi
 208              		.loc 1 293 0
 209 0020 5083     		strh	r0, [r2, #26]	@ movhi
 210              		.loc 1 294 0
 211 0022 019A     		ldr	r2, [sp, #4]
 212 0024 1B68     		ldr	r3, [r3]
 213 0026 9A42     		cmp	r2, r3
 214 0028 01D1     		bne	.L21
 215 002a 03B0     		add	sp, sp, #12
 216              		.cfi_remember_state
 217              		.cfi_def_cfa_offset 12
 218              		@ sp needed
 219 002c 30BD     		pop	{r4, r5, pc}
 220              	.L21:
 221              		.cfi_restore_state
 222 002e FFF7FEFF 		bl	__stack_chk_fail
 223              	.LVL5:
 224              	.L23:
 225 0032 00BF     		.align	2
 226              	.L22:
 227 0034 00000000 		.word	__stack_chk_guard
 228 0038 00040240 		.word	1073873920
ARM GAS  /tmp/cckuMF9K.s 			page 5


 229 003c 00100240 		.word	1073876992
 230              		.cfi_endproc
 231              	.LFE262:
 232              		.size	pwm_ch1_cb, .-pwm_ch1_cb
 233              		.section	.text.proximity_thd,"ax",%progbits
 234              		.align	1
 235              		.p2align 4,,15
 236              		.syntax unified
 237              		.thumb
 238              		.thumb_func
 239              		.fpu fpv4-sp-d16
 240              		.type	proximity_thd, %function
 241              	proximity_thd:
 242              	.LFB260:
 243              		.loc 1 168 0
 244              		.cfi_startproc
 245              		@ args = 0, pretend = 0, frame = 128
 246              		@ frame_needed = 0, uses_anonymous_args = 0
 247              	.LVL6:
 248 0000 2DE9F04F 		push	{r4, r5, r6, r7, r8, r9, r10, fp, lr}
 249              		.cfi_def_cfa_offset 36
 250              		.cfi_offset 4, -36
 251              		.cfi_offset 5, -32
 252              		.cfi_offset 6, -28
 253              		.cfi_offset 7, -24
 254              		.cfi_offset 8, -20
 255              		.cfi_offset 9, -16
 256              		.cfi_offset 10, -12
 257              		.cfi_offset 11, -8
 258              		.cfi_offset 14, -4
 259              	.LBB54:
 260              	.LBB55:
 261              		.file 2 "../e-puck2_main-processor/ChibiOS//os/rt/include/chregistry.h"
 262              		.loc 2 135 0
 263 0004 594D     		ldr	r5, .L44
 264 0006 5A4A     		ldr	r2, .L44+4
 265 0008 AB69     		ldr	r3, [r5, #24]
 266              	.LBE55:
 267              	.LBE54:
 268              		.loc 1 168 0
 269 000a 5A4E     		ldr	r6, .L44+8
 270              	.LBB57:
 271              	.LBB56:
 272              		.loc 2 135 0
 273 000c 9A61     		str	r2, [r3, #24]
 274              	.LBE56:
 275              	.LBE57:
 276              		.loc 1 168 0
 277 000e A3B0     		sub	sp, sp, #140
 278              		.cfi_def_cfa_offset 176
 279              		.loc 1 174 0
 280 0010 03AB     		add	r3, sp, #12
 281              		.loc 1 175 0
 282 0012 8022     		movs	r2, #128
 283              		.loc 1 173 0
 284 0014 05AC     		add	r4, sp, #20
 285              		.loc 1 168 0
ARM GAS  /tmp/cckuMF9K.s 			page 6


 286 0016 3068     		ldr	r0, [r6]
 287              	.LVL7:
 288              		.loc 1 175 0
 289 0018 0092     		str	r2, [sp]
 290              		.loc 1 174 0
 291 001a CDE90333 		strd	r3, r3, [sp, #12]
 292              		.loc 1 175 0
 293 001e 1A46     		mov	r2, r3
 294 0020 554B     		ldr	r3, .L44+12
 295              		.loc 1 168 0
 296 0022 2190     		str	r0, [sp, #132]
 297              		.loc 1 175 0
 298 0024 2146     		mov	r1, r4
 299 0026 0AA8     		add	r0, sp, #40
 300              		.loc 1 173 0
 301 0028 CDE90544 		strd	r4, r4, [sp, #20]
 302 002c 0024     		movs	r4, #0
 303 002e CDE90744 		strd	r4, r4, [sp, #28]
 304 0032 0994     		str	r4, [sp, #36]
 305              		.loc 1 182 0
 306 0034 1C46     		mov	r4, r3
 307              		.loc 1 175 0
 308 0036 FFF7FEFF 		bl	messagebus_topic_init
 309              	.LVL8:
 310              		.loc 1 176 0
 311 003a 0AA9     		add	r1, sp, #40
 312 003c 4F4A     		ldr	r2, .L44+16
 313 003e 5048     		ldr	r0, .L44+20
 314              	.LBB58:
 315              		.loc 1 226 0
 316 0040 DFF860B1 		ldr	fp, .L44+56
 317              	.LBE58:
 318              		.loc 1 176 0
 319 0044 FFF7FEFF 		bl	messagebus_advertise_topic
 320              	.LVL9:
 321 0048 04F11C08 		add	r8, r4, #28
 322              	.L25:
 323              	.LBB59:
 324              	.LBB60:
 325              		.file 3 "../e-puck2_main-processor/ChibiOS//os/rt/include/chthreads.h"
 326              		.loc 3 233 0
 327 004c AB69     		ldr	r3, [r5, #24]
 328              	.LBE60:
 329              	.LBE59:
 330              		.loc 1 178 0
 331 004e 93F82190 		ldrb	r9, [r3, #33]	@ zero_extendqisi2
 332 0052 19F00409 		ands	r9, r9, #4
 333 0056 6FD1     		bne	.L42
 334              	.L36:
 335              	.LVL10:
 336              	.LBB62:
 337              	.LBB63:
 338              		.file 4 "../e-puck2_main-processor/ChibiOS//os/rt/include/chbsem.h"
 339              		.loc 4 143 0
 340 0058 4A48     		ldr	r0, .L44+24
 341 005a FFF7FEFF 		bl	chSemWait
 342              	.LVL11:
ARM GAS  /tmp/cckuMF9K.s 			page 7


 343              	.LBE63:
 344              	.LBE62:
 345              		.loc 1 182 0
 346 005e 4A4B     		ldr	r3, .L44+28
 347 0060 4A48     		ldr	r0, .L44+32
 348              		.loc 1 183 0
 349 0062 1969     		ldr	r1, [r3, #16]
 350              		.loc 1 182 0
 351 0064 1F68     		ldr	r7, [r3]
 352              		.loc 1 184 0
 353 0066 1A6A     		ldr	r2, [r3, #32]
 354 0068 A260     		str	r2, [r4, #8]
 355              		.loc 1 183 0
 356 006a C4E90071 		strd	r7, r1, [r4]
 357              		.loc 1 185 0
 358 006e 1F6B     		ldr	r7, [r3, #48]
 359              		.loc 1 187 0
 360 0070 5969     		ldr	r1, [r3, #20]
 361              		.loc 1 185 0
 362 0072 E760     		str	r7, [r4, #12]
 363              		.loc 1 186 0
 364 0074 5F68     		ldr	r7, [r3, #4]
 365              		.loc 1 188 0
 366 0076 5A6A     		ldr	r2, [r3, #36]
 367 0078 A261     		str	r2, [r4, #24]
 368              		.loc 1 187 0
 369 007a C4E90471 		strd	r7, r1, [r4, #16]
 370              		.loc 1 189 0
 371 007e 5F6B     		ldr	r7, [r3, #52]
 372 0080 E761     		str	r7, [r4, #28]
 373              		.loc 1 194 0
 374 0082 9F6B     		ldr	r7, [r3, #56]
 375              		.loc 1 192 0
 376 0084 9969     		ldr	r1, [r3, #24]
 377              		.loc 1 193 0
 378 0086 9A6A     		ldr	r2, [r3, #40]
 379              		.loc 1 194 0
 380 0088 E762     		str	r7, [r4, #44]
 381              		.loc 1 191 0
 382 008a 9F68     		ldr	r7, [r3, #8]
 383 008c 2762     		str	r7, [r4, #32]
 384              		.loc 1 192 0
 385 008e 6162     		str	r1, [r4, #36]
 386              		.loc 1 195 0
 387 0090 DF68     		ldr	r7, [r3, #12]
 388              		.loc 1 196 0
 389 0092 D969     		ldr	r1, [r3, #28]
 390              		.loc 1 193 0
 391 0094 A262     		str	r2, [r4, #40]
 392              		.loc 1 197 0
 393 0096 DA6A     		ldr	r2, [r3, #44]
 394              		.loc 1 198 0
 395 0098 DB6B     		ldr	r3, [r3, #60]
 396              		.loc 1 196 0
 397 009a 6163     		str	r1, [r4, #52]
 398              		.loc 1 195 0
 399 009c 2763     		str	r7, [r4, #48]
ARM GAS  /tmp/cckuMF9K.s 			page 8


 400              		.loc 1 198 0
 401 009e E363     		str	r3, [r4, #60]
 402              	.LBB64:
 403              		.loc 1 202 0
 404 00a0 4946     		mov	r1, r9
 405              	.LBE64:
 406              		.loc 1 197 0
 407 00a2 A263     		str	r2, [r4, #56]
 408              	.LVL12:
 409              	.L28:
 410              	.LBB65:
 411              		.loc 1 201 0
 412 00a4 426A     		ldr	r2, [r0, #36]
 413 00a6 50F8043F 		ldr	r3, [r0, #4]!
 414 00aa 9A42     		cmp	r2, r3
 415              		.loc 1 204 0
 416 00ac 96BF     		itet	ls
 417 00ae 9B1A     		subls	r3, r3, r2
 418              		.loc 1 202 0
 419 00b0 0164     		strhi	r1, [r0, #64]
 420              		.loc 1 204 0
 421 00b2 0364     		strls	r3, [r0, #64]
 422              		.loc 1 200 0
 423 00b4 4045     		cmp	r0, r8
 424 00b6 F5D1     		bne	.L28
 425              	.LBE65:
 426              		.loc 1 208 0
 427 00b8 8022     		movs	r2, #128
 428 00ba 2146     		mov	r1, r4
 429 00bc 0AA8     		add	r0, sp, #40
 430 00be FFF7FEFF 		bl	messagebus_topic_publish
 431              	.LVL13:
 432              		.loc 1 210 0
 433 00c2 DFF8E4C0 		ldr	ip, .L44+60
 434 00c6 9CF80030 		ldrb	r3, [ip]	@ zero_extendqisi2
 435 00ca 002B     		cmp	r3, #0
 436 00cc BED0     		beq	.L25
 437              		.loc 1 211 0
 438 00ce DFF8DCA0 		ldr	r10, .L44+64
 439 00d2 9AF80090 		ldrb	r9, [r10]	@ zero_extendqisi2
 440 00d6 B9F1000F 		cmp	r9, #0
 441 00da 34D0     		beq	.L31
 442 00dc B9F1010F 		cmp	r9, #1
 443 00e0 B4D1     		bne	.L25
 444 00e2 2B4A     		ldr	r2, .L44+36
 445 00e4 DFF8C8E0 		ldr	lr, .L44+68
 446 00e8 02F12009 		add	r9, r2, #32
 447 00ec 7146     		mov	r1, lr
 448              	.L33:
 449              	.LBB66:
 450              	.LBB67:
 451              	.LBB68:
 452              		.loc 1 381 0 discriminator 3
 453 00ee 52F8040B 		ldr	r0, [r2], #4
 454              	.LBE68:
 455              	.LBE67:
 456              		.loc 1 221 0 discriminator 3
ARM GAS  /tmp/cckuMF9K.s 			page 9


 457 00f2 51F8043F 		ldr	r3, [r1, #4]!
 458              		.loc 1 220 0 discriminator 3
 459 00f6 4A45     		cmp	r2, r9
 460              		.loc 1 221 0 discriminator 3
 461 00f8 0344     		add	r3, r3, r0
 462 00fa 0B60     		str	r3, [r1]
 463              	.LVL14:
 464              		.loc 1 220 0 discriminator 3
 465 00fc F7D1     		bne	.L33
 466              	.LBE66:
 467              		.loc 1 223 0
 468 00fe 254A     		ldr	r2, .L44+40
 469 0100 1378     		ldrb	r3, [r2]	@ zero_extendqisi2
 470 0102 0133     		adds	r3, r3, #1
 471 0104 DBB2     		uxtb	r3, r3
 472              		.loc 1 224 0
 473 0106 642B     		cmp	r3, #100
 474              		.loc 1 223 0
 475 0108 1370     		strb	r3, [r2]
 476              		.loc 1 224 0
 477 010a 9FD1     		bne	.L25
 478 010c 224A     		ldr	r2, .L44+44
 479 010e 2348     		ldr	r0, .L44+48
 480              	.L35:
 481              	.LBB69:
 482              		.loc 1 226 0 discriminator 3
 483 0110 5EF8043F 		ldr	r3, [lr, #4]!
 484 0114 8BFB0371 		smull	r7, r1, fp, r3
 485 0118 DB17     		asrs	r3, r3, #31
 486 011a C3EB6113 		rsb	r3, r3, r1, asr #5
 487              		.loc 1 225 0 discriminator 3
 488 011e 7045     		cmp	r0, lr
 489              		.loc 1 226 0 discriminator 3
 490 0120 42F8043B 		str	r3, [r2], #4
 491              	.LVL15:
 492              		.loc 1 225 0 discriminator 3
 493 0124 F4D1     		bne	.L35
 494              	.LBE69:
 495              		.loc 1 228 0
 496 0126 0023     		movs	r3, #0
 497 0128 8CF80030 		strb	r3, [ip]
 498              	.LBB70:
 499              	.LBB61:
 500              		.loc 3 233 0
 501 012c AB69     		ldr	r3, [r5, #24]
 502              	.LBE61:
 503              	.LBE70:
 504              		.loc 1 178 0
 505 012e 93F82190 		ldrb	r9, [r3, #33]	@ zero_extendqisi2
 506 0132 19F00409 		ands	r9, r9, #4
 507 0136 8FD0     		beq	.L36
 508              	.L42:
 509              		.loc 1 235 0
 510 0138 219A     		ldr	r2, [sp, #132]
 511 013a 3368     		ldr	r3, [r6]
 512 013c 9A42     		cmp	r2, r3
 513 013e 13D1     		bne	.L43
ARM GAS  /tmp/cckuMF9K.s 			page 10


 514 0140 23B0     		add	sp, sp, #140
 515              		.cfi_remember_state
 516              		.cfi_def_cfa_offset 36
 517              		@ sp needed
 518 0142 BDE8F08F 		pop	{r4, r5, r6, r7, r8, r9, r10, fp, pc}
 519              	.L31:
 520              		.cfi_restore_state
 521              		.loc 1 213 0
 522 0146 2022     		movs	r2, #32
 523 0148 4946     		mov	r1, r9
 524 014a 1348     		ldr	r0, .L44+44
 525 014c FFF7FEFF 		bl	memset
 526              	.LVL16:
 527              		.loc 1 214 0
 528 0150 2022     		movs	r2, #32
 529 0152 4946     		mov	r1, r9
 530 0154 1248     		ldr	r0, .L44+52
 531 0156 FFF7FEFF 		bl	memset
 532              	.LVL17:
 533              		.loc 1 215 0
 534 015a 0E4A     		ldr	r2, .L44+40
 535              		.loc 1 216 0
 536 015c 0123     		movs	r3, #1
 537              		.loc 1 215 0
 538 015e 82F80090 		strb	r9, [r2]
 539              		.loc 1 216 0
 540 0162 8AF80030 		strb	r3, [r10]
 541              		.loc 1 217 0
 542 0166 71E7     		b	.L25
 543              	.L43:
 544              		.loc 1 235 0
 545 0168 FFF7FEFF 		bl	__stack_chk_fail
 546              	.LVL18:
 547              	.L45:
 548              		.align	2
 549              	.L44:
 550 016c 00000000 		.word	ch
 551 0170 00000000 		.word	.LANCHOR1
 552 0174 00000000 		.word	__stack_chk_guard
 553 0178 00000000 		.word	.LANCHOR2
 554 017c 00000000 		.word	.LC0
 555 0180 00000000 		.word	bus
 556 0184 00000000 		.word	.LANCHOR3
 557 0188 00000000 		.word	.LANCHOR4
 558 018c FCFFFFFF 		.word	.LANCHOR2-4
 559 0190 40000000 		.word	.LANCHOR2+64
 560 0194 00000000 		.word	.LANCHOR8
 561 0198 60000000 		.word	.LANCHOR2+96
 562 019c 1C000000 		.word	.LANCHOR7+28
 563 01a0 00000000 		.word	.LANCHOR7
 564 01a4 1F85EB51 		.word	1374389535
 565 01a8 00000000 		.word	.LANCHOR5
 566 01ac 00000000 		.word	.LANCHOR6
 567 01b0 FCFFFFFF 		.word	.LANCHOR7-4
 568              		.cfi_endproc
 569              	.LFE260:
 570              		.size	proximity_thd, .-proximity_thd
ARM GAS  /tmp/cckuMF9K.s 			page 11


 571              		.section	.text.adc_cb,"ax",%progbits
 572              		.align	1
 573              		.p2align 4,,15
 574              		.syntax unified
 575              		.thumb
 576              		.thumb_func
 577              		.fpu fpv4-sp-d16
 578              		.type	adc_cb, %function
 579              	adc_cb:
 580              	.LFB259:
 581              		.loc 1 74 0
 582              		.cfi_startproc
 583              		@ args = 0, pretend = 0, frame = 8
 584              		@ frame_needed = 0, uses_anonymous_args = 0
 585              	.LVL19:
 586 0000 70B5     		push	{r4, r5, r6, lr}
 587              		.cfi_def_cfa_offset 16
 588              		.cfi_offset 4, -16
 589              		.cfi_offset 5, -12
 590              		.cfi_offset 6, -8
 591              		.cfi_offset 14, -4
 592              		.loc 1 81 0
 593 0002 0269     		ldr	r2, [r0, #16]
 594              	.LVL20:
 595              		.loc 1 74 0
 596 0004 1E4D     		ldr	r5, .L58
 597              		.loc 1 81 0
 598 0006 5288     		ldrh	r2, [r2, #2]
 599              		.loc 1 74 0
 600 0008 2B68     		ldr	r3, [r5]
 601 000a 82B0     		sub	sp, sp, #8
 602              		.cfi_def_cfa_offset 24
 603              		.loc 1 74 0
 604 000c 0646     		mov	r6, r0
 605 000e 0C46     		mov	r4, r1
 606              		.loc 1 81 0
 607 0010 1C48     		ldr	r0, .L58+4
 608              	.LVL21:
 609              		.loc 1 74 0
 610 0012 0193     		str	r3, [sp, #4]
 611              	.LVL22:
 612              		.loc 1 81 0
 613 0014 9200     		lsls	r2, r2, #2
 614 0016 0021     		movs	r1, #0
 615              	.LVL23:
 616 0018 FFF7FEFF 		bl	memset
 617              	.LVL24:
 618              	.LBB71:
 619              		.loc 1 84 0
 620 001c 3369     		ldr	r3, [r6, #16]
 621 001e 5B88     		ldrh	r3, [r3, #2]
 622 0020 5BB1     		cbz	r3, .L47
 623 0022 184A     		ldr	r2, .L58+4
 624 0024 A11E     		subs	r1, r4, #2
 625 0026 0023     		movs	r3, #0
 626              	.LVL25:
 627              	.L48:
ARM GAS  /tmp/cckuMF9K.s 			page 12


 628              		.loc 1 85 0 discriminator 3
 629 0028 31F8020F 		ldrh	r0, [r1, #2]!
 630 002c 42F8040B 		str	r0, [r2], #4
 631              		.loc 1 84 0 discriminator 3
 632 0030 3069     		ldr	r0, [r6, #16]
 633 0032 4088     		ldrh	r0, [r0, #2]
 634 0034 0133     		adds	r3, r3, #1
 635              	.LVL26:
 636 0036 9842     		cmp	r0, r3
 637 0038 F6D8     		bhi	.L48
 638              	.LVL27:
 639              	.L47:
 640              	.LBE71:
 641              	.LBB72:
 642              	.LBB73:
 643              	.LBB74:
 644              	.LBB75:
 645              	.LBB76:
 646              	.LBB77:
 647              		.file 5 "../e-puck2_main-processor/ChibiOS//os/ext/CMSIS/include/core_cmFunc.h"
 648              		.loc 5 546 0
 649 003a 2023     		movs	r3, #32
 650              		.syntax unified
 651              	@ 546 "../e-puck2_main-processor/ChibiOS//os/ext/CMSIS/include/core_cmFunc.h" 1
 652 003c 83F31188 		MSR basepri, r3
 653              	@ 0 "" 2
 654              	.LVL28:
 655              		.thumb
 656              		.syntax unified
 657              	.LBE77:
 658              	.LBE76:
 659              	.LBE75:
 660              	.LBE74:
 661              		.file 6 "../e-puck2_main-processor/ChibiOS//os/rt/include/chsys.h"
 662              		.loc 6 389 0
 663 0040 FFF7FEFF 		bl	_stats_start_measure_crit_isr
 664              	.LVL29:
 665              		.loc 6 390 0
 666 0044 FFF7FEFF 		bl	_dbg_check_lock_from_isr
 667              	.LVL30:
 668              	.LBE73:
 669              	.LBE72:
 670              	.LBB78:
 671              	.LBB79:
 672              		.loc 4 268 0
 673 0048 FFF7FEFF 		bl	chDbgCheckClassI
 674              	.LVL31:
 675              		.loc 4 270 0
 676 004c 0E48     		ldr	r0, .L58+8
 677 004e 8368     		ldr	r3, [r0, #8]
 678 0050 002B     		cmp	r3, #0
 679 0052 0FDD     		ble	.L56
 680              	.L49:
 681              	.LVL32:
 682              	.LBE79:
 683              	.LBE78:
 684              	.LBB81:
ARM GAS  /tmp/cckuMF9K.s 			page 13


 685              	.LBB82:
 686              		.loc 6 408 0
 687 0054 FFF7FEFF 		bl	_dbg_check_unlock_from_isr
 688              	.LVL33:
 689              		.loc 6 409 0
 690 0058 FFF7FEFF 		bl	_stats_stop_measure_crit_isr
 691              	.LVL34:
 692              	.LBB83:
 693              	.LBB84:
 694              	.LBB85:
 695              	.LBB86:
 696              		.loc 5 546 0
 697 005c 0023     		movs	r3, #0
 698              		.syntax unified
 699              	@ 546 "../e-puck2_main-processor/ChibiOS//os/ext/CMSIS/include/core_cmFunc.h" 1
 700 005e 83F31188 		MSR basepri, r3
 701              	@ 0 "" 2
 702              	.LVL35:
 703              		.thumb
 704              		.syntax unified
 705              	.LBE86:
 706              	.LBE85:
 707              	.LBE84:
 708              	.LBE83:
 709              	.LBE82:
 710              	.LBE81:
 711              		.loc 1 94 0
 712 0062 019A     		ldr	r2, [sp, #4]
 713 0064 2B68     		ldr	r3, [r5]
 714              		.loc 1 93 0
 715 0066 0949     		ldr	r1, .L58+12
 716 0068 0120     		movs	r0, #1
 717              		.loc 1 94 0
 718 006a 9A42     		cmp	r2, r3
 719              		.loc 1 93 0
 720 006c 0870     		strb	r0, [r1]
 721              		.loc 1 94 0
 722 006e 04D1     		bne	.L57
 723 0070 02B0     		add	sp, sp, #8
 724              		.cfi_remember_state
 725              		.cfi_def_cfa_offset 16
 726              		@ sp needed
 727 0072 70BD     		pop	{r4, r5, r6, pc}
 728              	.LVL36:
 729              	.L56:
 730              		.cfi_restore_state
 731              	.LBB87:
 732              	.LBB80:
 733              		.loc 4 271 0
 734 0074 FFF7FEFF 		bl	chSemSignalI
 735              	.LVL37:
 736 0078 ECE7     		b	.L49
 737              	.LVL38:
 738              	.L57:
 739              	.LBE80:
 740              	.LBE87:
 741              		.loc 1 94 0
ARM GAS  /tmp/cckuMF9K.s 			page 14


 742 007a FFF7FEFF 		bl	__stack_chk_fail
 743              	.LVL39:
 744              	.L59:
 745 007e 00BF     		.align	2
 746              	.L58:
 747 0080 00000000 		.word	__stack_chk_guard
 748 0084 00000000 		.word	.LANCHOR4
 749 0088 00000000 		.word	.LANCHOR3
 750 008c 00000000 		.word	.LANCHOR0
 751              		.cfi_endproc
 752              	.LFE259:
 753              		.size	adc_cb, .-adc_cb
 754              		.section	.text.proximity_start,"ax",%progbits
 755              		.align	1
 756              		.p2align 4,,15
 757              		.global	proximity_start
 758              		.syntax unified
 759              		.thumb
 760              		.thumb_func
 761              		.fpu fpv4-sp-d16
 762              		.type	proximity_start, %function
 763              	proximity_start:
 764              	.LFB263:
 765              		.loc 1 302 0
 766              		.cfi_startproc
 767              		@ args = 0, pretend = 0, frame = 8
 768              		@ frame_needed = 0, uses_anonymous_args = 0
 769              	.LVL40:
 770 0000 F0B5     		push	{r4, r5, r6, r7, lr}
 771              		.cfi_def_cfa_offset 20
 772              		.cfi_offset 4, -20
 773              		.cfi_offset 5, -16
 774              		.cfi_offset 6, -12
 775              		.cfi_offset 7, -8
 776              		.cfi_offset 14, -4
 777              		.loc 1 303 0
 778 0002 294D     		ldr	r5, .L69
 779              		.loc 1 302 0
 780 0004 294C     		ldr	r4, .L69+4
 781              		.loc 1 303 0
 782 0006 2E78     		ldrb	r6, [r5]	@ zero_extendqisi2
 783              		.loc 1 302 0
 784 0008 2368     		ldr	r3, [r4]
 785 000a 85B0     		sub	sp, sp, #20
 786              		.cfi_def_cfa_offset 40
 787              		.loc 1 303 0
 788 000c 012E     		cmp	r6, #1
 789              		.loc 1 302 0
 790 000e 0393     		str	r3, [sp, #12]
 791              		.loc 1 303 0
 792 0010 05D0     		beq	.L66
 793              	.LVL41:
 794              	.L60:
 795              		.loc 1 350 0
 796 0012 039A     		ldr	r2, [sp, #12]
 797 0014 2368     		ldr	r3, [r4]
 798 0016 9A42     		cmp	r2, r3
ARM GAS  /tmp/cckuMF9K.s 			page 15


 799 0018 44D1     		bne	.L67
 800 001a 05B0     		add	sp, sp, #20
 801              		.cfi_remember_state
 802              		.cfi_def_cfa_offset 20
 803              		@ sp needed
 804 001c F0BD     		pop	{r4, r5, r6, r7, pc}
 805              	.LVL42:
 806              	.L66:
 807              		.cfi_restore_state
 808              		.loc 1 324 0
 809 001e 0128     		cmp	r0, #1
 810 0020 0746     		mov	r7, r0
 811 0022 2CD0     		beq	.L68
 812              		.loc 1 328 0
 813 0024 0021     		movs	r1, #0
 814 0026 2846     		mov	r0, r5
 815              	.LVL43:
 816 0028 FFF7FEFF 		bl	adcStart
 817              	.LVL44:
 818              		.loc 1 331 0
 819 002c 2846     		mov	r0, r5
 820 002e 2049     		ldr	r1, .L69+8
 821 0030 204A     		ldr	r2, .L69+12
 822 0032 3346     		mov	r3, r6
 823 0034 FFF7FEFF 		bl	adcStartConversion
 824              	.LVL45:
 825              		.loc 1 334 0
 826 0038 1F49     		ldr	r1, .L69+16
 827 003a 2048     		ldr	r0, .L69+20
 828 003c FFF7FEFF 		bl	pwmStart
 829              	.LVL46:
 830              	.L63:
 831              		.loc 1 337 0
 832 0040 4FF49672 		mov	r2, #300
 833 0044 0021     		movs	r1, #0
 834 0046 1D48     		ldr	r0, .L69+20
 835 0048 FFF7FEFF 		bl	pwmEnableChannel
 836              	.LVL47:
 837              		.loc 1 341 0
 838 004c 0021     		movs	r1, #0
 839 004e 1B48     		ldr	r0, .L69+20
 840 0050 FFF7FEFF 		bl	pwmEnableChannelNotification
 841              	.LVL48:
 842              		.loc 1 342 0
 843 0054 1948     		ldr	r0, .L69+20
 844 0056 FFF7FEFF 		bl	pwmEnablePeriodicNotification
 845              	.LVL49:
 846              		.loc 1 344 0
 847 005a 4FF48272 		mov	r2, #260
 848 005e 0121     		movs	r1, #1
 849 0060 1648     		ldr	r0, .L69+20
 850 0062 FFF7FEFF 		bl	pwmEnableChannel
 851              	.LVL50:
 852              		.loc 1 349 0
 853 0066 0023     		movs	r3, #0
 854 0068 0093     		str	r3, [sp]
 855 006a 1548     		ldr	r0, .L69+24
ARM GAS  /tmp/cckuMF9K.s 			page 16


 856 006c 154B     		ldr	r3, .L69+28
 857 006e 4022     		movs	r2, #64
 858 0070 4FF41E71 		mov	r1, #632
 859 0074 FFF7FEFF 		bl	chThdCreateStatic
 860              	.LVL51:
 861 0078 134B     		ldr	r3, .L69+32
 862 007a 1860     		str	r0, [r3]
 863 007c C9E7     		b	.L60
 864              	.LVL52:
 865              	.L68:
 866              		.loc 1 325 0
 867 007e 0E4E     		ldr	r6, .L69+16
 868 0080 41F66A03 		movw	r3, #6250
 869              		.loc 1 328 0
 870 0084 2846     		mov	r0, r5
 871              	.LVL53:
 872 0086 0021     		movs	r1, #0
 873              		.loc 1 325 0
 874 0088 7360     		str	r3, [r6, #4]
 875              		.loc 1 328 0
 876 008a FFF7FEFF 		bl	adcStart
 877              	.LVL54:
 878              		.loc 1 331 0
 879 008e 2846     		mov	r0, r5
 880 0090 3B46     		mov	r3, r7
 881 0092 084A     		ldr	r2, .L69+12
 882 0094 0649     		ldr	r1, .L69+8
 883 0096 FFF7FEFF 		bl	adcStartConversion
 884              	.LVL55:
 885              		.loc 1 334 0
 886 009a 3146     		mov	r1, r6
 887 009c 0748     		ldr	r0, .L69+20
 888 009e FFF7FEFF 		bl	pwmStart
 889              	.LVL56:
 890 00a2 CDE7     		b	.L63
 891              	.L67:
 892              		.loc 1 350 0
 893 00a4 FFF7FEFF 		bl	__stack_chk_fail
 894              	.LVL57:
 895              	.L70:
 896              		.align	2
 897              	.L69:
 898 00a8 00000000 		.word	ADCD1
 899 00ac 00000000 		.word	__stack_chk_guard
 900 00b0 00000000 		.word	.LANCHOR11
 901 00b4 00000000 		.word	.LANCHOR10
 902 00b8 00000000 		.word	.LANCHOR9
 903 00bc 00000000 		.word	PWMD2
 904 00c0 00000000 		.word	.LANCHOR12
 905 00c4 00000000 		.word	proximity_thd
 906 00c8 00000000 		.word	.LANCHOR13
 907              		.cfi_endproc
 908              	.LFE263:
 909              		.size	proximity_start, .-proximity_start
 910              		.section	.text.proximity_stop,"ax",%progbits
 911              		.align	1
 912              		.p2align 4,,15
ARM GAS  /tmp/cckuMF9K.s 			page 17


 913              		.global	proximity_stop
 914              		.syntax unified
 915              		.thumb
 916              		.thumb_func
 917              		.fpu fpv4-sp-d16
 918              		.type	proximity_stop, %function
 919              	proximity_stop:
 920              	.LFB264:
 921              		.loc 1 352 0
 922              		.cfi_startproc
 923              		@ args = 0, pretend = 0, frame = 8
 924              		@ frame_needed = 0, uses_anonymous_args = 0
 925 0000 70B5     		push	{r4, r5, r6, lr}
 926              		.cfi_def_cfa_offset 16
 927              		.cfi_offset 4, -16
 928              		.cfi_offset 5, -12
 929              		.cfi_offset 6, -8
 930              		.cfi_offset 14, -4
 931              		.loc 1 353 0
 932 0002 174C     		ldr	r4, .L79
 933              		.loc 1 352 0
 934 0004 174D     		ldr	r5, .L79+4
 935              		.loc 1 353 0
 936 0006 2378     		ldrb	r3, [r4]	@ zero_extendqisi2
 937              		.loc 1 352 0
 938 0008 2A68     		ldr	r2, [r5]
 939 000a 82B0     		sub	sp, sp, #8
 940              		.cfi_def_cfa_offset 24
 941              		.loc 1 353 0
 942 000c 012B     		cmp	r3, #1
 943              		.loc 1 352 0
 944 000e 0192     		str	r2, [sp, #4]
 945              		.loc 1 353 0
 946 0010 1DD0     		beq	.L71
 947              		.loc 1 356 0
 948 0012 154E     		ldr	r6, .L79+8
 949 0014 3068     		ldr	r0, [r6]
 950 0016 FFF7FEFF 		bl	chThdTerminate
 951              	.LVL58:
 952              		.loc 1 357 0
 953 001a 3068     		ldr	r0, [r6]
 954 001c FFF7FEFF 		bl	chThdWait
 955              	.LVL59:
 956              		.loc 1 358 0
 957 0020 0023     		movs	r3, #0
 958              		.loc 1 359 0
 959 0022 1248     		ldr	r0, .L79+12
 960              		.loc 1 358 0
 961 0024 3360     		str	r3, [r6]
 962              		.loc 1 359 0
 963 0026 FFF7FEFF 		bl	pwmStop
 964              	.LVL60:
 965              		.loc 1 360 0
 966 002a 2046     		mov	r0, r4
 967 002c FFF7FEFF 		bl	adcStopConversion
 968              	.LVL61:
 969              		.loc 1 361 0
ARM GAS  /tmp/cckuMF9K.s 			page 18


 970 0030 2046     		mov	r0, r4
 971 0032 FFF7FEFF 		bl	adcStop
 972              	.LVL62:
 973              		.loc 1 363 0
 974 0036 0E4A     		ldr	r2, .L79+16
 975              		.loc 1 365 0
 976 0038 0E4B     		ldr	r3, .L79+20
 977              		.loc 1 363 0
 978 003a 4FF48051 		mov	r1, #4096
 979 003e 5183     		strh	r1, [r2, #26]	@ movhi
 980              		.loc 1 364 0
 981 0040 4FF48044 		mov	r4, #16384
 982              		.loc 1 365 0
 983 0044 0420     		movs	r0, #4
 984              		.loc 1 366 0
 985 0046 0821     		movs	r1, #8
 986              		.loc 1 364 0
 987 0048 5483     		strh	r4, [r2, #26]	@ movhi
 988              		.loc 1 365 0
 989 004a 5883     		strh	r0, [r3, #26]	@ movhi
 990              		.loc 1 366 0
 991 004c 5983     		strh	r1, [r3, #26]	@ movhi
 992              	.L71:
 993              		.loc 1 367 0
 994 004e 019A     		ldr	r2, [sp, #4]
 995 0050 2B68     		ldr	r3, [r5]
 996 0052 9A42     		cmp	r2, r3
 997 0054 01D1     		bne	.L78
 998 0056 02B0     		add	sp, sp, #8
 999              		.cfi_remember_state
 1000              		.cfi_def_cfa_offset 16
 1001              		@ sp needed
 1002 0058 70BD     		pop	{r4, r5, r6, pc}
 1003              	.L78:
 1004              		.cfi_restore_state
 1005 005a FFF7FEFF 		bl	__stack_chk_fail
 1006              	.LVL63:
 1007              	.L80:
 1008 005e 00BF     		.align	2
 1009              	.L79:
 1010 0060 00000000 		.word	ADCD1
 1011 0064 00000000 		.word	__stack_chk_guard
 1012 0068 00000000 		.word	.LANCHOR13
 1013 006c 00000000 		.word	PWMD2
 1014 0070 00040240 		.word	1073873920
 1015 0074 00100240 		.word	1073876992
 1016              		.cfi_endproc
 1017              	.LFE264:
 1018              		.size	proximity_stop, .-proximity_stop
 1019              		.section	.text.calibrate_ir,"ax",%progbits
 1020              		.align	1
 1021              		.p2align 4,,15
 1022              		.global	calibrate_ir
 1023              		.syntax unified
 1024              		.thumb
 1025              		.thumb_func
 1026              		.fpu fpv4-sp-d16
ARM GAS  /tmp/cckuMF9K.s 			page 19


 1027              		.type	calibrate_ir, %function
 1028              	calibrate_ir:
 1029              	.LFB265:
 1030              		.loc 1 369 0
 1031              		.cfi_startproc
 1032              		@ args = 0, pretend = 0, frame = 8
 1033              		@ frame_needed = 0, uses_anonymous_args = 0
 1034 0000 30B5     		push	{r4, r5, lr}
 1035              		.cfi_def_cfa_offset 12
 1036              		.cfi_offset 4, -12
 1037              		.cfi_offset 5, -8
 1038              		.cfi_offset 14, -4
 1039 0002 0C4D     		ldr	r5, .L87
 1040              		.loc 1 370 0
 1041 0004 0C4A     		ldr	r2, .L87+4
 1042              		.loc 1 369 0
 1043 0006 2B68     		ldr	r3, [r5]
 1044              		.loc 1 371 0
 1045 0008 0C4C     		ldr	r4, .L87+8
 1046              		.loc 1 369 0
 1047 000a 83B0     		sub	sp, sp, #12
 1048              		.cfi_def_cfa_offset 24
 1049              		.loc 1 370 0
 1050 000c 0021     		movs	r1, #0
 1051              		.loc 1 369 0
 1052 000e 0193     		str	r3, [sp, #4]
 1053              		.loc 1 371 0
 1054 0010 0123     		movs	r3, #1
 1055              		.loc 1 370 0
 1056 0012 1170     		strb	r1, [r2]
 1057              		.loc 1 371 0
 1058 0014 2370     		strb	r3, [r4]
 1059              	.L82:
 1060              		.loc 1 373 0
 1061 0016 1420     		movs	r0, #20
 1062 0018 FFF7FEFF 		bl	chThdSleep
 1063              	.LVL64:
 1064              		.loc 1 372 0
 1065 001c 2378     		ldrb	r3, [r4]	@ zero_extendqisi2
 1066 001e 002B     		cmp	r3, #0
 1067 0020 F9D1     		bne	.L82
 1068              		.loc 1 375 0
 1069 0022 019A     		ldr	r2, [sp, #4]
 1070 0024 2B68     		ldr	r3, [r5]
 1071 0026 9A42     		cmp	r2, r3
 1072 0028 01D1     		bne	.L86
 1073 002a 03B0     		add	sp, sp, #12
 1074              		.cfi_remember_state
 1075              		.cfi_def_cfa_offset 12
 1076              		@ sp needed
 1077 002c 30BD     		pop	{r4, r5, pc}
 1078              	.L86:
 1079              		.cfi_restore_state
 1080 002e FFF7FEFF 		bl	__stack_chk_fail
 1081              	.LVL65:
 1082              	.L88:
 1083 0032 00BF     		.align	2
ARM GAS  /tmp/cckuMF9K.s 			page 20


 1084              	.L87:
 1085 0034 00000000 		.word	__stack_chk_guard
 1086 0038 00000000 		.word	.LANCHOR6
 1087 003c 00000000 		.word	.LANCHOR5
 1088              		.cfi_endproc
 1089              	.LFE265:
 1090              		.size	calibrate_ir, .-calibrate_ir
 1091              		.section	.text.get_prox,"ax",%progbits
 1092              		.align	1
 1093              		.p2align 4,,15
 1094              		.global	get_prox
 1095              		.syntax unified
 1096              		.thumb
 1097              		.thumb_func
 1098              		.fpu fpv4-sp-d16
 1099              		.type	get_prox, %function
 1100              	get_prox:
 1101              	.LFB266:
 1102              		.loc 1 377 0
 1103              		.cfi_startproc
 1104              		@ args = 0, pretend = 0, frame = 8
 1105              		@ frame_needed = 0, uses_anonymous_args = 0
 1106              	.LVL66:
 1107 0000 00B5     		push	{lr}
 1108              		.cfi_def_cfa_offset 4
 1109              		.cfi_offset 14, -4
 1110 0002 0A4B     		ldr	r3, .L95
 1111 0004 83B0     		sub	sp, sp, #12
 1112              		.cfi_def_cfa_offset 16
 1113              		.loc 1 377 0
 1114 0006 1A68     		ldr	r2, [r3]
 1115 0008 0192     		str	r2, [sp, #4]
 1116              		.loc 1 378 0
 1117 000a 0728     		cmp	r0, #7
 1118              		.loc 1 381 0
 1119 000c 9BBF     		ittet	ls
 1120 000e 084A     		ldrls	r2, .L95+4
 1121 0010 1030     		addls	r0, r0, #16
 1122              	.LVL67:
 1123              		.loc 1 379 0
 1124 0012 0020     		movhi	r0, #0
 1125              		.loc 1 381 0
 1126 0014 52F82000 		ldrls	r0, [r2, r0, lsl #2]
 1127              		.loc 1 383 0
 1128 0018 019A     		ldr	r2, [sp, #4]
 1129 001a 1B68     		ldr	r3, [r3]
 1130 001c 9A42     		cmp	r2, r3
 1131 001e 02D1     		bne	.L94
 1132 0020 03B0     		add	sp, sp, #12
 1133              		.cfi_remember_state
 1134              		.cfi_def_cfa_offset 4
 1135              		@ sp needed
 1136 0022 5DF804FB 		ldr	pc, [sp], #4
 1137              	.L94:
 1138              		.cfi_restore_state
 1139 0026 FFF7FEFF 		bl	__stack_chk_fail
 1140              	.LVL68:
ARM GAS  /tmp/cckuMF9K.s 			page 21


 1141              	.L96:
 1142 002a 00BF     		.align	2
 1143              	.L95:
 1144 002c 00000000 		.word	__stack_chk_guard
 1145 0030 00000000 		.word	.LANCHOR2
 1146              		.cfi_endproc
 1147              	.LFE266:
 1148              		.size	get_prox, .-get_prox
 1149              		.section	.text.get_calibrated_prox,"ax",%progbits
 1150              		.align	1
 1151              		.p2align 4,,15
 1152              		.global	get_calibrated_prox
 1153              		.syntax unified
 1154              		.thumb
 1155              		.thumb_func
 1156              		.fpu fpv4-sp-d16
 1157              		.type	get_calibrated_prox, %function
 1158              	get_calibrated_prox:
 1159              	.LFB267:
 1160              		.loc 1 385 0
 1161              		.cfi_startproc
 1162              		@ args = 0, pretend = 0, frame = 8
 1163              		@ frame_needed = 0, uses_anonymous_args = 0
 1164              	.LVL69:
 1165 0000 10B5     		push	{r4, lr}
 1166              		.cfi_def_cfa_offset 8
 1167              		.cfi_offset 4, -8
 1168              		.cfi_offset 14, -4
 1169 0002 0E4A     		ldr	r2, .L103
 1170 0004 82B0     		sub	sp, sp, #8
 1171              		.cfi_def_cfa_offset 16
 1172              		.loc 1 385 0
 1173 0006 1368     		ldr	r3, [r2]
 1174 0008 0193     		str	r3, [sp, #4]
 1175              		.loc 1 387 0
 1176 000a 0728     		cmp	r0, #7
 1177 000c 11D8     		bhi	.L100
 1178              	.LVL70:
 1179              		.loc 1 390 0
 1180 000e 0C49     		ldr	r1, .L103+4
 1181 0010 00F11803 		add	r3, r0, #24
 1182              	.LVL71:
 1183 0014 00F11004 		add	r4, r0, #16
 1184              	.LVL72:
 1185 0018 51F82330 		ldr	r3, [r1, r3, lsl #2]
 1186              	.LVL73:
 1187 001c 51F82400 		ldr	r0, [r1, r4, lsl #2]
 1188              	.LVL74:
 1189 0020 C01A     		subs	r0, r0, r3
 1190 0022 20EAE070 		bic	r0, r0, r0, asr #31
 1191              	.LVL75:
 1192              	.L97:
 1193              		.loc 1 397 0
 1194 0026 0199     		ldr	r1, [sp, #4]
 1195 0028 1368     		ldr	r3, [r2]
 1196 002a 9942     		cmp	r1, r3
 1197 002c 03D1     		bne	.L102
ARM GAS  /tmp/cckuMF9K.s 			page 22


 1198 002e 02B0     		add	sp, sp, #8
 1199              		.cfi_remember_state
 1200              		.cfi_def_cfa_offset 8
 1201              		@ sp needed
 1202 0030 10BD     		pop	{r4, pc}
 1203              	.LVL76:
 1204              	.L100:
 1205              		.cfi_restore_state
 1206              		.loc 1 388 0
 1207 0032 0020     		movs	r0, #0
 1208              	.LVL77:
 1209 0034 F7E7     		b	.L97
 1210              	.L102:
 1211              		.loc 1 397 0
 1212 0036 FFF7FEFF 		bl	__stack_chk_fail
 1213              	.LVL78:
 1214              	.L104:
 1215 003a 00BF     		.align	2
 1216              	.L103:
 1217 003c 00000000 		.word	__stack_chk_guard
 1218 0040 00000000 		.word	.LANCHOR2
 1219              		.cfi_endproc
 1220              	.LFE267:
 1221              		.size	get_calibrated_prox, .-get_calibrated_prox
 1222              		.section	.text.get_ambient_light,"ax",%progbits
 1223              		.align	1
 1224              		.p2align 4,,15
 1225              		.global	get_ambient_light
 1226              		.syntax unified
 1227              		.thumb
 1228              		.thumb_func
 1229              		.fpu fpv4-sp-d16
 1230              		.type	get_ambient_light, %function
 1231              	get_ambient_light:
 1232              	.LFB268:
 1233              		.loc 1 399 0
 1234              		.cfi_startproc
 1235              		@ args = 0, pretend = 0, frame = 8
 1236              		@ frame_needed = 0, uses_anonymous_args = 0
 1237              	.LVL79:
 1238 0000 00B5     		push	{lr}
 1239              		.cfi_def_cfa_offset 4
 1240              		.cfi_offset 14, -4
 1241 0002 0A4B     		ldr	r3, .L111
 1242 0004 83B0     		sub	sp, sp, #12
 1243              		.cfi_def_cfa_offset 16
 1244              		.loc 1 399 0
 1245 0006 1A68     		ldr	r2, [r3]
 1246 0008 0192     		str	r2, [sp, #4]
 1247              		.loc 1 400 0
 1248 000a 0728     		cmp	r0, #7
 1249              		.loc 1 403 0
 1250 000c 9CBF     		itt	ls
 1251 000e 084A     		ldrls	r2, .L111+4
 1252 0010 52F82000 		ldrls	r0, [r2, r0, lsl #2]
 1253              	.LVL80:
 1254              		.loc 1 405 0
ARM GAS  /tmp/cckuMF9K.s 			page 23


 1255 0014 019A     		ldr	r2, [sp, #4]
 1256 0016 1B68     		ldr	r3, [r3]
 1257              		.loc 1 401 0
 1258 0018 88BF     		it	hi
 1259 001a 0020     		movhi	r0, #0
 1260              		.loc 1 405 0
 1261 001c 9A42     		cmp	r2, r3
 1262 001e 02D1     		bne	.L110
 1263 0020 03B0     		add	sp, sp, #12
 1264              		.cfi_remember_state
 1265              		.cfi_def_cfa_offset 4
 1266              		@ sp needed
 1267 0022 5DF804FB 		ldr	pc, [sp], #4
 1268              	.L110:
 1269              		.cfi_restore_state
 1270 0026 FFF7FEFF 		bl	__stack_chk_fail
 1271              	.LVL81:
 1272              	.L112:
 1273 002a 00BF     		.align	2
 1274              	.L111:
 1275 002c 00000000 		.word	__stack_chk_guard
 1276 0030 00000000 		.word	.LANCHOR2
 1277              		.cfi_endproc
 1278              	.LFE268:
 1279              		.size	get_ambient_light, .-get_ambient_light
 1280              		.section	.bss.adc2_proximity_samples,"aw",%nobits
 1281              		.align	2
 1282              		.set	.LANCHOR10,. + 0
 1283              		.type	adc2_proximity_samples, %object
 1284              		.size	adc2_proximity_samples, 32
 1285              	adc2_proximity_samples:
 1286 0000 00000000 		.space	32
 1286      00000000 
 1286      00000000 
 1286      00000000 
 1286      00000000 
 1287              		.section	.bss.adc2_values,"aw",%nobits
 1288              		.align	2
 1289              		.set	.LANCHOR4,. + 0
 1290              		.type	adc2_values, %object
 1291              		.size	adc2_values, 64
 1292              	adc2_values:
 1293 0000 00000000 		.space	64
 1293      00000000 
 1293      00000000 
 1293      00000000 
 1293      00000000 
 1294              		.section	.bss.calibrationInProgress,"aw",%nobits
 1295              		.set	.LANCHOR5,. + 0
 1296              		.type	calibrationInProgress, %object
 1297              		.size	calibrationInProgress, 1
 1298              	calibrationInProgress:
 1299 0000 00       		.space	1
 1300              		.section	.bss.calibrationNumSamples,"aw",%nobits
 1301              		.set	.LANCHOR8,. + 0
 1302              		.type	calibrationNumSamples, %object
 1303              		.size	calibrationNumSamples, 1
ARM GAS  /tmp/cckuMF9K.s 			page 24


 1304              	calibrationNumSamples:
 1305 0000 00       		.space	1
 1306              		.section	.bss.calibrationState,"aw",%nobits
 1307              		.set	.LANCHOR6,. + 0
 1308              		.type	calibrationState, %object
 1309              		.size	calibrationState, 1
 1310              	calibrationState:
 1311 0000 00       		.space	1
 1312              		.section	.bss.calibrationSum,"aw",%nobits
 1313              		.align	2
 1314              		.set	.LANCHOR7,. + 0
 1315              		.type	calibrationSum, %object
 1316              		.size	calibrationSum, 32
 1317              	calibrationSum:
 1318 0000 00000000 		.space	32
 1318      00000000 
 1318      00000000 
 1318      00000000 
 1318      00000000 
 1319              		.section	.bss.prox_thd_handle,"aw",%nobits
 1320              		.align	2
 1321              		.set	.LANCHOR13,. + 0
 1322              		.type	prox_thd_handle, %object
 1323              		.size	prox_thd_handle, 4
 1324              	prox_thd_handle:
 1325 0000 00000000 		.space	4
 1326              		.section	.bss.prox_values,"aw",%nobits
 1327              		.align	2
 1328              		.set	.LANCHOR2,. + 0
 1329              		.type	prox_values, %object
 1330              		.size	prox_values, 128
 1331              	prox_values:
 1332 0000 00000000 		.space	128
 1332      00000000 
 1332      00000000 
 1332      00000000 
 1332      00000000 
 1333              		.section	.bss.proximity_thd_wa,"aw",%nobits
 1334              		.align	3
 1335              		.set	.LANCHOR12,. + 0
 1336              		.type	proximity_thd_wa, %object
 1337              		.size	proximity_thd_wa, 632
 1338              	proximity_thd_wa:
 1339 0000 00000000 		.space	632
 1339      00000000 
 1339      00000000 
 1339      00000000 
 1339      00000000 
 1340              		.section	.bss.pulseSeqState,"aw",%nobits
 1341              		.set	.LANCHOR0,. + 0
 1342              		.type	pulseSeqState, %object
 1343              		.size	pulseSeqState, 1
 1344              	pulseSeqState:
 1345 0000 00       		.space	1
 1346              		.section	.data.adc2_ready,"aw",%progbits
 1347              		.align	2
 1348              		.set	.LANCHOR3,. + 0
ARM GAS  /tmp/cckuMF9K.s 			page 25


 1349              		.type	adc2_ready, %object
 1350              		.size	adc2_ready, 12
 1351              	adc2_ready:
 1352 0000 00000000 		.word	adc2_ready
 1353 0004 00000000 		.word	adc2_ready
 1354 0008 00000000 		.word	0
 1355              		.section	.data.pwmcfg_proximity.12138,"aw",%progbits
 1356              		.align	2
 1357              		.set	.LANCHOR9,. + 0
 1358              		.type	pwmcfg_proximity.12138, %object
 1359              		.size	pwmcfg_proximity.12138, 52
 1360              	pwmcfg_proximity.12138:
 1361 0000 40420F00 		.word	1000000
 1362 0004 E2040000 		.word	1250
 1363 0008 00000000 		.word	pwm_reset_cb
 1364 000c 01000000 		.word	1
 1365 0010 00000000 		.word	pwm_ch1_cb
 1366 0014 01000000 		.word	1
 1367 0018 00000000 		.word	0
 1368 001c 00000000 		.word	0
 1369 0020 00000000 		.word	0
 1370 0024 00000000 		.word	0
 1371 0028 00000000 		.word	0
 1372 002c 00000000 		.word	0
 1373 0030 00000000 		.space	4
 1374              		.section	.rodata.__FUNCTION__.12097,"a",%progbits
 1375              		.align	2
 1376              		.set	.LANCHOR1,. + 0
 1377              		.type	__FUNCTION__.12097, %object
 1378              		.size	__FUNCTION__.12097, 14
 1379              	__FUNCTION__.12097:
 1380 0000 70726F78 		.ascii	"proximity_thd\000"
 1380      696D6974 
 1380      795F7468 
 1380      6400
 1381              		.section	.rodata.adcgrpcfg2,"a",%progbits
 1382              		.align	2
 1383              		.set	.LANCHOR11,. + 0
 1384              		.type	adcgrpcfg2, %object
 1385              		.size	adcgrpcfg2, 40
 1386              	adcgrpcfg2:
 1387 0000 01       		.byte	1
 1388 0001 00       		.space	1
 1389 0002 1000     		.short	16
 1390 0004 00000000 		.word	adc_cb
 1391 0008 00000000 		.word	0
 1392 000c 00280000 		.word	10240
 1393 0010 00000023 		.word	587202560
 1394 0014 6DDB0200 		.word	187245
 1395 0018 6DDBB62D 		.word	766958445
 1396 001c 6FBDF500 		.word	16104815
 1397 0020 0D39E514 		.word	350566669
 1398 0024 2CB1D410 		.word	282374444
 1399              		.section	.rodata.proximity_thd.str1.4,"aMS",%progbits,1
 1400              		.align	2
 1401              	.LC0:
 1402 0000 2F70726F 		.ascii	"/proximity\000"
ARM GAS  /tmp/cckuMF9K.s 			page 26


 1402      78696D69 
 1402      747900
 1403              		.text
 1404              	.Letext0:
 1405              		.file 7 "/home/leander/uos_codes/epuck2_lab/Eclipse_e-puck2/Tools/gcc-arm-none-eabi-7-2017-q4-majo
 1406              		.file 8 "/home/leander/uos_codes/epuck2_lab/Eclipse_e-puck2/Tools/gcc-arm-none-eabi-7-2017-q4-majo
 1407              		.file 9 "/home/leander/uos_codes/epuck2_lab/Eclipse_e-puck2/Tools/gcc-arm-none-eabi-7-2017-q4-majo
 1408              		.file 10 "/home/leander/uos_codes/epuck2_lab/Eclipse_e-puck2/Tools/gcc-arm-none-eabi-7-2017-q4-maj
 1409              		.file 11 "/home/leander/uos_codes/epuck2_lab/Eclipse_e-puck2/Tools/gcc-arm-none-eabi-7-2017-q4-maj
 1410              		.file 12 "/home/leander/uos_codes/epuck2_lab/Eclipse_e-puck2/Tools/gcc-arm-none-eabi-7-2017-q4-maj
 1411              		.file 13 "../e-puck2_main-processor/ChibiOS//os/rt/ports/ARMCMx/compilers/GCC/chtypes.h"
 1412              		.file 14 "../e-puck2_main-processor/ChibiOS//os/rt/include/chsystypes.h"
 1413              		.file 15 "../e-puck2_main-processor/ChibiOS//os/rt/include/chschd.h"
 1414              		.file 16 "../e-puck2_main-processor/ChibiOS//os/ext/CMSIS/include/core_cm4.h"
 1415              		.file 17 "../e-puck2_main-processor/ChibiOS//os/ext/CMSIS/ST/system_stm32f4xx.h"
 1416              		.file 18 "../e-puck2_main-processor/ChibiOS//os/ext/CMSIS/ST/stm32f407xx.h"
 1417              		.file 19 "../e-puck2_main-processor/ChibiOS//os/rt/ports/ARMCMx/chcore.h"
 1418              		.file 20 "../e-puck2_main-processor/ChibiOS//os/rt/ports/ARMCMx/chcore_v7m.h"
 1419              		.file 21 "../e-puck2_main-processor/ChibiOS//os/rt/include/chdebug.h"
 1420              		.file 22 "../e-puck2_main-processor/ChibiOS//os/rt/include/chtm.h"
 1421              		.file 23 "../e-puck2_main-processor/ChibiOS//os/rt/include/chstats.h"
 1422              		.file 24 "../e-puck2_main-processor/ChibiOS//os/rt/include/chsem.h"
 1423              		.file 25 "../e-puck2_main-processor/ChibiOS//os/rt/include/chmtx.h"
 1424              		.file 26 "../e-puck2_main-processor/ChibiOS//os/rt/include/chcond.h"
 1425              		.file 27 "../e-puck2_main-processor/ChibiOS//os/rt/include/chevents.h"
 1426              		.file 28 "../e-puck2_main-processor/ChibiOS//os/rt/include/chqueues.h"
 1427              		.file 29 "../e-puck2_main-processor/ChibiOS//os/hal/ports/STM32/STM32F4xx/stm32_dma.h"
 1428              		.file 30 "../e-puck2_main-processor/ChibiOS//os/hal/include/hal_ioblock.h"
 1429              		.file 31 "../e-puck2_main-processor/ChibiOS//os/hal/ports/STM32/LLD/GPIOv2/pal_lld.h"
 1430              		.file 32 "../e-puck2_main-processor/ChibiOS//os/hal/include/adc.h"
 1431              		.file 33 "../e-puck2_main-processor/ChibiOS//os/hal/ports/STM32/STM32F4xx/adc_lld.h"
 1432              		.file 34 "../e-puck2_main-processor/ChibiOS//os/hal/include/can.h"
 1433              		.file 35 "../e-puck2_main-processor/ChibiOS//os/hal/ports/STM32/LLD/can_lld.h"
 1434              		.file 36 "../e-puck2_main-processor/ChibiOS//os/hal/include/dac.h"
 1435              		.file 37 "../e-puck2_main-processor/ChibiOS//os/hal/ports/STM32/LLD/DACv1/dac_lld.h"
 1436              		.file 38 "../e-puck2_main-processor/ChibiOS//os/hal/include/ext.h"
 1437              		.file 39 "../e-puck2_main-processor/ChibiOS//os/hal/ports/STM32/LLD/ext_lld.h"
 1438              		.file 40 "../e-puck2_main-processor/ChibiOS//os/hal/include/gpt.h"
 1439              		.file 41 "../e-puck2_main-processor/ChibiOS//os/hal/ports/STM32/LLD/TIMv1/gpt_lld.h"
 1440              		.file 42 "../e-puck2_main-processor/ChibiOS//os/hal/ports/STM32/LLD/TIMv1/stm32_tim.h"
 1441              		.file 43 "../e-puck2_main-processor/ChibiOS//os/hal/include/i2c.h"
 1442              		.file 44 "../e-puck2_main-processor/ChibiOS//os/hal/ports/STM32/LLD/I2Cv1/i2c_lld.h"
 1443              		.file 45 "../e-puck2_main-processor/ChibiOS//os/hal/include/i2s.h"
 1444              		.file 46 "../e-puck2_main-processor/ChibiOS//os/hal/ports/STM32/LLD/SPIv1/i2s_lld.h"
 1445              		.file 47 "../e-puck2_main-processor/ChibiOS//os/hal/include/pwm.h"
 1446              		.file 48 "../e-puck2_main-processor/ChibiOS//os/hal/ports/STM32/LLD/TIMv1/pwm_lld.h"
 1447              		.file 49 "../e-puck2_main-processor/ChibiOS//os/hal/include/serial.h"
 1448              		.file 50 "../e-puck2_main-processor/ChibiOS//os/hal/ports/STM32/LLD/USARTv1/serial_lld.h"
 1449              		.file 51 "../e-puck2_main-processor/ChibiOS//os/hal/include/sdc.h"
 1450              		.file 52 "../e-puck2_main-processor/ChibiOS//os/hal/ports/STM32/LLD/sdc_lld.h"
 1451              		.file 53 "../e-puck2_main-processor/ChibiOS//os/hal/include/spi.h"
 1452              		.file 54 "../e-puck2_main-processor/ChibiOS//os/hal/ports/STM32/LLD/SPIv1/spi_lld.h"
 1453              		.file 55 "../e-puck2_main-processor/ChibiOS//os/hal/include/usb.h"
 1454              		.file 56 "../e-puck2_main-processor/ChibiOS//os/hal/ports/STM32/LLD/OTGv1/usb_lld.h"
 1455              		.file 57 "../e-puck2_main-processor/ChibiOS//os/hal/ports/STM32/LLD/OTGv1/stm32_otg.h"
 1456              		.file 58 "../e-puck2_main-processor/src/sensors/proximity.h"
 1457              		.file 59 "/home/leander/uos_codes/epuck2_lab/Eclipse_e-puck2/Tools/gcc-arm-none-eabi-7-2017-q4-maj
ARM GAS  /tmp/cckuMF9K.s 			page 27


 1458              		.file 60 "../e-puck2_main-processor/src/msgbus/messagebus.h"
 1459              		.file 61 "/home/leander/uos_codes/epuck2_lab/Eclipse_e-puck2/Tools/gcc-arm-none-eabi-7-2017-q4-maj
 1460              		.file 62 "../e-puck2_main-processor/src/parameter/parameter.h"
 1461              		.file 63 "./main.h"
 1462              		.file 64 "<built-in>"