ARM GAS  /tmp/ccABp0rU.s 			page 1


   1              		.cpu cortex-m4
   2              		.eabi_attribute 27, 1
   3              		.eabi_attribute 28, 1
   4              		.eabi_attribute 20, 1
   5              		.eabi_attribute 21, 1
   6              		.eabi_attribute 23, 3
   7              		.eabi_attribute 24, 1
   8              		.eabi_attribute 25, 1
   9              		.eabi_attribute 26, 1
  10              		.eabi_attribute 30, 2
  11              		.eabi_attribute 34, 1
  12              		.eabi_attribute 18, 4
  13              		.file	"sdc.c"
  14              		.text
  15              	.Ltext0:
  16              		.cfi_sections	.debug_frame
  17              		.section	.text.sdcGetInfo,"ax",%progbits
  18              		.align	1
  19              		.p2align 4,,15
  20              		.global	sdcGetInfo
  21              		.syntax unified
  22              		.thumb
  23              		.thumb_func
  24              		.fpu fpv4-sp-d16
  25              		.type	sdcGetInfo, %function
  26              	sdcGetInfo:
  27              	.LFB279:
  28              		.file 1 "../e-puck2_main-processor/ChibiOS//os/hal/src/sdc.c"
  29              		.loc 1 922 0
  30              		.cfi_startproc
  31              		@ args = 0, pretend = 0, frame = 8
  32              		@ frame_needed = 0, uses_anonymous_args = 0
  33              	.LVL0:
  34 0000 70B5     		push	{r4, r5, r6, lr}
  35              		.cfi_def_cfa_offset 16
  36              		.cfi_offset 4, -16
  37              		.cfi_offset 5, -12
  38              		.cfi_offset 6, -8
  39              		.cfi_offset 14, -4
  40 0002 104D     		ldr	r5, .L14
  41 0004 82B0     		sub	sp, sp, #8
  42              		.cfi_def_cfa_offset 24
  43              		.loc 1 922 0
  44 0006 2B68     		ldr	r3, [r5]
  45 0008 0193     		str	r3, [sp, #4]
  46 000a 0E46     		mov	r6, r1
  47              		.loc 1 924 0
  48 000c 0446     		mov	r4, r0
  49 000e 50B1     		cbz	r0, .L2
  50              		.loc 1 924 0 is_stmt 0 discriminator 3
  51 0010 49B1     		cbz	r1, .L2
  52              		.loc 1 926 0 is_stmt 1
  53 0012 2379     		ldrb	r3, [r4, #4]	@ zero_extendqisi2
  54 0014 052B     		cmp	r3, #5
  55 0016 0CD0     		beq	.L12
  56              	.LVL1:
  57              	.L6:
ARM GAS  /tmp/ccABp0rU.s 			page 2


  58              		.loc 1 927 0
  59 0018 0120     		movs	r0, #1
  60              	.L4:
  61              		.loc 1 934 0
  62 001a 019A     		ldr	r2, [sp, #4]
  63 001c 2B68     		ldr	r3, [r5]
  64 001e 9A42     		cmp	r2, r3
  65 0020 0ED1     		bne	.L13
  66 0022 02B0     		add	sp, sp, #8
  67              		.cfi_remember_state
  68              		.cfi_def_cfa_offset 16
  69              		@ sp needed
  70 0024 70BD     		pop	{r4, r5, r6, pc}
  71              	.LVL2:
  72              	.L2:
  73              		.cfi_restore_state
  74              		.loc 1 924 0 discriminator 4
  75 0026 0848     		ldr	r0, .L14+4
  76              	.LVL3:
  77 0028 FFF7FEFF 		bl	chSysHalt
  78              	.LVL4:
  79              		.loc 1 926 0 discriminator 4
  80 002c 2379     		ldrb	r3, [r4, #4]	@ zero_extendqisi2
  81 002e 052B     		cmp	r3, #5
  82 0030 F2D1     		bne	.L6
  83              	.L12:
  84              		.loc 1 930 0
  85 0032 A36A     		ldr	r3, [r4, #40]
  86 0034 7360     		str	r3, [r6, #4]
  87              		.loc 1 931 0
  88 0036 4FF40073 		mov	r3, #512
  89 003a 3360     		str	r3, [r6]
  90              		.loc 1 933 0
  91 003c 0020     		movs	r0, #0
  92 003e ECE7     		b	.L4
  93              	.L13:
  94              		.loc 1 934 0
  95 0040 FFF7FEFF 		bl	__stack_chk_fail
  96              	.LVL5:
  97              	.L15:
  98              		.align	2
  99              	.L14:
 100 0044 00000000 		.word	__stack_chk_guard
 101 0048 00000000 		.word	.LANCHOR0
 102              		.cfi_endproc
 103              	.LFE279:
 104              		.size	sdcGetInfo, .-sdcGetInfo
 105              		.section	.text.sdcConnect,"ax",%progbits
 106              		.align	1
 107              		.p2align 4,,15
 108              		.global	sdcConnect
 109              		.syntax unified
 110              		.thumb
 111              		.thumb_func
 112              		.fpu fpv4-sp-d16
 113              		.type	sdcConnect, %function
 114              	sdcConnect:
ARM GAS  /tmp/ccABp0rU.s 			page 3


 115              	.LFB273:
 116              		.loc 1 618 0
 117              		.cfi_startproc
 118              		@ args = 0, pretend = 0, frame = 16
 119              		@ frame_needed = 1, uses_anonymous_args = 0
 120              	.LVL6:
 121 0000 2DE9F047 		push	{r4, r5, r6, r7, r8, r9, r10, lr}
 122              		.cfi_def_cfa_offset 32
 123              		.cfi_offset 4, -32
 124              		.cfi_offset 5, -28
 125              		.cfi_offset 6, -24
 126              		.cfi_offset 7, -20
 127              		.cfi_offset 8, -16
 128              		.cfi_offset 9, -12
 129              		.cfi_offset 10, -8
 130              		.cfi_offset 14, -4
 131 0004 DFF89C83 		ldr	r8, .L107+36
 132 0008 86B0     		sub	sp, sp, #24
 133              		.cfi_def_cfa_offset 56
 134 000a 02AF     		add	r7, sp, #8
 135              		.cfi_def_cfa 7, 48
 136              		.loc 1 618 0
 137 000c D8F80030 		ldr	r3, [r8]
 138 0010 FB60     		str	r3, [r7, #12]
 139              	.LVL7:
 140              		.loc 1 622 0
 141 0012 0446     		mov	r4, r0
 142 0014 0028     		cmp	r0, #0
 143 0016 00F01981 		beq	.L97
 144              	.LVL8:
 145              	.L17:
 146              		.loc 1 623 0 discriminator 1
 147 001a 2379     		ldrb	r3, [r4, #4]	@ zero_extendqisi2
 148 001c 022B     		cmp	r3, #2
 149 001e 01D0     		beq	.L18
 150              		.loc 1 623 0 is_stmt 0 discriminator 2
 151 0020 052B     		cmp	r3, #5
 152 0022 2BD1     		bne	.L98
 153              	.L18:
 154              		.loc 1 627 0 is_stmt 1
 155 0024 0323     		movs	r3, #3
 156 0026 2371     		strb	r3, [r4, #4]
 157              		.loc 1 630 0
 158 0028 2046     		mov	r0, r4
 159 002a FFF7FEFF 		bl	sdc_lld_start_clk
 160              	.LVL9:
 161              		.loc 1 633 0
 162 002e 0022     		movs	r2, #0
 163 0030 1146     		mov	r1, r2
 164 0032 2046     		mov	r0, r4
 165 0034 FFF7FEFF 		bl	sdc_lld_send_cmd_none
 166              	.LVL10:
 167              	.LBB112:
 168              	.LBB113:
 169              		.loc 1 103 0
 170 0038 07F10803 		add	r3, r7, #8
 171 003c 4FF4D572 		mov	r2, #426
ARM GAS  /tmp/ccABp0rU.s 			page 4


 172 0040 0821     		movs	r1, #8
 173 0042 2046     		mov	r0, r4
 174 0044 FFF7FEFF 		bl	sdc_lld_send_cmd_short_crc
 175              	.LVL11:
 176 0048 E0B9     		cbnz	r0, .L19
 177              		.loc 1 107 0
 178 004a BB68     		ldr	r3, [r7, #8]
 179              		.loc 1 105 0
 180 004c 0122     		movs	r2, #1
 181              		.loc 1 107 0
 182 004e C3F30323 		ubfx	r3, r3, #8, #4
 183 0052 9342     		cmp	r3, r2
 184              		.loc 1 105 0
 185 0054 2263     		str	r2, [r4, #48]
 186              		.loc 1 107 0
 187 0056 00F0FD80 		beq	.L99
 188              	.LVL12:
 189              	.L21:
 190              	.LBE113:
 191              	.LBE112:
 192              		.loc 1 741 0
 193 005a 2046     		mov	r0, r4
 194 005c FFF7FEFF 		bl	sdc_lld_stop_clk
 195              	.LVL13:
 196              		.loc 1 742 0
 197 0060 0223     		movs	r3, #2
 198 0062 2371     		strb	r3, [r4, #4]
 199              		.loc 1 743 0
 200 0064 0125     		movs	r5, #1
 201              	.L63:
 202              		.loc 1 744 0
 203 0066 FA68     		ldr	r2, [r7, #12]
 204 0068 D8F80030 		ldr	r3, [r8]
 205 006c 9A42     		cmp	r2, r3
 206 006e 2846     		mov	r0, r5
 207 0070 40F04681 		bne	.L100
 208 0074 1037     		adds	r7, r7, #16
 209              		.cfi_remember_state
 210              		.cfi_def_cfa_offset 32
 211 0076 BD46     		mov	sp, r7
 212              		.cfi_def_cfa_register 13
 213              		@ sp needed
 214 0078 BDE8F087 		pop	{r4, r5, r6, r7, r8, r9, r10, pc}
 215              	.LVL14:
 216              	.L98:
 217              		.cfi_restore_state
 218              		.loc 1 623 0 discriminator 3
 219 007c C048     		ldr	r0, .L107
 220 007e FFF7FEFF 		bl	chSysHalt
 221              	.LVL15:
 222 0082 CFE7     		b	.L18
 223              	.LVL16:
 224              	.L19:
 225              	.LBB117:
 226              	.LBB114:
 227              		.loc 1 117 0
 228 0084 07F10803 		add	r3, r7, #8
ARM GAS  /tmp/ccABp0rU.s 			page 5


 229 0088 0022     		movs	r2, #0
 230 008a 3721     		movs	r1, #55
 231 008c 2046     		mov	r0, r4
 232 008e FFF7FEFF 		bl	sdc_lld_send_cmd_short_crc
 233              	.LVL17:
 234 0092 0028     		cmp	r0, #0
 235 0094 40F0BE80 		bne	.L24
 236              		.loc 1 118 0
 237 0098 BB68     		ldr	r3, [r7, #8]
 238 009a BA4A     		ldr	r2, .L107+4
 239 009c 1A40     		ands	r2, r2, r3
 240              		.loc 1 117 0
 241 009e 002A     		cmp	r2, #0
 242 00a0 40F0B880 		bne	.L24
 243              		.loc 1 122 0
 244 00a4 2263     		str	r2, [r4, #48]
 245              		.loc 1 125 0
 246 00a6 1146     		mov	r1, r2
 247 00a8 2046     		mov	r0, r4
 248 00aa FFF7FEFF 		bl	sdc_lld_send_cmd_none
 249              	.LVL18:
 250              	.L27:
 251              	.LBE114:
 252              	.LBE117:
 253              		.loc 1 641 0
 254 00ae 266B     		ldr	r6, [r4, #48]
 255 00b0 06F00F03 		and	r3, r6, #15
 256 00b4 022B     		cmp	r3, #2
 257 00b6 00F0AF80 		beq	.L26
 258              	.LVL19:
 259              	.LBB118:
 260              	.LBB119:
 261              		.loc 1 189 0
 262 00ba B34E     		ldr	r6, .L107+8
 263 00bc B34A     		ldr	r2, .L107+12
 264              		.loc 1 195 0
 265 00be DFF8C492 		ldr	r9, .L107+4
 266              		.loc 1 189 0
 267 00c2 012B     		cmp	r3, #1
 268 00c4 18BF     		it	ne
 269 00c6 1646     		movne	r6, r2
 270              	.LVL20:
 271 00c8 6425     		movs	r5, #100
 272 00ca 04E0     		b	.L38
 273              	.LVL21:
 274              	.L36:
 275              		.loc 1 207 0
 276 00cc 013D     		subs	r5, r5, #1
 277              	.LVL22:
 278 00ce C4D0     		beq	.L21
 279              	.LVL23:
 280              	.LBB120:
 281              	.LBB121:
 282              		.file 2 "../e-puck2_main-processor/ChibiOS//os/hal/osal/rt/osal.h"
 283              		.loc 2 627 0
 284 00d0 0A20     		movs	r0, #10
 285 00d2 FFF7FEFF 		bl	chThdSleep
ARM GAS  /tmp/ccABp0rU.s 			page 6


 286              	.LVL24:
 287              	.L38:
 288              	.LBE121:
 289              	.LBE120:
 290              		.loc 1 194 0
 291 00d6 07F10803 		add	r3, r7, #8
 292 00da 0022     		movs	r2, #0
 293 00dc 3721     		movs	r1, #55
 294 00de 2046     		mov	r0, r4
 295 00e0 FFF7FEFF 		bl	sdc_lld_send_cmd_short_crc
 296              	.LVL25:
 297 00e4 0028     		cmp	r0, #0
 298 00e6 B8D1     		bne	.L21
 299              		.loc 1 195 0
 300 00e8 BB68     		ldr	r3, [r7, #8]
 301              		.loc 1 194 0
 302 00ea 13EA090F 		tst	r3, r9
 303 00ee B4D1     		bne	.L21
 304              		.loc 1 198 0
 305 00f0 07F10803 		add	r3, r7, #8
 306 00f4 3246     		mov	r2, r6
 307 00f6 2921     		movs	r1, #41
 308 00f8 2046     		mov	r0, r4
 309 00fa FFF7FEFF 		bl	sdc_lld_send_cmd_short
 310              	.LVL26:
 311 00fe 0028     		cmp	r0, #0
 312 0100 ABD1     		bne	.L21
 313              		.loc 1 201 0
 314 0102 BB68     		ldr	r3, [r7, #8]
 315 0104 002B     		cmp	r3, #0
 316 0106 E1DA     		bge	.L36
 317              		.loc 1 202 0
 318 0108 5B00     		lsls	r3, r3, #1
 319 010a 03D5     		bpl	.L32
 320              	.LVL27:
 321              	.L104:
 322              		.loc 1 203 0
 323 010c 236B     		ldr	r3, [r4, #48]
 324 010e 43F01003 		orr	r3, r3, #16
 325 0112 2363     		str	r3, [r4, #48]
 326              	.L32:
 327              	.LBE119:
 328              	.LBE118:
 329              		.loc 1 653 0
 330 0114 04F10803 		add	r3, r4, #8
 331 0118 0022     		movs	r2, #0
 332 011a 0221     		movs	r1, #2
 333 011c 2046     		mov	r0, r4
 334 011e FFF7FEFF 		bl	sdc_lld_send_cmd_long_crc
 335              	.LVL28:
 336 0122 0028     		cmp	r0, #0
 337 0124 99D1     		bne	.L21
 338              		.loc 1 658 0
 339 0126 0246     		mov	r2, r0
 340 0128 04F13803 		add	r3, r4, #56
 341 012c 0321     		movs	r1, #3
 342 012e 2046     		mov	r0, r4
ARM GAS  /tmp/ccABp0rU.s 			page 7


 343 0130 FFF7FEFF 		bl	sdc_lld_send_cmd_short_crc
 344              	.LVL29:
 345 0134 0028     		cmp	r0, #0
 346 0136 90D1     		bne	.L21
 347              		.loc 1 665 0
 348 0138 04F11805 		add	r5, r4, #24
 349              		.loc 1 664 0
 350 013c 2B46     		mov	r3, r5
 351 013e A26B     		ldr	r2, [r4, #56]
 352 0140 0921     		movs	r1, #9
 353 0142 2046     		mov	r0, r4
 354 0144 FFF7FEFF 		bl	sdc_lld_send_cmd_long_crc
 355              	.LVL30:
 356 0148 0028     		cmp	r0, #0
 357 014a 86D1     		bne	.L21
 358              		.loc 1 670 0
 359 014c 3B1D     		adds	r3, r7, #4
 360 014e A26B     		ldr	r2, [r4, #56]
 361 0150 0721     		movs	r1, #7
 362 0152 2046     		mov	r0, r4
 363 0154 FFF7FEFF 		bl	sdc_lld_send_cmd_short_crc
 364              	.LVL31:
 365 0158 8246     		mov	r10, r0
 366 015a 0028     		cmp	r0, #0
 367 015c 7FF47DAF 		bne	.L21
 368              	.LVL32:
 369              	.LBB123:
 370              	.LBB124:
 371              		.loc 1 408 0
 372 0160 236B     		ldr	r3, [r4, #48]
 373 0162 03F00F03 		and	r3, r3, #15
 374 0166 022B     		cmp	r3, #2
 375 0168 00F09780 		beq	.L101
 376              	.LVL33:
 377              	.LBB125:
 378              	.LBB126:
 379              		.loc 1 318 0
 380 016c 6E46     		mov	r6, sp
 381              	.LVL34:
 382              		.loc 1 328 0
 383 016e 7E22     		movs	r2, #126
 384              		.loc 1 321 0
 385 0170 90B0     		sub	sp, sp, #64
 386              		.loc 1 328 0
 387 0172 7F21     		movs	r1, #127
 388 0174 2846     		mov	r0, r5
 389 0176 FFF7FEFF 		bl	_mmcsd_get_slice
 390              	.LVL35:
 391              		.loc 1 321 0
 392 017a 0DF10809 		add	r9, sp, #8
 393              	.LVL36:
 394              		.loc 1 328 0
 395 017e 0028     		cmp	r0, #0
 396 0180 79D1     		bne	.L102
 397              		.loc 1 329 0
 398 0182 0146     		mov	r1, r0
 399 0184 B546     		mov	sp, r6
ARM GAS  /tmp/ccABp0rU.s 			page 8


 400              	.LVL37:
 401              	.L44:
 402              	.LBE126:
 403              	.LBE125:
 404              	.LBE124:
 405              	.LBE123:
 406              		.loc 1 679 0
 407 0186 2046     		mov	r0, r4
 408 0188 FFF7FEFF 		bl	sdc_lld_set_data_clk
 409              	.LVL38:
 410              		.loc 1 682 0
 411 018c 236B     		ldr	r3, [r4, #48]
 412 018e 03F00F03 		and	r3, r3, #15
 413 0192 022B     		cmp	r3, #2
 414 0194 00F09680 		beq	.L103
 415              	.L50:
 416              		.loc 1 707 0
 417 0198 2846     		mov	r0, r5
 418 019a FFF7FEFF 		bl	_mmcsd_get_capacity
 419              	.LVL39:
 420 019e A062     		str	r0, [r4, #40]
 421              	.L52:
 422              		.loc 1 711 0
 423 01a0 3B1D     		adds	r3, r7, #4
 424 01a2 4FF40072 		mov	r2, #512
 425 01a6 1021     		movs	r1, #16
 426 01a8 2046     		mov	r0, r4
 427 01aa FFF7FEFF 		bl	sdc_lld_send_cmd_short_crc
 428              	.LVL40:
 429 01ae 0546     		mov	r5, r0
 430 01b0 0028     		cmp	r0, #0
 431 01b2 7FF452AF 		bne	.L21
 432              		.loc 1 713 0
 433 01b6 7B68     		ldr	r3, [r7, #4]
 434 01b8 724E     		ldr	r6, .L107+4
 435              		.loc 1 712 0
 436 01ba 3342     		tst	r3, r6
 437 01bc 7FF44DAF 		bne	.L21
 438              		.loc 1 718 0
 439 01c0 236B     		ldr	r3, [r4, #48]
 440 01c2 03F00F03 		and	r3, r3, #15
 441 01c6 012B     		cmp	r3, #1
 442 01c8 40F2B280 		bls	.L53
 443 01cc 022B     		cmp	r3, #2
 444 01ce 7FF444AF 		bne	.L21
 445              	.LVL41:
 446              	.LBB141:
 447              	.LBB142:
 448              		.loc 1 467 0
 449 01d2 E36A     		ldr	r3, [r4, #44]
 450 01d4 1A79     		ldrb	r2, [r3, #4]	@ zero_extendqisi2
 451 01d6 012A     		cmp	r2, #1
 452 01d8 00F0A880 		beq	.L66
 453 01dc 17D3     		bcc	.L57
 454 01de 022A     		cmp	r2, #2
 455 01e0 40F0E280 		bne	.L91
 456              		.loc 1 475 0
ARM GAS  /tmp/ccABp0rU.s 			page 9


 457 01e4 6A4E     		ldr	r6, .L107+16
 458              	.L59:
 459              	.LVL42:
 460              		.loc 1 482 0
 461 01e6 1979     		ldrb	r1, [r3, #4]	@ zero_extendqisi2
 462 01e8 2046     		mov	r0, r4
 463 01ea FFF7FEFF 		bl	sdc_lld_set_bus_mode
 464              	.LVL43:
 465              		.loc 1 483 0
 466 01ee 07F10803 		add	r3, r7, #8
 467 01f2 3246     		mov	r2, r6
 468 01f4 0621     		movs	r1, #6
 469 01f6 2046     		mov	r0, r4
 470 01f8 FFF7FEFF 		bl	sdc_lld_send_cmd_short_crc
 471              	.LVL44:
 472 01fc 0028     		cmp	r0, #0
 473 01fe 7FF42CAF 		bne	.L21
 474              		.loc 1 484 0
 475 0202 BA68     		ldr	r2, [r7, #8]
 476 0204 5F4B     		ldr	r3, .L107+4
 477 0206 1340     		ands	r3, r3, r2
 478              		.loc 1 483 0
 479 0208 002B     		cmp	r3, #0
 480 020a 7FF426AF 		bne	.L21
 481              	.LVL45:
 482              	.L57:
 483              	.LBE142:
 484              	.LBE141:
 485              		.loc 1 736 0
 486 020e 0523     		movs	r3, #5
 487 0210 2371     		strb	r3, [r4, #4]
 488              		.loc 1 737 0
 489 0212 28E7     		b	.L63
 490              	.LVL46:
 491              	.L24:
 492              	.LBB145:
 493              	.LBB115:
 494              		.loc 1 119 0
 495 0214 0223     		movs	r3, #2
 496 0216 2363     		str	r3, [r4, #48]
 497              	.LVL47:
 498              	.L26:
 499              	.LBE115:
 500              	.LBE145:
 501              	.LBB146:
 502              	.LBB147:
 503              		.loc 1 151 0
 504 0218 5E4E     		ldr	r6, .L107+20
 505              	.LBE147:
 506              	.LBE146:
 507              		.loc 1 618 0
 508 021a 6425     		movs	r5, #100
 509 021c 05E0     		b	.L33
 510              	.LVL48:
 511              	.L30:
 512              	.LBB151:
 513              	.LBB150:
ARM GAS  /tmp/ccABp0rU.s 			page 10


 514              		.loc 1 160 0
 515 021e 013D     		subs	r5, r5, #1
 516              	.LVL49:
 517 0220 3FF41BAF 		beq	.L21
 518              	.LVL50:
 519              	.LBB148:
 520              	.LBB149:
 521              		.loc 2 627 0
 522 0224 0A20     		movs	r0, #10
 523 0226 FFF7FEFF 		bl	chThdSleep
 524              	.LVL51:
 525              	.L33:
 526              	.LBE149:
 527              	.LBE148:
 528              		.loc 1 151 0
 529 022a 07F10803 		add	r3, r7, #8
 530 022e 3246     		mov	r2, r6
 531 0230 0121     		movs	r1, #1
 532 0232 2046     		mov	r0, r4
 533 0234 FFF7FEFF 		bl	sdc_lld_send_cmd_short
 534              	.LVL52:
 535 0238 0028     		cmp	r0, #0
 536 023a 7FF40EAF 		bne	.L21
 537              		.loc 1 154 0
 538 023e BB68     		ldr	r3, [r7, #8]
 539 0240 002B     		cmp	r3, #0
 540 0242 ECDA     		bge	.L30
 541              	.LBE150:
 542              	.LBE151:
 543              	.LBB152:
 544              	.LBB122:
 545              		.loc 1 202 0
 546 0244 5B00     		lsls	r3, r3, #1
 547 0246 7FF565AF 		bpl	.L32
 548 024a 5FE7     		b	.L104
 549              	.LVL53:
 550              	.L97:
 551              	.LBE122:
 552              	.LBE152:
 553              		.loc 1 622 0 discriminator 2
 554 024c 4C48     		ldr	r0, .L107
 555              	.LVL54:
 556 024e FFF7FEFF 		bl	chSysHalt
 557              	.LVL55:
 558 0252 E2E6     		b	.L17
 559              	.LVL56:
 560              	.L99:
 561              	.LBB153:
 562              	.LBB116:
 563              		.loc 1 110 0
 564 0254 0246     		mov	r2, r0
 565 0256 07F10803 		add	r3, r7, #8
 566 025a 3721     		movs	r1, #55
 567 025c 2046     		mov	r0, r4
 568 025e FFF7FEFF 		bl	sdc_lld_send_cmd_short_crc
 569              	.LVL57:
 570 0262 0028     		cmp	r0, #0
ARM GAS  /tmp/ccABp0rU.s 			page 11


 571 0264 7FF4F9AE 		bne	.L21
 572              		.loc 1 111 0
 573 0268 BA68     		ldr	r2, [r7, #8]
 574 026a 464B     		ldr	r3, .L107+4
 575 026c 1340     		ands	r3, r3, r2
 576              		.loc 1 110 0
 577 026e 002B     		cmp	r3, #0
 578 0270 7FF4F3AE 		bne	.L21
 579 0274 1BE7     		b	.L27
 580              	.LVL58:
 581              	.L102:
 582              	.LBE116:
 583              	.LBE153:
 584              	.LBB154:
 585              	.LBB139:
 586              	.LBB134:
 587              	.LBB131:
 588              		.loc 1 334 0
 589 0276 CDF800A0 		str	r10, [sp]
 590 027a 0623     		movs	r3, #6
 591 027c 4022     		movs	r2, #64
 592 027e 4946     		mov	r1, r9
 593 0280 2046     		mov	r0, r4
 594 0282 FFF7FEFF 		bl	sdc_lld_read_special
 595              	.LVL59:
 596 0286 0028     		cmp	r0, #0
 597 0288 4ED1     		bne	.L46
 598              	.LBB127:
 599              	.LBB128:
 600              		.loc 1 275 0
 601 028a 99F80D30 		ldrb	r3, [r9, #13]	@ zero_extendqisi2
 602              	.LBE128:
 603              	.LBE127:
 604              		.loc 1 339 0
 605 028e 13F00203 		ands	r3, r3, #2
 606 0292 37D1     		bne	.L105
 607              		.loc 1 324 0
 608 0294 1946     		mov	r1, r3
 609 0296 B546     		mov	sp, r6
 610              	.LVL60:
 611 0298 75E7     		b	.L44
 612              	.LVL61:
 613              	.L101:
 614              	.LBE131:
 615              	.LBE134:
 616              	.LBB135:
 617              	.LBB136:
 618              		.loc 1 375 0
 619 029a E36A     		ldr	r3, [r4, #44]
 620              		.loc 1 381 0
 621 029c 1B68     		ldr	r3, [r3]
 622 029e 7BB1     		cbz	r3, .L94
 623              		.loc 1 386 0
 624 02a0 07F10803 		add	r3, r7, #8
 625 02a4 3C4A     		ldr	r2, .L107+24
 626 02a6 0621     		movs	r1, #6
 627 02a8 2046     		mov	r0, r4
ARM GAS  /tmp/ccABp0rU.s 			page 12


 628 02aa FFF7FEFF 		bl	sdc_lld_send_cmd_short_crc
 629              	.LVL62:
 630 02ae 38B9     		cbnz	r0, .L94
 631              		.loc 1 387 0
 632 02b0 BB68     		ldr	r3, [r7, #8]
 633 02b2 3449     		ldr	r1, .L107+4
 634 02b4 1940     		ands	r1, r1, r3
 635              		.loc 1 378 0
 636 02b6 B1FA81F1 		clz	r1, r1
 637 02ba 4909     		lsrs	r1, r1, #5
 638              	.LVL63:
 639 02bc 63E7     		b	.L44
 640              	.LVL64:
 641              	.L106:
 642              	.LBE136:
 643              	.LBE135:
 644              	.LBB137:
 645              	.LBB132:
 646 02be B546     		mov	sp, r6
 647              	.LVL65:
 648              	.L94:
 649              		.loc 1 353 0
 650 02c0 0021     		movs	r1, #0
 651 02c2 60E7     		b	.L44
 652              	.LVL66:
 653              	.L103:
 654              	.LBE132:
 655              	.LBE137:
 656              	.LBE139:
 657              	.LBE154:
 658              		.loc 1 685 0
 659 02c4 7E22     		movs	r2, #126
 660 02c6 7F21     		movs	r1, #127
 661 02c8 2846     		mov	r0, r5
 662 02ca FFF7FEFF 		bl	_mmcsd_get_slice
 663              	.LVL67:
 664 02ce 0128     		cmp	r0, #1
 665 02d0 7FF662AF 		bls	.L50
 666              	.LBB155:
 667              		.loc 1 686 0
 668 02d4 E36A     		ldr	r3, [r4, #44]
 669 02d6 1D68     		ldr	r5, [r3]
 670              	.LVL68:
 671              		.loc 1 689 0
 672 02d8 002D     		cmp	r5, #0
 673 02da 3FF4BEAE 		beq	.L21
 674              		.loc 1 693 0
 675 02de 0023     		movs	r3, #0
 676 02e0 0093     		str	r3, [sp]
 677 02e2 4FF40072 		mov	r2, #512
 678 02e6 0823     		movs	r3, #8
 679 02e8 2946     		mov	r1, r5
 680 02ea 2046     		mov	r0, r4
 681 02ec FFF7FEFF 		bl	sdc_lld_read_special
 682              	.LVL69:
 683 02f0 0028     		cmp	r0, #0
 684 02f2 7FF4B2AE 		bne	.L21
ARM GAS  /tmp/ccABp0rU.s 			page 13


 685              		.loc 1 698 0
 686 02f6 2846     		mov	r0, r5
 687 02f8 FFF7FEFF 		bl	_mmcsd_get_capacity_ext
 688              	.LVL70:
 689 02fc A062     		str	r0, [r4, #40]
 690              	.LBE155:
 691 02fe 4FE7     		b	.L52
 692              	.LVL71:
 693              	.L100:
 694              		.loc 1 744 0
 695 0300 FFF7FEFF 		bl	__stack_chk_fail
 696              	.LVL72:
 697              	.L105:
 698              	.LBB156:
 699              	.LBB140:
 700              	.LBB138:
 701              	.LBB133:
 702              		.loc 1 344 0
 703 0304 254B     		ldr	r3, .L107+28
 704 0306 0093     		str	r3, [sp]
 705 0308 4022     		movs	r2, #64
 706 030a 0623     		movs	r3, #6
 707 030c 4946     		mov	r1, r9
 708 030e 2046     		mov	r0, r4
 709 0310 FFF7FEFF 		bl	sdc_lld_read_special
 710              	.LVL73:
 711 0314 40B9     		cbnz	r0, .L46
 712              	.LVL74:
 713              	.LBB129:
 714              	.LBB130:
 715              		.loc 1 298 0
 716 0316 99F81030 		ldrb	r3, [r9, #16]	@ zero_extendqisi2
 717              		.loc 1 299 0
 718 031a 03F00F03 		and	r3, r3, #15
 719              		.loc 1 300 0
 720 031e 0F2B     		cmp	r3, #15
 721 0320 CDD0     		beq	.L106
 722              	.LVL75:
 723              	.LBE130:
 724              	.LBE129:
 725 0322 B546     		mov	sp, r6
 726              	.LVL76:
 727              		.loc 1 350 0
 728 0324 0121     		movs	r1, #1
 729 0326 2EE7     		b	.L44
 730              	.LVL77:
 731              	.L46:
 732 0328 B546     		mov	sp, r6
 733              	.LVL78:
 734 032a 96E6     		b	.L21
 735              	.LVL79:
 736              	.L66:
 737              	.LBE133:
 738              	.LBE138:
 739              	.LBE140:
 740              	.LBE156:
 741              	.LBB157:
ARM GAS  /tmp/ccABp0rU.s 			page 14


 742              	.LBB143:
 743              		.loc 1 472 0
 744 032c 1C4E     		ldr	r6, .L107+32
 745 032e 5AE7     		b	.L59
 746              	.LVL80:
 747              	.L53:
 748              	.LBE143:
 749              	.LBE157:
 750              	.LBB158:
 751              	.LBB159:
 752              		.loc 1 428 0
 753 0330 E36A     		ldr	r3, [r4, #44]
 754 0332 1979     		ldrb	r1, [r3, #4]	@ zero_extendqisi2
 755 0334 0029     		cmp	r1, #0
 756 0336 3FF46AAF 		beq	.L57
 757              		.loc 1 432 0
 758 033a 0129     		cmp	r1, #1
 759 033c 7FF48DAE 		bne	.L21
 760              		.loc 1 433 0
 761 0340 2046     		mov	r0, r4
 762 0342 FFF7FEFF 		bl	sdc_lld_set_bus_mode
 763              	.LVL81:
 764              		.loc 1 434 0
 765 0346 07F10803 		add	r3, r7, #8
 766 034a A26B     		ldr	r2, [r4, #56]
 767 034c 3721     		movs	r1, #55
 768 034e 2046     		mov	r0, r4
 769 0350 FFF7FEFF 		bl	sdc_lld_send_cmd_short_crc
 770              	.LVL82:
 771 0354 0028     		cmp	r0, #0
 772 0356 7FF480AE 		bne	.L21
 773              		.loc 1 435 0
 774 035a BB68     		ldr	r3, [r7, #8]
 775              		.loc 1 434 0
 776 035c 3342     		tst	r3, r6
 777 035e 7FF47CAE 		bne	.L21
 778              		.loc 1 439 0
 779 0362 07F10803 		add	r3, r7, #8
 780 0366 0222     		movs	r2, #2
 781 0368 0621     		movs	r1, #6
 782 036a 2046     		mov	r0, r4
 783 036c FFF7FEFF 		bl	sdc_lld_send_cmd_short_crc
 784              	.LVL83:
 785 0370 0028     		cmp	r0, #0
 786 0372 7FF472AE 		bne	.L21
 787              		.loc 1 440 0
 788 0376 BB68     		ldr	r3, [r7, #8]
 789              		.loc 1 439 0
 790 0378 3342     		tst	r3, r6
 791 037a 3FF448AF 		beq	.L57
 792 037e 6CE6     		b	.L21
 793              	.L108:
 794              		.align	2
 795              	.L107:
 796 0380 00000000 		.word	.LANCHOR1
 797 0384 08E0FFFD 		.word	-33562616
 798 0388 000010C0 		.word	-1072693248
ARM GAS  /tmp/ccABp0rU.s 			page 15


 799 038c 00001080 		.word	-2146435072
 800 0390 0002B703 		.word	62325248
 801 0394 0080FFC0 		.word	-1056997376
 802 0398 0001B903 		.word	62456064
 803 039c F1FFFF80 		.word	-2130706447
 804 03a0 0001B703 		.word	62324992
 805 03a4 00000000 		.word	__stack_chk_guard
 806              	.LVL84:
 807              	.L91:
 808              	.LBE159:
 809              	.LBE158:
 810              	.LBB160:
 811              	.LBB144:
 812              		.loc 1 478 0
 813 03a8 0248     		ldr	r0, .L109
 814              		.loc 1 465 0
 815 03aa 034E     		ldr	r6, .L109+4
 816              		.loc 1 478 0
 817 03ac FFF7FEFF 		bl	chSysHalt
 818              	.LVL85:
 819 03b0 E36A     		ldr	r3, [r4, #44]
 820 03b2 18E7     		b	.L59
 821              	.L110:
 822              		.align	2
 823              	.L109:
 824 03b4 00000000 		.word	.LANCHOR2
 825 03b8 0000B703 		.word	62324736
 826              	.LBE144:
 827              	.LBE160:
 828              		.cfi_endproc
 829              	.LFE273:
 830              		.size	sdcConnect, .-sdcConnect
 831              		.section	.text.sdcRead,"ax",%progbits
 832              		.align	1
 833              		.p2align 4,,15
 834              		.global	sdcRead
 835              		.syntax unified
 836              		.thumb
 837              		.thumb_func
 838              		.fpu fpv4-sp-d16
 839              		.type	sdcRead, %function
 840              	sdcRead:
 841              	.LFB275:
 842              		.loc 1 800 0
 843              		.cfi_startproc
 844              		@ args = 0, pretend = 0, frame = 8
 845              		@ frame_needed = 0, uses_anonymous_args = 0
 846              	.LVL86:
 847 0000 2DE9F041 		push	{r4, r5, r6, r7, r8, lr}
 848              		.cfi_def_cfa_offset 24
 849              		.cfi_offset 4, -24
 850              		.cfi_offset 5, -20
 851              		.cfi_offset 6, -16
 852              		.cfi_offset 7, -12
 853              		.cfi_offset 8, -8
 854              		.cfi_offset 14, -4
 855 0004 194D     		ldr	r5, .L129
ARM GAS  /tmp/ccABp0rU.s 			page 16


 856 0006 82B0     		sub	sp, sp, #8
 857              		.cfi_def_cfa_offset 32
 858              		.loc 1 800 0
 859 0008 2C68     		ldr	r4, [r5]
 860 000a 0194     		str	r4, [sp, #4]
 861 000c 0F46     		mov	r7, r1
 862 000e 9046     		mov	r8, r2
 863 0010 1E46     		mov	r6, r3
 864              		.loc 1 803 0
 865 0012 0446     		mov	r4, r0
 866 0014 C0B1     		cbz	r0, .L112
 867              		.loc 1 803 0 is_stmt 0 discriminator 3
 868 0016 BAB1     		cbz	r2, .L112
 869              		.loc 1 803 0 discriminator 5
 870 0018 B3B1     		cbz	r3, .L112
 871              	.LVL87:
 872              	.L113:
 873              		.loc 1 804 0 is_stmt 1 discriminator 1
 874 001a 2379     		ldrb	r3, [r4, #4]	@ zero_extendqisi2
 875 001c 052B     		cmp	r3, #5
 876 001e 02D0     		beq	.L114
 877              		.loc 1 804 0 is_stmt 0 discriminator 2
 878 0020 1348     		ldr	r0, .L129+4
 879 0022 FFF7FEFF 		bl	chSysHalt
 880              	.LVL88:
 881              	.L114:
 882              		.loc 1 806 0 is_stmt 1
 883 0026 781E     		subs	r0, r7, #1
 884 0028 A36A     		ldr	r3, [r4, #40]
 885 002a 3044     		add	r0, r0, r6
 886 002c 9842     		cmp	r0, r3
 887 002e 0FD9     		bls	.L115
 888              		.loc 1 807 0
 889 0030 636B     		ldr	r3, [r4, #52]
 890 0032 43F08003 		orr	r3, r3, #128
 891 0036 6363     		str	r3, [r4, #52]
 892              		.loc 1 808 0
 893 0038 0120     		movs	r0, #1
 894              	.L116:
 895              		.loc 1 819 0
 896 003a 019A     		ldr	r2, [sp, #4]
 897 003c 2B68     		ldr	r3, [r5]
 898 003e 9A42     		cmp	r2, r3
 899 0040 11D1     		bne	.L128
 900 0042 02B0     		add	sp, sp, #8
 901              		.cfi_remember_state
 902              		.cfi_def_cfa_offset 24
 903              		@ sp needed
 904 0044 BDE8F081 		pop	{r4, r5, r6, r7, r8, pc}
 905              	.LVL89:
 906              	.L112:
 907              		.cfi_restore_state
 908              		.loc 1 803 0 discriminator 6
 909 0048 0948     		ldr	r0, .L129+4
 910              	.LVL90:
 911 004a FFF7FEFF 		bl	chSysHalt
 912              	.LVL91:
ARM GAS  /tmp/ccABp0rU.s 			page 17


 913 004e E4E7     		b	.L113
 914              	.L115:
 915              	.LVL92:
 916              	.LBB163:
 917              	.LBB164:
 918              		.loc 1 812 0
 919 0050 0620     		movs	r0, #6
 920              		.loc 1 814 0
 921 0052 3346     		mov	r3, r6
 922              		.loc 1 812 0
 923 0054 2071     		strb	r0, [r4, #4]
 924              		.loc 1 814 0
 925 0056 4246     		mov	r2, r8
 926 0058 3946     		mov	r1, r7
 927 005a 2046     		mov	r0, r4
 928 005c FFF7FEFF 		bl	sdc_lld_read
 929              	.LVL93:
 930              		.loc 1 817 0
 931 0060 0523     		movs	r3, #5
 932 0062 2371     		strb	r3, [r4, #4]
 933              	.LVL94:
 934 0064 E9E7     		b	.L116
 935              	.L128:
 936              	.LBE164:
 937              	.LBE163:
 938              		.loc 1 819 0
 939 0066 FFF7FEFF 		bl	__stack_chk_fail
 940              	.LVL95:
 941              	.L130:
 942 006a 00BF     		.align	2
 943              	.L129:
 944 006c 00000000 		.word	__stack_chk_guard
 945 0070 00000000 		.word	.LANCHOR3
 946              		.cfi_endproc
 947              	.LFE275:
 948              		.size	sdcRead, .-sdcRead
 949              		.section	.text.sdcWrite,"ax",%progbits
 950              		.align	1
 951              		.p2align 4,,15
 952              		.global	sdcWrite
 953              		.syntax unified
 954              		.thumb
 955              		.thumb_func
 956              		.fpu fpv4-sp-d16
 957              		.type	sdcWrite, %function
 958              	sdcWrite:
 959              	.LFB276:
 960              		.loc 1 838 0
 961              		.cfi_startproc
 962              		@ args = 0, pretend = 0, frame = 8
 963              		@ frame_needed = 0, uses_anonymous_args = 0
 964              	.LVL96:
 965 0000 2DE9F041 		push	{r4, r5, r6, r7, r8, lr}
 966              		.cfi_def_cfa_offset 24
 967              		.cfi_offset 4, -24
 968              		.cfi_offset 5, -20
 969              		.cfi_offset 6, -16
ARM GAS  /tmp/ccABp0rU.s 			page 18


 970              		.cfi_offset 7, -12
 971              		.cfi_offset 8, -8
 972              		.cfi_offset 14, -4
 973 0004 194D     		ldr	r5, .L149
 974 0006 82B0     		sub	sp, sp, #8
 975              		.cfi_def_cfa_offset 32
 976              		.loc 1 838 0
 977 0008 2C68     		ldr	r4, [r5]
 978 000a 0194     		str	r4, [sp, #4]
 979 000c 0F46     		mov	r7, r1
 980 000e 9046     		mov	r8, r2
 981 0010 1E46     		mov	r6, r3
 982              		.loc 1 841 0
 983 0012 0446     		mov	r4, r0
 984 0014 C0B1     		cbz	r0, .L132
 985              		.loc 1 841 0 is_stmt 0 discriminator 3
 986 0016 BAB1     		cbz	r2, .L132
 987              		.loc 1 841 0 discriminator 5
 988 0018 B3B1     		cbz	r3, .L132
 989              	.LVL97:
 990              	.L133:
 991              		.loc 1 842 0 is_stmt 1 discriminator 1
 992 001a 2379     		ldrb	r3, [r4, #4]	@ zero_extendqisi2
 993 001c 052B     		cmp	r3, #5
 994 001e 02D0     		beq	.L134
 995              		.loc 1 842 0 is_stmt 0 discriminator 2
 996 0020 1348     		ldr	r0, .L149+4
 997 0022 FFF7FEFF 		bl	chSysHalt
 998              	.LVL98:
 999              	.L134:
 1000              		.loc 1 844 0 is_stmt 1
 1001 0026 781E     		subs	r0, r7, #1
 1002 0028 A36A     		ldr	r3, [r4, #40]
 1003 002a 3044     		add	r0, r0, r6
 1004 002c 9842     		cmp	r0, r3
 1005 002e 0FD9     		bls	.L135
 1006              		.loc 1 845 0
 1007 0030 636B     		ldr	r3, [r4, #52]
 1008 0032 43F08003 		orr	r3, r3, #128
 1009 0036 6363     		str	r3, [r4, #52]
 1010              		.loc 1 846 0
 1011 0038 0120     		movs	r0, #1
 1012              	.L136:
 1013              		.loc 1 857 0
 1014 003a 019A     		ldr	r2, [sp, #4]
 1015 003c 2B68     		ldr	r3, [r5]
 1016 003e 9A42     		cmp	r2, r3
 1017 0040 11D1     		bne	.L148
 1018 0042 02B0     		add	sp, sp, #8
 1019              		.cfi_remember_state
 1020              		.cfi_def_cfa_offset 24
 1021              		@ sp needed
 1022 0044 BDE8F081 		pop	{r4, r5, r6, r7, r8, pc}
 1023              	.LVL99:
 1024              	.L132:
 1025              		.cfi_restore_state
 1026              		.loc 1 841 0 discriminator 6
ARM GAS  /tmp/ccABp0rU.s 			page 19


 1027 0048 0948     		ldr	r0, .L149+4
 1028              	.LVL100:
 1029 004a FFF7FEFF 		bl	chSysHalt
 1030              	.LVL101:
 1031 004e E4E7     		b	.L133
 1032              	.L135:
 1033              	.LVL102:
 1034              	.LBB167:
 1035              	.LBB168:
 1036              		.loc 1 850 0
 1037 0050 0720     		movs	r0, #7
 1038              		.loc 1 852 0
 1039 0052 3346     		mov	r3, r6
 1040              		.loc 1 850 0
 1041 0054 2071     		strb	r0, [r4, #4]
 1042              		.loc 1 852 0
 1043 0056 4246     		mov	r2, r8
 1044 0058 3946     		mov	r1, r7
 1045 005a 2046     		mov	r0, r4
 1046 005c FFF7FEFF 		bl	sdc_lld_write
 1047              	.LVL103:
 1048              		.loc 1 855 0
 1049 0060 0523     		movs	r3, #5
 1050 0062 2371     		strb	r3, [r4, #4]
 1051              	.LVL104:
 1052 0064 E9E7     		b	.L136
 1053              	.L148:
 1054              	.LBE168:
 1055              	.LBE167:
 1056              		.loc 1 857 0
 1057 0066 FFF7FEFF 		bl	__stack_chk_fail
 1058              	.LVL105:
 1059              	.L150:
 1060 006a 00BF     		.align	2
 1061              	.L149:
 1062 006c 00000000 		.word	__stack_chk_guard
 1063 0070 00000000 		.word	.LANCHOR4
 1064              		.cfi_endproc
 1065              	.LFE276:
 1066              		.size	sdcWrite, .-sdcWrite
 1067              		.section	.text.sdcSync,"ax",%progbits
 1068              		.align	1
 1069              		.p2align 4,,15
 1070              		.global	sdcSync
 1071              		.syntax unified
 1072              		.thumb
 1073              		.thumb_func
 1074              		.fpu fpv4-sp-d16
 1075              		.type	sdcSync, %function
 1076              	sdcSync:
 1077              	.LFB278:
 1078              		.loc 1 891 0
 1079              		.cfi_startproc
 1080              		@ args = 0, pretend = 0, frame = 8
 1081              		@ frame_needed = 0, uses_anonymous_args = 0
 1082              	.LVL106:
 1083 0000 70B5     		push	{r4, r5, r6, lr}
ARM GAS  /tmp/ccABp0rU.s 			page 20


 1084              		.cfi_def_cfa_offset 16
 1085              		.cfi_offset 4, -16
 1086              		.cfi_offset 5, -12
 1087              		.cfi_offset 6, -8
 1088              		.cfi_offset 14, -4
 1089 0002 0E4D     		ldr	r5, .L160
 1090 0004 82B0     		sub	sp, sp, #8
 1091              		.cfi_def_cfa_offset 24
 1092              		.loc 1 891 0
 1093 0006 2B68     		ldr	r3, [r5]
 1094 0008 0193     		str	r3, [sp, #4]
 1095              		.loc 1 894 0
 1096 000a 0446     		mov	r4, r0
 1097 000c 80B1     		cbz	r0, .L157
 1098              	.LVL107:
 1099              	.L152:
 1100              		.loc 1 896 0
 1101 000e 2679     		ldrb	r6, [r4, #4]	@ zero_extendqisi2
 1102 0010 052E     		cmp	r6, #5
 1103 0012 06D0     		beq	.L158
 1104              		.loc 1 897 0
 1105 0014 0120     		movs	r0, #1
 1106              	.L153:
 1107              		.loc 1 908 0
 1108 0016 019A     		ldr	r2, [sp, #4]
 1109 0018 2B68     		ldr	r3, [r5]
 1110 001a 9A42     		cmp	r2, r3
 1111 001c 0CD1     		bne	.L159
 1112 001e 02B0     		add	sp, sp, #8
 1113              		.cfi_remember_state
 1114              		.cfi_def_cfa_offset 16
 1115              		@ sp needed
 1116 0020 70BD     		pop	{r4, r5, r6, pc}
 1117              	.LVL108:
 1118              	.L158:
 1119              		.cfi_restore_state
 1120              	.LBB171:
 1121              	.LBB172:
 1122              		.loc 1 901 0
 1123 0022 0823     		movs	r3, #8
 1124 0024 2371     		strb	r3, [r4, #4]
 1125              		.loc 1 903 0
 1126 0026 2046     		mov	r0, r4
 1127 0028 FFF7FEFF 		bl	sdc_lld_sync
 1128              	.LVL109:
 1129              		.loc 1 906 0
 1130 002c 2671     		strb	r6, [r4, #4]
 1131              	.LVL110:
 1132 002e F2E7     		b	.L153
 1133              	.LVL111:
 1134              	.L157:
 1135              	.LBE172:
 1136              	.LBE171:
 1137              		.loc 1 894 0 discriminator 2
 1138 0030 0348     		ldr	r0, .L160+4
 1139              	.LVL112:
 1140 0032 FFF7FEFF 		bl	chSysHalt
ARM GAS  /tmp/ccABp0rU.s 			page 21


 1141              	.LVL113:
 1142 0036 EAE7     		b	.L152
 1143              	.L159:
 1144              		.loc 1 908 0
 1145 0038 FFF7FEFF 		bl	__stack_chk_fail
 1146              	.LVL114:
 1147              	.L161:
 1148              		.align	2
 1149              	.L160:
 1150 003c 00000000 		.word	__stack_chk_guard
 1151 0040 00000000 		.word	.LANCHOR5
 1152              		.cfi_endproc
 1153              	.LFE278:
 1154              		.size	sdcSync, .-sdcSync
 1155              		.section	.text._sdc_wait_for_transfer_state,"ax",%progbits
 1156              		.align	1
 1157              		.p2align 4,,15
 1158              		.global	_sdc_wait_for_transfer_state
 1159              		.syntax unified
 1160              		.thumb
 1161              		.thumb_func
 1162              		.fpu fpv4-sp-d16
 1163              		.type	_sdc_wait_for_transfer_state, %function
 1164              	_sdc_wait_for_transfer_state:
 1165              	.LFB268:
 1166              		.loc 1 502 0
 1167              		.cfi_startproc
 1168              		@ args = 0, pretend = 0, frame = 8
 1169              		@ frame_needed = 0, uses_anonymous_args = 0
 1170              	.LVL115:
 1171 0000 70B5     		push	{r4, r5, r6, lr}
 1172              		.cfi_def_cfa_offset 16
 1173              		.cfi_offset 4, -16
 1174              		.cfi_offset 5, -12
 1175              		.cfi_offset 6, -8
 1176              		.cfi_offset 14, -4
 1177 0002 124D     		ldr	r5, .L175
 1178              		.loc 1 508 0
 1179 0004 124E     		ldr	r6, .L175+4
 1180              		.loc 1 502 0
 1181 0006 2B68     		ldr	r3, [r5]
 1182 0008 82B0     		sub	sp, sp, #8
 1183              		.cfi_def_cfa_offset 24
 1184              		.loc 1 502 0
 1185 000a 0446     		mov	r4, r0
 1186 000c 0193     		str	r3, [sp, #4]
 1187              	.LVL116:
 1188              	.L166:
 1189              		.loc 1 506 0
 1190 000e 6B46     		mov	r3, sp
 1191 0010 A26B     		ldr	r2, [r4, #56]
 1192 0012 0D21     		movs	r1, #13
 1193 0014 2046     		mov	r0, r4
 1194 0016 FFF7FEFF 		bl	sdc_lld_send_cmd_short_crc
 1195              	.LVL117:
 1196 001a 78B9     		cbnz	r0, .L163
 1197              		.loc 1 508 0
ARM GAS  /tmp/ccABp0rU.s 			page 22


 1198 001c 009B     		ldr	r3, [sp]
 1199              		.loc 1 507 0
 1200 001e 3342     		tst	r3, r6
 1201 0020 0BD1     		bne	.L168
 1202              		.loc 1 512 0
 1203 0022 C3F34323 		ubfx	r3, r3, #9, #4
 1204 0026 042B     		cmp	r3, #4
 1205 0028 08D0     		beq	.L163
 1206              		.loc 1 525 0
 1207 002a 4FF00100 		mov	r0, #1
 1208              		.loc 1 512 0
 1209 002e 05D3     		bcc	.L163
 1210 0030 072B     		cmp	r3, #7
 1211 0032 03D8     		bhi	.L163
 1212              	.LVL118:
 1213              	.LBB173:
 1214              	.LBB174:
 1215              		.loc 2 627 0
 1216 0034 FFF7FEFF 		bl	chThdSleep
 1217              	.LVL119:
 1218              	.LBE174:
 1219              	.LBE173:
 1220              		.loc 1 506 0
 1221 0038 E9E7     		b	.L166
 1222              	.L168:
 1223              		.loc 1 509 0
 1224 003a 0120     		movs	r0, #1
 1225              	.L163:
 1226              		.loc 1 528 0
 1227 003c 019A     		ldr	r2, [sp, #4]
 1228 003e 2B68     		ldr	r3, [r5]
 1229 0040 9A42     		cmp	r2, r3
 1230 0042 01D1     		bne	.L174
 1231 0044 02B0     		add	sp, sp, #8
 1232              		.cfi_remember_state
 1233              		.cfi_def_cfa_offset 16
 1234              		@ sp needed
 1235 0046 70BD     		pop	{r4, r5, r6, pc}
 1236              	.LVL120:
 1237              	.L174:
 1238              		.cfi_restore_state
 1239 0048 FFF7FEFF 		bl	__stack_chk_fail
 1240              	.LVL121:
 1241              	.L176:
 1242              		.align	2
 1243              	.L175:
 1244 004c 00000000 		.word	__stack_chk_guard
 1245 0050 08E0FFFD 		.word	-33562616
 1246              		.cfi_endproc
 1247              	.LFE268:
 1248              		.size	_sdc_wait_for_transfer_state, .-_sdc_wait_for_transfer_state
 1249              		.section	.text.sdcDisconnect,"ax",%progbits
 1250              		.align	1
 1251              		.p2align 4,,15
 1252              		.global	sdcDisconnect
 1253              		.syntax unified
 1254              		.thumb
ARM GAS  /tmp/ccABp0rU.s 			page 23


 1255              		.thumb_func
 1256              		.fpu fpv4-sp-d16
 1257              		.type	sdcDisconnect, %function
 1258              	sdcDisconnect:
 1259              	.LFB274:
 1260              		.loc 1 757 0
 1261              		.cfi_startproc
 1262              		@ args = 0, pretend = 0, frame = 8
 1263              		@ frame_needed = 0, uses_anonymous_args = 0
 1264              	.LVL122:
 1265 0000 70B5     		push	{r4, r5, r6, lr}
 1266              		.cfi_def_cfa_offset 16
 1267              		.cfi_offset 4, -16
 1268              		.cfi_offset 5, -12
 1269              		.cfi_offset 6, -8
 1270              		.cfi_offset 14, -4
 1271 0002 2D4E     		ldr	r6, .L200
 1272 0004 82B0     		sub	sp, sp, #8
 1273              		.cfi_def_cfa_offset 24
 1274              		.loc 1 757 0
 1275 0006 3368     		ldr	r3, [r6]
 1276 0008 0193     		str	r3, [sp, #4]
 1277              		.loc 1 759 0
 1278 000a 0446     		mov	r4, r0
 1279 000c 0028     		cmp	r0, #0
 1280 000e 4CD0     		beq	.L195
 1281              	.LVL123:
 1282              	.L178:
 1283              	.LBB205:
 1284              	.LBB206:
 1285              	.LBB207:
 1286              	.LBB208:
 1287              	.LBB209:
 1288              	.LBB210:
 1289              		.file 3 "../e-puck2_main-processor/ChibiOS//os/ext/CMSIS/include/core_cmFunc.h"
 1290              		.loc 3 546 0
 1291 0010 2023     		movs	r3, #32
 1292              		.syntax unified
 1293              	@ 546 "../e-puck2_main-processor/ChibiOS//os/ext/CMSIS/include/core_cmFunc.h" 1
 1294 0012 83F31188 		MSR basepri, r3
 1295              	@ 0 "" 2
 1296              	.LVL124:
 1297              		.thumb
 1298              		.syntax unified
 1299              	.LBE210:
 1300              	.LBE209:
 1301              	.LBE208:
 1302              		.file 4 "../e-puck2_main-processor/ChibiOS//os/rt/include/chsys.h"
 1303              		.loc 4 349 0
 1304 0016 FFF7FEFF 		bl	_stats_start_measure_crit_thd
 1305              	.LVL125:
 1306              		.loc 4 350 0
 1307 001a FFF7FEFF 		bl	_dbg_check_lock
 1308              	.LVL126:
 1309              	.LBE207:
 1310              	.LBE206:
 1311              	.LBE205:
ARM GAS  /tmp/ccABp0rU.s 			page 24


 1312              		.loc 1 762 0
 1313 001e 2379     		ldrb	r3, [r4, #4]	@ zero_extendqisi2
 1314 0020 022B     		cmp	r3, #2
 1315 0022 29D0     		beq	.L183
 1316              		.loc 1 762 0 is_stmt 0 discriminator 2
 1317 0024 052B     		cmp	r3, #5
 1318 0026 21D1     		bne	.L196
 1319              	.L182:
 1320              	.LVL127:
 1321              	.LBB211:
 1322              	.LBB212:
 1323              		.loc 1 768 0 is_stmt 1
 1324 0028 0423     		movs	r3, #4
 1325 002a 2371     		strb	r3, [r4, #4]
 1326              	.LBB213:
 1327              	.LBB214:
 1328              	.LBB215:
 1329              		.loc 4 360 0
 1330 002c FFF7FEFF 		bl	_dbg_check_unlock
 1331              	.LVL128:
 1332              		.loc 4 361 0
 1333 0030 FFF7FEFF 		bl	_stats_stop_measure_crit_thd
 1334              	.LVL129:
 1335              		.loc 4 367 0
 1336 0034 214B     		ldr	r3, .L200+4
 1337 0036 1A68     		ldr	r2, [r3]
 1338 0038 9A42     		cmp	r2, r3
 1339 003a 04D0     		beq	.L185
 1340 003c 9969     		ldr	r1, [r3, #24]
 1341 003e 9368     		ldr	r3, [r2, #8]
 1342 0040 8A68     		ldr	r2, [r1, #8]
 1343 0042 9A42     		cmp	r2, r3
 1344 0044 29D3     		bcc	.L197
 1345              	.L185:
 1346              	.LVL130:
 1347              	.LBB216:
 1348              	.LBB217:
 1349              	.LBB218:
 1350              		.loc 3 546 0
 1351 0046 0023     		movs	r3, #0
 1352              		.syntax unified
 1353              	@ 546 "../e-puck2_main-processor/ChibiOS//os/ext/CMSIS/include/core_cmFunc.h" 1
 1354 0048 83F31188 		MSR basepri, r3
 1355              	@ 0 "" 2
 1356              	.LVL131:
 1357              		.thumb
 1358              		.syntax unified
 1359              	.LBE218:
 1360              	.LBE217:
 1361              	.LBE216:
 1362              	.LBE215:
 1363              	.LBE214:
 1364              	.LBE213:
 1365              		.loc 1 772 0
 1366 004c 2046     		mov	r0, r4
 1367 004e FFF7FEFF 		bl	_sdc_wait_for_transfer_state
 1368              	.LVL132:
ARM GAS  /tmp/ccABp0rU.s 			page 25


 1369 0052 0546     		mov	r5, r0
 1370              		.loc 1 773 0
 1371 0054 2046     		mov	r0, r4
 1372              		.loc 1 779 0
 1373 0056 FFF7FEFF 		bl	sdc_lld_stop_clk
 1374              	.LVL133:
 1375              		.loc 1 780 0
 1376 005a 0223     		movs	r3, #2
 1377 005c 2371     		strb	r3, [r4, #4]
 1378              	.LVL134:
 1379              	.L184:
 1380              	.LBE212:
 1381              	.LBE211:
 1382              		.loc 1 782 0
 1383 005e 019A     		ldr	r2, [sp, #4]
 1384 0060 3368     		ldr	r3, [r6]
 1385 0062 9A42     		cmp	r2, r3
 1386 0064 2846     		mov	r0, r5
 1387 0066 24D1     		bne	.L198
 1388 0068 02B0     		add	sp, sp, #8
 1389              		.cfi_remember_state
 1390              		.cfi_def_cfa_offset 16
 1391              		@ sp needed
 1392 006a 70BD     		pop	{r4, r5, r6, pc}
 1393              	.LVL135:
 1394              	.L196:
 1395              		.cfi_restore_state
 1396              		.loc 1 762 0 discriminator 3
 1397 006c 1448     		ldr	r0, .L200+8
 1398 006e FFF7FEFF 		bl	chSysHalt
 1399              	.LVL136:
 1400              		.loc 1 764 0 discriminator 3
 1401 0072 2379     		ldrb	r3, [r4, #4]	@ zero_extendqisi2
 1402 0074 022B     		cmp	r3, #2
 1403 0076 D7D1     		bne	.L182
 1404              	.L183:
 1405              	.LBB223:
 1406              	.LBB224:
 1407              	.LBB225:
 1408              		.loc 4 360 0
 1409 0078 FFF7FEFF 		bl	_dbg_check_unlock
 1410              	.LVL137:
 1411              		.loc 4 361 0
 1412 007c FFF7FEFF 		bl	_stats_stop_measure_crit_thd
 1413              	.LVL138:
 1414              		.loc 4 367 0
 1415 0080 0E4B     		ldr	r3, .L200+4
 1416 0082 1A68     		ldr	r2, [r3]
 1417 0084 9A42     		cmp	r2, r3
 1418 0086 04D0     		beq	.L181
 1419 0088 9969     		ldr	r1, [r3, #24]
 1420 008a 9368     		ldr	r3, [r2, #8]
 1421 008c 8A68     		ldr	r2, [r1, #8]
 1422 008e 9A42     		cmp	r2, r3
 1423 0090 07D3     		bcc	.L199
 1424              	.L181:
 1425              	.LVL139:
ARM GAS  /tmp/ccABp0rU.s 			page 26


 1426              	.LBB226:
 1427              	.LBB227:
 1428              	.LBB228:
 1429              		.loc 3 546 0
 1430 0092 0025     		movs	r5, #0
 1431              		.syntax unified
 1432              	@ 546 "../e-puck2_main-processor/ChibiOS//os/ext/CMSIS/include/core_cmFunc.h" 1
 1433 0094 85F31188 		MSR basepri, r5
 1434              	@ 0 "" 2
 1435              	.LVL140:
 1436              		.thumb
 1437              		.syntax unified
 1438 0098 E1E7     		b	.L184
 1439              	.LVL141:
 1440              	.L197:
 1441              	.LBE228:
 1442              	.LBE227:
 1443              	.LBE226:
 1444              	.LBE225:
 1445              	.LBE224:
 1446              	.LBE223:
 1447              	.LBB231:
 1448              	.LBB222:
 1449              	.LBB221:
 1450              	.LBB220:
 1451              	.LBB219:
 1452              		.loc 4 367 0
 1453 009a 0A48     		ldr	r0, .L200+12
 1454 009c FFF7FEFF 		bl	chSysHalt
 1455              	.LVL142:
 1456 00a0 D1E7     		b	.L185
 1457              	.LVL143:
 1458              	.L199:
 1459              	.LBE219:
 1460              	.LBE220:
 1461              	.LBE221:
 1462              	.LBE222:
 1463              	.LBE231:
 1464              	.LBB232:
 1465              	.LBB230:
 1466              	.LBB229:
 1467 00a2 0848     		ldr	r0, .L200+12
 1468 00a4 FFF7FEFF 		bl	chSysHalt
 1469              	.LVL144:
 1470 00a8 F3E7     		b	.L181
 1471              	.LVL145:
 1472              	.L195:
 1473              	.LBE229:
 1474              	.LBE230:
 1475              	.LBE232:
 1476              		.loc 1 759 0 discriminator 2
 1477 00aa 0548     		ldr	r0, .L200+8
 1478              	.LVL146:
 1479 00ac FFF7FEFF 		bl	chSysHalt
 1480              	.LVL147:
 1481 00b0 AEE7     		b	.L178
 1482              	.L198:
ARM GAS  /tmp/ccABp0rU.s 			page 27


 1483              		.loc 1 782 0
 1484 00b2 FFF7FEFF 		bl	__stack_chk_fail
 1485              	.LVL148:
 1486              	.L201:
 1487 00b6 00BF     		.align	2
 1488              	.L200:
 1489 00b8 00000000 		.word	__stack_chk_guard
 1490 00bc 00000000 		.word	ch
 1491 00c0 00000000 		.word	.LANCHOR6
 1492 00c4 00000000 		.word	.LANCHOR7
 1493              		.cfi_endproc
 1494              	.LFE274:
 1495              		.size	sdcDisconnect, .-sdcDisconnect
 1496              		.section	.text.sdcInit,"ax",%progbits
 1497              		.align	1
 1498              		.p2align 4,,15
 1499              		.global	sdcInit
 1500              		.syntax unified
 1501              		.thumb
 1502              		.thumb_func
 1503              		.fpu fpv4-sp-d16
 1504              		.type	sdcInit, %function
 1505              	sdcInit:
 1506              	.LFB269:
 1507              		.loc 1 541 0
 1508              		.cfi_startproc
 1509              		@ args = 0, pretend = 0, frame = 8
 1510              		@ frame_needed = 0, uses_anonymous_args = 0
 1511 0000 00B5     		push	{lr}
 1512              		.cfi_def_cfa_offset 4
 1513              		.cfi_offset 14, -4
 1514 0002 074B     		ldr	r3, .L207
 1515 0004 83B0     		sub	sp, sp, #12
 1516              		.cfi_def_cfa_offset 16
 1517              		.loc 1 541 0
 1518 0006 1A68     		ldr	r2, [r3]
 1519 0008 0192     		str	r2, [sp, #4]
 1520              		.loc 1 543 0
 1521 000a 019A     		ldr	r2, [sp, #4]
 1522 000c 1B68     		ldr	r3, [r3]
 1523 000e 9A42     		cmp	r2, r3
 1524 0010 04D1     		bne	.L206
 1525              		.loc 1 544 0
 1526 0012 03B0     		add	sp, sp, #12
 1527              		.cfi_remember_state
 1528              		.cfi_def_cfa_offset 4
 1529              		@ sp needed
 1530 0014 5DF804EB 		ldr	lr, [sp], #4
 1531              		.cfi_restore 14
 1532              		.cfi_def_cfa_offset 0
 1533              		.loc 1 543 0
 1534 0018 FFF7FEBF 		b	sdc_lld_init
 1535              	.LVL149:
 1536              	.L206:
 1537              		.cfi_restore_state
 1538 001c FFF7FEFF 		bl	__stack_chk_fail
 1539              	.LVL150:
ARM GAS  /tmp/ccABp0rU.s 			page 28


 1540              	.L208:
 1541              		.align	2
 1542              	.L207:
 1543 0020 00000000 		.word	__stack_chk_guard
 1544              		.cfi_endproc
 1545              	.LFE269:
 1546              		.size	sdcInit, .-sdcInit
 1547              		.section	.text.sdcObjectInit,"ax",%progbits
 1548              		.align	1
 1549              		.p2align 4,,15
 1550              		.global	sdcObjectInit
 1551              		.syntax unified
 1552              		.thumb
 1553              		.thumb_func
 1554              		.fpu fpv4-sp-d16
 1555              		.type	sdcObjectInit, %function
 1556              	sdcObjectInit:
 1557              	.LFB270:
 1558              		.loc 1 553 0
 1559              		.cfi_startproc
 1560              		@ args = 0, pretend = 0, frame = 8
 1561              		@ frame_needed = 0, uses_anonymous_args = 0
 1562              	.LVL151:
 1563 0000 10B5     		push	{r4, lr}
 1564              		.cfi_def_cfa_offset 8
 1565              		.cfi_offset 4, -8
 1566              		.cfi_offset 14, -4
 1567 0002 0A4B     		ldr	r3, .L213
 1568              		.loc 1 555 0
 1569 0004 0A4A     		ldr	r2, .L213+4
 1570              		.loc 1 553 0
 1571 0006 1968     		ldr	r1, [r3]
 1572              		.loc 1 555 0
 1573 0008 0260     		str	r2, [r0]
 1574              		.loc 1 553 0
 1575 000a 82B0     		sub	sp, sp, #8
 1576              		.cfi_def_cfa_offset 16
 1577              		.loc 1 556 0
 1578 000c 0124     		movs	r4, #1
 1579              		.loc 1 553 0
 1580 000e 0191     		str	r1, [sp, #4]
 1581              		.loc 1 560 0
 1582 0010 0199     		ldr	r1, [sp, #4]
 1583 0012 1A68     		ldr	r2, [r3]
 1584              		.loc 1 556 0
 1585 0014 0471     		strb	r4, [r0, #4]
 1586              		.loc 1 557 0
 1587 0016 0023     		movs	r3, #0
 1588              		.loc 1 560 0
 1589 0018 9142     		cmp	r1, r2
 1590              		.loc 1 557 0
 1591 001a 4363     		str	r3, [r0, #52]
 1592              		.loc 1 559 0
 1593 001c C0E90A33 		strd	r3, r3, [r0, #40]
 1594              		.loc 1 560 0
 1595 0020 01D1     		bne	.L212
 1596 0022 02B0     		add	sp, sp, #8
ARM GAS  /tmp/ccABp0rU.s 			page 29


 1597              		.cfi_remember_state
 1598              		.cfi_def_cfa_offset 8
 1599              		@ sp needed
 1600 0024 10BD     		pop	{r4, pc}
 1601              	.L212:
 1602              		.cfi_restore_state
 1603 0026 FFF7FEFF 		bl	__stack_chk_fail
 1604              	.LVL152:
 1605              	.L214:
 1606 002a 00BF     		.align	2
 1607              	.L213:
 1608 002c 00000000 		.word	__stack_chk_guard
 1609 0030 00000000 		.word	.LANCHOR8
 1610              		.cfi_endproc
 1611              	.LFE270:
 1612              		.size	sdcObjectInit, .-sdcObjectInit
 1613              		.section	.text.sdcStart,"ax",%progbits
 1614              		.align	1
 1615              		.p2align 4,,15
 1616              		.global	sdcStart
 1617              		.syntax unified
 1618              		.thumb
 1619              		.thumb_func
 1620              		.fpu fpv4-sp-d16
 1621              		.type	sdcStart, %function
 1622              	sdcStart:
 1623              	.LFB271:
 1624              		.loc 1 572 0
 1625              		.cfi_startproc
 1626              		@ args = 0, pretend = 0, frame = 8
 1627              		@ frame_needed = 0, uses_anonymous_args = 0
 1628              	.LVL153:
 1629 0000 70B5     		push	{r4, r5, r6, lr}
 1630              		.cfi_def_cfa_offset 16
 1631              		.cfi_offset 4, -16
 1632              		.cfi_offset 5, -12
 1633              		.cfi_offset 6, -8
 1634              		.cfi_offset 14, -4
 1635 0002 1D4D     		ldr	r5, .L224
 1636 0004 82B0     		sub	sp, sp, #8
 1637              		.cfi_def_cfa_offset 24
 1638              		.loc 1 572 0
 1639 0006 2B68     		ldr	r3, [r5]
 1640 0008 0193     		str	r3, [sp, #4]
 1641 000a 0E46     		mov	r6, r1
 1642              		.loc 1 574 0
 1643 000c 0446     		mov	r4, r0
 1644 000e 68B3     		cbz	r0, .L221
 1645              	.LVL154:
 1646              	.L216:
 1647              	.LBB246:
 1648              	.LBB247:
 1649              	.LBB248:
 1650              	.LBB249:
 1651              	.LBB250:
 1652              	.LBB251:
 1653              		.loc 3 546 0
ARM GAS  /tmp/ccABp0rU.s 			page 30


 1654 0010 2023     		movs	r3, #32
 1655              		.syntax unified
 1656              	@ 546 "../e-puck2_main-processor/ChibiOS//os/ext/CMSIS/include/core_cmFunc.h" 1
 1657 0012 83F31188 		MSR basepri, r3
 1658              	@ 0 "" 2
 1659              	.LVL155:
 1660              		.thumb
 1661              		.syntax unified
 1662              	.LBE251:
 1663              	.LBE250:
 1664              	.LBE249:
 1665              		.loc 4 349 0
 1666 0016 FFF7FEFF 		bl	_stats_start_measure_crit_thd
 1667              	.LVL156:
 1668              		.loc 4 350 0
 1669 001a FFF7FEFF 		bl	_dbg_check_lock
 1670              	.LVL157:
 1671              	.LBE248:
 1672              	.LBE247:
 1673              	.LBE246:
 1674              		.loc 1 577 0
 1675 001e 2379     		ldrb	r3, [r4, #4]	@ zero_extendqisi2
 1676 0020 013B     		subs	r3, r3, #1
 1677 0022 012B     		cmp	r3, #1
 1678 0024 02D9     		bls	.L217
 1679              		.loc 1 577 0 is_stmt 0 discriminator 2
 1680 0026 1548     		ldr	r0, .L224+4
 1681 0028 FFF7FEFF 		bl	chSysHalt
 1682              	.LVL158:
 1683              	.L217:
 1684              		.loc 1 580 0 is_stmt 1
 1685 002c 2046     		mov	r0, r4
 1686              		.loc 1 579 0
 1687 002e E662     		str	r6, [r4, #44]
 1688              		.loc 1 580 0
 1689 0030 FFF7FEFF 		bl	sdc_lld_start
 1690              	.LVL159:
 1691              		.loc 1 581 0
 1692 0034 0223     		movs	r3, #2
 1693 0036 2371     		strb	r3, [r4, #4]
 1694              	.LBB252:
 1695              	.LBB253:
 1696              	.LBB254:
 1697              		.loc 4 360 0
 1698 0038 FFF7FEFF 		bl	_dbg_check_unlock
 1699              	.LVL160:
 1700              		.loc 4 361 0
 1701 003c FFF7FEFF 		bl	_stats_stop_measure_crit_thd
 1702              	.LVL161:
 1703              		.loc 4 367 0
 1704 0040 0F4B     		ldr	r3, .L224+8
 1705 0042 1A68     		ldr	r2, [r3]
 1706 0044 9A42     		cmp	r2, r3
 1707 0046 04D0     		beq	.L218
 1708 0048 9969     		ldr	r1, [r3, #24]
 1709 004a 9368     		ldr	r3, [r2, #8]
 1710 004c 8A68     		ldr	r2, [r1, #8]
ARM GAS  /tmp/ccABp0rU.s 			page 31


 1711 004e 9A42     		cmp	r2, r3
 1712 0050 08D3     		bcc	.L222
 1713              	.L218:
 1714              	.LVL162:
 1715              	.LBB255:
 1716              	.LBB256:
 1717              	.LBB257:
 1718              		.loc 3 546 0
 1719 0052 0023     		movs	r3, #0
 1720              		.syntax unified
 1721              	@ 546 "../e-puck2_main-processor/ChibiOS//os/ext/CMSIS/include/core_cmFunc.h" 1
 1722 0054 83F31188 		MSR basepri, r3
 1723              	@ 0 "" 2
 1724              	.LVL163:
 1725              		.thumb
 1726              		.syntax unified
 1727              	.LBE257:
 1728              	.LBE256:
 1729              	.LBE255:
 1730              	.LBE254:
 1731              	.LBE253:
 1732              	.LBE252:
 1733              		.loc 1 583 0
 1734 0058 019A     		ldr	r2, [sp, #4]
 1735 005a 2B68     		ldr	r3, [r5]
 1736 005c 9A42     		cmp	r2, r3
 1737 005e 09D1     		bne	.L223
 1738 0060 02B0     		add	sp, sp, #8
 1739              		.cfi_remember_state
 1740              		.cfi_def_cfa_offset 16
 1741              		@ sp needed
 1742 0062 70BD     		pop	{r4, r5, r6, pc}
 1743              	.LVL164:
 1744              	.L222:
 1745              		.cfi_restore_state
 1746              	.LBB260:
 1747              	.LBB259:
 1748              	.LBB258:
 1749              		.loc 4 367 0
 1750 0064 0748     		ldr	r0, .L224+12
 1751 0066 FFF7FEFF 		bl	chSysHalt
 1752              	.LVL165:
 1753 006a F2E7     		b	.L218
 1754              	.LVL166:
 1755              	.L221:
 1756              	.LBE258:
 1757              	.LBE259:
 1758              	.LBE260:
 1759              		.loc 1 574 0 discriminator 2
 1760 006c 0348     		ldr	r0, .L224+4
 1761              	.LVL167:
 1762 006e FFF7FEFF 		bl	chSysHalt
 1763              	.LVL168:
 1764 0072 CDE7     		b	.L216
 1765              	.L223:
 1766              		.loc 1 583 0
 1767 0074 FFF7FEFF 		bl	__stack_chk_fail
ARM GAS  /tmp/ccABp0rU.s 			page 32


 1768              	.LVL169:
 1769              	.L225:
 1770              		.align	2
 1771              	.L224:
 1772 0078 00000000 		.word	__stack_chk_guard
 1773 007c 00000000 		.word	.LANCHOR9
 1774 0080 00000000 		.word	ch
 1775 0084 00000000 		.word	.LANCHOR7
 1776              		.cfi_endproc
 1777              	.LFE271:
 1778              		.size	sdcStart, .-sdcStart
 1779              		.section	.text.sdcStop,"ax",%progbits
 1780              		.align	1
 1781              		.p2align 4,,15
 1782              		.global	sdcStop
 1783              		.syntax unified
 1784              		.thumb
 1785              		.thumb_func
 1786              		.fpu fpv4-sp-d16
 1787              		.type	sdcStop, %function
 1788              	sdcStop:
 1789              	.LFB272:
 1790              		.loc 1 592 0
 1791              		.cfi_startproc
 1792              		@ args = 0, pretend = 0, frame = 8
 1793              		@ frame_needed = 0, uses_anonymous_args = 0
 1794              	.LVL170:
 1795 0000 30B5     		push	{r4, r5, lr}
 1796              		.cfi_def_cfa_offset 12
 1797              		.cfi_offset 4, -12
 1798              		.cfi_offset 5, -8
 1799              		.cfi_offset 14, -4
 1800 0002 1C4D     		ldr	r5, .L235
 1801 0004 83B0     		sub	sp, sp, #12
 1802              		.cfi_def_cfa_offset 24
 1803              		.loc 1 592 0
 1804 0006 2B68     		ldr	r3, [r5]
 1805 0008 0193     		str	r3, [sp, #4]
 1806              		.loc 1 594 0
 1807 000a 0446     		mov	r4, r0
 1808 000c 60B3     		cbz	r0, .L232
 1809              	.LVL171:
 1810              	.L227:
 1811              	.LBB274:
 1812              	.LBB275:
 1813              	.LBB276:
 1814              	.LBB277:
 1815              	.LBB278:
 1816              	.LBB279:
 1817              		.loc 3 546 0
 1818 000e 2023     		movs	r3, #32
 1819              		.syntax unified
 1820              	@ 546 "../e-puck2_main-processor/ChibiOS//os/ext/CMSIS/include/core_cmFunc.h" 1
 1821 0010 83F31188 		MSR basepri, r3
 1822              	@ 0 "" 2
 1823              	.LVL172:
 1824              		.thumb
ARM GAS  /tmp/ccABp0rU.s 			page 33


 1825              		.syntax unified
 1826              	.LBE279:
 1827              	.LBE278:
 1828              	.LBE277:
 1829              		.loc 4 349 0
 1830 0014 FFF7FEFF 		bl	_stats_start_measure_crit_thd
 1831              	.LVL173:
 1832              		.loc 4 350 0
 1833 0018 FFF7FEFF 		bl	_dbg_check_lock
 1834              	.LVL174:
 1835              	.LBE276:
 1836              	.LBE275:
 1837              	.LBE274:
 1838              		.loc 1 597 0
 1839 001c 2379     		ldrb	r3, [r4, #4]	@ zero_extendqisi2
 1840 001e 013B     		subs	r3, r3, #1
 1841 0020 012B     		cmp	r3, #1
 1842 0022 02D9     		bls	.L228
 1843              		.loc 1 597 0 is_stmt 0 discriminator 2
 1844 0024 1448     		ldr	r0, .L235+4
 1845 0026 FFF7FEFF 		bl	chSysHalt
 1846              	.LVL175:
 1847              	.L228:
 1848              		.loc 1 599 0 is_stmt 1
 1849 002a 2046     		mov	r0, r4
 1850 002c FFF7FEFF 		bl	sdc_lld_stop
 1851              	.LVL176:
 1852              		.loc 1 600 0
 1853 0030 0123     		movs	r3, #1
 1854 0032 2371     		strb	r3, [r4, #4]
 1855              	.LBB280:
 1856              	.LBB281:
 1857              	.LBB282:
 1858              		.loc 4 360 0
 1859 0034 FFF7FEFF 		bl	_dbg_check_unlock
 1860              	.LVL177:
 1861              		.loc 4 361 0
 1862 0038 FFF7FEFF 		bl	_stats_stop_measure_crit_thd
 1863              	.LVL178:
 1864              		.loc 4 367 0
 1865 003c 0F4B     		ldr	r3, .L235+8
 1866 003e 1A68     		ldr	r2, [r3]
 1867 0040 9A42     		cmp	r2, r3
 1868 0042 04D0     		beq	.L229
 1869 0044 9969     		ldr	r1, [r3, #24]
 1870 0046 9368     		ldr	r3, [r2, #8]
 1871 0048 8A68     		ldr	r2, [r1, #8]
 1872 004a 9A42     		cmp	r2, r3
 1873 004c 08D3     		bcc	.L233
 1874              	.L229:
 1875              	.LVL179:
 1876              	.LBB283:
 1877              	.LBB284:
 1878              	.LBB285:
 1879              		.loc 3 546 0
 1880 004e 0023     		movs	r3, #0
 1881              		.syntax unified
ARM GAS  /tmp/ccABp0rU.s 			page 34


 1882              	@ 546 "../e-puck2_main-processor/ChibiOS//os/ext/CMSIS/include/core_cmFunc.h" 1
 1883 0050 83F31188 		MSR basepri, r3
 1884              	@ 0 "" 2
 1885              	.LVL180:
 1886              		.thumb
 1887              		.syntax unified
 1888              	.LBE285:
 1889              	.LBE284:
 1890              	.LBE283:
 1891              	.LBE282:
 1892              	.LBE281:
 1893              	.LBE280:
 1894              		.loc 1 602 0
 1895 0054 019A     		ldr	r2, [sp, #4]
 1896 0056 2B68     		ldr	r3, [r5]
 1897 0058 9A42     		cmp	r2, r3
 1898 005a 09D1     		bne	.L234
 1899 005c 03B0     		add	sp, sp, #12
 1900              		.cfi_remember_state
 1901              		.cfi_def_cfa_offset 12
 1902              		@ sp needed
 1903 005e 30BD     		pop	{r4, r5, pc}
 1904              	.LVL181:
 1905              	.L233:
 1906              		.cfi_restore_state
 1907              	.LBB288:
 1908              	.LBB287:
 1909              	.LBB286:
 1910              		.loc 4 367 0
 1911 0060 0748     		ldr	r0, .L235+12
 1912 0062 FFF7FEFF 		bl	chSysHalt
 1913              	.LVL182:
 1914 0066 F2E7     		b	.L229
 1915              	.LVL183:
 1916              	.L232:
 1917              	.LBE286:
 1918              	.LBE287:
 1919              	.LBE288:
 1920              		.loc 1 594 0 discriminator 2
 1921 0068 0348     		ldr	r0, .L235+4
 1922              	.LVL184:
 1923 006a FFF7FEFF 		bl	chSysHalt
 1924              	.LVL185:
 1925 006e CEE7     		b	.L227
 1926              	.L234:
 1927              		.loc 1 602 0
 1928 0070 FFF7FEFF 		bl	__stack_chk_fail
 1929              	.LVL186:
 1930              	.L236:
 1931              		.align	2
 1932              	.L235:
 1933 0074 00000000 		.word	__stack_chk_guard
 1934 0078 00000000 		.word	.LANCHOR10
 1935 007c 00000000 		.word	ch
 1936 0080 00000000 		.word	.LANCHOR7
 1937              		.cfi_endproc
 1938              	.LFE272:
ARM GAS  /tmp/ccABp0rU.s 			page 35


 1939              		.size	sdcStop, .-sdcStop
 1940              		.section	.text.sdcGetAndClearErrors,"ax",%progbits
 1941              		.align	1
 1942              		.p2align 4,,15
 1943              		.global	sdcGetAndClearErrors
 1944              		.syntax unified
 1945              		.thumb
 1946              		.thumb_func
 1947              		.fpu fpv4-sp-d16
 1948              		.type	sdcGetAndClearErrors, %function
 1949              	sdcGetAndClearErrors:
 1950              	.LFB277:
 1951              		.loc 1 867 0
 1952              		.cfi_startproc
 1953              		@ args = 0, pretend = 0, frame = 8
 1954              		@ frame_needed = 0, uses_anonymous_args = 0
 1955              	.LVL187:
 1956 0000 70B5     		push	{r4, r5, r6, lr}
 1957              		.cfi_def_cfa_offset 16
 1958              		.cfi_offset 4, -16
 1959              		.cfi_offset 5, -12
 1960              		.cfi_offset 6, -8
 1961              		.cfi_offset 14, -4
 1962 0002 1B4D     		ldr	r5, .L249
 1963 0004 82B0     		sub	sp, sp, #8
 1964              		.cfi_def_cfa_offset 24
 1965              		.loc 1 867 0
 1966 0006 2B68     		ldr	r3, [r5]
 1967 0008 0193     		str	r3, [sp, #4]
 1968              		.loc 1 870 0
 1969 000a 0446     		mov	r4, r0
 1970 000c 50B3     		cbz	r0, .L246
 1971              	.LVL188:
 1972              	.L238:
 1973              		.loc 1 871 0 discriminator 1
 1974 000e 2379     		ldrb	r3, [r4, #4]	@ zero_extendqisi2
 1975 0010 052B     		cmp	r3, #5
 1976 0012 02D0     		beq	.L239
 1977              		.loc 1 871 0 is_stmt 0 discriminator 2
 1978 0014 1748     		ldr	r0, .L249+4
 1979 0016 FFF7FEFF 		bl	chSysHalt
 1980              	.LVL189:
 1981              	.L239:
 1982              	.LBB302:
 1983              	.LBB303:
 1984              	.LBB304:
 1985              	.LBB305:
 1986              	.LBB306:
 1987              	.LBB307:
 1988              		.loc 3 546 0 is_stmt 1
 1989 001a 2023     		movs	r3, #32
 1990              		.syntax unified
 1991              	@ 546 "../e-puck2_main-processor/ChibiOS//os/ext/CMSIS/include/core_cmFunc.h" 1
 1992 001c 83F31188 		MSR basepri, r3
 1993              	@ 0 "" 2
 1994              	.LVL190:
 1995              		.thumb
ARM GAS  /tmp/ccABp0rU.s 			page 36


 1996              		.syntax unified
 1997              	.LBE307:
 1998              	.LBE306:
 1999              	.LBE305:
 2000              		.loc 4 349 0
 2001 0020 FFF7FEFF 		bl	_stats_start_measure_crit_thd
 2002              	.LVL191:
 2003              		.loc 4 350 0
 2004 0024 FFF7FEFF 		bl	_dbg_check_lock
 2005              	.LVL192:
 2006              	.LBE304:
 2007              	.LBE303:
 2008              	.LBE302:
 2009              		.loc 1 875 0
 2010 0028 0023     		movs	r3, #0
 2011              		.loc 1 874 0
 2012 002a 666B     		ldr	r6, [r4, #52]
 2013              	.LVL193:
 2014              		.loc 1 875 0
 2015 002c 6363     		str	r3, [r4, #52]
 2016              	.LBB308:
 2017              	.LBB309:
 2018              	.LBB310:
 2019              		.loc 4 360 0
 2020 002e FFF7FEFF 		bl	_dbg_check_unlock
 2021              	.LVL194:
 2022              		.loc 4 361 0
 2023 0032 FFF7FEFF 		bl	_stats_stop_measure_crit_thd
 2024              	.LVL195:
 2025              		.loc 4 367 0
 2026 0036 104B     		ldr	r3, .L249+8
 2027 0038 1A68     		ldr	r2, [r3]
 2028 003a 9A42     		cmp	r2, r3
 2029 003c 04D0     		beq	.L240
 2030 003e 9969     		ldr	r1, [r3, #24]
 2031 0040 9368     		ldr	r3, [r2, #8]
 2032 0042 8A68     		ldr	r2, [r1, #8]
 2033 0044 9A42     		cmp	r2, r3
 2034 0046 09D3     		bcc	.L247
 2035              	.L240:
 2036              	.LVL196:
 2037              	.LBB311:
 2038              	.LBB312:
 2039              	.LBB313:
 2040              		.loc 3 546 0
 2041 0048 0023     		movs	r3, #0
 2042              		.syntax unified
 2043              	@ 546 "../e-puck2_main-processor/ChibiOS//os/ext/CMSIS/include/core_cmFunc.h" 1
 2044 004a 83F31188 		MSR basepri, r3
 2045              	@ 0 "" 2
 2046              	.LVL197:
 2047              		.thumb
 2048              		.syntax unified
 2049              	.LBE313:
 2050              	.LBE312:
 2051              	.LBE311:
 2052              	.LBE310:
ARM GAS  /tmp/ccABp0rU.s 			page 37


 2053              	.LBE309:
 2054              	.LBE308:
 2055              		.loc 1 878 0
 2056 004e 019A     		ldr	r2, [sp, #4]
 2057 0050 2B68     		ldr	r3, [r5]
 2058 0052 9A42     		cmp	r2, r3
 2059 0054 3046     		mov	r0, r6
 2060 0056 09D1     		bne	.L248
 2061              	.LVL198:
 2062 0058 02B0     		add	sp, sp, #8
 2063              		.cfi_remember_state
 2064              		.cfi_def_cfa_offset 16
 2065              		@ sp needed
 2066 005a 70BD     		pop	{r4, r5, r6, pc}
 2067              	.LVL199:
 2068              	.L247:
 2069              		.cfi_restore_state
 2070              	.LBB316:
 2071              	.LBB315:
 2072              	.LBB314:
 2073              		.loc 4 367 0
 2074 005c 0748     		ldr	r0, .L249+12
 2075 005e FFF7FEFF 		bl	chSysHalt
 2076              	.LVL200:
 2077 0062 F1E7     		b	.L240
 2078              	.LVL201:
 2079              	.L246:
 2080              	.LBE314:
 2081              	.LBE315:
 2082              	.LBE316:
 2083              		.loc 1 870 0 discriminator 2
 2084 0064 0348     		ldr	r0, .L249+4
 2085              	.LVL202:
 2086 0066 FFF7FEFF 		bl	chSysHalt
 2087              	.LVL203:
 2088 006a D0E7     		b	.L238
 2089              	.LVL204:
 2090              	.L248:
 2091              		.loc 1 878 0
 2092 006c FFF7FEFF 		bl	__stack_chk_fail
 2093              	.LVL205:
 2094              	.L250:
 2095              		.align	2
 2096              	.L249:
 2097 0070 00000000 		.word	__stack_chk_guard
 2098 0074 00000000 		.word	.LANCHOR11
 2099 0078 00000000 		.word	ch
 2100 007c 00000000 		.word	.LANCHOR7
 2101              		.cfi_endproc
 2102              	.LFE277:
 2103              		.size	sdcGetAndClearErrors, .-sdcGetAndClearErrors
 2104              		.section	.text.sdcErase,"ax",%progbits
 2105              		.align	1
 2106              		.p2align 4,,15
 2107              		.global	sdcErase
 2108              		.syntax unified
 2109              		.thumb
ARM GAS  /tmp/ccABp0rU.s 			page 38


 2110              		.thumb_func
 2111              		.fpu fpv4-sp-d16
 2112              		.type	sdcErase, %function
 2113              	sdcErase:
 2114              	.LFB280:
 2115              		.loc 1 949 0
 2116              		.cfi_startproc
 2117              		@ args = 0, pretend = 0, frame = 8
 2118              		@ frame_needed = 0, uses_anonymous_args = 0
 2119              	.LVL206:
 2120 0000 F0B5     		push	{r4, r5, r6, r7, lr}
 2121              		.cfi_def_cfa_offset 20
 2122              		.cfi_offset 4, -20
 2123              		.cfi_offset 5, -16
 2124              		.cfi_offset 6, -12
 2125              		.cfi_offset 7, -8
 2126              		.cfi_offset 14, -4
 2127 0002 294D     		ldr	r5, .L268
 2128 0004 83B0     		sub	sp, sp, #12
 2129              		.cfi_def_cfa_offset 32
 2130              		.loc 1 949 0
 2131 0006 2B68     		ldr	r3, [r5]
 2132 0008 0193     		str	r3, [sp, #4]
 2133 000a 0E46     		mov	r6, r1
 2134 000c 1746     		mov	r7, r2
 2135              		.loc 1 952 0
 2136 000e 0446     		mov	r4, r0
 2137 0010 0028     		cmp	r0, #0
 2138 0012 42D0     		beq	.L265
 2139              	.LVL207:
 2140              	.L252:
 2141              		.loc 1 953 0 discriminator 1
 2142 0014 2379     		ldrb	r3, [r4, #4]	@ zero_extendqisi2
 2143 0016 052B     		cmp	r3, #5
 2144 0018 02D0     		beq	.L253
 2145              		.loc 1 953 0 is_stmt 0 discriminator 2
 2146 001a 2448     		ldr	r0, .L268+4
 2147 001c FFF7FEFF 		bl	chSysHalt
 2148              	.LVL208:
 2149              	.L253:
 2150              		.loc 1 959 0 is_stmt 1
 2151 0020 236B     		ldr	r3, [r4, #48]
 2152              		.loc 1 956 0
 2153 0022 0722     		movs	r2, #7
 2154              		.loc 1 959 0
 2155 0024 DB06     		lsls	r3, r3, #27
 2156              		.loc 1 956 0
 2157 0026 2271     		strb	r2, [r4, #4]
 2158              		.loc 1 964 0
 2159 0028 2046     		mov	r0, r4
 2160              		.loc 1 960 0
 2161 002a 44BF     		itt	mi
 2162 002c 7602     		lslmi	r6, r6, #9
 2163              	.LVL209:
 2164              		.loc 1 961 0
 2165 002e 7F02     		lslmi	r7, r7, #9
 2166              	.LVL210:
ARM GAS  /tmp/ccABp0rU.s 			page 39


 2167              		.loc 1 964 0
 2168 0030 FFF7FEFF 		bl	_sdc_wait_for_transfer_state
 2169              	.LVL211:
 2170 0034 40B1     		cbz	r0, .L266
 2171              	.LVL212:
 2172              	.L255:
 2173              	.LDL1:
 2174              		.loc 1 998 0
 2175 0036 0523     		movs	r3, #5
 2176 0038 2371     		strb	r3, [r4, #4]
 2177              		.loc 1 999 0
 2178 003a 0120     		movs	r0, #1
 2179              	.L256:
 2180              		.loc 1 1000 0
 2181 003c 019A     		ldr	r2, [sp, #4]
 2182 003e 2B68     		ldr	r3, [r5]
 2183 0040 9A42     		cmp	r2, r3
 2184 0042 2ED1     		bne	.L267
 2185 0044 03B0     		add	sp, sp, #12
 2186              		.cfi_remember_state
 2187              		.cfi_def_cfa_offset 20
 2188              		@ sp needed
 2189 0046 F0BD     		pop	{r4, r5, r6, r7, pc}
 2190              	.LVL213:
 2191              	.L266:
 2192              		.cfi_restore_state
 2193              		.loc 1 968 0
 2194 0048 3246     		mov	r2, r6
 2195 004a 6B46     		mov	r3, sp
 2196 004c 2021     		movs	r1, #32
 2197 004e 2046     		mov	r0, r4
 2198 0050 FFF7FEFF 		bl	sdc_lld_send_cmd_short_crc
 2199              	.LVL214:
 2200 0054 0028     		cmp	r0, #0
 2201 0056 EED1     		bne	.L255
 2202              		.loc 1 970 0
 2203 0058 009B     		ldr	r3, [sp]
 2204 005a 154E     		ldr	r6, .L268+8
 2205              	.LVL215:
 2206              		.loc 1 969 0
 2207 005c 3342     		tst	r3, r6
 2208 005e EAD1     		bne	.L255
 2209              		.loc 1 974 0
 2210 0060 3A46     		mov	r2, r7
 2211 0062 6B46     		mov	r3, sp
 2212 0064 2121     		movs	r1, #33
 2213 0066 2046     		mov	r0, r4
 2214 0068 FFF7FEFF 		bl	sdc_lld_send_cmd_short_crc
 2215              	.LVL216:
 2216 006c 0028     		cmp	r0, #0
 2217 006e E2D1     		bne	.L255
 2218              		.loc 1 976 0
 2219 0070 009A     		ldr	r2, [sp]
 2220              		.loc 1 975 0
 2221 0072 3240     		ands	r2, r2, r6
 2222 0074 DFD1     		bne	.L255
 2223              		.loc 1 980 0
ARM GAS  /tmp/ccABp0rU.s 			page 40


 2224 0076 6B46     		mov	r3, sp
 2225 0078 2621     		movs	r1, #38
 2226 007a 2046     		mov	r0, r4
 2227 007c FFF7FEFF 		bl	sdc_lld_send_cmd_short_crc
 2228              	.LVL217:
 2229 0080 0028     		cmp	r0, #0
 2230 0082 D8D1     		bne	.L255
 2231              		.loc 1 982 0
 2232 0084 009B     		ldr	r3, [sp]
 2233              		.loc 1 981 0
 2234 0086 3342     		tst	r3, r6
 2235 0088 D5D1     		bne	.L255
 2236              		.loc 1 990 0
 2237 008a 2046     		mov	r0, r4
 2238 008c FFF7FEFF 		bl	_sdc_wait_for_transfer_state
 2239              	.LVL218:
 2240 0090 0028     		cmp	r0, #0
 2241 0092 D0D1     		bne	.L255
 2242              		.loc 1 994 0
 2243 0094 0523     		movs	r3, #5
 2244 0096 2371     		strb	r3, [r4, #4]
 2245              		.loc 1 995 0
 2246 0098 D0E7     		b	.L256
 2247              	.LVL219:
 2248              	.L265:
 2249              		.loc 1 952 0 discriminator 2
 2250 009a 0448     		ldr	r0, .L268+4
 2251              	.LVL220:
 2252 009c FFF7FEFF 		bl	chSysHalt
 2253              	.LVL221:
 2254 00a0 B8E7     		b	.L252
 2255              	.LVL222:
 2256              	.L267:
 2257              		.loc 1 1000 0
 2258 00a2 FFF7FEFF 		bl	__stack_chk_fail
 2259              	.LVL223:
 2260              	.L269:
 2261 00a6 00BF     		.align	2
 2262              	.L268:
 2263 00a8 00000000 		.word	__stack_chk_guard
 2264 00ac 00000000 		.word	.LANCHOR12
 2265 00b0 08E0FFFD 		.word	-33562616
 2266              		.cfi_endproc
 2267              	.LFE280:
 2268              		.size	sdcErase, .-sdcErase
 2269              		.section	.rodata.__func__.10349,"a",%progbits
 2270              		.align	2
 2271              		.set	.LANCHOR2,. + 0
 2272              		.type	__func__.10349, %object
 2273              		.size	__func__.10349, 18
 2274              	__func__.10349:
 2275 0000 6D6D635F 		.ascii	"mmc_set_bus_width\000"
 2275      7365745F 
 2275      6275735F 
 2275      77696474 
 2275      6800
 2276              		.section	.rodata.__func__.10371,"a",%progbits
ARM GAS  /tmp/ccABp0rU.s 			page 41


 2277              		.align	2
 2278              		.set	.LANCHOR9,. + 0
 2279              		.type	__func__.10371, %object
 2280              		.size	__func__.10371, 9
 2281              	__func__.10371:
 2282 0000 73646353 		.ascii	"sdcStart\000"
 2282      74617274 
 2282      00
 2283              		.section	.rodata.__func__.10375,"a",%progbits
 2284              		.align	2
 2285              		.set	.LANCHOR10,. + 0
 2286              		.type	__func__.10375, %object
 2287              		.size	__func__.10375, 8
 2288              	__func__.10375:
 2289 0000 73646353 		.ascii	"sdcStop\000"
 2289      746F7000 
 2290              		.section	.rodata.__func__.10381,"a",%progbits
 2291              		.align	2
 2292              		.set	.LANCHOR1,. + 0
 2293              		.type	__func__.10381, %object
 2294              		.size	__func__.10381, 11
 2295              	__func__.10381:
 2296 0000 73646343 		.ascii	"sdcConnect\000"
 2296      6F6E6E65 
 2296      637400
 2297              		.section	.rodata.__func__.10392,"a",%progbits
 2298              		.align	2
 2299              		.set	.LANCHOR6,. + 0
 2300              		.type	__func__.10392, %object
 2301              		.size	__func__.10392, 14
 2302              	__func__.10392:
 2303 0000 73646344 		.ascii	"sdcDisconnect\000"
 2303      6973636F 
 2303      6E6E6563 
 2303      7400
 2304              		.section	.rodata.__func__.10400,"a",%progbits
 2305              		.align	2
 2306              		.set	.LANCHOR3,. + 0
 2307              		.type	__func__.10400, %object
 2308              		.size	__func__.10400, 8
 2309              	__func__.10400:
 2310 0000 73646352 		.ascii	"sdcRead\000"
 2310      65616400 
 2311              		.section	.rodata.__func__.10408,"a",%progbits
 2312              		.align	2
 2313              		.set	.LANCHOR4,. + 0
 2314              		.type	__func__.10408, %object
 2315              		.size	__func__.10408, 9
 2316              	__func__.10408:
 2317 0000 73646357 		.ascii	"sdcWrite\000"
 2317      72697465 
 2317      00
 2318              		.section	.rodata.__func__.10413,"a",%progbits
 2319              		.align	2
 2320              		.set	.LANCHOR11,. + 0
 2321              		.type	__func__.10413, %object
 2322              		.size	__func__.10413, 21
ARM GAS  /tmp/ccABp0rU.s 			page 42


 2323              	__func__.10413:
 2324 0000 73646347 		.ascii	"sdcGetAndClearErrors\000"
 2324      6574416E 
 2324      64436C65 
 2324      61724572 
 2324      726F7273 
 2325              		.section	.rodata.__func__.10418,"a",%progbits
 2326              		.align	2
 2327              		.set	.LANCHOR5,. + 0
 2328              		.type	__func__.10418, %object
 2329              		.size	__func__.10418, 8
 2330              	__func__.10418:
 2331 0000 73646353 		.ascii	"sdcSync\000"
 2331      796E6300 
 2332              		.section	.rodata.__func__.10423,"a",%progbits
 2333              		.align	2
 2334              		.set	.LANCHOR0,. + 0
 2335              		.type	__func__.10423, %object
 2336              		.size	__func__.10423, 11
 2337              	__func__.10423:
 2338 0000 73646347 		.ascii	"sdcGetInfo\000"
 2338      6574496E 
 2338      666F00
 2339              		.section	.rodata.__func__.10430,"a",%progbits
 2340              		.align	2
 2341              		.set	.LANCHOR12,. + 0
 2342              		.type	__func__.10430, %object
 2343              		.size	__func__.10430, 9
 2344              	__func__.10430:
 2345 0000 73646345 		.ascii	"sdcErase\000"
 2345      72617365 
 2345      00
 2346              		.section	.rodata.__func__.7554,"a",%progbits
 2347              		.align	2
 2348              		.set	.LANCHOR7,. + 0
 2349              		.type	__func__.7554, %object
 2350              		.size	__func__.7554, 12
 2351              	__func__.7554:
 2352 0000 63685379 		.ascii	"chSysUnlock\000"
 2352      73556E6C 
 2352      6F636B00 
 2353              		.section	.rodata.sdc_vmt,"a",%progbits
 2354              		.align	2
 2355              		.set	.LANCHOR8,. + 0
 2356              		.type	sdc_vmt, %object
 2357              		.size	sdc_vmt, 32
 2358              	sdc_vmt:
 2359 0000 00000000 		.word	sdc_lld_is_card_inserted
 2360 0004 00000000 		.word	sdc_lld_is_write_protected
 2361 0008 00000000 		.word	sdcConnect
 2362 000c 00000000 		.word	sdcDisconnect
 2363 0010 00000000 		.word	sdcRead
 2364 0014 00000000 		.word	sdcWrite
 2365 0018 00000000 		.word	sdcSync
 2366 001c 00000000 		.word	sdcGetInfo
 2367              		.text
 2368              	.Letext0:
ARM GAS  /tmp/ccABp0rU.s 			page 43


 2369              		.file 5 "/home/leander/uos_codes/epuck2_lab/Eclipse_e-puck2/Tools/gcc-arm-none-eabi-7-2017-q4-majo
 2370              		.file 6 "/home/leander/uos_codes/epuck2_lab/Eclipse_e-puck2/Tools/gcc-arm-none-eabi-7-2017-q4-majo
 2371              		.file 7 "/home/leander/uos_codes/epuck2_lab/Eclipse_e-puck2/Tools/gcc-arm-none-eabi-7-2017-q4-majo
 2372              		.file 8 "/home/leander/uos_codes/epuck2_lab/Eclipse_e-puck2/Tools/gcc-arm-none-eabi-7-2017-q4-majo
 2373              		.file 9 "/home/leander/uos_codes/epuck2_lab/Eclipse_e-puck2/Tools/gcc-arm-none-eabi-7-2017-q4-majo
 2374              		.file 10 "/home/leander/uos_codes/epuck2_lab/Eclipse_e-puck2/Tools/gcc-arm-none-eabi-7-2017-q4-maj
 2375              		.file 11 "../e-puck2_main-processor/ChibiOS//os/rt/ports/ARMCMx/compilers/GCC/chtypes.h"
 2376              		.file 12 "../e-puck2_main-processor/ChibiOS//os/rt/include/chsystypes.h"
 2377              		.file 13 "../e-puck2_main-processor/ChibiOS//os/rt/include/chschd.h"
 2378              		.file 14 "../e-puck2_main-processor/ChibiOS//os/ext/CMSIS/include/core_cm4.h"
 2379              		.file 15 "../e-puck2_main-processor/ChibiOS//os/ext/CMSIS/ST/system_stm32f4xx.h"
 2380              		.file 16 "../e-puck2_main-processor/ChibiOS//os/ext/CMSIS/ST/stm32f407xx.h"
 2381              		.file 17 "../e-puck2_main-processor/ChibiOS//os/rt/ports/ARMCMx/chcore.h"
 2382              		.file 18 "../e-puck2_main-processor/ChibiOS//os/rt/ports/ARMCMx/chcore_v7m.h"
 2383              		.file 19 "../e-puck2_main-processor/ChibiOS//os/rt/include/chdebug.h"
 2384              		.file 20 "../e-puck2_main-processor/ChibiOS//os/rt/include/chtm.h"
 2385              		.file 21 "../e-puck2_main-processor/ChibiOS//os/rt/include/chstats.h"
 2386              		.file 22 "../e-puck2_main-processor/ChibiOS//os/rt/include/chsem.h"
 2387              		.file 23 "../e-puck2_main-processor/ChibiOS//os/rt/include/chmtx.h"
 2388              		.file 24 "../e-puck2_main-processor/ChibiOS//os/rt/include/chregistry.h"
 2389              		.file 25 "../e-puck2_main-processor/ChibiOS//os/rt/include/chevents.h"
 2390              		.file 26 "../e-puck2_main-processor/ChibiOS//os/rt/include/chqueues.h"
 2391              		.file 27 "../e-puck2_main-processor/ChibiOS//os/hal/ports/STM32/STM32F4xx/stm32_dma.h"
 2392              		.file 28 "../e-puck2_main-processor/ChibiOS//os/hal/include/hal_ioblock.h"
 2393              		.file 29 "../e-puck2_main-processor/ChibiOS//os/hal/ports/STM32/LLD/GPIOv2/pal_lld.h"
 2394              		.file 30 "../e-puck2_main-processor/ChibiOS//os/hal/include/adc.h"
 2395              		.file 31 "../e-puck2_main-processor/ChibiOS//os/hal/ports/STM32/STM32F4xx/adc_lld.h"
 2396              		.file 32 "../e-puck2_main-processor/ChibiOS//os/hal/include/can.h"
 2397              		.file 33 "../e-puck2_main-processor/ChibiOS//os/hal/ports/STM32/LLD/can_lld.h"
 2398              		.file 34 "../e-puck2_main-processor/ChibiOS//os/hal/include/dac.h"
 2399              		.file 35 "../e-puck2_main-processor/ChibiOS//os/hal/ports/STM32/LLD/DACv1/dac_lld.h"
 2400              		.file 36 "../e-puck2_main-processor/ChibiOS//os/hal/include/ext.h"
 2401              		.file 37 "../e-puck2_main-processor/ChibiOS//os/hal/ports/STM32/LLD/ext_lld.h"
 2402              		.file 38 "../e-puck2_main-processor/ChibiOS//os/hal/include/gpt.h"
 2403              		.file 39 "../e-puck2_main-processor/ChibiOS//os/hal/ports/STM32/LLD/TIMv1/gpt_lld.h"
 2404              		.file 40 "../e-puck2_main-processor/ChibiOS//os/hal/ports/STM32/LLD/TIMv1/stm32_tim.h"
 2405              		.file 41 "../e-puck2_main-processor/ChibiOS//os/hal/include/i2c.h"
 2406              		.file 42 "../e-puck2_main-processor/ChibiOS//os/hal/ports/STM32/LLD/I2Cv1/i2c_lld.h"
 2407              		.file 43 "../e-puck2_main-processor/ChibiOS//os/hal/include/i2s.h"
 2408              		.file 44 "../e-puck2_main-processor/ChibiOS//os/hal/ports/STM32/LLD/SPIv1/i2s_lld.h"
 2409              		.file 45 "../e-puck2_main-processor/ChibiOS//os/hal/include/pwm.h"
 2410              		.file 46 "../e-puck2_main-processor/ChibiOS//os/hal/ports/STM32/LLD/TIMv1/pwm_lld.h"
 2411              		.file 47 "../e-puck2_main-processor/ChibiOS//os/hal/include/serial.h"
 2412              		.file 48 "../e-puck2_main-processor/ChibiOS//os/hal/ports/STM32/LLD/USARTv1/serial_lld.h"
 2413              		.file 49 "../e-puck2_main-processor/ChibiOS//os/hal/include/sdc.h"
 2414              		.file 50 "../e-puck2_main-processor/ChibiOS//os/hal/ports/STM32/LLD/sdc_lld.h"
 2415              		.file 51 "../e-puck2_main-processor/ChibiOS//os/hal/include/spi.h"
 2416              		.file 52 "../e-puck2_main-processor/ChibiOS//os/hal/ports/STM32/LLD/SPIv1/spi_lld.h"
 2417              		.file 53 "../e-puck2_main-processor/ChibiOS//os/hal/include/usb.h"
 2418              		.file 54 "../e-puck2_main-processor/ChibiOS//os/hal/ports/STM32/LLD/OTGv1/usb_lld.h"
 2419              		.file 55 "../e-puck2_main-processor/ChibiOS//os/hal/ports/STM32/LLD/OTGv1/stm32_otg.h"
 2420              		.file 56 "../e-puck2_main-processor/ChibiOS//os/hal/include/hal_mmcsd.h"
 2421              		.file 57 "../e-puck2_main-processor/ChibiOS//os/rt/include/chthreads.h"