ARM GAS  /tmp/ccl3EtS8.s 			page 1


   1              		.cpu cortex-m4
   2              		.eabi_attribute 27, 1
   3              		.eabi_attribute 28, 1
   4              		.eabi_attribute 20, 1
   5              		.eabi_attribute 21, 1
   6              		.eabi_attribute 23, 3
   7              		.eabi_attribute 24, 1
   8              		.eabi_attribute 25, 1
   9              		.eabi_attribute 26, 1
  10              		.eabi_attribute 30, 2
  11              		.eabi_attribute 34, 1
  12              		.eabi_attribute 18, 4
  13              		.file	"sdio.c"
  14              		.text
  15              	.Ltext0:
  16              		.cfi_sections	.debug_frame
  17              		.section	.text.sdio_start,"ax",%progbits
  18              		.align	1
  19              		.p2align 4,,15
  20              		.global	sdio_start
  21              		.syntax unified
  22              		.thumb
  23              		.thumb_func
  24              		.fpu fpv4-sp-d16
  25              		.type	sdio_start, %function
  26              	sdio_start:
  27              	.LFB256:
  28              		.file 1 "../e-puck2_main-processor/src/sdio.c"
  29              		.loc 1 6 0
  30              		.cfi_startproc
  31              		@ args = 0, pretend = 0, frame = 8
  32              		@ frame_needed = 0, uses_anonymous_args = 0
  33 0000 00B5     		push	{lr}
  34              		.cfi_def_cfa_offset 4
  35              		.cfi_offset 14, -4
  36 0002 084B     		ldr	r3, .L7
  37 0004 83B0     		sub	sp, sp, #12
  38              		.cfi_def_cfa_offset 16
  39              		.loc 1 6 0
  40 0006 1A68     		ldr	r2, [r3]
  41 0008 0192     		str	r2, [sp, #4]
  42              		.loc 1 12 0
  43 000a 019A     		ldr	r2, [sp, #4]
  44 000c 1B68     		ldr	r3, [r3]
  45 000e 9A42     		cmp	r2, r3
  46 0010 06D1     		bne	.L6
  47 0012 0549     		ldr	r1, .L7+4
  48 0014 0548     		ldr	r0, .L7+8
  49              		.loc 1 13 0
  50 0016 03B0     		add	sp, sp, #12
  51              		.cfi_remember_state
  52              		.cfi_def_cfa_offset 4
  53              		@ sp needed
  54 0018 5DF804EB 		ldr	lr, [sp], #4
  55              		.cfi_restore 14
  56              		.cfi_def_cfa_offset 0
  57              		.loc 1 12 0
ARM GAS  /tmp/ccl3EtS8.s 			page 2


  58 001c FFF7FEBF 		b	sdcStart
  59              	.LVL0:
  60              	.L6:
  61              		.cfi_restore_state
  62 0020 FFF7FEFF 		bl	__stack_chk_fail
  63              	.LVL1:
  64              	.L8:
  65              		.align	2
  66              	.L7:
  67 0024 00000000 		.word	__stack_chk_guard
  68 0028 00000000 		.word	.LANCHOR0
  69 002c 00000000 		.word	SDCD1
  70              		.cfi_endproc
  71              	.LFE256:
  72              		.size	sdio_start, .-sdio_start
  73              		.section	.text.sdio_is_present,"ax",%progbits
  74              		.align	1
  75              		.p2align 4,,15
  76              		.global	sdio_is_present
  77              		.syntax unified
  78              		.thumb
  79              		.thumb_func
  80              		.fpu fpv4-sp-d16
  81              		.type	sdio_is_present, %function
  82              	sdio_is_present:
  83              	.LFB257:
  84              		.loc 1 15 0
  85              		.cfi_startproc
  86              		@ args = 0, pretend = 0, frame = 8
  87              		@ frame_needed = 0, uses_anonymous_args = 0
  88 0000 00B5     		push	{lr}
  89              		.cfi_def_cfa_offset 4
  90              		.cfi_offset 14, -4
  91 0002 084B     		ldr	r3, .L14
  92 0004 83B0     		sub	sp, sp, #12
  93              		.cfi_def_cfa_offset 16
  94              		.loc 1 15 0
  95 0006 1A68     		ldr	r2, [r3]
  96 0008 0192     		str	r2, [sp, #4]
  97              		.loc 1 16 0
  98 000a 019A     		ldr	r2, [sp, #4]
  99 000c 1B68     		ldr	r3, [r3]
 100 000e 9A42     		cmp	r2, r3
 101 0010 06D1     		bne	.L13
 102 0012 0548     		ldr	r0, .L14+4
 103 0014 0368     		ldr	r3, [r0]
 104 0016 1B68     		ldr	r3, [r3]
 105              		.loc 1 17 0
 106 0018 03B0     		add	sp, sp, #12
 107              		.cfi_remember_state
 108              		.cfi_def_cfa_offset 4
 109              		@ sp needed
 110 001a 5DF804EB 		ldr	lr, [sp], #4
 111              		.cfi_restore 14
 112              		.cfi_def_cfa_offset 0
 113              		.loc 1 16 0
 114 001e 1847     		bx	r3
ARM GAS  /tmp/ccl3EtS8.s 			page 3


 115              	.LVL2:
 116              	.L13:
 117              		.cfi_restore_state
 118 0020 FFF7FEFF 		bl	__stack_chk_fail
 119              	.LVL3:
 120              	.L15:
 121              		.align	2
 122              	.L14:
 123 0024 00000000 		.word	__stack_chk_guard
 124 0028 00000000 		.word	SDCD1
 125              		.cfi_endproc
 126              	.LFE257:
 127              		.size	sdio_is_present, .-sdio_is_present
 128              		.section	.text.sdio_connect,"ax",%progbits
 129              		.align	1
 130              		.p2align 4,,15
 131              		.global	sdio_connect
 132              		.syntax unified
 133              		.thumb
 134              		.thumb_func
 135              		.fpu fpv4-sp-d16
 136              		.type	sdio_connect, %function
 137              	sdio_connect:
 138              	.LFB258:
 139              		.loc 1 19 0
 140              		.cfi_startproc
 141              		@ args = 0, pretend = 0, frame = 8
 142              		@ frame_needed = 0, uses_anonymous_args = 0
 143 0000 70B5     		push	{r4, r5, r6, lr}
 144              		.cfi_def_cfa_offset 16
 145              		.cfi_offset 4, -16
 146              		.cfi_offset 5, -12
 147              		.cfi_offset 6, -8
 148              		.cfi_offset 14, -4
 149              	.LBB6:
 150              	.LBB7:
 151              		.loc 1 16 0
 152 0002 104C     		ldr	r4, .L25
 153              	.LBE7:
 154              	.LBE6:
 155              		.loc 1 19 0
 156 0004 104D     		ldr	r5, .L25+4
 157              	.LBB12:
 158              	.LBB8:
 159              		.loc 1 16 0
 160 0006 2368     		ldr	r3, [r4]
 161              	.LBE8:
 162              	.LBE12:
 163              		.loc 1 19 0
 164 0008 2A68     		ldr	r2, [r5]
 165              	.LBB13:
 166              	.LBB9:
 167              		.loc 1 16 0
 168 000a 1B68     		ldr	r3, [r3]
 169              	.LBE9:
 170              	.LBE13:
 171              		.loc 1 19 0
ARM GAS  /tmp/ccl3EtS8.s 			page 4


 172 000c 82B0     		sub	sp, sp, #8
 173              		.cfi_def_cfa_offset 24
 174              	.LBB14:
 175              	.LBB10:
 176              		.loc 1 16 0
 177 000e 2046     		mov	r0, r4
 178              	.LBE10:
 179              	.LBE14:
 180              		.loc 1 19 0
 181 0010 0192     		str	r2, [sp, #4]
 182              	.LBB15:
 183              	.LBB11:
 184              		.loc 1 16 0
 185 0012 9847     		blx	r3
 186              	.LVL4:
 187              	.LBE11:
 188              	.LBE15:
 189              		.loc 1 20 0
 190 0014 20B1     		cbz	r0, .L19
 191              		.loc 1 21 0
 192 0016 0D4E     		ldr	r6, .L25+8
 193 0018 3378     		ldrb	r3, [r6]	@ zero_extendqisi2
 194 001a 43B1     		cbz	r3, .L23
 195              		.loc 1 28 0
 196 001c 0020     		movs	r0, #0
 197 001e 00E0     		b	.L18
 198              	.L19:
 199              		.loc 1 30 0
 200 0020 0120     		movs	r0, #1
 201              	.L18:
 202              		.loc 1 32 0
 203 0022 019A     		ldr	r2, [sp, #4]
 204 0024 2B68     		ldr	r3, [r5]
 205 0026 9A42     		cmp	r2, r3
 206 0028 09D1     		bne	.L24
 207 002a 02B0     		add	sp, sp, #8
 208              		.cfi_remember_state
 209              		.cfi_def_cfa_offset 16
 210              		@ sp needed
 211 002c 70BD     		pop	{r4, r5, r6, pc}
 212              	.L23:
 213              		.cfi_restore_state
 214              		.loc 1 22 0
 215 002e 2046     		mov	r0, r4
 216 0030 FFF7FEFF 		bl	sdcConnect
 217              	.LVL5:
 218 0034 0028     		cmp	r0, #0
 219 0036 F3D1     		bne	.L19
 220              		.loc 1 23 0
 221 0038 0123     		movs	r3, #1
 222 003a 3370     		strb	r3, [r6]
 223 003c F1E7     		b	.L18
 224              	.L24:
 225              		.loc 1 32 0
 226 003e FFF7FEFF 		bl	__stack_chk_fail
 227              	.LVL6:
 228              	.L26:
ARM GAS  /tmp/ccl3EtS8.s 			page 5


 229 0042 00BF     		.align	2
 230              	.L25:
 231 0044 00000000 		.word	SDCD1
 232 0048 00000000 		.word	__stack_chk_guard
 233 004c 00000000 		.word	.LANCHOR1
 234              		.cfi_endproc
 235              	.LFE258:
 236              		.size	sdio_connect, .-sdio_connect
 237              		.section	.text.sdio_disconnect,"ax",%progbits
 238              		.align	1
 239              		.p2align 4,,15
 240              		.global	sdio_disconnect
 241              		.syntax unified
 242              		.thumb
 243              		.thumb_func
 244              		.fpu fpv4-sp-d16
 245              		.type	sdio_disconnect, %function
 246              	sdio_disconnect:
 247              	.LFB259:
 248              		.loc 1 34 0
 249              		.cfi_startproc
 250              		@ args = 0, pretend = 0, frame = 8
 251              		@ frame_needed = 0, uses_anonymous_args = 0
 252 0000 70B5     		push	{r4, r5, r6, lr}
 253              		.cfi_def_cfa_offset 16
 254              		.cfi_offset 4, -16
 255              		.cfi_offset 5, -12
 256              		.cfi_offset 6, -8
 257              		.cfi_offset 14, -4
 258              	.LBB16:
 259              	.LBB17:
 260              		.loc 1 16 0
 261 0002 0F4C     		ldr	r4, .L36
 262              	.LBE17:
 263              	.LBE16:
 264              		.loc 1 34 0
 265 0004 0F4D     		ldr	r5, .L36+4
 266              	.LBB22:
 267              	.LBB18:
 268              		.loc 1 16 0
 269 0006 2368     		ldr	r3, [r4]
 270              	.LBE18:
 271              	.LBE22:
 272              		.loc 1 34 0
 273 0008 2A68     		ldr	r2, [r5]
 274              	.LBB23:
 275              	.LBB19:
 276              		.loc 1 16 0
 277 000a 1B68     		ldr	r3, [r3]
 278              	.LBE19:
 279              	.LBE23:
 280              		.loc 1 34 0
 281 000c 82B0     		sub	sp, sp, #8
 282              		.cfi_def_cfa_offset 24
 283              	.LBB24:
 284              	.LBB20:
 285              		.loc 1 16 0
ARM GAS  /tmp/ccl3EtS8.s 			page 6


 286 000e 2046     		mov	r0, r4
 287              	.LBE20:
 288              	.LBE24:
 289              		.loc 1 34 0
 290 0010 0192     		str	r2, [sp, #4]
 291              	.LBB25:
 292              	.LBB21:
 293              		.loc 1 16 0
 294 0012 9847     		blx	r3
 295              	.LVL7:
 296              	.LBE21:
 297              	.LBE25:
 298              		.loc 1 35 0
 299 0014 40B1     		cbz	r0, .L30
 300              		.loc 1 36 0
 301 0016 0C4E     		ldr	r6, .L36+8
 302 0018 3078     		ldrb	r0, [r6]	@ zero_extendqisi2
 303 001a 38B9     		cbnz	r0, .L34
 304              	.L29:
 305              		.loc 1 47 0
 306 001c 019A     		ldr	r2, [sp, #4]
 307 001e 2B68     		ldr	r3, [r5]
 308 0020 9A42     		cmp	r2, r3
 309 0022 0AD1     		bne	.L35
 310 0024 02B0     		add	sp, sp, #8
 311              		.cfi_remember_state
 312              		.cfi_def_cfa_offset 16
 313              		@ sp needed
 314 0026 70BD     		pop	{r4, r5, r6, pc}
 315              	.L30:
 316              		.cfi_restore_state
 317              		.loc 1 45 0
 318 0028 0120     		movs	r0, #1
 319 002a F7E7     		b	.L29
 320              	.L34:
 321              		.loc 1 37 0
 322 002c 2046     		mov	r0, r4
 323 002e FFF7FEFF 		bl	sdcDisconnect
 324              	.LVL8:
 325 0032 0028     		cmp	r0, #0
 326 0034 F8D1     		bne	.L30
 327              		.loc 1 38 0
 328 0036 3070     		strb	r0, [r6]
 329 0038 F0E7     		b	.L29
 330              	.L35:
 331              		.loc 1 47 0
 332 003a FFF7FEFF 		bl	__stack_chk_fail
 333              	.LVL9:
 334              	.L37:
 335 003e 00BF     		.align	2
 336              	.L36:
 337 0040 00000000 		.word	SDCD1
 338 0044 00000000 		.word	__stack_chk_guard
 339 0048 00000000 		.word	.LANCHOR1
 340              		.cfi_endproc
 341              	.LFE259:
 342              		.size	sdio_disconnect, .-sdio_disconnect
ARM GAS  /tmp/ccl3EtS8.s 			page 7


 343              		.section	.bss.sd_scratchpad.9851,"aw",%nobits
 344              		.align	2
 345              		.type	sd_scratchpad.9851, %object
 346              		.size	sd_scratchpad.9851, 512
 347              	sd_scratchpad.9851:
 348 0000 00000000 		.space	512
 348      00000000 
 348      00000000 
 348      00000000 
 348      00000000 
 349              		.section	.bss.sdio_connected,"aw",%nobits
 350              		.set	.LANCHOR1,. + 0
 351              		.type	sdio_connected, %object
 352              		.size	sdio_connected, 1
 353              	sdio_connected:
 354 0000 00       		.space	1
 355              		.section	.rodata.sdccfg.9852,"a",%progbits
 356              		.align	2
 357              		.set	.LANCHOR0,. + 0
 358              		.type	sdccfg.9852, %object
 359              		.size	sdccfg.9852, 8
 360              	sdccfg.9852:
 361 0000 00000000 		.word	sd_scratchpad.9851
 362 0004 00       		.byte	0
 363 0005 000000   		.space	3
 364              		.text
 365              	.Letext0:
 366              		.file 2 "/home/leander/uos_codes/epuck2_lab/Eclipse_e-puck2/Tools/gcc-arm-none-eabi-7-2017-q4-majo
 367              		.file 3 "/home/leander/uos_codes/epuck2_lab/Eclipse_e-puck2/Tools/gcc-arm-none-eabi-7-2017-q4-majo
 368              		.file 4 "/home/leander/uos_codes/epuck2_lab/Eclipse_e-puck2/Tools/gcc-arm-none-eabi-7-2017-q4-majo
 369              		.file 5 "../e-puck2_main-processor/ChibiOS//os/rt/ports/ARMCMx/compilers/GCC/chtypes.h"
 370              		.file 6 "../e-puck2_main-processor/ChibiOS//os/rt/include/chsystypes.h"
 371              		.file 7 "../e-puck2_main-processor/ChibiOS//os/rt/include/chschd.h"
 372              		.file 8 "../e-puck2_main-processor/ChibiOS//os/ext/CMSIS/include/core_cm4.h"
 373              		.file 9 "../e-puck2_main-processor/ChibiOS//os/ext/CMSIS/ST/system_stm32f4xx.h"
 374              		.file 10 "../e-puck2_main-processor/ChibiOS//os/ext/CMSIS/ST/stm32f407xx.h"
 375              		.file 11 "../e-puck2_main-processor/ChibiOS//os/rt/ports/ARMCMx/chcore.h"
 376              		.file 12 "../e-puck2_main-processor/ChibiOS//os/rt/ports/ARMCMx/chcore_v7m.h"
 377              		.file 13 "../e-puck2_main-processor/ChibiOS//os/rt/include/chdebug.h"
 378              		.file 14 "../e-puck2_main-processor/ChibiOS//os/rt/include/chtm.h"
 379              		.file 15 "../e-puck2_main-processor/ChibiOS//os/rt/include/chstats.h"
 380              		.file 16 "../e-puck2_main-processor/ChibiOS//os/rt/include/chsem.h"
 381              		.file 17 "../e-puck2_main-processor/ChibiOS//os/rt/include/chmtx.h"
 382              		.file 18 "../e-puck2_main-processor/ChibiOS//os/rt/include/chregistry.h"
 383              		.file 19 "../e-puck2_main-processor/ChibiOS//os/rt/include/chevents.h"
 384              		.file 20 "../e-puck2_main-processor/ChibiOS//os/rt/include/chqueues.h"
 385              		.file 21 "../e-puck2_main-processor/ChibiOS//os/hal/ports/STM32/STM32F4xx/stm32_dma.h"
 386              		.file 22 "../e-puck2_main-processor/ChibiOS//os/hal/include/hal_ioblock.h"
 387              		.file 23 "../e-puck2_main-processor/ChibiOS//os/hal/ports/STM32/LLD/GPIOv2/pal_lld.h"
 388              		.file 24 "../e-puck2_main-processor/ChibiOS//os/hal/include/adc.h"
 389              		.file 25 "../e-puck2_main-processor/ChibiOS//os/hal/ports/STM32/STM32F4xx/adc_lld.h"
 390              		.file 26 "../e-puck2_main-processor/ChibiOS//os/hal/include/can.h"
 391              		.file 27 "../e-puck2_main-processor/ChibiOS//os/hal/ports/STM32/LLD/can_lld.h"
 392              		.file 28 "../e-puck2_main-processor/ChibiOS//os/hal/include/dac.h"
 393              		.file 29 "../e-puck2_main-processor/ChibiOS//os/hal/ports/STM32/LLD/DACv1/dac_lld.h"
 394              		.file 30 "../e-puck2_main-processor/ChibiOS//os/hal/include/ext.h"
 395              		.file 31 "../e-puck2_main-processor/ChibiOS//os/hal/ports/STM32/LLD/ext_lld.h"
ARM GAS  /tmp/ccl3EtS8.s 			page 8


 396              		.file 32 "../e-puck2_main-processor/ChibiOS//os/hal/include/gpt.h"
 397              		.file 33 "../e-puck2_main-processor/ChibiOS//os/hal/ports/STM32/LLD/TIMv1/gpt_lld.h"
 398              		.file 34 "../e-puck2_main-processor/ChibiOS//os/hal/ports/STM32/LLD/TIMv1/stm32_tim.h"
 399              		.file 35 "../e-puck2_main-processor/ChibiOS//os/hal/include/i2c.h"
 400              		.file 36 "../e-puck2_main-processor/ChibiOS//os/hal/ports/STM32/LLD/I2Cv1/i2c_lld.h"
 401              		.file 37 "../e-puck2_main-processor/ChibiOS//os/hal/include/i2s.h"
 402              		.file 38 "../e-puck2_main-processor/ChibiOS//os/hal/ports/STM32/LLD/SPIv1/i2s_lld.h"
 403              		.file 39 "../e-puck2_main-processor/ChibiOS//os/hal/include/pwm.h"
 404              		.file 40 "../e-puck2_main-processor/ChibiOS//os/hal/ports/STM32/LLD/TIMv1/pwm_lld.h"
 405              		.file 41 "../e-puck2_main-processor/ChibiOS//os/hal/include/serial.h"
 406              		.file 42 "../e-puck2_main-processor/ChibiOS//os/hal/ports/STM32/LLD/USARTv1/serial_lld.h"
 407              		.file 43 "../e-puck2_main-processor/ChibiOS//os/hal/include/sdc.h"
 408              		.file 44 "../e-puck2_main-processor/ChibiOS//os/hal/ports/STM32/LLD/sdc_lld.h"
 409              		.file 45 "../e-puck2_main-processor/ChibiOS//os/hal/include/spi.h"
 410              		.file 46 "../e-puck2_main-processor/ChibiOS//os/hal/ports/STM32/LLD/SPIv1/spi_lld.h"
 411              		.file 47 "../e-puck2_main-processor/ChibiOS//os/hal/include/usb.h"
 412              		.file 48 "../e-puck2_main-processor/ChibiOS//os/hal/ports/STM32/LLD/OTGv1/usb_lld.h"
 413              		.file 49 "../e-puck2_main-processor/ChibiOS//os/hal/ports/STM32/LLD/OTGv1/stm32_otg.h"