ARM GAS  /tmp/cc4x3UyX.s 			page 1


   1              		.cpu cortex-m4
   2              		.eabi_attribute 27, 1
   3              		.eabi_attribute 28, 1
   4              		.eabi_attribute 20, 1
   5              		.eabi_attribute 21, 1
   6              		.eabi_attribute 23, 3
   7              		.eabi_attribute 24, 1
   8              		.eabi_attribute 25, 1
   9              		.eabi_attribute 26, 1
  10              		.eabi_attribute 30, 2
  11              		.eabi_attribute 34, 1
  12              		.eabi_attribute 18, 4
  13              		.file	"shell.c"
  14              		.text
  15              	.Ltext0:
  16              		.cfi_sections	.debug_frame
  17              		.section	.text.chprintf,"ax",%progbits
  18              		.align	1
  19              		.p2align 4,,15
  20              		.syntax unified
  21              		.thumb
  22              		.thumb_func
  23              		.fpu fpv4-sp-d16
  24              		.type	chprintf, %function
  25              	chprintf:
  26              	.LFB256:
  27              		.file 1 "../e-puck2_main-processor/ChibiOS//os/hal/lib/streams/chprintf.h"
  28              		.loc 1 69 0
  29              		.cfi_startproc
  30              		@ args = 4, pretend = 12, frame = 8
  31              		@ frame_needed = 0, uses_anonymous_args = 1
  32              	.LVL0:
  33 0000 0EB4     		push	{r1, r2, r3}
  34              		.cfi_def_cfa_offset 12
  35              		.cfi_offset 1, -12
  36              		.cfi_offset 2, -8
  37              		.cfi_offset 3, -4
  38 0002 10B5     		push	{r4, lr}
  39              		.cfi_def_cfa_offset 20
  40              		.cfi_offset 4, -20
  41              		.cfi_offset 14, -16
  42 0004 83B0     		sub	sp, sp, #12
  43              		.cfi_def_cfa_offset 32
  44              		.loc 1 69 0
  45 0006 05AA     		add	r2, sp, #20
  46 0008 094C     		ldr	r4, .L6
  47 000a 52F8041B 		ldr	r1, [r2], #4
  48 000e 2368     		ldr	r3, [r4]
  49              		.loc 1 73 0
  50 0010 0092     		str	r2, [sp]
  51              		.loc 1 69 0
  52 0012 0193     		str	r3, [sp, #4]
  53              		.loc 1 74 0
  54 0014 FFF7FEFF 		bl	chvprintf
  55              	.LVL1:
  56              		.loc 1 78 0
  57 0018 019A     		ldr	r2, [sp, #4]
ARM GAS  /tmp/cc4x3UyX.s 			page 2


  58 001a 2368     		ldr	r3, [r4]
  59 001c 9A42     		cmp	r2, r3
  60 001e 04D1     		bne	.L5
  61 0020 03B0     		add	sp, sp, #12
  62              		.cfi_remember_state
  63              		.cfi_def_cfa_offset 20
  64              		@ sp needed
  65 0022 BDE81040 		pop	{r4, lr}
  66              		.cfi_restore 14
  67              		.cfi_restore 4
  68              		.cfi_def_cfa_offset 12
  69 0026 03B0     		add	sp, sp, #12
  70              		.cfi_restore 3
  71              		.cfi_restore 2
  72              		.cfi_restore 1
  73              		.cfi_def_cfa_offset 0
  74 0028 7047     		bx	lr
  75              	.L5:
  76              		.cfi_restore_state
  77 002a FFF7FEFF 		bl	__stack_chk_fail
  78              	.LVL2:
  79              	.L7:
  80 002e 00BF     		.align	2
  81              	.L6:
  82 0030 00000000 		.word	__stack_chk_guard
  83              		.cfi_endproc
  84              	.LFE256:
  85              		.size	chprintf, .-chprintf
  86              		.section	.text.cmd_systime,"ax",%progbits
  87              		.align	1
  88              		.p2align 4,,15
  89              		.syntax unified
  90              		.thumb
  91              		.thumb_func
  92              		.fpu fpv4-sp-d16
  93              		.type	cmd_systime, %function
  94              	cmd_systime:
  95              	.LFB261:
  96              		.file 2 "../e-puck2_main-processor/ChibiOS//os/various/shell.c"
  97              		.loc 2 99 0
  98              		.cfi_startproc
  99              		@ args = 0, pretend = 0, frame = 8
 100              		@ frame_needed = 0, uses_anonymous_args = 0
 101              	.LVL3:
 102 0000 F0B5     		push	{r4, r5, r6, r7, lr}
 103              		.cfi_def_cfa_offset 20
 104              		.cfi_offset 4, -20
 105              		.cfi_offset 5, -16
 106              		.cfi_offset 6, -12
 107              		.cfi_offset 7, -8
 108              		.cfi_offset 14, -4
 109 0002 1E4C     		ldr	r4, .L18
 110 0004 83B0     		sub	sp, sp, #12
 111              		.cfi_def_cfa_offset 32
 112              		.loc 2 99 0
 113 0006 2368     		ldr	r3, [r4]
 114 0008 0193     		str	r3, [sp, #4]
ARM GAS  /tmp/cc4x3UyX.s 			page 3


 115              		.loc 2 102 0
 116 000a 0029     		cmp	r1, #0
 117 000c 0ADD     		ble	.L9
 118              	.LVL4:
 119              	.LBB86:
 120              	.LBB87:
 121              		.loc 2 56 0
 122 000e 019A     		ldr	r2, [sp, #4]
 123              	.LVL5:
 124 0010 2368     		ldr	r3, [r4]
 125 0012 9A42     		cmp	r2, r3
 126 0014 2FD1     		bne	.L16
 127 0016 1A4A     		ldr	r2, .L18+4
 128 0018 1A49     		ldr	r1, .L18+8
 129              	.LVL6:
 130              	.LBE87:
 131              	.LBE86:
 132              		.loc 2 107 0
 133 001a 03B0     		add	sp, sp, #12
 134              		.cfi_remember_state
 135              		.cfi_def_cfa_offset 20
 136              		@ sp needed
 137 001c BDE8F040 		pop	{r4, r5, r6, r7, lr}
 138              		.cfi_restore 14
 139              		.cfi_restore 7
 140              		.cfi_restore 6
 141              		.cfi_restore 5
 142              		.cfi_restore 4
 143              		.cfi_def_cfa_offset 0
 144              	.LBB88:
 145              	.LBB89:
 146              		.loc 2 106 0
 147 0020 FFF7FEBF 		b	chprintf
 148              	.LVL7:
 149              	.L9:
 150              		.cfi_restore_state
 151 0024 0646     		mov	r6, r0
 152              	.LVL8:
 153              	.LBB90:
 154              	.LBB91:
 155              	.LBB92:
 156              	.LBB93:
 157              	.LBB94:
 158              	.LBB95:
 159              	.LBB96:
 160              		.file 3 "../e-puck2_main-processor/ChibiOS//os/ext/CMSIS/include/core_cmFunc.h"
 161              		.loc 3 546 0
 162 0026 2023     		movs	r3, #32
 163              		.syntax unified
 164              	@ 546 "../e-puck2_main-processor/ChibiOS//os/ext/CMSIS/include/core_cmFunc.h" 1
 165 0028 83F31188 		MSR basepri, r3
 166              	@ 0 "" 2
 167              	.LVL9:
 168              		.thumb
 169              		.syntax unified
 170              	.LBE96:
 171              	.LBE95:
ARM GAS  /tmp/cc4x3UyX.s 			page 4


 172              	.LBE94:
 173              	.LBE93:
 174              	.LBE92:
 175              	.LBB98:
 176              	.LBB99:
 177              		.file 4 "../e-puck2_main-processor/ChibiOS//os/rt/include/chvt.h"
 178              		.loc 4 231 0
 179 002c 164D     		ldr	r5, .L18+12
 180              	.LBE99:
 181              	.LBE98:
 182              	.LBB101:
 183              	.LBB97:
 184              		.file 5 "../e-puck2_main-processor/ChibiOS//os/rt/include/chsys.h"
 185              		.loc 5 349 0
 186 002e FFF7FEFF 		bl	_stats_start_measure_crit_thd
 187              	.LVL10:
 188              		.loc 5 350 0
 189 0032 FFF7FEFF 		bl	_dbg_check_lock
 190              	.LVL11:
 191              	.LBE97:
 192              	.LBE101:
 193              	.LBB102:
 194              	.LBB100:
 195              		.loc 4 231 0
 196 0036 AF6A     		ldr	r7, [r5, #40]
 197              	.LBE100:
 198              	.LBE102:
 199              	.LBB103:
 200              	.LBB104:
 201              		.loc 5 360 0
 202 0038 FFF7FEFF 		bl	_dbg_check_unlock
 203              	.LVL12:
 204              		.loc 5 361 0
 205 003c FFF7FEFF 		bl	_stats_stop_measure_crit_thd
 206              	.LVL13:
 207              		.loc 5 367 0
 208 0040 2B68     		ldr	r3, [r5]
 209 0042 AB42     		cmp	r3, r5
 210 0044 04D0     		beq	.L11
 211 0046 AA69     		ldr	r2, [r5, #24]
 212 0048 9B68     		ldr	r3, [r3, #8]
 213 004a 9268     		ldr	r2, [r2, #8]
 214 004c 9A42     		cmp	r2, r3
 215 004e 0ED3     		bcc	.L17
 216              	.L11:
 217              	.LVL14:
 218              	.LBB105:
 219              	.LBB106:
 220              	.LBB107:
 221              		.loc 3 546 0
 222 0050 0023     		movs	r3, #0
 223              		.syntax unified
 224              	@ 546 "../e-puck2_main-processor/ChibiOS//os/ext/CMSIS/include/core_cmFunc.h" 1
 225 0052 83F31188 		MSR basepri, r3
 226              	@ 0 "" 2
 227              	.LVL15:
 228              		.thumb
ARM GAS  /tmp/cc4x3UyX.s 			page 5


 229              		.syntax unified
 230              	.LBE107:
 231              	.LBE106:
 232              	.LBE105:
 233              	.LBE104:
 234              	.LBE103:
 235              	.LBE91:
 236              	.LBE90:
 237              		.loc 2 106 0
 238 0056 019A     		ldr	r2, [sp, #4]
 239 0058 2368     		ldr	r3, [r4]
 240 005a 9A42     		cmp	r2, r3
 241 005c 0BD1     		bne	.L16
 242 005e 0B49     		ldr	r1, .L18+16
 243 0060 3A46     		mov	r2, r7
 244 0062 3046     		mov	r0, r6
 245              	.LBE89:
 246              	.LBE88:
 247              		.loc 2 107 0
 248 0064 03B0     		add	sp, sp, #12
 249              		.cfi_remember_state
 250              		.cfi_def_cfa_offset 20
 251              		@ sp needed
 252 0066 BDE8F040 		pop	{r4, r5, r6, r7, lr}
 253              		.cfi_restore 14
 254              		.cfi_restore 7
 255              		.cfi_restore 6
 256              		.cfi_restore 5
 257              		.cfi_restore 4
 258              		.cfi_def_cfa_offset 0
 259              	.LVL16:
 260              	.LBB113:
 261              	.LBB112:
 262              		.loc 2 106 0
 263 006a FFF7FEBF 		b	chprintf
 264              	.LVL17:
 265              	.L17:
 266              		.cfi_restore_state
 267              	.LBB111:
 268              	.LBB110:
 269              	.LBB109:
 270              	.LBB108:
 271              		.loc 5 367 0
 272 006e 0848     		ldr	r0, .L18+20
 273 0070 FFF7FEFF 		bl	chSysHalt
 274              	.LVL18:
 275 0074 ECE7     		b	.L11
 276              	.LVL19:
 277              	.L16:
 278              	.LBE108:
 279              	.LBE109:
 280              	.LBE110:
 281              	.LBE111:
 282              		.loc 2 106 0
 283 0076 FFF7FEFF 		bl	__stack_chk_fail
 284              	.LVL20:
 285              	.L19:
ARM GAS  /tmp/cc4x3UyX.s 			page 6


 286 007a 00BF     		.align	2
 287              	.L18:
 288 007c 00000000 		.word	__stack_chk_guard
 289 0080 00000000 		.word	.LC0
 290 0084 08000000 		.word	.LC1
 291 0088 00000000 		.word	ch
 292 008c 14000000 		.word	.LC2
 293 0090 00000000 		.word	.LANCHOR0
 294              	.LBE112:
 295              	.LBE113:
 296              		.cfi_endproc
 297              	.LFE261:
 298              		.size	cmd_systime, .-cmd_systime
 299              		.section	.text.cmd_info,"ax",%progbits
 300              		.align	1
 301              		.p2align 4,,15
 302              		.syntax unified
 303              		.thumb
 304              		.thumb_func
 305              		.fpu fpv4-sp-d16
 306              		.type	cmd_info, %function
 307              	cmd_info:
 308              	.LFB260:
 309              		.loc 2 67 0
 310              		.cfi_startproc
 311              		@ args = 0, pretend = 0, frame = 8
 312              		@ frame_needed = 0, uses_anonymous_args = 0
 313              	.LVL21:
 314 0000 30B5     		push	{r4, r5, lr}
 315              		.cfi_def_cfa_offset 12
 316              		.cfi_offset 4, -12
 317              		.cfi_offset 5, -8
 318              		.cfi_offset 14, -4
 319 0002 224D     		ldr	r5, .L26
 320 0004 85B0     		sub	sp, sp, #20
 321              		.cfi_def_cfa_offset 32
 322              		.loc 2 67 0
 323 0006 2B68     		ldr	r3, [r5]
 324 0008 0393     		str	r3, [sp, #12]
 325              		.loc 2 70 0
 326 000a 0029     		cmp	r1, #0
 327 000c 0ADD     		ble	.L21
 328              	.LVL22:
 329              	.LBB120:
 330              	.LBB121:
 331              		.loc 2 56 0
 332 000e 039A     		ldr	r2, [sp, #12]
 333              	.LVL23:
 334 0010 2B68     		ldr	r3, [r5]
 335 0012 9A42     		cmp	r2, r3
 336 0014 37D1     		bne	.L25
 337 0016 1E4A     		ldr	r2, .L26+4
 338 0018 1E49     		ldr	r1, .L26+8
 339              	.LVL24:
 340              	.LBE121:
 341              	.LBE120:
 342              		.loc 2 97 0
ARM GAS  /tmp/cc4x3UyX.s 			page 7


 343 001a 05B0     		add	sp, sp, #20
 344              		.cfi_remember_state
 345              		.cfi_def_cfa_offset 12
 346              		@ sp needed
 347 001c BDE83040 		pop	{r4, r5, lr}
 348              		.cfi_restore 14
 349              		.cfi_restore 5
 350              		.cfi_restore 4
 351              		.cfi_def_cfa_offset 0
 352              	.LBB123:
 353              	.LBB122:
 354              		.loc 2 56 0
 355 0020 FFF7FEBF 		b	chprintf
 356              	.LVL25:
 357              	.L21:
 358              		.cfi_restore_state
 359 0024 0446     		mov	r4, r0
 360              	.LVL26:
 361              	.LBE122:
 362              	.LBE123:
 363              	.LBB124:
 364              	.LBB125:
 365              		.loc 2 75 0
 366 0026 1C4A     		ldr	r2, .L26+12
 367              	.LVL27:
 368 0028 1C49     		ldr	r1, .L26+16
 369              	.LVL28:
 370 002a FFF7FEFF 		bl	chprintf
 371              	.LVL29:
 372              		.loc 2 77 0
 373 002e 1C4A     		ldr	r2, .L26+20
 374 0030 1C49     		ldr	r1, .L26+24
 375 0032 2046     		mov	r0, r4
 376 0034 FFF7FEFF 		bl	chprintf
 377              	.LVL30:
 378              		.loc 2 79 0
 379 0038 1B4A     		ldr	r2, .L26+28
 380 003a 1C49     		ldr	r1, .L26+32
 381 003c 2046     		mov	r0, r4
 382 003e FFF7FEFF 		bl	chprintf
 383              	.LVL31:
 384              		.loc 2 81 0
 385 0042 1B4A     		ldr	r2, .L26+36
 386 0044 1B49     		ldr	r1, .L26+40
 387 0046 2046     		mov	r0, r4
 388 0048 FFF7FEFF 		bl	chprintf
 389              	.LVL32:
 390              		.loc 2 84 0
 391 004c 1A4A     		ldr	r2, .L26+44
 392 004e 1B49     		ldr	r1, .L26+48
 393 0050 2046     		mov	r0, r4
 394 0052 FFF7FEFF 		bl	chprintf
 395              	.LVL33:
 396              		.loc 2 87 0
 397 0056 1A4A     		ldr	r2, .L26+52
 398 0058 1A49     		ldr	r1, .L26+56
 399 005a 2046     		mov	r0, r4
ARM GAS  /tmp/cc4x3UyX.s 			page 8


 400 005c FFF7FEFF 		bl	chprintf
 401              	.LVL34:
 402              		.loc 2 90 0
 403 0060 194A     		ldr	r2, .L26+60
 404 0062 1A49     		ldr	r1, .L26+64
 405 0064 2046     		mov	r0, r4
 406 0066 FFF7FEFF 		bl	chprintf
 407              	.LVL35:
 408              		.loc 2 94 0
 409 006a 194B     		ldr	r3, .L26+68
 410 006c 0093     		str	r3, [sp]
 411 006e 194A     		ldr	r2, .L26+72
 412 0070 194B     		ldr	r3, .L26+76
 413 0072 1A49     		ldr	r1, .L26+80
 414 0074 2046     		mov	r0, r4
 415 0076 FFF7FEFF 		bl	chprintf
 416              	.LVL36:
 417              	.LBE125:
 418              	.LBE124:
 419              		.loc 2 97 0
 420 007a 039A     		ldr	r2, [sp, #12]
 421 007c 2B68     		ldr	r3, [r5]
 422 007e 9A42     		cmp	r2, r3
 423 0080 01D1     		bne	.L25
 424 0082 05B0     		add	sp, sp, #20
 425              		.cfi_remember_state
 426              		.cfi_def_cfa_offset 12
 427              		@ sp needed
 428 0084 30BD     		pop	{r4, r5, pc}
 429              	.LVL37:
 430              	.L25:
 431              		.cfi_restore_state
 432 0086 FFF7FEFF 		bl	__stack_chk_fail
 433              	.LVL38:
 434              	.L27:
 435 008a 00BF     		.align	2
 436              	.L26:
 437 008c 00000000 		.word	__stack_chk_guard
 438 0090 00000000 		.word	.LC3
 439 0094 08000000 		.word	.LC1
 440 0098 08000000 		.word	.LC4
 441 009c 10000000 		.word	.LC5
 442 00a0 24000000 		.word	.LC6
 443 00a4 6C000000 		.word	.LC7
 444 00a8 80000000 		.word	.LC8
 445 00ac 8C000000 		.word	.LC9
 446 00b0 A0000000 		.word	.LC10
 447 00b4 AC000000 		.word	.LC11
 448 00b8 C0000000 		.word	.LC12
 449 00bc D8000000 		.word	.LC13
 450 00c0 EC000000 		.word	.LC14
 451 00c4 18010000 		.word	.LC15
 452 00c8 2C010000 		.word	.LC16
 453 00cc 50010000 		.word	.LC17
 454 00d0 8C010000 		.word	.LC21
 455 00d4 68010000 		.word	.LC19
 456 00d8 64010000 		.word	.LC18
ARM GAS  /tmp/cc4x3UyX.s 			page 9


 457 00dc 74010000 		.word	.LC20
 458              		.cfi_endproc
 459              	.LFE260:
 460              		.size	cmd_info, .-cmd_info
 461              		.section	.text._strtok.constprop.2,"ax",%progbits
 462              		.align	1
 463              		.p2align 4,,15
 464              		.syntax unified
 465              		.thumb
 466              		.thumb_func
 467              		.fpu fpv4-sp-d16
 468              		.type	_strtok.constprop.2, %function
 469              	_strtok.constprop.2:
 470              	.LFB271:
 471              		.loc 2 37 0
 472              		.cfi_startproc
 473              		@ args = 0, pretend = 0, frame = 8
 474              		@ frame_needed = 0, uses_anonymous_args = 0
 475              	.LVL39:
 476 0000 70B5     		push	{r4, r5, r6, lr}
 477              		.cfi_def_cfa_offset 16
 478              		.cfi_offset 4, -16
 479              		.cfi_offset 5, -12
 480              		.cfi_offset 6, -8
 481              		.cfi_offset 14, -4
 482 0002 144D     		ldr	r5, .L42
 483 0004 82B0     		sub	sp, sp, #8
 484              		.cfi_def_cfa_offset 24
 485              		.loc 2 37 0
 486 0006 2B68     		ldr	r3, [r5]
 487 0008 0193     		str	r3, [sp, #4]
 488              	.LVL40:
 489 000a 0E46     		mov	r6, r1
 490              		.loc 2 39 0
 491 000c C0B1     		cbz	r0, .L29
 492 000e 0446     		mov	r4, r0
 493              		.loc 2 40 0
 494 0010 3060     		str	r0, [r6]
 495              	.LVL41:
 496              	.L30:
 497              		.loc 2 46 0
 498 0012 1149     		ldr	r1, .L42+4
 499              	.LVL42:
 500 0014 2046     		mov	r0, r4
 501              	.LVL43:
 502 0016 FFF7FEFF 		bl	strspn
 503              	.LVL44:
 504 001a 0444     		add	r4, r4, r0
 505              	.LVL45:
 506              		.loc 2 47 0
 507 001c 2046     		mov	r0, r4
 508 001e 0E49     		ldr	r1, .L42+4
 509 0020 FFF7FEFF 		bl	strpbrk
 510              	.LVL46:
 511              		.loc 2 48 0
 512 0024 88B1     		cbz	r0, .L40
 513              		.loc 2 49 0
ARM GAS  /tmp/cc4x3UyX.s 			page 10


 514 0026 421C     		adds	r2, r0, #1
 515 0028 0023     		movs	r3, #0
 516 002a 3260     		str	r2, [r6]
 517 002c 0370     		strb	r3, [r0]
 518              	.L33:
 519              		.loc 2 51 0
 520 002e 2378     		ldrb	r3, [r4]	@ zero_extendqisi2
 521 0030 4BB1     		cbz	r3, .L31
 522              	.LVL47:
 523              	.L28:
 524              		.loc 2 52 0
 525 0032 019A     		ldr	r2, [sp, #4]
 526 0034 2B68     		ldr	r3, [r5]
 527 0036 9A42     		cmp	r2, r3
 528 0038 2046     		mov	r0, r4
 529 003a 08D1     		bne	.L41
 530 003c 02B0     		add	sp, sp, #8
 531              		.cfi_remember_state
 532              		.cfi_def_cfa_offset 16
 533              		@ sp needed
 534 003e 70BD     		pop	{r4, r5, r6, pc}
 535              	.LVL48:
 536              	.L29:
 537              		.cfi_restore_state
 538              		.loc 2 41 0
 539 0040 0C68     		ldr	r4, [r1]
 540              	.LVL49:
 541              		.loc 2 43 0
 542 0042 002C     		cmp	r4, #0
 543 0044 E5D1     		bne	.L30
 544              	.LVL50:
 545              	.L31:
 546              		.loc 2 51 0
 547 0046 0024     		movs	r4, #0
 548              	.LVL51:
 549 0048 F3E7     		b	.L28
 550              	.LVL52:
 551              	.L40:
 552              		.loc 2 47 0
 553 004a 3060     		str	r0, [r6]
 554 004c EFE7     		b	.L33
 555              	.LVL53:
 556              	.L41:
 557              		.loc 2 52 0
 558 004e FFF7FEFF 		bl	__stack_chk_fail
 559              	.LVL54:
 560              	.L43:
 561 0052 00BF     		.align	2
 562              	.L42:
 563 0054 00000000 		.word	__stack_chk_guard
 564 0058 00000000 		.word	.LC22
 565              		.cfi_endproc
 566              	.LFE271:
 567              		.size	_strtok.constprop.2, .-_strtok.constprop.2
 568              		.section	.text.shellInit,"ax",%progbits
 569              		.align	1
 570              		.p2align 4,,15
ARM GAS  /tmp/cc4x3UyX.s 			page 11


 571              		.global	shellInit
 572              		.syntax unified
 573              		.thumb
 574              		.thumb_func
 575              		.fpu fpv4-sp-d16
 576              		.type	shellInit, %function
 577              	shellInit:
 578              	.LFB264:
 579              		.loc 2 197 0
 580              		.cfi_startproc
 581              		@ args = 0, pretend = 0, frame = 8
 582              		@ frame_needed = 0, uses_anonymous_args = 0
 583 0000 00B5     		push	{lr}
 584              		.cfi_def_cfa_offset 4
 585              		.cfi_offset 14, -4
 586 0002 074A     		ldr	r2, .L48
 587              	.LBB126:
 588              	.LBB127:
 589              		.file 6 "../e-puck2_main-processor/ChibiOS//os/rt/include/chevents.h"
 590              		.loc 6 172 0
 591 0004 074B     		ldr	r3, .L48+4
 592              	.LBE127:
 593              	.LBE126:
 594              		.loc 2 197 0
 595 0006 1168     		ldr	r1, [r2]
 596              	.LBB129:
 597              	.LBB128:
 598              		.loc 6 172 0
 599 0008 1B60     		str	r3, [r3]
 600              	.LBE128:
 601              	.LBE129:
 602              		.loc 2 197 0
 603 000a 83B0     		sub	sp, sp, #12
 604              		.cfi_def_cfa_offset 16
 605              		.loc 2 197 0
 606 000c 0191     		str	r1, [sp, #4]
 607              	.LVL55:
 608              		.loc 2 200 0
 609 000e 0199     		ldr	r1, [sp, #4]
 610 0010 1268     		ldr	r2, [r2]
 611 0012 9142     		cmp	r1, r2
 612 0014 02D1     		bne	.L47
 613 0016 03B0     		add	sp, sp, #12
 614              		.cfi_remember_state
 615              		.cfi_def_cfa_offset 4
 616              		@ sp needed
 617 0018 5DF804FB 		ldr	pc, [sp], #4
 618              	.L47:
 619              		.cfi_restore_state
 620 001c FFF7FEFF 		bl	__stack_chk_fail
 621              	.LVL56:
 622              	.L49:
 623              		.align	2
 624              	.L48:
 625 0020 00000000 		.word	__stack_chk_guard
 626 0024 00000000 		.word	.LANCHOR1
 627              		.cfi_endproc
ARM GAS  /tmp/cc4x3UyX.s 			page 12


 628              	.LFE264:
 629              		.size	shellInit, .-shellInit
 630              		.section	.text.shellExit,"ax",%progbits
 631              		.align	1
 632              		.p2align 4,,15
 633              		.global	shellExit
 634              		.syntax unified
 635              		.thumb
 636              		.thumb_func
 637              		.fpu fpv4-sp-d16
 638              		.type	shellExit, %function
 639              	shellExit:
 640              	.LFB265:
 641              		.loc 2 211 0
 642              		.cfi_startproc
 643              		@ args = 0, pretend = 0, frame = 8
 644              		@ frame_needed = 0, uses_anonymous_args = 0
 645              	.LVL57:
 646 0000 30B5     		push	{r4, r5, lr}
 647              		.cfi_def_cfa_offset 12
 648              		.cfi_offset 4, -12
 649              		.cfi_offset 5, -8
 650              		.cfi_offset 14, -4
 651 0002 0E4C     		ldr	r4, .L55
 652 0004 83B0     		sub	sp, sp, #12
 653              		.cfi_def_cfa_offset 24
 654              		.loc 2 211 0
 655 0006 2368     		ldr	r3, [r4]
 656 0008 0193     		str	r3, [sp, #4]
 657              	.LVL58:
 658 000a 0546     		mov	r5, r0
 659              	.LBB130:
 660              	.LBB131:
 661              	.LBB132:
 662              	.LBB133:
 663              	.LBB134:
 664              		.loc 3 546 0
 665 000c 2023     		movs	r3, #32
 666              		.syntax unified
 667              	@ 546 "../e-puck2_main-processor/ChibiOS//os/ext/CMSIS/include/core_cmFunc.h" 1
 668 000e 83F31188 		MSR basepri, r3
 669              	@ 0 "" 2
 670              	.LVL59:
 671              		.thumb
 672              		.syntax unified
 673              	.LBE134:
 674              	.LBE133:
 675              	.LBE132:
 676              		.loc 5 349 0
 677 0012 FFF7FEFF 		bl	_stats_start_measure_crit_thd
 678              	.LVL60:
 679              		.loc 5 350 0
 680 0016 FFF7FEFF 		bl	_dbg_check_lock
 681              	.LVL61:
 682              	.LBE131:
 683              	.LBE130:
 684              	.LBB135:
ARM GAS  /tmp/cc4x3UyX.s 			page 13


 685              	.LBB136:
 686              		.loc 6 256 0
 687 001a 0021     		movs	r1, #0
 688 001c 0848     		ldr	r0, .L55+4
 689 001e FFF7FEFF 		bl	chEvtBroadcastFlagsI
 690              	.LVL62:
 691              	.LBE136:
 692              	.LBE135:
 693              		.loc 2 217 0
 694 0022 019A     		ldr	r2, [sp, #4]
 695 0024 2368     		ldr	r3, [r4]
 696 0026 9A42     		cmp	r2, r3
 697 0028 05D1     		bne	.L54
 698 002a 2846     		mov	r0, r5
 699              		.loc 2 218 0
 700 002c 03B0     		add	sp, sp, #12
 701              		.cfi_remember_state
 702              		.cfi_def_cfa_offset 12
 703              		@ sp needed
 704 002e BDE83040 		pop	{r4, r5, lr}
 705              		.cfi_restore 14
 706              		.cfi_restore 5
 707              		.cfi_restore 4
 708              		.cfi_def_cfa_offset 0
 709              	.LVL63:
 710              		.loc 2 217 0
 711 0032 FFF7FEBF 		b	chThdExitS
 712              	.LVL64:
 713              	.L54:
 714              		.cfi_restore_state
 715 0036 FFF7FEFF 		bl	__stack_chk_fail
 716              	.LVL65:
 717              	.L56:
 718 003a 00BF     		.align	2
 719              	.L55:
 720 003c 00000000 		.word	__stack_chk_guard
 721 0040 00000000 		.word	.LANCHOR1
 722              		.cfi_endproc
 723              	.LFE265:
 724              		.size	shellExit, .-shellExit
 725              		.section	.text.shellCreate,"ax",%progbits
 726              		.align	1
 727              		.p2align 4,,15
 728              		.global	shellCreate
 729              		.syntax unified
 730              		.thumb
 731              		.thumb_func
 732              		.fpu fpv4-sp-d16
 733              		.type	shellCreate, %function
 734              	shellCreate:
 735              	.LFB266:
 736              		.loc 2 233 0
 737              		.cfi_startproc
 738              		@ args = 0, pretend = 0, frame = 8
 739              		@ frame_needed = 0, uses_anonymous_args = 0
 740              	.LVL66:
 741 0000 10B5     		push	{r4, lr}
ARM GAS  /tmp/cc4x3UyX.s 			page 14


 742              		.cfi_def_cfa_offset 8
 743              		.cfi_offset 4, -8
 744              		.cfi_offset 14, -4
 745 0002 084C     		ldr	r4, .L61
 746              		.loc 2 235 0
 747 0004 084B     		ldr	r3, .L61+4
 748              		.loc 2 233 0
 749 0006 84B0     		sub	sp, sp, #16
 750              		.cfi_def_cfa_offset 24
 751              		.loc 2 235 0
 752 0008 0090     		str	r0, [sp]
 753              		.loc 2 233 0
 754 000a 2068     		ldr	r0, [r4]
 755              	.LVL67:
 756 000c 0390     		str	r0, [sp, #12]
 757              		.loc 2 235 0
 758 000e 0020     		movs	r0, #0
 759 0010 FFF7FEFF 		bl	chThdCreateFromHeap
 760              	.LVL68:
 761              		.loc 2 236 0
 762 0014 039A     		ldr	r2, [sp, #12]
 763 0016 2368     		ldr	r3, [r4]
 764 0018 9A42     		cmp	r2, r3
 765 001a 01D1     		bne	.L60
 766 001c 04B0     		add	sp, sp, #16
 767              		.cfi_remember_state
 768              		.cfi_def_cfa_offset 8
 769              		@ sp needed
 770 001e 10BD     		pop	{r4, pc}
 771              	.L60:
 772              		.cfi_restore_state
 773 0020 FFF7FEFF 		bl	__stack_chk_fail
 774              	.LVL69:
 775              	.L62:
 776              		.align	2
 777              	.L61:
 778 0024 00000000 		.word	__stack_chk_guard
 779 0028 00000000 		.word	shell_thread
 780              		.cfi_endproc
 781              	.LFE266:
 782              		.size	shellCreate, .-shellCreate
 783              		.section	.text.shellCreateStatic,"ax",%progbits
 784              		.align	1
 785              		.p2align 4,,15
 786              		.global	shellCreateStatic
 787              		.syntax unified
 788              		.thumb
 789              		.thumb_func
 790              		.fpu fpv4-sp-d16
 791              		.type	shellCreateStatic, %function
 792              	shellCreateStatic:
 793              	.LFB267:
 794              		.loc 2 251 0
 795              		.cfi_startproc
 796              		@ args = 0, pretend = 0, frame = 8
 797              		@ frame_needed = 0, uses_anonymous_args = 0
 798              	.LVL70:
ARM GAS  /tmp/cc4x3UyX.s 			page 15


 799 0000 30B5     		push	{r4, r5, lr}
 800              		.cfi_def_cfa_offset 12
 801              		.cfi_offset 4, -12
 802              		.cfi_offset 5, -8
 803              		.cfi_offset 14, -4
 804 0002 094C     		ldr	r4, .L67
 805 0004 85B0     		sub	sp, sp, #20
 806              		.cfi_def_cfa_offset 32
 807              		.loc 2 251 0
 808 0006 2568     		ldr	r5, [r4]
 809              		.loc 2 253 0
 810 0008 0090     		str	r0, [sp]
 811              		.loc 2 251 0
 812 000a 0846     		mov	r0, r1
 813              	.LVL71:
 814              		.loc 2 253 0
 815 000c 1146     		mov	r1, r2
 816              	.LVL72:
 817 000e 1A46     		mov	r2, r3
 818              	.LVL73:
 819 0010 064B     		ldr	r3, .L67+4
 820              	.LVL74:
 821              		.loc 2 251 0
 822 0012 0395     		str	r5, [sp, #12]
 823              		.loc 2 253 0
 824 0014 FFF7FEFF 		bl	chThdCreateStatic
 825              	.LVL75:
 826              		.loc 2 254 0
 827 0018 039A     		ldr	r2, [sp, #12]
 828 001a 2368     		ldr	r3, [r4]
 829 001c 9A42     		cmp	r2, r3
 830 001e 01D1     		bne	.L66
 831 0020 05B0     		add	sp, sp, #20
 832              		.cfi_remember_state
 833              		.cfi_def_cfa_offset 12
 834              		@ sp needed
 835 0022 30BD     		pop	{r4, r5, pc}
 836              	.L66:
 837              		.cfi_restore_state
 838 0024 FFF7FEFF 		bl	__stack_chk_fail
 839              	.LVL76:
 840              	.L68:
 841              		.align	2
 842              	.L67:
 843 0028 00000000 		.word	__stack_chk_guard
 844 002c 00000000 		.word	shell_thread
 845              		.cfi_endproc
 846              	.LFE267:
 847              		.size	shellCreateStatic, .-shellCreateStatic
 848              		.section	.text.shellGetLine,"ax",%progbits
 849              		.align	1
 850              		.p2align 4,,15
 851              		.global	shellGetLine
 852              		.syntax unified
 853              		.thumb
 854              		.thumb_func
 855              		.fpu fpv4-sp-d16
ARM GAS  /tmp/cc4x3UyX.s 			page 16


 856              		.type	shellGetLine, %function
 857              	shellGetLine:
 858              	.LFB268:
 859              		.loc 2 268 0
 860              		.cfi_startproc
 861              		@ args = 0, pretend = 0, frame = 8
 862              		@ frame_needed = 0, uses_anonymous_args = 0
 863              	.LVL77:
 864 0000 2DE9F041 		push	{r4, r5, r6, r7, r8, lr}
 865              		.cfi_def_cfa_offset 24
 866              		.cfi_offset 4, -24
 867              		.cfi_offset 5, -20
 868              		.cfi_offset 6, -16
 869              		.cfi_offset 7, -12
 870              		.cfi_offset 8, -8
 871              		.cfi_offset 14, -4
 872 0004 DFF8B480 		ldr	r8, .L89+8
 873 0008 0368     		ldr	r3, [r0]
 874 000a 82B0     		sub	sp, sp, #8
 875              		.cfi_def_cfa_offset 32
 876              		.loc 2 268 0
 877 000c 0446     		mov	r4, r0
 878              	.LBB137:
 879              		.loc 2 296 0
 880 000e 013A     		subs	r2, r2, #1
 881              	.LVL78:
 882              	.LBE137:
 883              		.loc 2 268 0
 884 0010 D8F80000 		ldr	r0, [r8]
 885              	.LVL79:
 886 0014 0190     		str	r0, [sp, #4]
 887 0016 0F46     		mov	r7, r1
 888              	.LVL80:
 889              	.LBB138:
 890              		.loc 2 296 0
 891 0018 8E18     		adds	r6, r1, r2
 892              	.LBE138:
 893              		.loc 2 268 0
 894 001a 0D46     		mov	r5, r1
 895              	.LVL81:
 896              	.L70:
 897              	.LBB139:
 898              		.loc 2 274 0
 899 001c 5B68     		ldr	r3, [r3, #4]
 900 001e 0122     		movs	r2, #1
 901 0020 0DF10301 		add	r1, sp, #3
 902 0024 2046     		mov	r0, r4
 903 0026 9847     		blx	r3
 904              	.LVL82:
 905 0028 58B3     		cbz	r0, .L80
 906              		.loc 2 276 0
 907 002a 9DF80310 		ldrb	r1, [sp, #3]	@ zero_extendqisi2
 908 002e 0429     		cmp	r1, #4
 909 0030 30D0     		beq	.L86
 910              		.loc 2 280 0
 911 0032 0829     		cmp	r1, #8
 912 0034 11D0     		beq	.L73
ARM GAS  /tmp/cc4x3UyX.s 			page 17


 913              		.loc 2 280 0 is_stmt 0 discriminator 1
 914 0036 7F29     		cmp	r1, #127
 915 0038 0FD0     		beq	.L73
 916              		.loc 2 289 0 is_stmt 1
 917 003a 0D29     		cmp	r1, #13
 918 003c 30D0     		beq	.L87
 919              		.loc 2 294 0
 920 003e 1F29     		cmp	r1, #31
 921 0040 2368     		ldr	r3, [r4]
 922 0042 EBD9     		bls	.L70
 923              		.loc 2 296 0
 924 0044 B542     		cmp	r5, r6
 925 0046 E9D2     		bcs	.L70
 926              		.loc 2 297 0
 927 0048 9B68     		ldr	r3, [r3, #8]
 928 004a 2046     		mov	r0, r4
 929 004c 9847     		blx	r3
 930              	.LVL83:
 931              		.loc 2 298 0
 932 004e 9DF80330 		ldrb	r3, [sp, #3]	@ zero_extendqisi2
 933 0052 2B70     		strb	r3, [r5]
 934 0054 2368     		ldr	r3, [r4]
 935 0056 0135     		adds	r5, r5, #1
 936              	.LVL84:
 937 0058 E0E7     		b	.L70
 938              	.L73:
 939              		.loc 2 281 0
 940 005a BD42     		cmp	r5, r7
 941 005c 2368     		ldr	r3, [r4]
 942 005e DDD0     		beq	.L70
 943              		.loc 2 282 0
 944 0060 9B68     		ldr	r3, [r3, #8]
 945 0062 2046     		mov	r0, r4
 946 0064 9847     		blx	r3
 947              	.LVL85:
 948              		.loc 2 283 0
 949 0066 2368     		ldr	r3, [r4]
 950 0068 2021     		movs	r1, #32
 951 006a 9B68     		ldr	r3, [r3, #8]
 952 006c 2046     		mov	r0, r4
 953 006e 9847     		blx	r3
 954              	.LVL86:
 955              		.loc 2 284 0
 956 0070 2368     		ldr	r3, [r4]
 957 0072 9DF80310 		ldrb	r1, [sp, #3]	@ zero_extendqisi2
 958 0076 9B68     		ldr	r3, [r3, #8]
 959 0078 2046     		mov	r0, r4
 960 007a 9847     		blx	r3
 961              	.LVL87:
 962              		.loc 2 285 0
 963 007c 013D     		subs	r5, r5, #1
 964              	.LVL88:
 965 007e 2368     		ldr	r3, [r4]
 966 0080 CCE7     		b	.L70
 967              	.L80:
 968              		.loc 2 275 0
 969 0082 0120     		movs	r0, #1
ARM GAS  /tmp/cc4x3UyX.s 			page 18


 970              	.L71:
 971              	.LBE139:
 972              		.loc 2 301 0 discriminator 1
 973 0084 019A     		ldr	r2, [sp, #4]
 974 0086 D8F80030 		ldr	r3, [r8]
 975 008a 9A42     		cmp	r2, r3
 976 008c 0FD1     		bne	.L88
 977              		.loc 2 301 0 is_stmt 0
 978 008e 02B0     		add	sp, sp, #8
 979              		.cfi_remember_state
 980              		.cfi_def_cfa_offset 24
 981              		@ sp needed
 982 0090 BDE8F081 		pop	{r4, r5, r6, r7, r8, pc}
 983              	.LVL89:
 984              	.L86:
 985              		.cfi_restore_state
 986              	.LBB140:
 987              		.loc 2 277 0 is_stmt 1
 988 0094 2046     		mov	r0, r4
 989 0096 0749     		ldr	r1, .L89
 990 0098 FFF7FEFF 		bl	chprintf
 991              	.LVL90:
 992              		.loc 2 278 0
 993 009c 0120     		movs	r0, #1
 994 009e F1E7     		b	.L71
 995              	.L87:
 996              		.loc 2 290 0
 997 00a0 2046     		mov	r0, r4
 998 00a2 0549     		ldr	r1, .L89+4
 999 00a4 FFF7FEFF 		bl	chprintf
 1000              	.LVL91:
 1001              		.loc 2 291 0
 1002 00a8 0020     		movs	r0, #0
 1003 00aa 2870     		strb	r0, [r5]
 1004              		.loc 2 292 0
 1005 00ac EAE7     		b	.L71
 1006              	.L88:
 1007              	.LBE140:
 1008              		.loc 2 301 0
 1009 00ae FFF7FEFF 		bl	__stack_chk_fail
 1010              	.LVL92:
 1011              	.L90:
 1012 00b2 00BF     		.align	2
 1013              	.L89:
 1014 00b4 00000000 		.word	.LC23
 1015 00b8 04000000 		.word	.LC24
 1016 00bc 00000000 		.word	__stack_chk_guard
 1017              		.cfi_endproc
 1018              	.LFE268:
 1019              		.size	shellGetLine, .-shellGetLine
 1020              		.section	.text.shell_thread,"ax",%progbits
 1021              		.align	1
 1022              		.p2align 4,,15
 1023              		.syntax unified
 1024              		.thumb
 1025              		.thumb_func
 1026              		.fpu fpv4-sp-d16
ARM GAS  /tmp/cc4x3UyX.s 			page 19


 1027              		.type	shell_thread, %function
 1028              	shell_thread:
 1029              	.LFB263:
 1030              		.loc 2 136 0
 1031              		.cfi_startproc
 1032              		@ args = 0, pretend = 0, frame = 104
 1033              		@ frame_needed = 0, uses_anonymous_args = 0
 1034              	.LVL93:
 1035 0000 2DE9F04F 		push	{r4, r5, r6, r7, r8, r9, r10, fp, lr}
 1036              		.cfi_def_cfa_offset 36
 1037              		.cfi_offset 4, -36
 1038              		.cfi_offset 5, -32
 1039              		.cfi_offset 6, -28
 1040              		.cfi_offset 7, -24
 1041              		.cfi_offset 8, -20
 1042              		.cfi_offset 9, -16
 1043              		.cfi_offset 10, -12
 1044              		.cfi_offset 11, -8
 1045              		.cfi_offset 14, -4
 1046              	.LBB155:
 1047              	.LBB156:
 1048              		.file 7 "../e-puck2_main-processor/ChibiOS//os/rt/include/chregistry.h"
 1049              		.loc 7 135 0
 1050 0004 5E4B     		ldr	r3, .L147
 1051              	.LBE156:
 1052              	.LBE155:
 1053              		.loc 2 138 0
 1054 0006 0668     		ldr	r6, [r0]
 1055              	.LVL94:
 1056              	.LBB159:
 1057              	.LBB157:
 1058              		.loc 7 135 0
 1059 0008 9A69     		ldr	r2, [r3, #24]
 1060              	.LBE157:
 1061              	.LBE159:
 1062              		.loc 2 136 0
 1063 000a DFF8A491 		ldr	r9, .L147+48
 1064              		.loc 2 139 0
 1065 000e 4368     		ldr	r3, [r0, #4]
 1066              	.LBB160:
 1067              	.LBB158:
 1068              		.loc 7 135 0
 1069 0010 5C49     		ldr	r1, .L147+4
 1070 0012 9161     		str	r1, [r2, #24]
 1071              	.LBE158:
 1072              	.LBE160:
 1073              		.loc 2 136 0
 1074 0014 9BB0     		sub	sp, sp, #108
 1075              		.cfi_def_cfa_offset 144
 1076              		.loc 2 144 0
 1077 0016 3046     		mov	r0, r6
 1078              	.LVL95:
 1079              		.loc 2 139 0
 1080 0018 0193     		str	r3, [sp, #4]
 1081              	.LVL96:
 1082              		.loc 2 144 0
 1083 001a 5B49     		ldr	r1, .L147+8
ARM GAS  /tmp/cc4x3UyX.s 			page 20


 1084              		.loc 2 136 0
 1085 001c D9F80030 		ldr	r3, [r9]
 1086              	.LVL97:
 1087 0020 1993     		str	r3, [sp, #100]
 1088              		.loc 2 144 0
 1089 0022 FFF7FEFF 		bl	chprintf
 1090              	.LVL98:
 1091              		.loc 2 146 0
 1092 0026 DFF88C81 		ldr	r8, .L147+52
 1093              		.loc 2 164 0
 1094 002a DFF88CA1 		ldr	r10, .L147+56
 1095              		.loc 2 171 0
 1096 002e DFF88CB1 		ldr	fp, .L147+60
 1097              	.L92:
 1098              		.loc 2 146 0
 1099 0032 4146     		mov	r1, r8
 1100 0034 3046     		mov	r0, r6
 1101 0036 FFF7FEFF 		bl	chprintf
 1102              	.LVL99:
 1103              		.loc 2 147 0
 1104 003a 4022     		movs	r2, #64
 1105 003c 09A9     		add	r1, sp, #36
 1106 003e 3046     		mov	r0, r6
 1107 0040 FFF7FEFF 		bl	shellGetLine
 1108              	.LVL100:
 1109 0044 0446     		mov	r4, r0
 1110 0046 0028     		cmp	r0, #0
 1111 0048 40D1     		bne	.L141
 1112              		.loc 2 151 0
 1113 004a 03A9     		add	r1, sp, #12
 1114 004c 09A8     		add	r0, sp, #36
 1115 004e FFF7FEFF 		bl	_strtok.constprop.2
 1116              	.LVL101:
 1117              		.loc 2 154 0
 1118 0052 03A9     		add	r1, sp, #12
 1119              		.loc 2 151 0
 1120 0054 0746     		mov	r7, r0
 1121              	.LVL102:
 1122              		.loc 2 154 0
 1123 0056 0020     		movs	r0, #0
 1124              	.LVL103:
 1125 0058 04AD     		add	r5, sp, #16
 1126 005a FFF7FEFF 		bl	_strtok.constprop.2
 1127              	.LVL104:
 1128 005e 50B1     		cbz	r0, .L142
 1129              	.L98:
 1130              		.loc 2 155 0
 1131 0060 042C     		cmp	r4, #4
 1132 0062 20D0     		beq	.L143
 1133              		.loc 2 160 0
 1134 0064 45F8040B 		str	r0, [r5], #4
 1135              		.loc 2 154 0
 1136 0068 03A9     		add	r1, sp, #12
 1137 006a 0020     		movs	r0, #0
 1138              	.LVL105:
 1139              		.loc 2 160 0
 1140 006c 0134     		adds	r4, r4, #1
ARM GAS  /tmp/cc4x3UyX.s 			page 21


 1141              	.LVL106:
 1142              		.loc 2 154 0
 1143 006e FFF7FEFF 		bl	_strtok.constprop.2
 1144              	.LVL107:
 1145 0072 0028     		cmp	r0, #0
 1146 0074 F4D1     		bne	.L98
 1147              	.L142:
 1148              		.loc 2 162 0
 1149 0076 1AAB     		add	r3, sp, #104
 1150 0078 03EB8403 		add	r3, r3, r4, lsl #2
 1151 007c 43F8580C 		str	r0, [r3, #-88]
 1152              		.loc 2 163 0
 1153 0080 002F     		cmp	r7, #0
 1154 0082 D6D0     		beq	.L92
 1155              		.loc 2 164 0
 1156 0084 5146     		mov	r1, r10
 1157 0086 3846     		mov	r0, r7
 1158              	.LVL108:
 1159 0088 FFF7FEFF 		bl	strcasecmp
 1160              	.LVL109:
 1161 008c 90B9     		cbnz	r0, .L99
 1162              		.loc 2 165 0
 1163 008e 14BB     		cbnz	r4, .L144
 1164              	.LVL110:
 1165              	.L94:
 1166              		.loc 2 189 0
 1167 0090 0020     		movs	r0, #0
 1168 0092 FFF7FEFF 		bl	shellExit
 1169              	.LVL111:
 1170              		.loc 2 190 0
 1171 0096 199A     		ldr	r2, [sp, #100]
 1172 0098 D9F80030 		ldr	r3, [r9]
 1173 009c 9A42     		cmp	r2, r3
 1174 009e 6CD1     		bne	.L145
 1175 00a0 1BB0     		add	sp, sp, #108
 1176              		.cfi_remember_state
 1177              		.cfi_def_cfa_offset 36
 1178              		@ sp needed
 1179 00a2 BDE8F08F 		pop	{r4, r5, r6, r7, r8, r9, r10, fp, pc}
 1180              	.LVL112:
 1181              	.L143:
 1182              		.cfi_restore_state
 1183              		.loc 2 156 0
 1184 00a6 3949     		ldr	r1, .L147+12
 1185 00a8 3046     		mov	r0, r6
 1186              	.LVL113:
 1187 00aa FFF7FEFF 		bl	chprintf
 1188              	.LVL114:
 1189              		.loc 2 162 0
 1190 00ae 0023     		movs	r3, #0
 1191 00b0 0893     		str	r3, [sp, #32]
 1192 00b2 BEE7     		b	.L92
 1193              	.LVL115:
 1194              	.L99:
 1195              		.loc 2 171 0
 1196 00b4 5946     		mov	r1, fp
 1197 00b6 3846     		mov	r0, r7
ARM GAS  /tmp/cc4x3UyX.s 			page 22


 1198 00b8 FFF7FEFF 		bl	strcasecmp
 1199              	.LVL116:
 1200 00bc 88B9     		cbnz	r0, .L146
 1201              		.loc 2 172 0
 1202 00be 14B3     		cbz	r4, .L103
 1203              	.LVL117:
 1204              	.LBB161:
 1205              	.LBB162:
 1206              		.loc 2 56 0
 1207 00c0 5A46     		mov	r2, fp
 1208 00c2 3349     		ldr	r1, .L147+16
 1209 00c4 3046     		mov	r0, r6
 1210 00c6 FFF7FEFF 		bl	chprintf
 1211              	.LVL118:
 1212              	.LBE162:
 1213              	.LBE161:
 1214              		.loc 2 174 0
 1215 00ca B2E7     		b	.L92
 1216              	.LVL119:
 1217              	.L141:
 1218              		.loc 2 148 0
 1219 00cc 3046     		mov	r0, r6
 1220 00ce 3149     		ldr	r1, .L147+20
 1221 00d0 FFF7FEFF 		bl	chprintf
 1222              	.LVL120:
 1223              		.loc 2 149 0
 1224 00d4 DCE7     		b	.L94
 1225              	.LVL121:
 1226              	.L144:
 1227              	.LBB163:
 1228              	.LBB164:
 1229              		.loc 2 56 0
 1230 00d6 5246     		mov	r2, r10
 1231 00d8 2D49     		ldr	r1, .L147+16
 1232 00da 3046     		mov	r0, r6
 1233 00dc FFF7FEFF 		bl	chprintf
 1234              	.LVL122:
 1235              	.LBE164:
 1236              	.LBE163:
 1237              		.loc 2 167 0
 1238 00e0 A7E7     		b	.L92
 1239              	.L146:
 1240              	.LVL123:
 1241              	.LBB165:
 1242              	.LBB166:
 1243              		.loc 2 121 0
 1244 00e2 2D4D     		ldr	r5, .L147+24
 1245 00e4 2868     		ldr	r0, [r5]
 1246 00e6 18B9     		cbnz	r0, .L109
 1247 00e8 2FE0     		b	.L102
 1248              	.LVL124:
 1249              	.L108:
 1250 00ea 55F8080F 		ldr	r0, [r5, #8]!
 1251              	.LVL125:
 1252 00ee 60B3     		cbz	r0, .L102
 1253              	.LVL126:
 1254              	.L109:
ARM GAS  /tmp/cc4x3UyX.s 			page 23


 1255              		.loc 2 122 0
 1256 00f0 3946     		mov	r1, r7
 1257 00f2 FFF7FEFF 		bl	strcasecmp
 1258              	.LVL127:
 1259 00f6 0028     		cmp	r0, #0
 1260 00f8 F7D1     		bne	.L108
 1261              	.LVL128:
 1262              	.L140:
 1263              	.LBE166:
 1264              	.LBE165:
 1265              	.LBB167:
 1266              	.LBB168:
 1267              		.loc 2 123 0
 1268 00fa 6B68     		ldr	r3, [r5, #4]
 1269 00fc 04AA     		add	r2, sp, #16
 1270 00fe 2146     		mov	r1, r4
 1271 0100 3046     		mov	r0, r6
 1272 0102 9847     		blx	r3
 1273              	.LVL129:
 1274 0104 95E7     		b	.L92
 1275              	.L103:
 1276              	.LBE168:
 1277              	.LBE167:
 1278              	.LBB170:
 1279              	.LBB171:
 1280              		.loc 2 61 0
 1281 0106 244D     		ldr	r5, .L147+24
 1282              	.LBE171:
 1283              	.LBE170:
 1284              		.loc 2 176 0
 1285 0108 2449     		ldr	r1, .L147+28
 1286 010a 3046     		mov	r0, r6
 1287 010c FFF7FEFF 		bl	chprintf
 1288              	.LVL130:
 1289              	.LBB173:
 1290              	.LBB172:
 1291              		.loc 2 61 0
 1292 0110 2A68     		ldr	r2, [r5]
 1293 0112 42B1     		cbz	r2, .L104
 1294              		.loc 2 62 0
 1295 0114 224C     		ldr	r4, .L147+32
 1296              	.LVL131:
 1297              	.L105:
 1298 0116 2146     		mov	r1, r4
 1299 0118 3046     		mov	r0, r6
 1300 011a FFF7FEFF 		bl	chprintf
 1301              	.LVL132:
 1302              		.loc 2 61 0
 1303 011e 55F8082F 		ldr	r2, [r5, #8]!
 1304              	.LVL133:
 1305 0122 002A     		cmp	r2, #0
 1306 0124 F7D1     		bne	.L105
 1307              	.LVL134:
 1308              	.L104:
 1309              	.LBE172:
 1310              	.LBE173:
 1311              		.loc 2 178 0
ARM GAS  /tmp/cc4x3UyX.s 			page 24


 1312 0126 019D     		ldr	r5, [sp, #4]
 1313 0128 55B1     		cbz	r5, .L106
 1314              	.LVL135:
 1315              	.LBB174:
 1316              	.LBB175:
 1317              		.loc 2 61 0
 1318 012a 2A68     		ldr	r2, [r5]
 1319 012c 42B1     		cbz	r2, .L106
 1320              		.loc 2 62 0
 1321 012e 1C4C     		ldr	r4, .L147+32
 1322              	.LVL136:
 1323              	.L107:
 1324 0130 2146     		mov	r1, r4
 1325 0132 3046     		mov	r0, r6
 1326 0134 FFF7FEFF 		bl	chprintf
 1327              	.LVL137:
 1328              		.loc 2 61 0
 1329 0138 55F8082F 		ldr	r2, [r5, #8]!
 1330              	.LVL138:
 1331 013c 002A     		cmp	r2, #0
 1332 013e F7D1     		bne	.L107
 1333              	.LVL139:
 1334              	.L106:
 1335              	.LBE175:
 1336              	.LBE174:
 1337              		.loc 2 180 0
 1338 0140 1849     		ldr	r1, .L147+36
 1339 0142 3046     		mov	r0, r6
 1340 0144 FFF7FEFF 		bl	chprintf
 1341              	.LVL140:
 1342 0148 73E7     		b	.L92
 1343              	.LVL141:
 1344              	.L102:
 1345              		.loc 2 182 0
 1346 014a 019D     		ldr	r5, [sp, #4]
 1347 014c 5DB1     		cbz	r5, .L110
 1348              	.LVL142:
 1349              	.LBB176:
 1350              	.LBB169:
 1351              		.loc 2 121 0
 1352 014e 2868     		ldr	r0, [r5]
 1353 0150 18B9     		cbnz	r0, .L112
 1354 0152 08E0     		b	.L110
 1355              	.L111:
 1356              	.LVL143:
 1357 0154 55F8080F 		ldr	r0, [r5, #8]!
 1358              	.LVL144:
 1359 0158 28B1     		cbz	r0, .L110
 1360              	.LVL145:
 1361              	.L112:
 1362              		.loc 2 122 0
 1363 015a 3946     		mov	r1, r7
 1364 015c FFF7FEFF 		bl	strcasecmp
 1365              	.LVL146:
 1366 0160 0028     		cmp	r0, #0
 1367 0162 F7D1     		bne	.L111
 1368 0164 C9E7     		b	.L140
ARM GAS  /tmp/cc4x3UyX.s 			page 25


 1369              	.LVL147:
 1370              	.L110:
 1371              	.LBE169:
 1372              	.LBE176:
 1373              		.loc 2 184 0
 1374 0166 3A46     		mov	r2, r7
 1375 0168 0F49     		ldr	r1, .L147+40
 1376 016a 3046     		mov	r0, r6
 1377 016c FFF7FEFF 		bl	chprintf
 1378              	.LVL148:
 1379              		.loc 2 185 0
 1380 0170 0E49     		ldr	r1, .L147+44
 1381 0172 3046     		mov	r0, r6
 1382 0174 FFF7FEFF 		bl	chprintf
 1383              	.LVL149:
 1384 0178 5BE7     		b	.L92
 1385              	.LVL150:
 1386              	.L145:
 1387              		.loc 2 190 0
 1388 017a FFF7FEFF 		bl	__stack_chk_fail
 1389              	.LVL151:
 1390              	.L148:
 1391 017e 00BF     		.align	2
 1392              	.L147:
 1393 0180 00000000 		.word	ch
 1394 0184 00000000 		.word	.LC25
 1395 0188 08000000 		.word	.LC26
 1396 018c 34000000 		.word	.LC29
 1397 0190 08000000 		.word	.LC1
 1398 0194 28000000 		.word	.LC28
 1399 0198 00000000 		.word	.LANCHOR2
 1400 019c 5C000000 		.word	.LC32
 1401 01a0 74000000 		.word	.LC33
 1402 01a4 04000000 		.word	.LC24
 1403 01a8 78000000 		.word	.LC34
 1404 01ac 7C000000 		.word	.LC35
 1405 01b0 00000000 		.word	__stack_chk_guard
 1406 01b4 20000000 		.word	.LC27
 1407 01b8 4C000000 		.word	.LC30
 1408 01bc 54000000 		.word	.LC31
 1409              		.cfi_endproc
 1410              	.LFE263:
 1411              		.size	shell_thread, .-shell_thread
 1412              		.global	shell_terminated
 1413              		.section	.bss.shell_terminated,"aw",%nobits
 1414              		.align	2
 1415              		.set	.LANCHOR1,. + 0
 1416              		.type	shell_terminated, %object
 1417              		.size	shell_terminated, 4
 1418              	shell_terminated:
 1419 0000 00000000 		.space	4
 1420              		.section	.data.local_commands,"aw",%progbits
 1421              		.align	2
 1422              		.set	.LANCHOR2,. + 0
 1423              		.type	local_commands, %object
 1424              		.size	local_commands, 24
 1425              	local_commands:
ARM GAS  /tmp/cc4x3UyX.s 			page 26


 1426 0000 00000000 		.word	.LC3
 1427 0004 00000000 		.word	cmd_info
 1428 0008 00000000 		.word	.LC0
 1429 000c 00000000 		.word	cmd_systime
 1430 0010 00000000 		.word	0
 1431 0014 00000000 		.word	0
 1432              		.section	.rodata.__func__.7554,"a",%progbits
 1433              		.align	2
 1434              		.set	.LANCHOR0,. + 0
 1435              		.type	__func__.7554, %object
 1436              		.size	__func__.7554, 12
 1437              	__func__.7554:
 1438 0000 63685379 		.ascii	"chSysUnlock\000"
 1438      73556E6C 
 1438      6F636B00 
 1439              		.section	.rodata._strtok.constprop.2.str1.4,"aMS",%progbits,1
 1440              		.align	2
 1441              	.LC22:
 1442 0000 200900   		.ascii	" \011\000"
 1443              		.section	.rodata.cmd_info.str1.4,"aMS",%progbits,1
 1444              		.align	2
 1445              	.LC3:
 1446 0000 696E666F 		.ascii	"info\000"
 1446      00
 1447 0005 000000   		.space	3
 1448              	.LC4:
 1449 0008 332E302E 		.ascii	"3.0.0\000"
 1449      3000
 1450 000e 0000     		.space	2
 1451              	.LC5:
 1452 0010 4B65726E 		.ascii	"Kernel:       %s\015\012\000"
 1452      656C3A20 
 1452      20202020 
 1452      20202573 
 1452      0D0A00
 1453 0023 00       		.space	1
 1454              	.LC6:
 1455 0024 47434320 		.ascii	"GCC 7.2.1 20170904 (release) [ARM/embedded-7-branch"
 1455      372E322E 
 1455      31203230 
 1455      31373039 
 1455      30342028 
 1456 0057 20726576 		.ascii	" revision 255204]\000"
 1456      6973696F 
 1456      6E203235 
 1456      35323034 
 1456      5D00
 1457 0069 000000   		.space	3
 1458              	.LC7:
 1459 006c 436F6D70 		.ascii	"Compiler:     %s\015\012\000"
 1459      696C6572 
 1459      3A202020 
 1459      20202573 
 1459      0D0A00
 1460 007f 00       		.space	1
 1461              	.LC8:
 1462 0080 41524D76 		.ascii	"ARMv7-ME\000"
ARM GAS  /tmp/cc4x3UyX.s 			page 27


 1462      372D4D45 
 1462      00
 1463 0089 000000   		.space	3
 1464              	.LC9:
 1465 008c 41726368 		.ascii	"Architecture: %s\015\012\000"
 1465      69746563 
 1465      74757265 
 1465      3A202573 
 1465      0D0A00
 1466 009f 00       		.space	1
 1467              	.LC10:
 1468 00a0 436F7274 		.ascii	"Cortex-M4F\000"
 1468      65782D4D 
 1468      344600
 1469 00ab 00       		.space	1
 1470              	.LC11:
 1471 00ac 436F7265 		.ascii	"Core Variant: %s\015\012\000"
 1471      20566172 
 1471      69616E74 
 1471      3A202573 
 1471      0D0A00
 1472 00bf 00       		.space	1
 1473              	.LC12:
 1474 00c0 41647661 		.ascii	"Advanced kernel mode\000"
 1474      6E636564 
 1474      206B6572 
 1474      6E656C20 
 1474      6D6F6465 
 1475 00d5 000000   		.space	3
 1476              	.LC13:
 1477 00d8 506F7274 		.ascii	"Port Info:    %s\015\012\000"
 1477      20496E66 
 1477      6F3A2020 
 1477      20202573 
 1477      0D0A00
 1478 00eb 00       		.space	1
 1479              	.LC14:
 1480 00ec 53544D33 		.ascii	"STM32F407 High Performance with DSP and FPU\000"
 1480      32463430 
 1480      37204869 
 1480      67682050 
 1480      6572666F 
 1481              	.LC15:
 1482 0118 506C6174 		.ascii	"Platform:     %s\015\012\000"
 1482      666F726D 
 1482      3A202020 
 1482      20202573 
 1482      0D0A00
 1483 012b 00       		.space	1
 1484              	.LC16:
 1485 012c 47435472 		.ascii	"GCTronic-MobotsEPFL e-puck V2.0_F\000"
 1485      6F6E6963 
 1485      2D4D6F62 
 1485      6F747345 
 1485      50464C20 
 1486 014e 0000     		.space	2
 1487              	.LC17:
ARM GAS  /tmp/cc4x3UyX.s 			page 28


 1488 0150 426F6172 		.ascii	"Board:        %s\015\012\000"
 1488      643A2020 
 1488      20202020 
 1488      20202573 
 1488      0D0A00
 1489 0163 00       		.space	1
 1490              	.LC18:
 1491 0164 202D2000 		.ascii	" - \000"
 1492              	.LC19:
 1493 0168 4F637420 		.ascii	"Oct 29 2023\000"
 1493      32392032 
 1493      30323300 
 1494              	.LC20:
 1495 0174 4275696C 		.ascii	"Build time:   %s%s%s\015\012\000"
 1495      64207469 
 1495      6D653A20 
 1495      20202573 
 1495      25732573 
 1496 018b 00       		.space	1
 1497              	.LC21:
 1498 018c 32313A34 		.ascii	"21:44:56\000"
 1498      343A3536 
 1498      00
 1499              		.section	.rodata.cmd_systime.str1.4,"aMS",%progbits,1
 1500              		.align	2
 1501              	.LC0:
 1502 0000 73797374 		.ascii	"systime\000"
 1502      696D6500 
 1503              	.LC1:
 1504 0008 55736167 		.ascii	"Usage: %s\015\012\000"
 1504      653A2025 
 1504      730D0A00 
 1505              	.LC2:
 1506 0014 256C750D 		.ascii	"%lu\015\012\000"
 1506      0A00
 1507              		.section	.rodata.shellGetLine.str1.4,"aMS",%progbits,1
 1508              		.align	2
 1509              	.LC23:
 1510 0000 5E4400   		.ascii	"^D\000"
 1511 0003 00       		.space	1
 1512              	.LC24:
 1513 0004 0D0A00   		.ascii	"\015\012\000"
 1514              		.section	.rodata.shell_thread.str1.4,"aMS",%progbits,1
 1515              		.align	2
 1516              	.LC25:
 1517 0000 7368656C 		.ascii	"shell\000"
 1517      6C00
 1518 0006 0000     		.space	2
 1519              	.LC26:
 1520 0008 0D0A4368 		.ascii	"\015\012ChibiOS/RT Shell\015\012\000"
 1520      6962694F 
 1520      532F5254 
 1520      20536865 
 1520      6C6C0D0A 
 1521 001d 000000   		.space	3
 1522              	.LC27:
 1523 0020 63683E20 		.ascii	"ch> \000"
ARM GAS  /tmp/cc4x3UyX.s 			page 29


 1523      00
 1524 0025 000000   		.space	3
 1525              	.LC28:
 1526 0028 0D0A6C6F 		.ascii	"\015\012logout\000"
 1526      676F7574 
 1526      00
 1527 0031 000000   		.space	3
 1528              	.LC29:
 1529 0034 746F6F20 		.ascii	"too many arguments\015\012\000"
 1529      6D616E79 
 1529      20617267 
 1529      756D656E 
 1529      74730D0A 
 1530 0049 000000   		.space	3
 1531              	.LC30:
 1532 004c 65786974 		.ascii	"exit\000"
 1532      00
 1533 0051 000000   		.space	3
 1534              	.LC31:
 1535 0054 68656C70 		.ascii	"help\000"
 1535      00
 1536 0059 000000   		.space	3
 1537              	.LC32:
 1538 005c 436F6D6D 		.ascii	"Commands: help exit \000"
 1538      616E6473 
 1538      3A206865 
 1538      6C702065 
 1538      78697420 
 1539 0071 000000   		.space	3
 1540              	.LC33:
 1541 0074 25732000 		.ascii	"%s \000"
 1542              	.LC34:
 1543 0078 257300   		.ascii	"%s\000"
 1544 007b 00       		.space	1
 1545              	.LC35:
 1546 007c 203F0D0A 		.ascii	" ?\015\012\000"
 1546      00
 1547              		.text
 1548              	.Letext0:
 1549              		.file 8 "/home/leander/uos_codes/epuck2_lab/Eclipse_e-puck2/Tools/gcc-arm-none-eabi-7-2017-q4-majo
 1550              		.file 9 "/home/leander/uos_codes/epuck2_lab/Eclipse_e-puck2/Tools/gcc-arm-none-eabi-7-2017-q4-majo
 1551              		.file 10 "/home/leander/uos_codes/epuck2_lab/Eclipse_e-puck2/Tools/gcc-arm-none-eabi-7-2017-q4-maj
 1552              		.file 11 "/home/leander/uos_codes/epuck2_lab/Eclipse_e-puck2/Tools/gcc-arm-none-eabi-7-2017-q4-maj
 1553              		.file 12 "/home/leander/uos_codes/epuck2_lab/Eclipse_e-puck2/Tools/gcc-arm-none-eabi-7-2017-q4-maj
 1554              		.file 13 "/home/leander/uos_codes/epuck2_lab/Eclipse_e-puck2/Tools/gcc-arm-none-eabi-7-2017-q4-maj
 1555              		.file 14 "../e-puck2_main-processor/ChibiOS//os/rt/ports/ARMCMx/compilers/GCC/chtypes.h"
 1556              		.file 15 "../e-puck2_main-processor/ChibiOS//os/rt/include/chsystypes.h"
 1557              		.file 16 "../e-puck2_main-processor/ChibiOS//os/rt/include/chschd.h"
 1558              		.file 17 "../e-puck2_main-processor/ChibiOS//os/ext/CMSIS/include/core_cm4.h"
 1559              		.file 18 "../e-puck2_main-processor/ChibiOS//os/ext/CMSIS/ST/system_stm32f4xx.h"
 1560              		.file 19 "../e-puck2_main-processor/ChibiOS//os/ext/CMSIS/ST/stm32f407xx.h"
 1561              		.file 20 "../e-puck2_main-processor/ChibiOS//os/rt/ports/ARMCMx/chcore.h"
 1562              		.file 21 "../e-puck2_main-processor/ChibiOS//os/rt/ports/ARMCMx/chcore_v7m.h"
 1563              		.file 22 "../e-puck2_main-processor/ChibiOS//os/rt/include/chdebug.h"
 1564              		.file 23 "../e-puck2_main-processor/ChibiOS//os/rt/include/chtm.h"
 1565              		.file 24 "../e-puck2_main-processor/ChibiOS//os/rt/include/chstats.h"
 1566              		.file 25 "../e-puck2_main-processor/ChibiOS//os/rt/include/chsem.h"
ARM GAS  /tmp/cc4x3UyX.s 			page 30


 1567              		.file 26 "../e-puck2_main-processor/ChibiOS//os/rt/include/chmtx.h"
 1568              		.file 27 "../e-puck2_main-processor/ChibiOS//os/rt/include/chqueues.h"
 1569              		.file 28 "../e-puck2_main-processor/ChibiOS//os/rt/include/chstreams.h"
 1570              		.file 29 "../e-puck2_main-processor/ChibiOS//os/hal/ports/STM32/STM32F4xx/stm32_dma.h"
 1571              		.file 30 "../e-puck2_main-processor/ChibiOS//os/hal/include/hal_ioblock.h"
 1572              		.file 31 "../e-puck2_main-processor/ChibiOS//os/hal/ports/STM32/LLD/GPIOv2/pal_lld.h"
 1573              		.file 32 "../e-puck2_main-processor/ChibiOS//os/hal/include/adc.h"
 1574              		.file 33 "../e-puck2_main-processor/ChibiOS//os/hal/ports/STM32/STM32F4xx/adc_lld.h"
 1575              		.file 34 "../e-puck2_main-processor/ChibiOS//os/hal/include/can.h"
 1576              		.file 35 "../e-puck2_main-processor/ChibiOS//os/hal/ports/STM32/LLD/can_lld.h"
 1577              		.file 36 "../e-puck2_main-processor/ChibiOS//os/hal/include/dac.h"
 1578              		.file 37 "../e-puck2_main-processor/ChibiOS//os/hal/ports/STM32/LLD/DACv1/dac_lld.h"
 1579              		.file 38 "../e-puck2_main-processor/ChibiOS//os/hal/include/ext.h"
 1580              		.file 39 "../e-puck2_main-processor/ChibiOS//os/hal/ports/STM32/LLD/ext_lld.h"
 1581              		.file 40 "../e-puck2_main-processor/ChibiOS//os/hal/include/gpt.h"
 1582              		.file 41 "../e-puck2_main-processor/ChibiOS//os/hal/ports/STM32/LLD/TIMv1/gpt_lld.h"
 1583              		.file 42 "../e-puck2_main-processor/ChibiOS//os/hal/ports/STM32/LLD/TIMv1/stm32_tim.h"
 1584              		.file 43 "../e-puck2_main-processor/ChibiOS//os/hal/include/i2c.h"
 1585              		.file 44 "../e-puck2_main-processor/ChibiOS//os/hal/ports/STM32/LLD/I2Cv1/i2c_lld.h"
 1586              		.file 45 "../e-puck2_main-processor/ChibiOS//os/hal/include/i2s.h"
 1587              		.file 46 "../e-puck2_main-processor/ChibiOS//os/hal/ports/STM32/LLD/SPIv1/i2s_lld.h"
 1588              		.file 47 "../e-puck2_main-processor/ChibiOS//os/hal/include/pwm.h"
 1589              		.file 48 "../e-puck2_main-processor/ChibiOS//os/hal/ports/STM32/LLD/TIMv1/pwm_lld.h"
 1590              		.file 49 "../e-puck2_main-processor/ChibiOS//os/hal/include/serial.h"
 1591              		.file 50 "../e-puck2_main-processor/ChibiOS//os/hal/ports/STM32/LLD/USARTv1/serial_lld.h"
 1592              		.file 51 "../e-puck2_main-processor/ChibiOS//os/hal/include/sdc.h"
 1593              		.file 52 "../e-puck2_main-processor/ChibiOS//os/hal/ports/STM32/LLD/sdc_lld.h"
 1594              		.file 53 "../e-puck2_main-processor/ChibiOS//os/hal/include/spi.h"
 1595              		.file 54 "../e-puck2_main-processor/ChibiOS//os/hal/ports/STM32/LLD/SPIv1/spi_lld.h"
 1596              		.file 55 "../e-puck2_main-processor/ChibiOS//os/hal/include/usb.h"
 1597              		.file 56 "../e-puck2_main-processor/ChibiOS//os/hal/ports/STM32/LLD/OTGv1/usb_lld.h"
 1598              		.file 57 "../e-puck2_main-processor/ChibiOS//os/hal/ports/STM32/LLD/OTGv1/stm32_otg.h"
 1599              		.file 58 "../e-puck2_main-processor/ChibiOS//os/various/shell.h"
 1600              		.file 59 "/home/leander/uos_codes/epuck2_lab/Eclipse_e-puck2/Tools/gcc-arm-none-eabi-7-2017-q4-maj
 1601              		.file 60 "<built-in>"
 1602              		.file 61 "../e-puck2_main-processor/ChibiOS//os/rt/include/chthreads.h"
 1603              		.file 62 "../e-puck2_main-processor/ChibiOS//os/rt/include/chdynamic.h"
 1604              		.file 63 "/home/leander/uos_codes/epuck2_lab/Eclipse_e-puck2/Tools/gcc-arm-none-eabi-7-2017-q4-maj
 1605              		.file 64 "/home/leander/uos_codes/epuck2_lab/Eclipse_e-puck2/Tools/gcc-arm-none-eabi-7-2017-q4-maj