ARM GAS  /tmp/ccZwzhW9.s 			page 1


   1              		.cpu cortex-m4
   2              		.eabi_attribute 27, 1
   3              		.eabi_attribute 28, 1
   4              		.eabi_attribute 20, 1
   5              		.eabi_attribute 21, 1
   6              		.eabi_attribute 23, 3
   7              		.eabi_attribute 24, 1
   8              		.eabi_attribute 25, 1
   9              		.eabi_attribute 26, 1
  10              		.eabi_attribute 30, 2
  11              		.eabi_attribute 34, 1
  12              		.eabi_attribute 18, 4
  13              		.file	"st.c"
  14              		.text
  15              	.Ltext0:
  16              		.cfi_sections	.debug_frame
  17              		.section	.text.stInit,"ax",%progbits
  18              		.align	1
  19              		.p2align 4,,15
  20              		.global	stInit
  21              		.syntax unified
  22              		.thumb
  23              		.thumb_func
  24              		.fpu fpv4-sp-d16
  25              		.type	stInit, %function
  26              	stInit:
  27              	.LFB256:
  28              		.file 1 "../e-puck2_main-processor/ChibiOS//os/hal/src/st.c"
  29              		.loc 1 60 0
  30              		.cfi_startproc
  31              		@ args = 0, pretend = 0, frame = 8
  32              		@ frame_needed = 0, uses_anonymous_args = 0
  33 0000 00B5     		push	{lr}
  34              		.cfi_def_cfa_offset 4
  35              		.cfi_offset 14, -4
  36 0002 074B     		ldr	r3, .L7
  37 0004 83B0     		sub	sp, sp, #12
  38              		.cfi_def_cfa_offset 16
  39              		.loc 1 60 0
  40 0006 1A68     		ldr	r2, [r3]
  41 0008 0192     		str	r2, [sp, #4]
  42              		.loc 1 62 0
  43 000a 019A     		ldr	r2, [sp, #4]
  44 000c 1B68     		ldr	r3, [r3]
  45 000e 9A42     		cmp	r2, r3
  46 0010 04D1     		bne	.L6
  47              		.loc 1 63 0
  48 0012 03B0     		add	sp, sp, #12
  49              		.cfi_remember_state
  50              		.cfi_def_cfa_offset 4
  51              		@ sp needed
  52 0014 5DF804EB 		ldr	lr, [sp], #4
  53              		.cfi_restore 14
  54              		.cfi_def_cfa_offset 0
  55              		.loc 1 62 0
  56 0018 FFF7FEBF 		b	st_lld_init
  57              	.LVL0:
ARM GAS  /tmp/ccZwzhW9.s 			page 2


  58              	.L6:
  59              		.cfi_restore_state
  60 001c FFF7FEFF 		bl	__stack_chk_fail
  61              	.LVL1:
  62              	.L8:
  63              		.align	2
  64              	.L7:
  65 0020 00000000 		.word	__stack_chk_guard
  66              		.cfi_endproc
  67              	.LFE256:
  68              		.size	stInit, .-stInit
  69              		.section	.text.stStartAlarm,"ax",%progbits
  70              		.align	1
  71              		.p2align 4,,15
  72              		.global	stStartAlarm
  73              		.syntax unified
  74              		.thumb
  75              		.thumb_func
  76              		.fpu fpv4-sp-d16
  77              		.type	stStartAlarm, %function
  78              	stStartAlarm:
  79              	.LFB257:
  80              		.loc 1 77 0
  81              		.cfi_startproc
  82              		@ args = 0, pretend = 0, frame = 8
  83              		@ frame_needed = 0, uses_anonymous_args = 0
  84              	.LVL2:
  85 0000 30B5     		push	{r4, r5, lr}
  86              		.cfi_def_cfa_offset 12
  87              		.cfi_offset 4, -12
  88              		.cfi_offset 5, -8
  89              		.cfi_offset 14, -4
  90 0002 0E4C     		ldr	r4, .L17
  91 0004 83B0     		sub	sp, sp, #12
  92              		.cfi_def_cfa_offset 24
  93              		.loc 1 77 0
  94 0006 2268     		ldr	r2, [r4]
  95 0008 0192     		str	r2, [sp, #4]
  96              	.LBB16:
  97              	.LBB17:
  98              		.file 2 "../e-puck2_main-processor/ChibiOS//os/hal/ports/STM32/LLD/TIMv1/st_lld.h"
  99              		.loc 2 193 0
 100 000a 4FF08043 		mov	r3, #1073741824
 101              	.LBE17:
 102              	.LBE16:
 103              		.loc 1 77 0
 104 000e 0546     		mov	r5, r0
 105              	.LBB19:
 106              	.LBB18:
 107              		.loc 2 193 0
 108 0010 DB68     		ldr	r3, [r3, #12]
 109              	.LBE18:
 110              	.LBE19:
 111              		.loc 1 79 0
 112 0012 9B07     		lsls	r3, r3, #30
 113 0014 02D5     		bpl	.L10
 114              		.loc 1 79 0 is_stmt 0 discriminator 2
ARM GAS  /tmp/ccZwzhW9.s 			page 3


 115 0016 0A48     		ldr	r0, .L17+4
 116              	.LVL3:
 117 0018 FFF7FEFF 		bl	chSysHalt
 118              	.LVL4:
 119              	.L10:
 120              	.LBB20:
 121              	.LBB21:
 122              		.loc 2 143 0 is_stmt 1
 123 001c 4FF08043 		mov	r3, #1073741824
 124              		.loc 2 145 0
 125 0020 0222     		movs	r2, #2
 126              		.loc 2 144 0
 127 0022 0021     		movs	r1, #0
 128              		.loc 2 143 0
 129 0024 5D63     		str	r5, [r3, #52]
 130              		.loc 2 144 0
 131 0026 1961     		str	r1, [r3, #16]
 132              		.loc 2 145 0
 133 0028 DA60     		str	r2, [r3, #12]
 134              	.LVL5:
 135              	.LBE21:
 136              	.LBE20:
 137              		.loc 1 82 0
 138 002a 019A     		ldr	r2, [sp, #4]
 139 002c 2368     		ldr	r3, [r4]
 140 002e 9A42     		cmp	r2, r3
 141 0030 01D1     		bne	.L16
 142 0032 03B0     		add	sp, sp, #12
 143              		.cfi_remember_state
 144              		.cfi_def_cfa_offset 12
 145              		@ sp needed
 146 0034 30BD     		pop	{r4, r5, pc}
 147              	.LVL6:
 148              	.L16:
 149              		.cfi_restore_state
 150 0036 FFF7FEFF 		bl	__stack_chk_fail
 151              	.LVL7:
 152              	.L18:
 153 003a 00BF     		.align	2
 154              	.L17:
 155 003c 00000000 		.word	__stack_chk_guard
 156 0040 00000000 		.word	.LANCHOR0
 157              		.cfi_endproc
 158              	.LFE257:
 159              		.size	stStartAlarm, .-stStartAlarm
 160              		.section	.text.stStopAlarm,"ax",%progbits
 161              		.align	1
 162              		.p2align 4,,15
 163              		.global	stStopAlarm
 164              		.syntax unified
 165              		.thumb
 166              		.thumb_func
 167              		.fpu fpv4-sp-d16
 168              		.type	stStopAlarm, %function
 169              	stStopAlarm:
 170              	.LFB258:
 171              		.loc 1 91 0
ARM GAS  /tmp/ccZwzhW9.s 			page 4


 172              		.cfi_startproc
 173              		@ args = 0, pretend = 0, frame = 8
 174              		@ frame_needed = 0, uses_anonymous_args = 0
 175 0000 00B5     		push	{lr}
 176              		.cfi_def_cfa_offset 4
 177              		.cfi_offset 14, -4
 178 0002 084B     		ldr	r3, .L23
 179 0004 83B0     		sub	sp, sp, #12
 180              		.cfi_def_cfa_offset 16
 181              		.loc 1 91 0
 182 0006 1968     		ldr	r1, [r3]
 183 0008 0191     		str	r1, [sp, #4]
 184              	.LBB22:
 185              	.LBB23:
 186              		.loc 2 155 0
 187 000a 4FF08042 		mov	r2, #1073741824
 188 000e 0021     		movs	r1, #0
 189 0010 D160     		str	r1, [r2, #12]
 190              	.LBE23:
 191              	.LBE22:
 192              		.loc 1 94 0
 193 0012 019A     		ldr	r2, [sp, #4]
 194 0014 1B68     		ldr	r3, [r3]
 195 0016 9A42     		cmp	r2, r3
 196 0018 02D1     		bne	.L22
 197 001a 03B0     		add	sp, sp, #12
 198              		.cfi_remember_state
 199              		.cfi_def_cfa_offset 4
 200              		@ sp needed
 201 001c 5DF804FB 		ldr	pc, [sp], #4
 202              	.L22:
 203              		.cfi_restore_state
 204 0020 FFF7FEFF 		bl	__stack_chk_fail
 205              	.LVL8:
 206              	.L24:
 207              		.align	2
 208              	.L23:
 209 0024 00000000 		.word	__stack_chk_guard
 210              		.cfi_endproc
 211              	.LFE258:
 212              		.size	stStopAlarm, .-stStopAlarm
 213              		.section	.text.stSetAlarm,"ax",%progbits
 214              		.align	1
 215              		.p2align 4,,15
 216              		.global	stSetAlarm
 217              		.syntax unified
 218              		.thumb
 219              		.thumb_func
 220              		.fpu fpv4-sp-d16
 221              		.type	stSetAlarm, %function
 222              	stSetAlarm:
 223              	.LFB259:
 224              		.loc 1 105 0
 225              		.cfi_startproc
 226              		@ args = 0, pretend = 0, frame = 8
 227              		@ frame_needed = 0, uses_anonymous_args = 0
 228              	.LVL9:
ARM GAS  /tmp/ccZwzhW9.s 			page 5


 229 0000 30B5     		push	{r4, r5, lr}
 230              		.cfi_def_cfa_offset 12
 231              		.cfi_offset 4, -12
 232              		.cfi_offset 5, -8
 233              		.cfi_offset 14, -4
 234 0002 0C4C     		ldr	r4, .L30
 235 0004 83B0     		sub	sp, sp, #12
 236              		.cfi_def_cfa_offset 24
 237              		.loc 1 105 0
 238 0006 2268     		ldr	r2, [r4]
 239 0008 0192     		str	r2, [sp, #4]
 240              	.LBB24:
 241              	.LBB25:
 242              		.loc 2 193 0
 243 000a 4FF08043 		mov	r3, #1073741824
 244              	.LBE25:
 245              	.LBE24:
 246              		.loc 1 105 0
 247 000e 0546     		mov	r5, r0
 248              	.LBB27:
 249              	.LBB26:
 250              		.loc 2 193 0
 251 0010 DB68     		ldr	r3, [r3, #12]
 252              	.LBE26:
 253              	.LBE27:
 254              		.loc 1 107 0
 255 0012 9B07     		lsls	r3, r3, #30
 256 0014 02D4     		bmi	.L26
 257              		.loc 1 107 0 is_stmt 0 discriminator 2
 258 0016 0848     		ldr	r0, .L30+4
 259              	.LVL10:
 260 0018 FFF7FEFF 		bl	chSysHalt
 261              	.LVL11:
 262              	.L26:
 263              	.LBB28:
 264              	.LBB29:
 265              		.loc 2 167 0 is_stmt 1
 266 001c 4FF08043 		mov	r3, #1073741824
 267 0020 5D63     		str	r5, [r3, #52]
 268              	.LVL12:
 269              	.LBE29:
 270              	.LBE28:
 271              		.loc 1 110 0
 272 0022 019A     		ldr	r2, [sp, #4]
 273 0024 2368     		ldr	r3, [r4]
 274 0026 9A42     		cmp	r2, r3
 275 0028 01D1     		bne	.L29
 276 002a 03B0     		add	sp, sp, #12
 277              		.cfi_remember_state
 278              		.cfi_def_cfa_offset 12
 279              		@ sp needed
 280 002c 30BD     		pop	{r4, r5, pc}
 281              	.LVL13:
 282              	.L29:
 283              		.cfi_restore_state
 284 002e FFF7FEFF 		bl	__stack_chk_fail
 285              	.LVL14:
ARM GAS  /tmp/ccZwzhW9.s 			page 6


 286              	.L31:
 287 0032 00BF     		.align	2
 288              	.L30:
 289 0034 00000000 		.word	__stack_chk_guard
 290 0038 00000000 		.word	.LANCHOR1
 291              		.cfi_endproc
 292              	.LFE259:
 293              		.size	stSetAlarm, .-stSetAlarm
 294              		.section	.text.stGetAlarm,"ax",%progbits
 295              		.align	1
 296              		.p2align 4,,15
 297              		.global	stGetAlarm
 298              		.syntax unified
 299              		.thumb
 300              		.thumb_func
 301              		.fpu fpv4-sp-d16
 302              		.type	stGetAlarm, %function
 303              	stGetAlarm:
 304              	.LFB260:
 305              		.loc 1 121 0
 306              		.cfi_startproc
 307              		@ args = 0, pretend = 0, frame = 8
 308              		@ frame_needed = 0, uses_anonymous_args = 0
 309 0000 10B5     		push	{r4, lr}
 310              		.cfi_def_cfa_offset 8
 311              		.cfi_offset 4, -8
 312              		.cfi_offset 14, -4
 313 0002 0B4C     		ldr	r4, .L37
 314 0004 82B0     		sub	sp, sp, #8
 315              		.cfi_def_cfa_offset 16
 316              		.loc 1 121 0
 317 0006 2268     		ldr	r2, [r4]
 318 0008 0192     		str	r2, [sp, #4]
 319              	.LBB30:
 320              	.LBB31:
 321              		.loc 2 193 0
 322 000a 4FF08043 		mov	r3, #1073741824
 323 000e DB68     		ldr	r3, [r3, #12]
 324              	.LBE31:
 325              	.LBE30:
 326              		.loc 1 123 0
 327 0010 9B07     		lsls	r3, r3, #30
 328 0012 02D4     		bmi	.L33
 329              		.loc 1 123 0 is_stmt 0 discriminator 2
 330 0014 0748     		ldr	r0, .L37+4
 331 0016 FFF7FEFF 		bl	chSysHalt
 332              	.LVL15:
 333              	.L33:
 334              	.LBB32:
 335              	.LBB33:
 336              		.loc 2 179 0 is_stmt 1
 337 001a 4FF08043 		mov	r3, #1073741824
 338 001e 586B     		ldr	r0, [r3, #52]
 339              	.LBE33:
 340              	.LBE32:
 341              		.loc 1 126 0
 342 0020 019A     		ldr	r2, [sp, #4]
ARM GAS  /tmp/ccZwzhW9.s 			page 7


 343 0022 2368     		ldr	r3, [r4]
 344 0024 9A42     		cmp	r2, r3
 345 0026 01D1     		bne	.L36
 346 0028 02B0     		add	sp, sp, #8
 347              		.cfi_remember_state
 348              		.cfi_def_cfa_offset 8
 349              		@ sp needed
 350 002a 10BD     		pop	{r4, pc}
 351              	.L36:
 352              		.cfi_restore_state
 353 002c FFF7FEFF 		bl	__stack_chk_fail
 354              	.LVL16:
 355              	.L38:
 356              		.align	2
 357              	.L37:
 358 0030 00000000 		.word	__stack_chk_guard
 359 0034 00000000 		.word	.LANCHOR2
 360              		.cfi_endproc
 361              	.LFE260:
 362              		.size	stGetAlarm, .-stGetAlarm
 363              		.section	.rodata.__func__.9845,"a",%progbits
 364              		.align	2
 365              		.set	.LANCHOR0,. + 0
 366              		.type	__func__.9845, %object
 367              		.size	__func__.9845, 13
 368              	__func__.9845:
 369 0000 73745374 		.ascii	"stStartAlarm\000"
 369      61727441 
 369      6C61726D 
 369      00
 370              		.section	.rodata.__func__.9852,"a",%progbits
 371              		.align	2
 372              		.set	.LANCHOR1,. + 0
 373              		.type	__func__.9852, %object
 374              		.size	__func__.9852, 11
 375              	__func__.9852:
 376 0000 73745365 		.ascii	"stSetAlarm\000"
 376      74416C61 
 376      726D00
 377              		.section	.rodata.__func__.9856,"a",%progbits
 378              		.align	2
 379              		.set	.LANCHOR2,. + 0
 380              		.type	__func__.9856, %object
 381              		.size	__func__.9856, 11
 382              	__func__.9856:
 383 0000 73744765 		.ascii	"stGetAlarm\000"
 383      74416C61 
 383      726D00
 384              		.text
 385              	.Letext0:
 386              		.file 3 "/home/leander/uos_codes/epuck2_lab/Eclipse_e-puck2/Tools/gcc-arm-none-eabi-7-2017-q4-majo
 387              		.file 4 "/home/leander/uos_codes/epuck2_lab/Eclipse_e-puck2/Tools/gcc-arm-none-eabi-7-2017-q4-majo
 388              		.file 5 "/home/leander/uos_codes/epuck2_lab/Eclipse_e-puck2/Tools/gcc-arm-none-eabi-7-2017-q4-majo
 389              		.file 6 "../e-puck2_main-processor/ChibiOS//os/rt/ports/ARMCMx/compilers/GCC/chtypes.h"
 390              		.file 7 "../e-puck2_main-processor/ChibiOS//os/rt/include/chsystypes.h"
 391              		.file 8 "../e-puck2_main-processor/ChibiOS//os/rt/include/chschd.h"
 392              		.file 9 "../e-puck2_main-processor/ChibiOS//os/ext/CMSIS/include/core_cm4.h"
ARM GAS  /tmp/ccZwzhW9.s 			page 8


 393              		.file 10 "../e-puck2_main-processor/ChibiOS//os/ext/CMSIS/ST/system_stm32f4xx.h"
 394              		.file 11 "../e-puck2_main-processor/ChibiOS//os/ext/CMSIS/ST/stm32f407xx.h"
 395              		.file 12 "../e-puck2_main-processor/ChibiOS//os/rt/ports/ARMCMx/chcore.h"
 396              		.file 13 "../e-puck2_main-processor/ChibiOS//os/rt/ports/ARMCMx/chcore_v7m.h"
 397              		.file 14 "../e-puck2_main-processor/ChibiOS//os/rt/include/chdebug.h"
 398              		.file 15 "../e-puck2_main-processor/ChibiOS//os/rt/include/chtm.h"
 399              		.file 16 "../e-puck2_main-processor/ChibiOS//os/rt/include/chstats.h"
 400              		.file 17 "../e-puck2_main-processor/ChibiOS//os/rt/include/chsem.h"
 401              		.file 18 "../e-puck2_main-processor/ChibiOS//os/rt/include/chmtx.h"
 402              		.file 19 "../e-puck2_main-processor/ChibiOS//os/rt/include/chregistry.h"
 403              		.file 20 "../e-puck2_main-processor/ChibiOS//os/rt/include/chevents.h"
 404              		.file 21 "../e-puck2_main-processor/ChibiOS//os/rt/include/chqueues.h"
 405              		.file 22 "../e-puck2_main-processor/ChibiOS//os/hal/ports/STM32/STM32F4xx/stm32_dma.h"
 406              		.file 23 "../e-puck2_main-processor/ChibiOS//os/hal/include/hal_ioblock.h"
 407              		.file 24 "../e-puck2_main-processor/ChibiOS//os/hal/ports/STM32/LLD/GPIOv2/pal_lld.h"
 408              		.file 25 "../e-puck2_main-processor/ChibiOS//os/hal/include/adc.h"
 409              		.file 26 "../e-puck2_main-processor/ChibiOS//os/hal/ports/STM32/STM32F4xx/adc_lld.h"
 410              		.file 27 "../e-puck2_main-processor/ChibiOS//os/hal/include/can.h"
 411              		.file 28 "../e-puck2_main-processor/ChibiOS//os/hal/ports/STM32/LLD/can_lld.h"
 412              		.file 29 "../e-puck2_main-processor/ChibiOS//os/hal/include/dac.h"
 413              		.file 30 "../e-puck2_main-processor/ChibiOS//os/hal/ports/STM32/LLD/DACv1/dac_lld.h"
 414              		.file 31 "../e-puck2_main-processor/ChibiOS//os/hal/include/ext.h"
 415              		.file 32 "../e-puck2_main-processor/ChibiOS//os/hal/ports/STM32/LLD/ext_lld.h"
 416              		.file 33 "../e-puck2_main-processor/ChibiOS//os/hal/include/gpt.h"
 417              		.file 34 "../e-puck2_main-processor/ChibiOS//os/hal/ports/STM32/LLD/TIMv1/gpt_lld.h"
 418              		.file 35 "../e-puck2_main-processor/ChibiOS//os/hal/ports/STM32/LLD/TIMv1/stm32_tim.h"
 419              		.file 36 "../e-puck2_main-processor/ChibiOS//os/hal/include/i2c.h"
 420              		.file 37 "../e-puck2_main-processor/ChibiOS//os/hal/ports/STM32/LLD/I2Cv1/i2c_lld.h"
 421              		.file 38 "../e-puck2_main-processor/ChibiOS//os/hal/include/i2s.h"
 422              		.file 39 "../e-puck2_main-processor/ChibiOS//os/hal/ports/STM32/LLD/SPIv1/i2s_lld.h"
 423              		.file 40 "../e-puck2_main-processor/ChibiOS//os/hal/include/pwm.h"
 424              		.file 41 "../e-puck2_main-processor/ChibiOS//os/hal/ports/STM32/LLD/TIMv1/pwm_lld.h"
 425              		.file 42 "../e-puck2_main-processor/ChibiOS//os/hal/include/serial.h"
 426              		.file 43 "../e-puck2_main-processor/ChibiOS//os/hal/ports/STM32/LLD/USARTv1/serial_lld.h"
 427              		.file 44 "../e-puck2_main-processor/ChibiOS//os/hal/include/sdc.h"
 428              		.file 45 "../e-puck2_main-processor/ChibiOS//os/hal/ports/STM32/LLD/sdc_lld.h"
 429              		.file 46 "../e-puck2_main-processor/ChibiOS//os/hal/include/spi.h"
 430              		.file 47 "../e-puck2_main-processor/ChibiOS//os/hal/ports/STM32/LLD/SPIv1/spi_lld.h"
 431              		.file 48 "../e-puck2_main-processor/ChibiOS//os/hal/include/usb.h"
 432              		.file 49 "../e-puck2_main-processor/ChibiOS//os/hal/ports/STM32/LLD/OTGv1/usb_lld.h"
 433              		.file 50 "../e-puck2_main-processor/ChibiOS//os/hal/ports/STM32/LLD/OTGv1/stm32_otg.h"
 434              		.file 51 "../e-puck2_main-processor/ChibiOS//os/rt/include/chsys.h"