ARM GAS  /tmp/ccWQa6e5.s 			page 1


   1              		.cpu cortex-m4
   2              		.eabi_attribute 27, 1
   3              		.eabi_attribute 28, 1
   4              		.eabi_attribute 20, 1
   5              		.eabi_attribute 21, 1
   6              		.eabi_attribute 23, 3
   7              		.eabi_attribute 24, 1
   8              		.eabi_attribute 25, 1
   9              		.eabi_attribute 26, 1
  10              		.eabi_attribute 30, 2
  11              		.eabi_attribute 34, 1
  12              		.eabi_attribute 18, 4
  13              		.file	"VL53L0X.c"
  14              		.text
  15              	.Ltext0:
  16              		.cfi_sections	.debug_frame
  17              		.section	.text.VL53L0X_init,"ax",%progbits
  18              		.align	1
  19              		.p2align 4,,15
  20              		.global	VL53L0X_init
  21              		.syntax unified
  22              		.thumb
  23              		.thumb_func
  24              		.fpu fpv4-sp-d16
  25              		.type	VL53L0X_init, %function
  26              	VL53L0X_init:
  27              	.LFB261:
  28              		.file 1 "../e-puck2_main-processor/src/sensors/VL53L0X/VL53L0X.c"
  29              		.loc 1 58 0
  30              		.cfi_startproc
  31              		@ args = 0, pretend = 0, frame = 16
  32              		@ frame_needed = 0, uses_anonymous_args = 0
  33              	.LVL0:
  34 0000 30B5     		push	{r4, r5, lr}
  35              		.cfi_def_cfa_offset 12
  36              		.cfi_offset 4, -12
  37              		.cfi_offset 5, -8
  38              		.cfi_offset 14, -4
  39 0002 164C     		ldr	r4, .L8
  40 0004 85B0     		sub	sp, sp, #20
  41              		.cfi_def_cfa_offset 32
  42              		.loc 1 58 0
  43 0006 2368     		ldr	r3, [r4]
  44 0008 0393     		str	r3, [sp, #12]
  45              	.LVL1:
  46 000a 0546     		mov	r5, r0
  47              		.loc 1 71 0
  48 000c FFF7FEFF 		bl	VL53L0X_DataInit
  49              	.LVL2:
  50              		.loc 1 74 0
  51 0010 28B1     		cbz	r0, .L6
  52              	.LVL3:
  53              	.L2:
  54              		.loc 1 102 0
  55 0012 039A     		ldr	r2, [sp, #12]
  56 0014 2368     		ldr	r3, [r4]
  57 0016 9A42     		cmp	r2, r3
ARM GAS  /tmp/ccWQa6e5.s 			page 2


  58 0018 1DD1     		bne	.L7
  59 001a 05B0     		add	sp, sp, #20
  60              		.cfi_remember_state
  61              		.cfi_def_cfa_offset 12
  62              		@ sp needed
  63 001c 30BD     		pop	{r4, r5, pc}
  64              	.LVL4:
  65              	.L6:
  66              		.cfi_restore_state
  67              		.loc 1 77 0
  68 001e 05F5AE71 		add	r1, r5, #348
  69 0022 2846     		mov	r0, r5
  70              	.LVL5:
  71 0024 FFF7FEFF 		bl	VL53L0X_GetDeviceInfo
  72              	.LVL6:
  73              		.loc 1 80 0
  74 0028 0028     		cmp	r0, #0
  75 002a F2D1     		bne	.L2
  76              		.loc 1 83 0
  77 002c 2846     		mov	r0, r5
  78              	.LVL7:
  79 002e FFF7FEFF 		bl	VL53L0X_StaticInit
  80              	.LVL8:
  81              		.loc 1 87 0
  82 0032 0028     		cmp	r0, #0
  83 0034 EDD1     		bne	.L2
  84              		.loc 1 90 0
  85 0036 0DF10502 		add	r2, sp, #5
  86 003a 02A9     		add	r1, sp, #8
  87 003c 2846     		mov	r0, r5
  88              	.LVL9:
  89 003e FFF7FEFF 		bl	VL53L0X_PerformRefSpadManagement
  90              	.LVL10:
  91              		.loc 1 94 0
  92 0042 0028     		cmp	r0, #0
  93 0044 E5D1     		bne	.L2
  94              	.LVL11:
  95              	.LBB16:
  96              	.LBB17:
  97              		.loc 1 97 0
  98 0046 2846     		mov	r0, r5
  99              	.LVL12:
 100 0048 0DF10702 		add	r2, sp, #7
 101 004c 0DF10601 		add	r1, sp, #6
 102 0050 FFF7FEFF 		bl	VL53L0X_PerformRefCalibration
 103              	.LVL13:
 104 0054 DDE7     		b	.L2
 105              	.LVL14:
 106              	.L7:
 107              	.LBE17:
 108              	.LBE16:
 109              		.loc 1 102 0
 110 0056 FFF7FEFF 		bl	__stack_chk_fail
 111              	.LVL15:
 112              	.L9:
 113 005a 00BF     		.align	2
 114              	.L8:
ARM GAS  /tmp/ccWQa6e5.s 			page 3


 115 005c 00000000 		.word	__stack_chk_guard
 116              		.cfi_endproc
 117              	.LFE261:
 118              		.size	VL53L0X_init, .-VL53L0X_init
 119              		.section	.text.VL53L0X_configAccuracy,"ax",%progbits
 120              		.align	1
 121              		.p2align 4,,15
 122              		.global	VL53L0X_configAccuracy
 123              		.syntax unified
 124              		.thumb
 125              		.thumb_func
 126              		.fpu fpv4-sp-d16
 127              		.type	VL53L0X_configAccuracy, %function
 128              	VL53L0X_configAccuracy:
 129              	.LFB262:
 130              		.loc 1 104 0
 131              		.cfi_startproc
 132              		@ args = 0, pretend = 0, frame = 8
 133              		@ frame_needed = 0, uses_anonymous_args = 0
 134              	.LVL16:
 135 0000 70B5     		push	{r4, r5, r6, lr}
 136              		.cfi_def_cfa_offset 16
 137              		.cfi_offset 4, -16
 138              		.cfi_offset 5, -12
 139              		.cfi_offset 6, -8
 140              		.cfi_offset 14, -4
 141 0002 554D     		ldr	r5, .L29
 142 0004 82B0     		sub	sp, sp, #8
 143              		.cfi_def_cfa_offset 24
 144              		.loc 1 104 0
 145 0006 0C46     		mov	r4, r1
 146 0008 2B68     		ldr	r3, [r5]
 147 000a 0193     		str	r3, [sp, #4]
 148              	.LVL17:
 149              		.loc 1 110 0
 150 000c 0122     		movs	r2, #1
 151 000e 0021     		movs	r1, #0
 152              	.LVL18:
 153              		.loc 1 104 0
 154 0010 0646     		mov	r6, r0
 155              		.loc 1 110 0
 156 0012 FFF7FEFF 		bl	VL53L0X_SetLimitCheckEnable
 157              	.LVL19:
 158              		.loc 1 114 0
 159 0016 0028     		cmp	r0, #0
 160 0018 71D0     		beq	.L28
 161              		.loc 1 121 0
 162 001a 032C     		cmp	r4, #3
 163 001c 03D8     		bhi	.L12
 164 001e DFE804F0 		tbb	[pc, r4]
 165              	.L23:
 166 0022 04       		.byte	(.L18-.L23)/2
 167 0023 51       		.byte	(.L15-.L23)/2
 168 0024 25       		.byte	(.L16-.L23)/2
 169 0025 0B       		.byte	(.L17-.L23)/2
 170              		.p2align 1
 171              	.L12:
ARM GAS  /tmp/ccWQa6e5.s 			page 4


 172              		.loc 1 195 0
 173 0026 6FF00300 		mvn	r0, #3
 174              	.LVL20:
 175              	.L18:
 176              		.loc 1 200 0
 177 002a 019A     		ldr	r2, [sp, #4]
 178 002c 2B68     		ldr	r3, [r5]
 179 002e 9A42     		cmp	r2, r3
 180 0030 40F08F80 		bne	.L25
 181 0034 02B0     		add	sp, sp, #8
 182              		.cfi_remember_state
 183              		.cfi_def_cfa_offset 16
 184              		@ sp needed
 185 0036 70BD     		pop	{r4, r5, r6, pc}
 186              	.LVL21:
 187              	.L17:
 188              		.cfi_restore_state
 189              		.loc 1 179 0
 190 0038 0028     		cmp	r0, #0
 191 003a F6D1     		bne	.L18
 192              		.loc 1 180 0
 193 003c 4FF48042 		mov	r2, #16384
 194 0040 0121     		movs	r1, #1
 195 0042 3046     		mov	r0, r6
 196              	.LVL22:
 197 0044 FFF7FEFF 		bl	VL53L0X_SetLimitCheckValue
 198              	.LVL23:
 199              		.loc 1 184 0
 200 0048 0028     		cmp	r0, #0
 201 004a EED1     		bne	.L18
 202              		.loc 1 185 0
 203 004c 0146     		mov	r1, r0
 204 004e 4FF40012 		mov	r2, #2097152
 205 0052 3046     		mov	r0, r6
 206              	.LVL24:
 207 0054 FFF7FEFF 		bl	VL53L0X_SetLimitCheckValue
 208              	.LVL25:
 209              		.loc 1 189 0
 210 0058 0028     		cmp	r0, #0
 211 005a E6D1     		bne	.L18
 212              		.loc 1 190 0
 213 005c 019A     		ldr	r2, [sp, #4]
 214 005e 2B68     		ldr	r3, [r5]
 215 0060 9A42     		cmp	r2, r3
 216 0062 76D1     		bne	.L25
 217 0064 3046     		mov	r0, r6
 218              	.LVL26:
 219 0066 47F23051 		movw	r1, #30000
 220 006a 43E0     		b	.L27
 221              	.LVL27:
 222              	.L16:
 223              		.loc 1 154 0
 224 006c 0028     		cmp	r0, #0
 225 006e DCD1     		bne	.L18
 226              		.loc 1 155 0
 227 0070 41F69912 		movw	r2, #6553
 228 0074 0121     		movs	r1, #1
ARM GAS  /tmp/ccWQa6e5.s 			page 5


 229 0076 3046     		mov	r0, r6
 230              	.LVL28:
 231 0078 FFF7FEFF 		bl	VL53L0X_SetLimitCheckValue
 232              	.LVL29:
 233              		.loc 1 159 0
 234 007c 0028     		cmp	r0, #0
 235 007e D4D1     		bne	.L18
 236              		.loc 1 160 0
 237 0080 0146     		mov	r1, r0
 238 0082 4FF47012 		mov	r2, #3932160
 239 0086 3046     		mov	r0, r6
 240              	.LVL30:
 241 0088 FFF7FEFF 		bl	VL53L0X_SetLimitCheckValue
 242              	.LVL31:
 243              		.loc 1 164 0
 244 008c 0028     		cmp	r0, #0
 245 008e CCD1     		bne	.L18
 246              		.loc 1 165 0
 247 0090 48F2E801 		movw	r1, #33000
 248 0094 3046     		mov	r0, r6
 249              	.LVL32:
 250 0096 FFF7FEFF 		bl	VL53L0X_SetMeasurementTimingBudgetMicroSeconds
 251              	.LVL33:
 252              		.loc 1 168 0
 253 009a 0028     		cmp	r0, #0
 254 009c C5D1     		bne	.L18
 255              		.loc 1 169 0
 256 009e 0146     		mov	r1, r0
 257 00a0 1222     		movs	r2, #18
 258 00a2 3046     		mov	r0, r6
 259              	.LVL34:
 260 00a4 FFF7FEFF 		bl	VL53L0X_SetVcselPulsePeriod
 261              	.LVL35:
 262              		.loc 1 172 0
 263 00a8 0028     		cmp	r0, #0
 264 00aa BED1     		bne	.L18
 265              		.loc 1 173 0
 266 00ac 019A     		ldr	r2, [sp, #4]
 267 00ae 2B68     		ldr	r3, [r5]
 268 00b0 9A42     		cmp	r2, r3
 269 00b2 4ED1     		bne	.L25
 270 00b4 3046     		mov	r0, r6
 271              	.LVL36:
 272 00b6 0E22     		movs	r2, #14
 273 00b8 0121     		movs	r1, #1
 274              		.loc 1 200 0
 275 00ba 02B0     		add	sp, sp, #8
 276              		.cfi_remember_state
 277              		.cfi_def_cfa_offset 16
 278              		@ sp needed
 279 00bc BDE87040 		pop	{r4, r5, r6, lr}
 280              		.cfi_restore 14
 281              		.cfi_restore 6
 282              		.cfi_restore 5
 283              		.cfi_restore 4
 284              		.cfi_def_cfa_offset 0
 285              	.LVL37:
ARM GAS  /tmp/ccWQa6e5.s 			page 6


 286              		.loc 1 173 0
 287 00c0 FFF7FEBF 		b	VL53L0X_SetVcselPulsePeriod
 288              	.LVL38:
 289              	.L15:
 290              		.cfi_restore_state
 291              		.loc 1 137 0
 292 00c4 0028     		cmp	r0, #0
 293 00c6 B0D1     		bne	.L18
 294              		.loc 1 138 0
 295 00c8 4FF48042 		mov	r2, #16384
 296 00cc 0121     		movs	r1, #1
 297 00ce 3046     		mov	r0, r6
 298              	.LVL39:
 299 00d0 FFF7FEFF 		bl	VL53L0X_SetLimitCheckValue
 300              	.LVL40:
 301              		.loc 1 142 0
 302 00d4 0028     		cmp	r0, #0
 303 00d6 A8D1     		bne	.L18
 304              		.loc 1 143 0
 305 00d8 0146     		mov	r1, r0
 306 00da 4FF49012 		mov	r2, #1179648
 307 00de 3046     		mov	r0, r6
 308              	.LVL41:
 309 00e0 FFF7FEFF 		bl	VL53L0X_SetLimitCheckValue
 310              	.LVL42:
 311              		.loc 1 147 0
 312 00e4 0028     		cmp	r0, #0
 313 00e6 A0D1     		bne	.L18
 314              		.loc 1 148 0
 315 00e8 019A     		ldr	r2, [sp, #4]
 316 00ea 2B68     		ldr	r3, [r5]
 317 00ec 9A42     		cmp	r2, r3
 318 00ee 30D1     		bne	.L25
 319 00f0 1A49     		ldr	r1, .L29+4
 320 00f2 3046     		mov	r0, r6
 321              	.LVL43:
 322              	.L27:
 323              		.loc 1 200 0
 324 00f4 02B0     		add	sp, sp, #8
 325              		.cfi_remember_state
 326              		.cfi_def_cfa_offset 16
 327              		@ sp needed
 328 00f6 BDE87040 		pop	{r4, r5, r6, lr}
 329              		.cfi_restore 14
 330              		.cfi_restore 6
 331              		.cfi_restore 5
 332              		.cfi_restore 4
 333              		.cfi_def_cfa_offset 0
 334              		.loc 1 190 0
 335 00fa FFF7FEBF 		b	VL53L0X_SetMeasurementTimingBudgetMicroSeconds
 336              	.LVL44:
 337              	.L28:
 338              		.cfi_restore_state
 339              		.loc 1 115 0
 340 00fe 0122     		movs	r2, #1
 341 0100 1146     		mov	r1, r2
 342 0102 3046     		mov	r0, r6
ARM GAS  /tmp/ccWQa6e5.s 			page 7


 343              	.LVL45:
 344 0104 FFF7FEFF 		bl	VL53L0X_SetLimitCheckEnable
 345              	.LVL46:
 346              		.loc 1 121 0
 347 0108 032C     		cmp	r4, #3
 348 010a 8CD8     		bhi	.L12
 349 010c 01A3     		adr	r3, .L14
 350 010e 53F824F0 		ldr	pc, [r3, r4, lsl #2]
 351 0112 00BF     		.p2align 2
 352              	.L14:
 353 0114 25010000 		.word	.L13+1
 354 0118 C5000000 		.word	.L15+1
 355 011c 6D000000 		.word	.L16+1
 356 0120 39000000 		.word	.L17+1
 357              		.p2align 1
 358              	.L13:
 359              		.loc 1 124 0
 360 0124 0028     		cmp	r0, #0
 361 0126 80D1     		bne	.L18
 362              		.loc 1 125 0
 363 0128 0122     		movs	r2, #1
 364 012a 0321     		movs	r1, #3
 365 012c 3046     		mov	r0, r6
 366              	.LVL47:
 367 012e FFF7FEFF 		bl	VL53L0X_SetLimitCheckEnable
 368              	.LVL48:
 369              		.loc 1 129 0
 370 0132 0028     		cmp	r0, #0
 371 0134 7FF479AF 		bne	.L18
 372              		.loc 1 130 0
 373 0138 019A     		ldr	r2, [sp, #4]
 374 013a 2B68     		ldr	r3, [r5]
 375 013c 9A42     		cmp	r2, r3
 376 013e 08D1     		bne	.L25
 377 0140 3046     		mov	r0, r6
 378              	.LVL49:
 379 0142 40F6D402 		movw	r2, #2260
 380 0146 0321     		movs	r1, #3
 381              		.loc 1 200 0
 382 0148 02B0     		add	sp, sp, #8
 383              		.cfi_remember_state
 384              		.cfi_def_cfa_offset 16
 385              		@ sp needed
 386 014a BDE87040 		pop	{r4, r5, r6, lr}
 387              		.cfi_restore 14
 388              		.cfi_restore 6
 389              		.cfi_restore 5
 390              		.cfi_restore 4
 391              		.cfi_def_cfa_offset 0
 392              	.LVL50:
 393              		.loc 1 130 0
 394 014e FFF7FEBF 		b	VL53L0X_SetLimitCheckValue
 395              	.LVL51:
 396              	.L25:
 397              		.cfi_restore_state
 398              		.loc 1 200 0
 399 0152 FFF7FEFF 		bl	__stack_chk_fail
ARM GAS  /tmp/ccWQa6e5.s 			page 8


 400              	.LVL52:
 401              	.L30:
 402 0156 00BF     		.align	2
 403              	.L29:
 404 0158 00000000 		.word	__stack_chk_guard
 405 015c 400D0300 		.word	200000
 406              		.cfi_endproc
 407              	.LFE262:
 408              		.size	VL53L0X_configAccuracy, .-VL53L0X_configAccuracy
 409              		.section	.text.VL53L0X_startMeasure,"ax",%progbits
 410              		.align	1
 411              		.p2align 4,,15
 412              		.global	VL53L0X_startMeasure
 413              		.syntax unified
 414              		.thumb
 415              		.thumb_func
 416              		.fpu fpv4-sp-d16
 417              		.type	VL53L0X_startMeasure, %function
 418              	VL53L0X_startMeasure:
 419              	.LFB263:
 420              		.loc 1 202 0
 421              		.cfi_startproc
 422              		@ args = 0, pretend = 0, frame = 8
 423              		@ frame_needed = 0, uses_anonymous_args = 0
 424              	.LVL53:
 425 0000 30B5     		push	{r4, r5, lr}
 426              		.cfi_def_cfa_offset 12
 427              		.cfi_offset 4, -12
 428              		.cfi_offset 5, -8
 429              		.cfi_offset 14, -4
 430 0002 0C4C     		ldr	r4, .L38
 431 0004 83B0     		sub	sp, sp, #12
 432              		.cfi_def_cfa_offset 24
 433              		.loc 1 202 0
 434 0006 2368     		ldr	r3, [r4]
 435 0008 0193     		str	r3, [sp, #4]
 436              	.LVL54:
 437 000a 0546     		mov	r5, r0
 438              		.loc 1 206 0
 439 000c FFF7FEFF 		bl	VL53L0X_SetDeviceMode
 440              	.LVL55:
 441              		.loc 1 209 0
 442 0010 019A     		ldr	r2, [sp, #4]
 443 0012 2368     		ldr	r3, [r4]
 444              		.loc 1 208 0
 445 0014 18B1     		cbz	r0, .L37
 446              	.LVL56:
 447              		.loc 1 213 0
 448 0016 9A42     		cmp	r2, r3
 449 0018 09D1     		bne	.L36
 450 001a 03B0     		add	sp, sp, #12
 451              		.cfi_remember_state
 452              		.cfi_def_cfa_offset 12
 453              		@ sp needed
 454 001c 30BD     		pop	{r4, r5, pc}
 455              	.LVL57:
 456              	.L37:
ARM GAS  /tmp/ccWQa6e5.s 			page 9


 457              		.cfi_restore_state
 458              		.loc 1 209 0
 459 001e 9A42     		cmp	r2, r3
 460 0020 05D1     		bne	.L36
 461 0022 2846     		mov	r0, r5
 462              	.LVL58:
 463              		.loc 1 213 0
 464 0024 03B0     		add	sp, sp, #12
 465              		.cfi_remember_state
 466              		.cfi_def_cfa_offset 12
 467              		@ sp needed
 468 0026 BDE83040 		pop	{r4, r5, lr}
 469              		.cfi_restore 14
 470              		.cfi_restore 5
 471              		.cfi_restore 4
 472              		.cfi_def_cfa_offset 0
 473              	.LVL59:
 474              		.loc 1 209 0
 475 002a FFF7FEBF 		b	VL53L0X_StartMeasurement
 476              	.LVL60:
 477              	.L36:
 478              		.cfi_restore_state
 479              		.loc 1 213 0
 480 002e FFF7FEFF 		bl	__stack_chk_fail
 481              	.LVL61:
 482              	.L39:
 483 0032 00BF     		.align	2
 484              	.L38:
 485 0034 00000000 		.word	__stack_chk_guard
 486              		.cfi_endproc
 487              	.LFE263:
 488              		.size	VL53L0X_startMeasure, .-VL53L0X_startMeasure
 489              		.section	.text.VL53L0XThd,"ax",%progbits
 490              		.align	1
 491              		.p2align 4,,15
 492              		.syntax unified
 493              		.thumb
 494              		.thumb_func
 495              		.fpu fpv4-sp-d16
 496              		.type	VL53L0XThd, %function
 497              	VL53L0XThd:
 498              	.LFB260:
 499              		.loc 1 23 0
 500              		.cfi_startproc
 501              		@ args = 0, pretend = 0, frame = 8
 502              		@ frame_needed = 0, uses_anonymous_args = 0
 503              	.LVL62:
 504 0000 2DE9F043 		push	{r4, r5, r6, r7, r8, r9, lr}
 505              		.cfi_def_cfa_offset 28
 506              		.cfi_offset 4, -28
 507              		.cfi_offset 5, -24
 508              		.cfi_offset 6, -20
 509              		.cfi_offset 7, -16
 510              		.cfi_offset 8, -12
 511              		.cfi_offset 9, -8
 512              		.cfi_offset 14, -4
 513              	.LBB18:
ARM GAS  /tmp/ccWQa6e5.s 			page 10


 514              	.LBB19:
 515              		.file 2 "../e-puck2_main-processor/ChibiOS//os/rt/include/chregistry.h"
 516              		.loc 2 135 0
 517 0004 224C     		ldr	r4, .L54
 518              	.LBE19:
 519              	.LBE18:
 520              		.loc 1 23 0
 521 0006 234F     		ldr	r7, .L54+4
 522              	.LBB22:
 523              	.LBB20:
 524              		.loc 2 135 0
 525 0008 A369     		ldr	r3, [r4, #24]
 526              	.LBE20:
 527              	.LBE22:
 528              		.loc 1 31 0
 529 000a 234E     		ldr	r6, .L54+8
 530              	.LBB23:
 531              	.LBB21:
 532              		.loc 2 135 0
 533 000c 234A     		ldr	r2, .L54+12
 534 000e 9A61     		str	r2, [r3, #24]
 535              	.LBE21:
 536              	.LBE23:
 537              		.loc 1 23 0
 538 0010 83B0     		sub	sp, sp, #12
 539              		.cfi_def_cfa_offset 40
 540              		.loc 1 23 0
 541 0012 3B68     		ldr	r3, [r7]
 542 0014 0193     		str	r3, [sp, #4]
 543              	.LVL63:
 544              		.loc 1 33 0
 545 0016 3046     		mov	r0, r6
 546              	.LVL64:
 547              		.loc 1 31 0
 548 0018 5223     		movs	r3, #82
 549 001a 86F8BF31 		strb	r3, [r6, #447]
 550              		.loc 1 33 0
 551 001e FFF7FEFF 		bl	VL53L0X_init
 552              	.LVL65:
 553              		.loc 1 35 0
 554 0022 50B9     		cbnz	r0, .L41
 555              		.loc 1 36 0
 556 0024 0221     		movs	r1, #2
 557 0026 3046     		mov	r0, r6
 558              	.LVL66:
 559 0028 FFF7FEFF 		bl	VL53L0X_configAccuracy
 560              	.LVL67:
 561              		.loc 1 42 0
 562 002c 1C4D     		ldr	r5, .L54+16
 563              		.loc 1 39 0
 564 002e 0121     		movs	r1, #1
 565 0030 3046     		mov	r0, r6
 566 0032 FFF7FEFF 		bl	VL53L0X_startMeasure
 567              	.LVL68:
 568              		.loc 1 42 0
 569 0036 0123     		movs	r3, #1
 570 0038 2B70     		strb	r3, [r5]
ARM GAS  /tmp/ccWQa6e5.s 			page 11


 571              	.L41:
 572              	.LBB24:
 573              	.LBB25:
 574              		.file 3 "../e-puck2_main-processor/ChibiOS//os/rt/include/chthreads.h"
 575              		.loc 3 233 0
 576 003a A369     		ldr	r3, [r4, #24]
 577              	.LBE25:
 578              	.LBE24:
 579              		.loc 1 46 0
 580 003c 93F82130 		ldrb	r3, [r3, #33]	@ zero_extendqisi2
 581 0040 5A07     		lsls	r2, r3, #29
 582 0042 19D4     		bmi	.L42
 583 0044 164D     		ldr	r5, .L54+16
 584              	.LBB27:
 585              	.LBB28:
 586              		.loc 1 216 0
 587 0046 DFF85C90 		ldr	r9, .L54+20
 588              	.LBE28:
 589              	.LBE27:
 590              		.loc 1 49 0
 591 004a DFF85C80 		ldr	r8, .L54+24
 592 004e 07E0     		b	.L44
 593              	.L43:
 594              		.loc 1 51 0
 595 0050 6420     		movs	r0, #100
 596 0052 FFF7FEFF 		bl	chThdSleep
 597              	.LVL69:
 598              	.LBB30:
 599              	.LBB26:
 600              		.loc 3 233 0
 601 0056 A369     		ldr	r3, [r4, #24]
 602              	.LBE26:
 603              	.LBE30:
 604              		.loc 1 46 0
 605 0058 93F82130 		ldrb	r3, [r3, #33]	@ zero_extendqisi2
 606 005c 5B07     		lsls	r3, r3, #29
 607 005e 0BD4     		bmi	.L42
 608              	.L44:
 609              		.loc 1 47 0
 610 0060 2B78     		ldrb	r3, [r5]	@ zero_extendqisi2
 611 0062 002B     		cmp	r3, #0
 612 0064 F4D0     		beq	.L43
 613              	.LVL70:
 614              	.LBB31:
 615              	.LBB29:
 616              		.loc 1 216 0
 617 0066 4946     		mov	r1, r9
 618 0068 0B48     		ldr	r0, .L54+8
 619 006a FFF7FEFF 		bl	VL53L0X_GetRangingMeasurementData
 620              	.LVL71:
 621              	.LBE29:
 622              	.LBE31:
 623              		.loc 1 49 0
 624 006e B6F85830 		ldrh	r3, [r6, #88]
 625 0072 A8F80030 		strh	r3, [r8]	@ movhi
 626 0076 EBE7     		b	.L43
 627              	.L42:
ARM GAS  /tmp/ccWQa6e5.s 			page 12


 628              	.LVL72:
 629              	.LBB32:
 630              	.LBB33:
 631              		.loc 1 221 0
 632 0078 019A     		ldr	r2, [sp, #4]
 633 007a 3B68     		ldr	r3, [r7]
 634 007c 9A42     		cmp	r2, r3
 635 007e 05D1     		bne	.L53
 636 0080 0548     		ldr	r0, .L54+8
 637              	.LBE33:
 638              	.LBE32:
 639              		.loc 1 55 0
 640 0082 03B0     		add	sp, sp, #12
 641              		.cfi_remember_state
 642              		.cfi_def_cfa_offset 28
 643              		@ sp needed
 644 0084 BDE8F043 		pop	{r4, r5, r6, r7, r8, r9, lr}
 645              		.cfi_restore 14
 646              		.cfi_restore 9
 647              		.cfi_restore 8
 648              		.cfi_restore 7
 649              		.cfi_restore 6
 650              		.cfi_restore 5
 651              		.cfi_restore 4
 652              		.cfi_def_cfa_offset 0
 653              	.LBB35:
 654              	.LBB34:
 655              		.loc 1 221 0
 656 0088 FFF7FEBF 		b	VL53L0X_StopMeasurement
 657              	.LVL73:
 658              	.L53:
 659              		.cfi_restore_state
 660 008c FFF7FEFF 		bl	__stack_chk_fail
 661              	.LVL74:
 662              	.L55:
 663              		.align	2
 664              	.L54:
 665 0090 00000000 		.word	ch
 666 0094 00000000 		.word	__stack_chk_guard
 667 0098 00000000 		.word	.LANCHOR0
 668 009c 00000000 		.word	.LC0
 669 00a0 00000000 		.word	.LANCHOR1
 670 00a4 50000000 		.word	.LANCHOR0+80
 671 00a8 00000000 		.word	.LANCHOR2
 672              	.LBE34:
 673              	.LBE35:
 674              		.cfi_endproc
 675              	.LFE260:
 676              		.size	VL53L0XThd, .-VL53L0XThd
 677              		.section	.text.VL53L0X_getLastMeasure,"ax",%progbits
 678              		.align	1
 679              		.p2align 4,,15
 680              		.global	VL53L0X_getLastMeasure
 681              		.syntax unified
 682              		.thumb
 683              		.thumb_func
 684              		.fpu fpv4-sp-d16
ARM GAS  /tmp/ccWQa6e5.s 			page 13


 685              		.type	VL53L0X_getLastMeasure, %function
 686              	VL53L0X_getLastMeasure:
 687              	.LFB264:
 688              		.loc 1 215 0
 689              		.cfi_startproc
 690              		@ args = 0, pretend = 0, frame = 8
 691              		@ frame_needed = 0, uses_anonymous_args = 0
 692              	.LVL75:
 693 0000 00B5     		push	{lr}
 694              		.cfi_def_cfa_offset 4
 695              		.cfi_offset 14, -4
 696 0002 084B     		ldr	r3, .L61
 697 0004 83B0     		sub	sp, sp, #12
 698              		.cfi_def_cfa_offset 16
 699              		.loc 1 215 0
 700 0006 1A68     		ldr	r2, [r3]
 701 0008 0192     		str	r2, [sp, #4]
 702              		.loc 1 216 0
 703 000a 019A     		ldr	r2, [sp, #4]
 704 000c 1B68     		ldr	r3, [r3]
 705 000e 9A42     		cmp	r2, r3
 706 0010 06D1     		bne	.L60
 707 0012 0146     		mov	r1, r0
 708 0014 5031     		adds	r1, r1, #80
 709              		.loc 1 218 0
 710 0016 03B0     		add	sp, sp, #12
 711              		.cfi_remember_state
 712              		.cfi_def_cfa_offset 4
 713              		@ sp needed
 714 0018 5DF804EB 		ldr	lr, [sp], #4
 715              		.cfi_restore 14
 716              		.cfi_def_cfa_offset 0
 717              		.loc 1 216 0
 718 001c FFF7FEBF 		b	VL53L0X_GetRangingMeasurementData
 719              	.LVL76:
 720              	.L60:
 721              		.cfi_restore_state
 722 0020 FFF7FEFF 		bl	__stack_chk_fail
 723              	.LVL77:
 724              	.L62:
 725              		.align	2
 726              	.L61:
 727 0024 00000000 		.word	__stack_chk_guard
 728              		.cfi_endproc
 729              	.LFE264:
 730              		.size	VL53L0X_getLastMeasure, .-VL53L0X_getLastMeasure
 731              		.section	.text.VL53L0X_stopMeasure,"ax",%progbits
 732              		.align	1
 733              		.p2align 4,,15
 734              		.global	VL53L0X_stopMeasure
 735              		.syntax unified
 736              		.thumb
 737              		.thumb_func
 738              		.fpu fpv4-sp-d16
 739              		.type	VL53L0X_stopMeasure, %function
 740              	VL53L0X_stopMeasure:
 741              	.LFB265:
ARM GAS  /tmp/ccWQa6e5.s 			page 14


 742              		.loc 1 220 0
 743              		.cfi_startproc
 744              		@ args = 0, pretend = 0, frame = 8
 745              		@ frame_needed = 0, uses_anonymous_args = 0
 746              	.LVL78:
 747 0000 00B5     		push	{lr}
 748              		.cfi_def_cfa_offset 4
 749              		.cfi_offset 14, -4
 750 0002 074B     		ldr	r3, .L68
 751 0004 83B0     		sub	sp, sp, #12
 752              		.cfi_def_cfa_offset 16
 753              		.loc 1 220 0
 754 0006 1A68     		ldr	r2, [r3]
 755 0008 0192     		str	r2, [sp, #4]
 756              		.loc 1 221 0
 757 000a 019A     		ldr	r2, [sp, #4]
 758 000c 1B68     		ldr	r3, [r3]
 759 000e 9A42     		cmp	r2, r3
 760 0010 04D1     		bne	.L67
 761              		.loc 1 222 0
 762 0012 03B0     		add	sp, sp, #12
 763              		.cfi_remember_state
 764              		.cfi_def_cfa_offset 4
 765              		@ sp needed
 766 0014 5DF804EB 		ldr	lr, [sp], #4
 767              		.cfi_restore 14
 768              		.cfi_def_cfa_offset 0
 769              		.loc 1 221 0
 770 0018 FFF7FEBF 		b	VL53L0X_StopMeasurement
 771              	.LVL79:
 772              	.L67:
 773              		.cfi_restore_state
 774 001c FFF7FEFF 		bl	__stack_chk_fail
 775              	.LVL80:
 776              	.L69:
 777              		.align	2
 778              	.L68:
 779 0020 00000000 		.word	__stack_chk_guard
 780              		.cfi_endproc
 781              	.LFE265:
 782              		.size	VL53L0X_stopMeasure, .-VL53L0X_stopMeasure
 783              		.section	.text.VL53L0X_start,"ax",%progbits
 784              		.align	1
 785              		.p2align 4,,15
 786              		.global	VL53L0X_start
 787              		.syntax unified
 788              		.thumb
 789              		.thumb_func
 790              		.fpu fpv4-sp-d16
 791              		.type	VL53L0X_start, %function
 792              	VL53L0X_start:
 793              	.LFB266:
 794              		.loc 1 224 0
 795              		.cfi_startproc
 796              		@ args = 0, pretend = 0, frame = 8
 797              		@ frame_needed = 0, uses_anonymous_args = 0
 798 0000 30B5     		push	{r4, r5, lr}
ARM GAS  /tmp/ccWQa6e5.s 			page 15


 799              		.cfi_def_cfa_offset 12
 800              		.cfi_offset 4, -12
 801              		.cfi_offset 5, -8
 802              		.cfi_offset 14, -4
 803              		.loc 1 226 0
 804 0002 0D4B     		ldr	r3, .L75
 805              		.loc 1 224 0
 806 0004 0D4C     		ldr	r4, .L75+4
 807              		.loc 1 226 0
 808 0006 1D78     		ldrb	r5, [r3]	@ zero_extendqisi2
 809              		.loc 1 224 0
 810 0008 2368     		ldr	r3, [r4]
 811 000a 85B0     		sub	sp, sp, #20
 812              		.cfi_def_cfa_offset 32
 813              		.loc 1 224 0
 814 000c 0393     		str	r3, [sp, #12]
 815              		.loc 1 226 0
 816 000e 5DB9     		cbnz	r5, .L70
 817              		.loc 1 230 0
 818 0010 FFF7FEFF 		bl	i2c_start
 819              	.LVL81:
 820              		.loc 1 232 0
 821 0014 0A4B     		ldr	r3, .L75+8
 822 0016 0095     		str	r5, [sp]
 823 0018 0A48     		ldr	r0, .L75+12
 824 001a 4A22     		movs	r2, #74
 825 001c 4FF45E71 		mov	r1, #888
 826 0020 FFF7FEFF 		bl	chThdCreateStatic
 827              	.LVL82:
 828 0024 084B     		ldr	r3, .L75+16
 829 0026 1860     		str	r0, [r3]
 830              	.L70:
 831              		.loc 1 237 0
 832 0028 039A     		ldr	r2, [sp, #12]
 833 002a 2368     		ldr	r3, [r4]
 834 002c 9A42     		cmp	r2, r3
 835 002e 01D1     		bne	.L74
 836 0030 05B0     		add	sp, sp, #20
 837              		.cfi_remember_state
 838              		.cfi_def_cfa_offset 12
 839              		@ sp needed
 840 0032 30BD     		pop	{r4, r5, pc}
 841              	.L74:
 842              		.cfi_restore_state
 843 0034 FFF7FEFF 		bl	__stack_chk_fail
 844              	.LVL83:
 845              	.L76:
 846              		.align	2
 847              	.L75:
 848 0038 00000000 		.word	.LANCHOR1
 849 003c 00000000 		.word	__stack_chk_guard
 850 0040 00000000 		.word	VL53L0XThd
 851 0044 00000000 		.word	.LANCHOR3
 852 0048 00000000 		.word	.LANCHOR4
 853              		.cfi_endproc
 854              	.LFE266:
 855              		.size	VL53L0X_start, .-VL53L0X_start
ARM GAS  /tmp/ccWQa6e5.s 			page 16


 856              		.section	.text.VL53L0X_stop,"ax",%progbits
 857              		.align	1
 858              		.p2align 4,,15
 859              		.global	VL53L0X_stop
 860              		.syntax unified
 861              		.thumb
 862              		.thumb_func
 863              		.fpu fpv4-sp-d16
 864              		.type	VL53L0X_stop, %function
 865              	VL53L0X_stop:
 866              	.LFB267:
 867              		.loc 1 239 0
 868              		.cfi_startproc
 869              		@ args = 0, pretend = 0, frame = 8
 870              		@ frame_needed = 0, uses_anonymous_args = 0
 871 0000 70B5     		push	{r4, r5, r6, lr}
 872              		.cfi_def_cfa_offset 16
 873              		.cfi_offset 4, -16
 874              		.cfi_offset 5, -12
 875              		.cfi_offset 6, -8
 876              		.cfi_offset 14, -4
 877              		.loc 1 240 0
 878 0002 0C4D     		ldr	r5, .L85
 879              		.loc 1 239 0
 880 0004 0C4C     		ldr	r4, .L85+4
 881              		.loc 1 240 0
 882 0006 2B78     		ldrb	r3, [r5]	@ zero_extendqisi2
 883              		.loc 1 239 0
 884 0008 2268     		ldr	r2, [r4]
 885 000a 82B0     		sub	sp, sp, #8
 886              		.cfi_def_cfa_offset 24
 887              		.loc 1 239 0
 888 000c 0192     		str	r2, [sp, #4]
 889              		.loc 1 240 0
 890 000e 4BB1     		cbz	r3, .L77
 891              		.loc 1 243 0
 892 0010 0A4E     		ldr	r6, .L85+8
 893 0012 3068     		ldr	r0, [r6]
 894 0014 FFF7FEFF 		bl	chThdTerminate
 895              	.LVL84:
 896              		.loc 1 244 0
 897 0018 3068     		ldr	r0, [r6]
 898 001a FFF7FEFF 		bl	chThdWait
 899              	.LVL85:
 900              		.loc 1 245 0
 901 001e 0023     		movs	r3, #0
 902 0020 3360     		str	r3, [r6]
 903              		.loc 1 246 0
 904 0022 2B70     		strb	r3, [r5]
 905              	.L77:
 906              		.loc 1 247 0
 907 0024 019A     		ldr	r2, [sp, #4]
 908 0026 2368     		ldr	r3, [r4]
 909 0028 9A42     		cmp	r2, r3
 910 002a 01D1     		bne	.L84
 911 002c 02B0     		add	sp, sp, #8
 912              		.cfi_remember_state
ARM GAS  /tmp/ccWQa6e5.s 			page 17


 913              		.cfi_def_cfa_offset 16
 914              		@ sp needed
 915 002e 70BD     		pop	{r4, r5, r6, pc}
 916              	.L84:
 917              		.cfi_restore_state
 918 0030 FFF7FEFF 		bl	__stack_chk_fail
 919              	.LVL86:
 920              	.L86:
 921              		.align	2
 922              	.L85:
 923 0034 00000000 		.word	.LANCHOR1
 924 0038 00000000 		.word	__stack_chk_guard
 925 003c 00000000 		.word	.LANCHOR4
 926              		.cfi_endproc
 927              	.LFE267:
 928              		.size	VL53L0X_stop, .-VL53L0X_stop
 929              		.section	.text.VL53L0X_get_dist_mm,"ax",%progbits
 930              		.align	1
 931              		.p2align 4,,15
 932              		.global	VL53L0X_get_dist_mm
 933              		.syntax unified
 934              		.thumb
 935              		.thumb_func
 936              		.fpu fpv4-sp-d16
 937              		.type	VL53L0X_get_dist_mm, %function
 938              	VL53L0X_get_dist_mm:
 939              	.LFB268:
 940              		.loc 1 249 0
 941              		.cfi_startproc
 942              		@ args = 0, pretend = 0, frame = 8
 943              		@ frame_needed = 0, uses_anonymous_args = 0
 944 0000 00B5     		push	{lr}
 945              		.cfi_def_cfa_offset 4
 946              		.cfi_offset 14, -4
 947 0002 074B     		ldr	r3, .L91
 948              		.loc 1 250 0
 949 0004 0749     		ldr	r1, .L91+4
 950              		.loc 1 249 0
 951 0006 1A68     		ldr	r2, [r3]
 952              		.loc 1 251 0
 953 0008 0888     		ldrh	r0, [r1]
 954              		.loc 1 249 0
 955 000a 83B0     		sub	sp, sp, #12
 956              		.cfi_def_cfa_offset 16
 957              		.loc 1 249 0
 958 000c 0192     		str	r2, [sp, #4]
 959              		.loc 1 251 0
 960 000e 019A     		ldr	r2, [sp, #4]
 961 0010 1B68     		ldr	r3, [r3]
 962 0012 9A42     		cmp	r2, r3
 963 0014 02D1     		bne	.L90
 964 0016 03B0     		add	sp, sp, #12
 965              		.cfi_remember_state
 966              		.cfi_def_cfa_offset 4
 967              		@ sp needed
 968 0018 5DF804FB 		ldr	pc, [sp], #4
 969              	.L90:
ARM GAS  /tmp/ccWQa6e5.s 			page 18


 970              		.cfi_restore_state
 971 001c FFF7FEFF 		bl	__stack_chk_fail
 972              	.LVL87:
 973              	.L92:
 974              		.align	2
 975              	.L91:
 976 0020 00000000 		.word	__stack_chk_guard
 977 0024 00000000 		.word	.LANCHOR2
 978              		.cfi_endproc
 979              	.LFE268:
 980              		.size	VL53L0X_get_dist_mm, .-VL53L0X_get_dist_mm
 981              		.section	.bss.VL53L0X_configured,"aw",%nobits
 982              		.set	.LANCHOR1,. + 0
 983              		.type	VL53L0X_configured, %object
 984              		.size	VL53L0X_configured, 1
 985              	VL53L0X_configured:
 986 0000 00       		.space	1
 987              		.section	.bss.device.11725,"aw",%nobits
 988              		.align	2
 989              		.set	.LANCHOR0,. + 0
 990              		.type	device.11725, %object
 991              		.size	device.11725, 448
 992              	device.11725:
 993 0000 00000000 		.space	448
 993      00000000 
 993      00000000 
 993      00000000 
 993      00000000 
 994              		.section	.bss.distThd,"aw",%nobits
 995              		.align	2
 996              		.set	.LANCHOR4,. + 0
 997              		.type	distThd, %object
 998              		.size	distThd, 4
 999              	distThd:
 1000 0000 00000000 		.space	4
 1001              		.section	.bss.dist_mm,"aw",%nobits
 1002              		.align	1
 1003              		.set	.LANCHOR2,. + 0
 1004              		.type	dist_mm, %object
 1005              		.size	dist_mm, 2
 1006              	dist_mm:
 1007 0000 0000     		.space	2
 1008              		.section	.bss.waVL53L0XThd,"aw",%nobits
 1009              		.align	3
 1010              		.set	.LANCHOR3,. + 0
 1011              		.type	waVL53L0XThd, %object
 1012              		.size	waVL53L0XThd, 888
 1013              	waVL53L0XThd:
 1014 0000 00000000 		.space	888
 1014      00000000 
 1014      00000000 
 1014      00000000 
 1014      00000000 
 1015              		.section	.rodata.VL53L0XThd.str1.4,"aMS",%progbits,1
 1016              		.align	2
 1017              	.LC0:
 1018 0000 564C3533 		.ascii	"VL53L0x Thd\000"
ARM GAS  /tmp/ccWQa6e5.s 			page 19


 1018      4C307820 
 1018      54686400 
 1019              		.text
 1020              	.Letext0:
 1021              		.file 4 "/home/leander/uos_codes/epuck2_lab/Eclipse_e-puck2/Tools/gcc-arm-none-eabi-7-2017-q4-majo
 1022              		.file 5 "/home/leander/uos_codes/epuck2_lab/Eclipse_e-puck2/Tools/gcc-arm-none-eabi-7-2017-q4-majo
 1023              		.file 6 "/home/leander/uos_codes/epuck2_lab/Eclipse_e-puck2/Tools/gcc-arm-none-eabi-7-2017-q4-majo
 1024              		.file 7 "../e-puck2_main-processor/ChibiOS//os/rt/ports/ARMCMx/compilers/GCC/chtypes.h"
 1025              		.file 8 "../e-puck2_main-processor/ChibiOS//os/rt/include/chsystypes.h"
 1026              		.file 9 "../e-puck2_main-processor/ChibiOS//os/rt/include/chschd.h"
 1027              		.file 10 "../e-puck2_main-processor/ChibiOS//os/ext/CMSIS/include/core_cm4.h"
 1028              		.file 11 "../e-puck2_main-processor/ChibiOS//os/ext/CMSIS/ST/system_stm32f4xx.h"
 1029              		.file 12 "../e-puck2_main-processor/ChibiOS//os/ext/CMSIS/ST/stm32f407xx.h"
 1030              		.file 13 "../e-puck2_main-processor/ChibiOS//os/rt/ports/ARMCMx/chcore.h"
 1031              		.file 14 "../e-puck2_main-processor/ChibiOS//os/rt/ports/ARMCMx/chcore_v7m.h"
 1032              		.file 15 "../e-puck2_main-processor/ChibiOS//os/rt/include/chdebug.h"
 1033              		.file 16 "../e-puck2_main-processor/ChibiOS//os/rt/include/chtm.h"
 1034              		.file 17 "../e-puck2_main-processor/ChibiOS//os/rt/include/chstats.h"
 1035              		.file 18 "../e-puck2_main-processor/ChibiOS//os/rt/include/chsem.h"
 1036              		.file 19 "../e-puck2_main-processor/ChibiOS//os/rt/include/chmtx.h"
 1037              		.file 20 "../e-puck2_main-processor/ChibiOS//os/rt/include/chevents.h"
 1038              		.file 21 "../e-puck2_main-processor/ChibiOS//os/rt/include/chqueues.h"
 1039              		.file 22 "../e-puck2_main-processor/ChibiOS//os/hal/ports/STM32/STM32F4xx/stm32_dma.h"
 1040              		.file 23 "../e-puck2_main-processor/ChibiOS//os/hal/include/hal_ioblock.h"
 1041              		.file 24 "../e-puck2_main-processor/ChibiOS//os/hal/ports/STM32/LLD/GPIOv2/pal_lld.h"
 1042              		.file 25 "../e-puck2_main-processor/ChibiOS//os/hal/include/adc.h"
 1043              		.file 26 "../e-puck2_main-processor/ChibiOS//os/hal/ports/STM32/STM32F4xx/adc_lld.h"
 1044              		.file 27 "../e-puck2_main-processor/ChibiOS//os/hal/include/can.h"
 1045              		.file 28 "../e-puck2_main-processor/ChibiOS//os/hal/ports/STM32/LLD/can_lld.h"
 1046              		.file 29 "../e-puck2_main-processor/ChibiOS//os/hal/include/dac.h"
 1047              		.file 30 "../e-puck2_main-processor/ChibiOS//os/hal/ports/STM32/LLD/DACv1/dac_lld.h"
 1048              		.file 31 "../e-puck2_main-processor/ChibiOS//os/hal/include/ext.h"
 1049              		.file 32 "../e-puck2_main-processor/ChibiOS//os/hal/ports/STM32/LLD/ext_lld.h"
 1050              		.file 33 "../e-puck2_main-processor/ChibiOS//os/hal/include/gpt.h"
 1051              		.file 34 "../e-puck2_main-processor/ChibiOS//os/hal/ports/STM32/LLD/TIMv1/gpt_lld.h"
 1052              		.file 35 "../e-puck2_main-processor/ChibiOS//os/hal/ports/STM32/LLD/TIMv1/stm32_tim.h"
 1053              		.file 36 "../e-puck2_main-processor/ChibiOS//os/hal/include/i2c.h"
 1054              		.file 37 "../e-puck2_main-processor/ChibiOS//os/hal/ports/STM32/LLD/I2Cv1/i2c_lld.h"
 1055              		.file 38 "../e-puck2_main-processor/ChibiOS//os/hal/include/i2s.h"
 1056              		.file 39 "../e-puck2_main-processor/ChibiOS//os/hal/ports/STM32/LLD/SPIv1/i2s_lld.h"
 1057              		.file 40 "../e-puck2_main-processor/ChibiOS//os/hal/include/pwm.h"
 1058              		.file 41 "../e-puck2_main-processor/ChibiOS//os/hal/ports/STM32/LLD/TIMv1/pwm_lld.h"
 1059              		.file 42 "../e-puck2_main-processor/ChibiOS//os/hal/include/serial.h"
 1060              		.file 43 "../e-puck2_main-processor/ChibiOS//os/hal/ports/STM32/LLD/USARTv1/serial_lld.h"
 1061              		.file 44 "../e-puck2_main-processor/ChibiOS//os/hal/include/sdc.h"
 1062              		.file 45 "../e-puck2_main-processor/ChibiOS//os/hal/ports/STM32/LLD/sdc_lld.h"
 1063              		.file 46 "../e-puck2_main-processor/ChibiOS//os/hal/include/spi.h"
 1064              		.file 47 "../e-puck2_main-processor/ChibiOS//os/hal/ports/STM32/LLD/SPIv1/spi_lld.h"
 1065              		.file 48 "../e-puck2_main-processor/ChibiOS//os/hal/include/usb.h"
 1066              		.file 49 "../e-puck2_main-processor/ChibiOS//os/hal/ports/STM32/LLD/OTGv1/usb_lld.h"
 1067              		.file 50 "../e-puck2_main-processor/ChibiOS//os/hal/ports/STM32/LLD/OTGv1/stm32_otg.h"
 1068              		.file 51 "../e-puck2_main-processor/ChibiOS//os/hal/include/serial_usb.h"
 1069              		.file 52 "../e-puck2_main-processor/src/sensors/VL53L0X/Api/core/inc/vl53l0x_types.h"
 1070              		.file 53 "../e-puck2_main-processor/src/sensors/VL53L0X/Api/core/inc/vl53l0x_device.h"
 1071              		.file 54 "../e-puck2_main-processor/src/sensors/VL53L0X/Api/core/inc/vl53l0x_def.h"
 1072              		.file 55 "/home/leander/uos_codes/epuck2_lab/Eclipse_e-puck2/Tools/gcc-arm-none-eabi-7-2017-q4-maj
 1073              		.file 56 "/home/leander/uos_codes/epuck2_lab/Eclipse_e-puck2/Tools/gcc-arm-none-eabi-7-2017-q4-maj
ARM GAS  /tmp/ccWQa6e5.s 			page 20


 1074              		.file 57 "/home/leander/uos_codes/epuck2_lab/Eclipse_e-puck2/Tools/gcc-arm-none-eabi-7-2017-q4-maj
 1075              		.file 58 "../e-puck2_main-processor/src/sensors/VL53L0X/Api/core/inc/../../platform/inc/vl53l0x_pl
 1076              		.file 59 "../e-puck2_main-processor/ChibiOS//os/various/shell.h"
 1077              		.file 60 "../e-puck2_main-processor/src/usbcfg.h"
 1078              		.file 61 "../e-puck2_main-processor/src/i2c_bus.h"
 1079              		.file 62 "../e-puck2_main-processor/src/sensors/VL53L0X/Api/core/inc/vl53l0x_api.h"